
bin\Release\SmartHome.elf:     file format elf32-avr

Sections:
Idx Name          Size      VMA       LMA       File off  Algn
  0 .data         00000116  00800200  0000651a  000065ae  2**0
                  CONTENTS, ALLOC, LOAD, DATA
  1 .text         0000651a  00000000  00000000  00000094  2**1
                  CONTENTS, ALLOC, LOAD, READONLY, CODE
  2 .bss          00000300  00800316  00800316  000066c4  2**0
                  ALLOC
  3 .comment      0000005c  00000000  00000000  000066c4  2**0
                  CONTENTS, READONLY
  4 .note.gnu.avr.deviceinfo 00000040  00000000  00000000  00006720  2**2
                  CONTENTS, READONLY
  5 .debug_info   00000bbc  00000000  00000000  00006760  2**0
                  CONTENTS, READONLY, DEBUGGING
  6 .debug_abbrev 00000b1a  00000000  00000000  0000731c  2**0
                  CONTENTS, READONLY, DEBUGGING
  7 .debug_line   0000001a  00000000  00000000  00007e36  2**0
                  CONTENTS, READONLY, DEBUGGING
  8 .debug_str    000003e6  00000000  00000000  00007e50  2**0
                  CONTENTS, READONLY, DEBUGGING

Disassembly of section .text:

00000000 <__vectors>:
       0:	0c 94 5d 02 	jmp	0x4ba	; 0x4ba <__ctors_end>
       4:	0c 94 bf 12 	jmp	0x257e	; 0x257e <__vector_1>
       8:	0c 94 ea 12 	jmp	0x25d4	; 0x25d4 <__vector_2>
       c:	0c 94 15 13 	jmp	0x262a	; 0x262a <__vector_3>
      10:	0c 94 40 13 	jmp	0x2680	; 0x2680 <__vector_4>
      14:	0c 94 6b 13 	jmp	0x26d6	; 0x26d6 <__vector_5>
      18:	0c 94 96 13 	jmp	0x272c	; 0x272c <__vector_6>
      1c:	0c 94 c1 13 	jmp	0x2782	; 0x2782 <__vector_7>
      20:	0c 94 ec 13 	jmp	0x27d8	; 0x27d8 <__vector_8>
      24:	0c 94 8e 02 	jmp	0x51c	; 0x51c <__bad_interrupt>
      28:	0c 94 8e 02 	jmp	0x51c	; 0x51c <__bad_interrupt>
      2c:	0c 94 8e 02 	jmp	0x51c	; 0x51c <__bad_interrupt>
      30:	0c 94 8e 02 	jmp	0x51c	; 0x51c <__bad_interrupt>
      34:	0c 94 c0 11 	jmp	0x2380	; 0x2380 <__vector_13>
      38:	0c 94 8e 02 	jmp	0x51c	; 0x51c <__bad_interrupt>
      3c:	0c 94 8e 02 	jmp	0x51c	; 0x51c <__bad_interrupt>
      40:	0c 94 8e 02 	jmp	0x51c	; 0x51c <__bad_interrupt>
      44:	0c 94 8e 02 	jmp	0x51c	; 0x51c <__bad_interrupt>
      48:	0c 94 8e 02 	jmp	0x51c	; 0x51c <__bad_interrupt>
      4c:	0c 94 8e 02 	jmp	0x51c	; 0x51c <__bad_interrupt>
      50:	0c 94 8e 02 	jmp	0x51c	; 0x51c <__bad_interrupt>
      54:	0c 94 8e 02 	jmp	0x51c	; 0x51c <__bad_interrupt>
      58:	0c 94 8e 02 	jmp	0x51c	; 0x51c <__bad_interrupt>
      5c:	0c 94 17 14 	jmp	0x282e	; 0x282e <__vector_23>
      60:	0c 94 8e 02 	jmp	0x51c	; 0x51c <__bad_interrupt>
      64:	0c 94 59 05 	jmp	0xab2	; 0xab2 <__vector_25>
      68:	0c 94 8f 05 	jmp	0xb1e	; 0xb1e <__vector_26>
      6c:	0c 94 8e 02 	jmp	0x51c	; 0x51c <__bad_interrupt>
      70:	0c 94 8e 02 	jmp	0x51c	; 0x51c <__bad_interrupt>
      74:	0c 94 8e 02 	jmp	0x51c	; 0x51c <__bad_interrupt>
      78:	0c 94 8e 02 	jmp	0x51c	; 0x51c <__bad_interrupt>
      7c:	0c 94 8e 02 	jmp	0x51c	; 0x51c <__bad_interrupt>
      80:	0c 94 8e 02 	jmp	0x51c	; 0x51c <__bad_interrupt>
      84:	0c 94 8e 02 	jmp	0x51c	; 0x51c <__bad_interrupt>
      88:	0c 94 8e 02 	jmp	0x51c	; 0x51c <__bad_interrupt>
      8c:	0c 94 8e 02 	jmp	0x51c	; 0x51c <__bad_interrupt>
      90:	0c 94 c3 05 	jmp	0xb86	; 0xb86 <__vector_36>
      94:	0c 94 f9 05 	jmp	0xbf2	; 0xbf2 <__vector_37>
      98:	0c 94 8e 02 	jmp	0x51c	; 0x51c <__bad_interrupt>
      9c:	0c 94 8e 02 	jmp	0x51c	; 0x51c <__bad_interrupt>
      a0:	0c 94 8e 02 	jmp	0x51c	; 0x51c <__bad_interrupt>
      a4:	0c 94 8e 02 	jmp	0x51c	; 0x51c <__bad_interrupt>
      a8:	0c 94 8e 02 	jmp	0x51c	; 0x51c <__bad_interrupt>
      ac:	0c 94 8e 02 	jmp	0x51c	; 0x51c <__bad_interrupt>
      b0:	0c 94 8e 02 	jmp	0x51c	; 0x51c <__bad_interrupt>
      b4:	0c 94 8e 02 	jmp	0x51c	; 0x51c <__bad_interrupt>
      b8:	0c 94 8e 02 	jmp	0x51c	; 0x51c <__bad_interrupt>
      bc:	0c 94 8e 02 	jmp	0x51c	; 0x51c <__bad_interrupt>
      c0:	0c 94 8e 02 	jmp	0x51c	; 0x51c <__bad_interrupt>
      c4:	0c 94 8e 02 	jmp	0x51c	; 0x51c <__bad_interrupt>
      c8:	0c 94 8e 02 	jmp	0x51c	; 0x51c <__bad_interrupt>
      cc:	0c 94 2d 06 	jmp	0xc5a	; 0xc5a <__vector_51>
      d0:	0c 94 63 06 	jmp	0xcc6	; 0xcc6 <__vector_52>
      d4:	0c 94 8e 02 	jmp	0x51c	; 0x51c <__bad_interrupt>
      d8:	0c 94 97 06 	jmp	0xd2e	; 0xd2e <__vector_54>
      dc:	0c 94 cd 06 	jmp	0xd9a	; 0xd9a <__vector_55>
      e0:	0c 94 8e 02 	jmp	0x51c	; 0x51c <__bad_interrupt>
      e4:	6f 12       	cpse	r6, r31
      e6:	39 12       	cpse	r3, r25
      e8:	41 12       	cpse	r4, r17
      ea:	4d 12       	cpse	r4, r29
      ec:	5a 12       	cpse	r5, r26
      ee:	7b 12       	cpse	r7, r27
      f0:	88 12       	cpse	r8, r24
      f2:	af 12       	cpse	r10, r31
      f4:	a5 12       	cpse	r10, r21
      f6:	a7 12       	cpse	r10, r23
      f8:	a9 12       	cpse	r10, r25
      fa:	ab 12       	cpse	r10, r27
      fc:	b1 12       	cpse	r11, r17
      fe:	b3 12       	cpse	r11, r19
     100:	8c 15       	cp	r24, r12
     102:	91 15       	cp	r25, r1
     104:	96 15       	cp	r25, r6
     106:	a0 15       	cp	r26, r0
     108:	aa 15       	cp	r26, r10
     10a:	23 16       	cp	r2, r19
     10c:	b4 15       	cp	r27, r4
     10e:	bc 15       	cp	r27, r12
     110:	c4 15       	cp	r28, r4
     112:	ce 15       	cp	r28, r14
     114:	d8 15       	cp	r29, r8
     116:	e2 15       	cp	r30, r2
     118:	f1 15       	cp	r31, r1
     11a:	fb 15       	cp	r31, r11
     11c:	23 16       	cp	r2, r19
     11e:	05 16       	cp	r0, r21
     120:	0f 16       	cp	r0, r31
     122:	19 16       	cp	r1, r25
     124:	47 16       	cp	r4, r23
     126:	4a 16       	cp	r4, r26
     128:	39 16       	cp	r3, r25
     12a:	3d 16       	cp	r3, r29
     12c:	43 16       	cp	r4, r19
     12e:	81 16       	cp	r8, r17
     130:	4e 16       	cp	r4, r30
     132:	52 16       	cp	r5, r18
     134:	58 16       	cp	r5, r24
     136:	5c 16       	cp	r5, r28
     138:	60 16       	cp	r6, r16
     13a:	66 16       	cp	r6, r22
     13c:	6a 16       	cp	r6, r26
     13e:	6e 16       	cp	r6, r30
     140:	81 16       	cp	r8, r17
     142:	74 16       	cp	r7, r20
     144:	78 16       	cp	r7, r24
     146:	7c 16       	cp	r7, r28

00000148 <__trampolines_start>:
     148:	0c 94 af 12 	jmp	0x255e	; 0x255e <detachInterrupt+0x34>
     14c:	0c 94 60 16 	jmp	0x2cc0	; 0x2cc0 <turnOffPWM+0x68>
     150:	0c 94 e1 03 	jmp	0x7c2	; 0x7c2 <_ZN14HardwareSerial4readEv>
     154:	0c 94 d3 03 	jmp	0x7a6	; 0x7a6 <_ZN14HardwareSerial4peekEv>
     158:	0c 94 4e 16 	jmp	0x2c9c	; 0x2c9c <turnOffPWM+0x44>
     15c:	0c 94 b4 15 	jmp	0x2b68	; 0x2b68 <analogWrite+0xa2>
     160:	0c 94 ce 15 	jmp	0x2b9c	; 0x2b9c <analogWrite+0xd6>
     164:	0c 94 8c 15 	jmp	0x2b18	; 0x2b18 <analogWrite+0x52>
     168:	0c 94 bc 15 	jmp	0x2b78	; 0x2b78 <analogWrite+0xb2>
     16c:	0c 94 a5 12 	jmp	0x254a	; 0x254a <detachInterrupt+0x20>
     170:	0c 94 6f 12 	jmp	0x24de	; 0x24de <attachInterrupt+0x9c>
     174:	0c 94 ce 07 	jmp	0xf9c	; 0xf9c <_ZN5Print5writeEPKhj>
     178:	0c 94 a7 12 	jmp	0x254e	; 0x254e <detachInterrupt+0x24>
     17c:	0c 94 b3 12 	jmp	0x2566	; 0x2566 <detachInterrupt+0x3c>
     180:	0c 94 a9 12 	jmp	0x2552	; 0x2552 <detachInterrupt+0x28>
     184:	0c 94 0f 16 	jmp	0x2c1e	; 0x2c1e <analogWrite+0x158>
     188:	0c 94 a0 15 	jmp	0x2b40	; 0x2b40 <analogWrite+0x7a>
     18c:	0c 94 b9 05 	jmp	0xb72	; 0xb72 <_Z17Serial0_availablev>
     190:	0c 94 90 02 	jmp	0x520	; 0x520 <__cxa_pure_virtual>
     194:	0c 94 66 16 	jmp	0x2ccc	; 0x2ccc <turnOffPWM+0x74>
     198:	0c 94 5a 12 	jmp	0x24b4	; 0x24b4 <attachInterrupt+0x72>
     19c:	0c 94 81 16 	jmp	0x2d02	; 0x2d02 <turnOffPWM+0xaa>
     1a0:	0c 94 3c 24 	jmp	0x4878	; 0x4878 <_GLOBAL__sub_I___vector_51>
     1a4:	0c 94 23 06 	jmp	0xc46	; 0xc46 <_Z17Serial1_availablev>
     1a8:	0c 94 de 23 	jmp	0x47bc	; 0x47bc <_ZN5Print17availableForWriteEv>
     1ac:	0c 94 e2 15 	jmp	0x2bc4	; 0x2bc4 <analogWrite+0xfe>
     1b0:	0c 94 63 04 	jmp	0x8c6	; 0x8c6 <_ZN14HardwareSerial5writeEh>
     1b4:	0c 94 d8 15 	jmp	0x2bb0	; 0x2bb0 <analogWrite+0xea>
     1b8:	0c 94 58 16 	jmp	0x2cb0	; 0x2cb0 <turnOffPWM+0x58>
     1bc:	0c 94 39 16 	jmp	0x2c72	; 0x2c72 <turnOffPWM+0x1a>
     1c0:	0c 94 91 15 	jmp	0x2b22	; 0x2b22 <analogWrite+0x5c>
     1c4:	0c 94 5c 16 	jmp	0x2cb8	; 0x2cb8 <turnOffPWM+0x60>
     1c8:	0c 94 b0 04 	jmp	0x960	; 0x960 <_ZN14HardwareSerial5flushEv>
     1cc:	0c 94 6e 16 	jmp	0x2cdc	; 0x2cdc <turnOffPWM+0x84>
     1d0:	0c 94 6a 16 	jmp	0x2cd4	; 0x2cd4 <turnOffPWM+0x7c>
     1d4:	0c 94 7b 12 	jmp	0x24f6	; 0x24f6 <attachInterrupt+0xb4>
     1d8:	0c 94 fb 15 	jmp	0x2bf6	; 0x2bf6 <analogWrite+0x130>
     1dc:	0c 94 74 16 	jmp	0x2ce8	; 0x2ce8 <turnOffPWM+0x90>
     1e0:	0c 94 02 07 	jmp	0xe04	; 0xe04 <_ZNK9IPAddress7printToER5Print>
     1e4:	0c 94 05 16 	jmp	0x2c0a	; 0x2c0a <analogWrite+0x144>
     1e8:	0c 94 4a 16 	jmp	0x2c94	; 0x2c94 <turnOffPWM+0x3c>
     1ec:	0c 94 e2 23 	jmp	0x47c4	; 0x47c4 <_GLOBAL__sub_I___vector_25>
     1f0:	0c 94 47 16 	jmp	0x2c8e	; 0x2c8e <turnOffPWM+0x36>
     1f4:	0c 94 39 12 	jmp	0x2472	; 0x2472 <attachInterrupt+0x30>
     1f8:	0c 94 88 12 	jmp	0x2510	; 0x2510 <attachInterrupt+0xce>
     1fc:	0c 94 52 16 	jmp	0x2ca4	; 0x2ca4 <turnOffPWM+0x4c>
     200:	0c 94 04 04 	jmp	0x808	; 0x808 <_Z14serialEventRunv>
     204:	0c 94 23 16 	jmp	0x2c46	; 0x2c46 <analogWrite+0x180>
     208:	0c 94 f1 15 	jmp	0x2be2	; 0x2be2 <analogWrite+0x11c>
     20c:	0c 94 41 12 	jmp	0x2482	; 0x2482 <attachInterrupt+0x40>
     210:	0c 94 ab 12 	jmp	0x2556	; 0x2556 <detachInterrupt+0x2c>
     214:	0c 94 0f 24 	jmp	0x481e	; 0x481e <_GLOBAL__sub_I___vector_36>
     218:	0c 94 7c 16 	jmp	0x2cf8	; 0x2cf8 <turnOffPWM+0xa0>
     21c:	0c 94 c4 15 	jmp	0x2b88	; 0x2b88 <analogWrite+0xc2>
     220:	0c 94 b1 12 	jmp	0x2562	; 0x2562 <detachInterrupt+0x38>
     224:	0c 94 e1 23 	jmp	0x47c2	; 0x47c2 <_ZN5Print5flushEv>
     228:	0c 94 20 12 	jmp	0x2440	; 0x2440 <nothing>
     22c:	0c 94 19 16 	jmp	0x2c32	; 0x2c32 <analogWrite+0x16c>
     230:	0c 94 96 15 	jmp	0x2b2c	; 0x2b2c <analogWrite+0x66>
     234:	0c 94 8d 06 	jmp	0xd1a	; 0xd1a <_Z17Serial2_availablev>
     238:	0c 94 3d 16 	jmp	0x2c7a	; 0x2c7a <turnOffPWM+0x22>
     23c:	0c 94 f5 03 	jmp	0x7ea	; 0x7ea <_ZN14HardwareSerial17availableForWriteEv>
     240:	0c 94 69 24 	jmp	0x48d2	; 0x48d2 <_GLOBAL__sub_I___vector_54>
     244:	0c 94 f7 06 	jmp	0xdee	; 0xdee <_Z17Serial3_availablev>
     248:	0c 94 43 16 	jmp	0x2c86	; 0x2c86 <turnOffPWM+0x2e>
     24c:	0c 94 4d 12 	jmp	0x249a	; 0x249a <attachInterrupt+0x58>
     250:	0c 94 78 16 	jmp	0x2cf0	; 0x2cf0 <turnOffPWM+0x98>
     254:	0c 94 c7 03 	jmp	0x78e	; 0x78e <_ZN14HardwareSerial9availableEv>
     258:	0c 94 aa 15 	jmp	0x2b54	; 0x2b54 <analogWrite+0x8e>

0000025c <__trampolines_end>:
     25c:	4e 41       	sbci	r20, 0x1E	; 30
     25e:	4e 49       	Address 0x0000025e is out of bounds.
.word	0xffff	; ????

0000025f <pstr_inity>:
     25f:	49 4e 49 54 59                                      INITY

00000264 <pstr_inf>:
     264:	49 4e 46                                            INF

00000267 <pwr_m10>:
     267:	cd cc cc 3d 0a d7 23 3c 17 b7 d1 38 77 cc 2b 32     ...=..#<...8w.+2
     277:	95 95 e6 24 1f b1 4f 0a                             ...$..O.

0000027f <pwr_p10>:
     27f:	00 00 20 41 00 00 c8 42 00 40 1c 46 20 bc be 4c     .. A...B.@.F ..L
     28f:	ca 1b 0e 5a ae c5 9d 74 00 40 7a 10 f3 5a 00 a0     ...Z...t.@z..Z..
     29f:	72 4e 18 09 00 10 a5 d4 e8 00 00 e8 76 48 17 00     rN..........vH..
     2af:	00 e4 0b 54 02 00 00 ca 9a 3b 00 00 00 e1 f5 05     ...T.....;......
     2bf:	00 00 80 96 98 00 00 00 40 42 0f 00 00 00 a0 86     ........@B......
     2cf:	01 00 00 00 10 27 00 00 00 00 e8 03 00 00 00 00     .....'..........
     2df:	64 00 00 00 00 00 0a 00 00 00 00 00 01 00 00 00     d...............
     2ef:	00 00 2c 76 d8 88 dc 67 4f 08 23 df c1 df ae 59     ..,v...gO.#....Y
     2ff:	e1 b1 b7 96 e5 e3 e4 53 c6 3a e6 51 99 76 96 e8     .......S.:.Q.v..
     30f:	e6 c2 84 26 eb 89 8c 9b 62 ed 40 7c 6f fc ef bc     ...&....b.@|o...
     31f:	9c 9f 40 f2 ba a5 6f a5 f4 90 05 5a 2a f7 5c 93     ..@...o....Z*.\.
     32f:	6b 6c f9 67 6d c1 1b fc e0 e4 0d 47 fe f5 20 e6     kl.gm......G.. .
     33f:	b5 00 d0 ed 90 2e 03 00 94 35 77 05 00 80 84 1e     .........5w.....
     34f:	08 00 00 20 4e 0a 00 00 00 c8 0c 33 33 33 33 0f     ... N......3333.
     35f:	98 6e 12 83 11 41 ef 8d 21 14 89 3b e6 55 16 cf     .n...A..!..;.U..
     36f:	fe e6 db 18 d1 84 4b 38 1b f7 7c 1d 90 1d a4 bb     ......K8..|.....
     37f:	e4 24 20 32 84 72 5e 22 81 00 c9 f1 24 ec a1 e5     .$ 2.r^"....$...
     38f:	3d 27                                               ='

00000391 <_ZL21tone_pin_to_timer_PGM>:
     391:	02                                                  .

00000392 <digital_pin_to_timer_PGM>:
     392:	00 00 0a 0b 02 09 0c 0d 0e 08 07 03 04 01 00 00     ................
	...
     3be:	12 11 10 00 00 00 00 00 00 00 00 00 00 00 00 00     ................
	...

000003d8 <digital_pin_to_bit_mask_PGM>:
     3d8:	01 02 10 20 20 08 08 10 20 40 10 20 40 80 02 01     ...  ... @. @...
     3e8:	02 01 08 04 02 01 01 02 04 08 10 20 40 80 80 40     ........... @..@
     3f8:	20 10 08 04 02 01 80 04 02 01 80 40 20 10 08 04      ..........@ ...
     408:	02 01 08 04 02 01 01 02 04 08 10 20 40 80 01 02     ........... @...
     418:	04 08 10 20 40 80                                   ... @.

0000041e <digital_pin_to_port_PGM>:
     41e:	05 05 05 05 07 05 08 08 08 08 02 02 02 02 0a 0a     ................
     42e:	08 08 04 04 04 04 01 01 01 01 01 01 01 01 03 03     ................
     43e:	03 03 03 03 03 03 04 07 07 07 0c 0c 0c 0c 0c 0c     ................
     44e:	0c 0c 02 02 02 02 06 06 06 06 06 06 06 06 0b 0b     ................
     45e:	0b 0b 0b 0b 0b 0b                                   ......

00000464 <port_to_input_PGM>:
     464:	00 00 20 00 23 00 26 00 29 00 2c 00 2f 00 32 00     .. .#.&.).,./.2.
     474:	00 01 00 00 03 01 06 01 09 01                       ..........

0000047e <port_to_output_PGM>:
     47e:	00 00 22 00 25 00 28 00 2b 00 2e 00 31 00 34 00     ..".%.(.+...1.4.
     48e:	02 01 00 00 05 01 08 01 0b 01                       ..........

00000498 <port_to_mode_PGM>:
     498:	00 00 21 00 24 00 27 00 2a 00 2d 00 30 00 33 00     ..!.$.'.*.-.0.3.
     4a8:	01 01 00 00 04 01 07 01 0a 01                       ..........

000004b2 <__ctors_start>:
     4b2:	e2 23       	and	r30, r18
     4b4:	0f 24       	eor	r0, r15
     4b6:	3c 24       	eor	r3, r12
     4b8:	69 24       	eor	r6, r9

000004ba <__ctors_end>:
     4ba:	11 24       	eor	r1, r1
     4bc:	1f be       	out	0x3f, r1	; 63
     4be:	cf ef       	ldi	r28, 0xFF	; 255
     4c0:	d1 e2       	ldi	r29, 0x21	; 33
     4c2:	de bf       	out	0x3e, r29	; 62
     4c4:	cd bf       	out	0x3d, r28	; 61
     4c6:	00 e0       	ldi	r16, 0x00	; 0
     4c8:	0c bf       	out	0x3c, r16	; 60

000004ca <__do_copy_data>:
     4ca:	13 e0       	ldi	r17, 0x03	; 3
     4cc:	a0 e0       	ldi	r26, 0x00	; 0
     4ce:	b2 e0       	ldi	r27, 0x02	; 2
     4d0:	ea e1       	ldi	r30, 0x1A	; 26
     4d2:	f5 e6       	ldi	r31, 0x65	; 101
     4d4:	00 e0       	ldi	r16, 0x00	; 0
     4d6:	0b bf       	out	0x3b, r16	; 59
     4d8:	02 c0       	rjmp	.+4      	; 0x4de <__do_copy_data+0x14>
     4da:	07 90       	elpm	r0, Z+
     4dc:	0d 92       	st	X+, r0
     4de:	a6 31       	cpi	r26, 0x16	; 22
     4e0:	b1 07       	cpc	r27, r17
     4e2:	d9 f7       	brne	.-10     	; 0x4da <__do_copy_data+0x10>

000004e4 <__do_clear_bss>:
     4e4:	26 e0       	ldi	r18, 0x06	; 6
     4e6:	a6 e1       	ldi	r26, 0x16	; 22
     4e8:	b3 e0       	ldi	r27, 0x03	; 3
     4ea:	01 c0       	rjmp	.+2      	; 0x4ee <.do_clear_bss_start>

000004ec <.do_clear_bss_loop>:
     4ec:	1d 92       	st	X+, r1

000004ee <.do_clear_bss_start>:
     4ee:	a6 31       	cpi	r26, 0x16	; 22
     4f0:	b2 07       	cpc	r27, r18
     4f2:	e1 f7       	brne	.-8      	; 0x4ec <.do_clear_bss_loop>

000004f4 <__do_global_ctors>:
     4f4:	12 e0       	ldi	r17, 0x02	; 2
     4f6:	cd e5       	ldi	r28, 0x5D	; 93
     4f8:	d2 e0       	ldi	r29, 0x02	; 2
     4fa:	00 e0       	ldi	r16, 0x00	; 0
     4fc:	06 c0       	rjmp	.+12     	; 0x50a <__do_global_ctors+0x16>
     4fe:	21 97       	sbiw	r28, 0x01	; 1
     500:	01 09       	sbc	r16, r1
     502:	80 2f       	mov	r24, r16
     504:	fe 01       	movw	r30, r28
     506:	0e 94 14 25 	call	0x4a28	; 0x4a28 <__tablejump2__>
     50a:	c9 35       	cpi	r28, 0x59	; 89
     50c:	d1 07       	cpc	r29, r17
     50e:	80 e0       	ldi	r24, 0x00	; 0
     510:	08 07       	cpc	r16, r24
     512:	a9 f7       	brne	.-22     	; 0x4fe <__do_global_ctors+0xa>
     514:	0e 94 97 24 	call	0x492e	; 0x492e <main>
     518:	0c 94 8b 32 	jmp	0x6516	; 0x6516 <_exit>

0000051c <__bad_interrupt>:
     51c:	0c 94 00 00 	jmp	0	; 0x0 <__vectors>

00000520 <__cxa_pure_virtual>:
     520:	0e 94 3a 2a 	call	0x5474	; 0x5474 <abort>

00000524 <__cxa_deleted_virtual>:
     524:	0e 94 3a 2a 	call	0x5474	; 0x5474 <abort>

00000528 <_ZN3dht4readEh>:
     528:	4f 92       	push	r4
     52a:	5f 92       	push	r5
     52c:	6f 92       	push	r6
     52e:	7f 92       	push	r7
     530:	9f 92       	push	r9
     532:	af 92       	push	r10
     534:	bf 92       	push	r11
     536:	cf 92       	push	r12
     538:	df 92       	push	r13
     53a:	ef 92       	push	r14
     53c:	ff 92       	push	r15
     53e:	0f 93       	push	r16
     540:	1f 93       	push	r17
     542:	cf 93       	push	r28
     544:	df 93       	push	r29
     546:	8c 01       	movw	r16, r24
     548:	c6 2f       	mov	r28, r22
     54a:	fc 01       	movw	r30, r24
     54c:	10 86       	std	Z+8, r1	; 0x08
     54e:	11 86       	std	Z+9, r1	; 0x09
     550:	12 86       	std	Z+10, r1	; 0x0a
     552:	13 86       	std	Z+11, r1	; 0x0b
     554:	14 86       	std	Z+12, r1	; 0x0c
     556:	61 e0       	ldi	r22, 0x01	; 1
     558:	8c 2f       	mov	r24, r28
     55a:	0e 94 82 16 	call	0x2d04	; 0x2d04 <pinMode>
     55e:	60 e0       	ldi	r22, 0x00	; 0
     560:	8c 2f       	mov	r24, r28
     562:	0e 94 be 16 	call	0x2d7c	; 0x2d7c <digitalWrite>
     566:	64 e1       	ldi	r22, 0x14	; 20
     568:	70 e0       	ldi	r23, 0x00	; 0
     56a:	80 e0       	ldi	r24, 0x00	; 0
     56c:	90 e0       	ldi	r25, 0x00	; 0
     56e:	0e 94 92 14 	call	0x2924	; 0x2924 <delay>
     572:	61 e0       	ldi	r22, 0x01	; 1
     574:	8c 2f       	mov	r24, r28
     576:	0e 94 be 16 	call	0x2d7c	; 0x2d7c <digitalWrite>
     57a:	88 e2       	ldi	r24, 0x28	; 40
     57c:	90 e0       	ldi	r25, 0x00	; 0
     57e:	0e 94 ce 14 	call	0x299c	; 0x299c <delayMicroseconds>
     582:	60 e0       	ldi	r22, 0x00	; 0
     584:	8c 2f       	mov	r24, r28
     586:	0e 94 82 16 	call	0x2d04	; 0x2d04 <pinMode>
     58a:	51 e1       	ldi	r21, 0x11	; 17
     58c:	e5 2e       	mov	r14, r21
     58e:	57 e2       	ldi	r21, 0x27	; 39
     590:	f5 2e       	mov	r15, r21
     592:	8c 2f       	mov	r24, r28
     594:	0e 94 ed 16 	call	0x2dda	; 0x2dda <digitalRead>
     598:	89 2b       	or	r24, r25
     59a:	39 f4       	brne	.+14     	; 0x5aa <_ZN3dht4readEh+0x82>
     59c:	f1 e0       	ldi	r31, 0x01	; 1
     59e:	ef 1a       	sub	r14, r31
     5a0:	f1 08       	sbc	r15, r1
     5a2:	b9 f7       	brne	.-18     	; 0x592 <_ZN3dht4readEh+0x6a>
     5a4:	8e ef       	ldi	r24, 0xFE	; 254
     5a6:	9f ef       	ldi	r25, 0xFF	; 255
     5a8:	5b c0       	rjmp	.+182    	; 0x660 <_ZN3dht4readEh+0x138>
     5aa:	41 e1       	ldi	r20, 0x11	; 17
     5ac:	e4 2e       	mov	r14, r20
     5ae:	47 e2       	ldi	r20, 0x27	; 39
     5b0:	f4 2e       	mov	r15, r20
     5b2:	8c 2f       	mov	r24, r28
     5b4:	0e 94 ed 16 	call	0x2dda	; 0x2dda <digitalRead>
     5b8:	01 97       	sbiw	r24, 0x01	; 1
     5ba:	29 f4       	brne	.+10     	; 0x5c6 <_ZN3dht4readEh+0x9e>
     5bc:	81 e0       	ldi	r24, 0x01	; 1
     5be:	e8 1a       	sub	r14, r24
     5c0:	f1 08       	sbc	r15, r1
     5c2:	b9 f7       	brne	.-18     	; 0x5b2 <_ZN3dht4readEh+0x8a>
     5c4:	ef cf       	rjmp	.-34     	; 0x5a4 <_ZN3dht4readEh+0x7c>
     5c6:	28 e2       	ldi	r18, 0x28	; 40
     5c8:	e2 2e       	mov	r14, r18
     5ca:	f1 2c       	mov	r15, r1
     5cc:	91 2c       	mov	r9, r1
     5ce:	d7 e0       	ldi	r29, 0x07	; 7
     5d0:	aa 24       	eor	r10, r10
     5d2:	a3 94       	inc	r10
     5d4:	b1 2c       	mov	r11, r1
     5d6:	91 e1       	ldi	r25, 0x11	; 17
     5d8:	c9 2e       	mov	r12, r25
     5da:	97 e2       	ldi	r25, 0x27	; 39
     5dc:	d9 2e       	mov	r13, r25
     5de:	8c 2f       	mov	r24, r28
     5e0:	0e 94 ed 16 	call	0x2dda	; 0x2dda <digitalRead>
     5e4:	89 2b       	or	r24, r25
     5e6:	29 f4       	brne	.+10     	; 0x5f2 <_ZN3dht4readEh+0xca>
     5e8:	e1 e0       	ldi	r30, 0x01	; 1
     5ea:	ce 1a       	sub	r12, r30
     5ec:	d1 08       	sbc	r13, r1
     5ee:	b9 f7       	brne	.-18     	; 0x5de <_ZN3dht4readEh+0xb6>
     5f0:	d9 cf       	rjmp	.-78     	; 0x5a4 <_ZN3dht4readEh+0x7c>
     5f2:	0e 94 6d 14 	call	0x28da	; 0x28da <micros>
     5f6:	2b 01       	movw	r4, r22
     5f8:	3c 01       	movw	r6, r24
     5fa:	81 e1       	ldi	r24, 0x11	; 17
     5fc:	c8 2e       	mov	r12, r24
     5fe:	87 e2       	ldi	r24, 0x27	; 39
     600:	d8 2e       	mov	r13, r24
     602:	8c 2f       	mov	r24, r28
     604:	0e 94 ed 16 	call	0x2dda	; 0x2dda <digitalRead>
     608:	01 97       	sbiw	r24, 0x01	; 1
     60a:	29 f4       	brne	.+10     	; 0x616 <_ZN3dht4readEh+0xee>
     60c:	f1 e0       	ldi	r31, 0x01	; 1
     60e:	cf 1a       	sub	r12, r31
     610:	d1 08       	sbc	r13, r1
     612:	b9 f7       	brne	.-18     	; 0x602 <_ZN3dht4readEh+0xda>
     614:	c7 cf       	rjmp	.-114    	; 0x5a4 <_ZN3dht4readEh+0x7c>
     616:	0e 94 6d 14 	call	0x28da	; 0x28da <micros>
     61a:	dc 01       	movw	r26, r24
     61c:	cb 01       	movw	r24, r22
     61e:	84 19       	sub	r24, r4
     620:	95 09       	sbc	r25, r5
     622:	a6 09       	sbc	r26, r6
     624:	b7 09       	sbc	r27, r7
     626:	89 97       	sbiw	r24, 0x29	; 41
     628:	a1 05       	cpc	r26, r1
     62a:	b1 05       	cpc	r27, r1
     62c:	60 f0       	brcs	.+24     	; 0x646 <_ZN3dht4readEh+0x11e>
     62e:	f8 01       	movw	r30, r16
     630:	e9 0d       	add	r30, r9
     632:	f1 1d       	adc	r31, r1
     634:	20 85       	ldd	r18, Z+8	; 0x08
     636:	c5 01       	movw	r24, r10
     638:	0d 2e       	mov	r0, r29
     63a:	01 c0       	rjmp	.+2      	; 0x63e <_ZN3dht4readEh+0x116>
     63c:	88 0f       	add	r24, r24
     63e:	0a 94       	dec	r0
     640:	ea f7       	brpl	.-6      	; 0x63c <_ZN3dht4readEh+0x114>
     642:	82 2b       	or	r24, r18
     644:	80 87       	std	Z+8, r24	; 0x08
     646:	d1 11       	cpse	r29, r1
     648:	03 c0       	rjmp	.+6      	; 0x650 <_ZN3dht4readEh+0x128>
     64a:	93 94       	inc	r9
     64c:	d7 e0       	ldi	r29, 0x07	; 7
     64e:	01 c0       	rjmp	.+2      	; 0x652 <_ZN3dht4readEh+0x12a>
     650:	d1 50       	subi	r29, 0x01	; 1
     652:	81 e0       	ldi	r24, 0x01	; 1
     654:	e8 1a       	sub	r14, r24
     656:	f1 08       	sbc	r15, r1
     658:	09 f0       	breq	.+2      	; 0x65c <_ZN3dht4readEh+0x134>
     65a:	bd cf       	rjmp	.-134    	; 0x5d6 <_ZN3dht4readEh+0xae>
     65c:	80 e0       	ldi	r24, 0x00	; 0
     65e:	90 e0       	ldi	r25, 0x00	; 0
     660:	df 91       	pop	r29
     662:	cf 91       	pop	r28
     664:	1f 91       	pop	r17
     666:	0f 91       	pop	r16
     668:	ff 90       	pop	r15
     66a:	ef 90       	pop	r14
     66c:	df 90       	pop	r13
     66e:	cf 90       	pop	r12
     670:	bf 90       	pop	r11
     672:	af 90       	pop	r10
     674:	9f 90       	pop	r9
     676:	7f 90       	pop	r7
     678:	6f 90       	pop	r6
     67a:	5f 90       	pop	r5
     67c:	4f 90       	pop	r4
     67e:	08 95       	ret

00000680 <_ZN3dht6read11Eh>:
     680:	0f 93       	push	r16
     682:	1f 93       	push	r17
     684:	cf 93       	push	r28
     686:	df 93       	push	r29
     688:	ec 01       	movw	r28, r24
     68a:	0e 94 94 02 	call	0x528	; 0x528 <_ZN3dht4readEh>
     68e:	00 97       	sbiw	r24, 0x00	; 0
     690:	09 f5       	brne	.+66     	; 0x6d4 <_ZN3dht6read11Eh+0x54>
     692:	08 85       	ldd	r16, Y+8	; 0x08
     694:	60 2f       	mov	r22, r16
     696:	70 e0       	ldi	r23, 0x00	; 0
     698:	80 e0       	ldi	r24, 0x00	; 0
     69a:	90 e0       	ldi	r25, 0x00	; 0
     69c:	0e 94 49 26 	call	0x4c92	; 0x4c92 <__floatunsisf>
     6a0:	68 83       	st	Y, r22
     6a2:	79 83       	std	Y+1, r23	; 0x01
     6a4:	8a 83       	std	Y+2, r24	; 0x02
     6a6:	9b 83       	std	Y+3, r25	; 0x03
     6a8:	1a 85       	ldd	r17, Y+10	; 0x0a
     6aa:	61 2f       	mov	r22, r17
     6ac:	70 e0       	ldi	r23, 0x00	; 0
     6ae:	80 e0       	ldi	r24, 0x00	; 0
     6b0:	90 e0       	ldi	r25, 0x00	; 0
     6b2:	0e 94 49 26 	call	0x4c92	; 0x4c92 <__floatunsisf>
     6b6:	6c 83       	std	Y+4, r22	; 0x04
     6b8:	7d 83       	std	Y+5, r23	; 0x05
     6ba:	8e 83       	std	Y+6, r24	; 0x06
     6bc:	9f 83       	std	Y+7, r25	; 0x07
     6be:	10 0f       	add	r17, r16
     6c0:	81 e0       	ldi	r24, 0x01	; 1
     6c2:	90 e0       	ldi	r25, 0x00	; 0
     6c4:	2c 85       	ldd	r18, Y+12	; 0x0c
     6c6:	12 13       	cpse	r17, r18
     6c8:	02 c0       	rjmp	.+4      	; 0x6ce <_ZN3dht6read11Eh+0x4e>
     6ca:	80 e0       	ldi	r24, 0x00	; 0
     6cc:	90 e0       	ldi	r25, 0x00	; 0
     6ce:	91 95       	neg	r25
     6d0:	81 95       	neg	r24
     6d2:	91 09       	sbc	r25, r1
     6d4:	df 91       	pop	r29
     6d6:	cf 91       	pop	r28
     6d8:	1f 91       	pop	r17
     6da:	0f 91       	pop	r16
     6dc:	08 95       	ret

000006de <_ZN3dht6read22Eh>:
     6de:	0f 93       	push	r16
     6e0:	1f 93       	push	r17
     6e2:	cf 93       	push	r28
     6e4:	df 93       	push	r29
     6e6:	ec 01       	movw	r28, r24
     6e8:	0e 94 94 02 	call	0x528	; 0x528 <_ZN3dht4readEh>
     6ec:	00 97       	sbiw	r24, 0x00	; 0
     6ee:	09 f0       	breq	.+2      	; 0x6f2 <_ZN3dht6read22Eh+0x14>
     6f0:	49 c0       	rjmp	.+146    	; 0x784 <_ZN3dht6read22Eh+0xa6>
     6f2:	69 85       	ldd	r22, Y+9	; 0x09
     6f4:	88 85       	ldd	r24, Y+8	; 0x08
     6f6:	0e 94 01 19 	call	0x3202	; 0x3202 <_Z8makeWordhh>
     6fa:	bc 01       	movw	r22, r24
     6fc:	80 e0       	ldi	r24, 0x00	; 0
     6fe:	90 e0       	ldi	r25, 0x00	; 0
     700:	0e 94 49 26 	call	0x4c92	; 0x4c92 <__floatunsisf>
     704:	2d ec       	ldi	r18, 0xCD	; 205
     706:	3c ec       	ldi	r19, 0xCC	; 204
     708:	4c ec       	ldi	r20, 0xCC	; 204
     70a:	5d e3       	ldi	r21, 0x3D	; 61
     70c:	0e 94 00 27 	call	0x4e00	; 0x4e00 <__mulsf3>
     710:	68 83       	st	Y, r22
     712:	79 83       	std	Y+1, r23	; 0x01
     714:	8a 83       	std	Y+2, r24	; 0x02
     716:	9b 83       	std	Y+3, r25	; 0x03
     718:	8a 85       	ldd	r24, Y+10	; 0x0a
     71a:	87 ff       	sbrs	r24, 7
     71c:	05 c0       	rjmp	.+10     	; 0x728 <_ZN3dht6read22Eh+0x4a>
     71e:	8f 77       	andi	r24, 0x7F	; 127
     720:	8a 87       	std	Y+10, r24	; 0x0a
     722:	0f ef       	ldi	r16, 0xFF	; 255
     724:	1f ef       	ldi	r17, 0xFF	; 255
     726:	02 c0       	rjmp	.+4      	; 0x72c <_ZN3dht6read22Eh+0x4e>
     728:	01 e0       	ldi	r16, 0x01	; 1
     72a:	10 e0       	ldi	r17, 0x00	; 0
     72c:	6b 85       	ldd	r22, Y+11	; 0x0b
     72e:	8a 85       	ldd	r24, Y+10	; 0x0a
     730:	0e 94 01 19 	call	0x3202	; 0x3202 <_Z8makeWordhh>
     734:	9c 01       	movw	r18, r24
     736:	02 9f       	mul	r16, r18
     738:	c0 01       	movw	r24, r0
     73a:	03 9f       	mul	r16, r19
     73c:	90 0d       	add	r25, r0
     73e:	12 9f       	mul	r17, r18
     740:	90 0d       	add	r25, r0
     742:	11 24       	eor	r1, r1
     744:	bc 01       	movw	r22, r24
     746:	80 e0       	ldi	r24, 0x00	; 0
     748:	90 e0       	ldi	r25, 0x00	; 0
     74a:	0e 94 49 26 	call	0x4c92	; 0x4c92 <__floatunsisf>
     74e:	2d ec       	ldi	r18, 0xCD	; 205
     750:	3c ec       	ldi	r19, 0xCC	; 204
     752:	4c ec       	ldi	r20, 0xCC	; 204
     754:	5d e3       	ldi	r21, 0x3D	; 61
     756:	0e 94 00 27 	call	0x4e00	; 0x4e00 <__mulsf3>
     75a:	6c 83       	std	Y+4, r22	; 0x04
     75c:	7d 83       	std	Y+5, r23	; 0x05
     75e:	8e 83       	std	Y+6, r24	; 0x06
     760:	9f 83       	std	Y+7, r25	; 0x07
     762:	28 85       	ldd	r18, Y+8	; 0x08
     764:	89 85       	ldd	r24, Y+9	; 0x09
     766:	28 0f       	add	r18, r24
     768:	8a 85       	ldd	r24, Y+10	; 0x0a
     76a:	28 0f       	add	r18, r24
     76c:	8b 85       	ldd	r24, Y+11	; 0x0b
     76e:	28 0f       	add	r18, r24
     770:	81 e0       	ldi	r24, 0x01	; 1
     772:	90 e0       	ldi	r25, 0x00	; 0
     774:	3c 85       	ldd	r19, Y+12	; 0x0c
     776:	23 13       	cpse	r18, r19
     778:	02 c0       	rjmp	.+4      	; 0x77e <_ZN3dht6read22Eh+0xa0>
     77a:	80 e0       	ldi	r24, 0x00	; 0
     77c:	90 e0       	ldi	r25, 0x00	; 0
     77e:	91 95       	neg	r25
     780:	81 95       	neg	r24
     782:	91 09       	sbc	r25, r1
     784:	df 91       	pop	r29
     786:	cf 91       	pop	r28
     788:	1f 91       	pop	r17
     78a:	0f 91       	pop	r16
     78c:	08 95       	ret

0000078e <_ZN14HardwareSerial9availableEv>:
     78e:	fc 01       	movw	r30, r24
     790:	91 8d       	ldd	r25, Z+25	; 0x19
     792:	22 8d       	ldd	r18, Z+26	; 0x1a
     794:	89 2f       	mov	r24, r25
     796:	90 e0       	ldi	r25, 0x00	; 0
     798:	80 5c       	subi	r24, 0xC0	; 192
     79a:	9f 4f       	sbci	r25, 0xFF	; 255
     79c:	82 1b       	sub	r24, r18
     79e:	91 09       	sbc	r25, r1
     7a0:	8f 73       	andi	r24, 0x3F	; 63
     7a2:	99 27       	eor	r25, r25
     7a4:	08 95       	ret

000007a6 <_ZN14HardwareSerial4peekEv>:
     7a6:	fc 01       	movw	r30, r24
     7a8:	91 8d       	ldd	r25, Z+25	; 0x19
     7aa:	82 8d       	ldd	r24, Z+26	; 0x1a
     7ac:	98 17       	cp	r25, r24
     7ae:	31 f0       	breq	.+12     	; 0x7bc <_ZN14HardwareSerial4peekEv+0x16>
     7b0:	82 8d       	ldd	r24, Z+26	; 0x1a
     7b2:	e8 0f       	add	r30, r24
     7b4:	f1 1d       	adc	r31, r1
     7b6:	85 8d       	ldd	r24, Z+29	; 0x1d
     7b8:	90 e0       	ldi	r25, 0x00	; 0
     7ba:	08 95       	ret
     7bc:	8f ef       	ldi	r24, 0xFF	; 255
     7be:	9f ef       	ldi	r25, 0xFF	; 255
     7c0:	08 95       	ret

000007c2 <_ZN14HardwareSerial4readEv>:
     7c2:	fc 01       	movw	r30, r24
     7c4:	91 8d       	ldd	r25, Z+25	; 0x19
     7c6:	82 8d       	ldd	r24, Z+26	; 0x1a
     7c8:	98 17       	cp	r25, r24
     7ca:	61 f0       	breq	.+24     	; 0x7e4 <_ZN14HardwareSerial4readEv+0x22>
     7cc:	82 8d       	ldd	r24, Z+26	; 0x1a
     7ce:	df 01       	movw	r26, r30
     7d0:	a8 0f       	add	r26, r24
     7d2:	b1 1d       	adc	r27, r1
     7d4:	5d 96       	adiw	r26, 0x1d	; 29
     7d6:	8c 91       	ld	r24, X
     7d8:	92 8d       	ldd	r25, Z+26	; 0x1a
     7da:	9f 5f       	subi	r25, 0xFF	; 255
     7dc:	9f 73       	andi	r25, 0x3F	; 63
     7de:	92 8f       	std	Z+26, r25	; 0x1a
     7e0:	90 e0       	ldi	r25, 0x00	; 0
     7e2:	08 95       	ret
     7e4:	8f ef       	ldi	r24, 0xFF	; 255
     7e6:	9f ef       	ldi	r25, 0xFF	; 255
     7e8:	08 95       	ret

000007ea <_ZN14HardwareSerial17availableForWriteEv>:
     7ea:	fc 01       	movw	r30, r24
     7ec:	53 8d       	ldd	r21, Z+27	; 0x1b
     7ee:	44 8d       	ldd	r20, Z+28	; 0x1c
     7f0:	25 2f       	mov	r18, r21
     7f2:	30 e0       	ldi	r19, 0x00	; 0
     7f4:	84 2f       	mov	r24, r20
     7f6:	90 e0       	ldi	r25, 0x00	; 0
     7f8:	82 1b       	sub	r24, r18
     7fa:	93 0b       	sbc	r25, r19
     7fc:	54 17       	cp	r21, r20
     7fe:	10 f0       	brcs	.+4      	; 0x804 <_ZN14HardwareSerial17availableForWriteEv+0x1a>
     800:	cf 96       	adiw	r24, 0x3f	; 63
     802:	08 95       	ret
     804:	01 97       	sbiw	r24, 0x01	; 1
     806:	08 95       	ret

00000808 <_Z14serialEventRunv>:
     808:	89 eb       	ldi	r24, 0xB9	; 185
     80a:	95 e0       	ldi	r25, 0x05	; 5
     80c:	89 2b       	or	r24, r25
     80e:	41 f0       	breq	.+16     	; 0x820 <_Z14serialEventRunv+0x18>
     810:	80 e0       	ldi	r24, 0x00	; 0
     812:	90 e0       	ldi	r25, 0x00	; 0
     814:	89 2b       	or	r24, r25
     816:	21 f0       	breq	.+8      	; 0x820 <_Z14serialEventRunv+0x18>
     818:	0e 94 b9 05 	call	0xb72	; 0xb72 <_Z17Serial0_availablev>
     81c:	81 11       	cpse	r24, r1
     81e:	25 c0       	rjmp	.+74     	; 0x86a <_Z14serialEventRunv+0x62>
     820:	83 e2       	ldi	r24, 0x23	; 35
     822:	96 e0       	ldi	r25, 0x06	; 6
     824:	89 2b       	or	r24, r25
     826:	41 f0       	breq	.+16     	; 0x838 <_Z14serialEventRunv+0x30>
     828:	80 e0       	ldi	r24, 0x00	; 0
     82a:	90 e0       	ldi	r25, 0x00	; 0
     82c:	89 2b       	or	r24, r25
     82e:	21 f0       	breq	.+8      	; 0x838 <_Z14serialEventRunv+0x30>
     830:	0e 94 23 06 	call	0xc46	; 0xc46 <_Z17Serial1_availablev>
     834:	81 11       	cpse	r24, r1
     836:	1c c0       	rjmp	.+56     	; 0x870 <_Z14serialEventRunv+0x68>
     838:	8d e8       	ldi	r24, 0x8D	; 141
     83a:	96 e0       	ldi	r25, 0x06	; 6
     83c:	89 2b       	or	r24, r25
     83e:	41 f0       	breq	.+16     	; 0x850 <_Z14serialEventRunv+0x48>
     840:	80 e0       	ldi	r24, 0x00	; 0
     842:	90 e0       	ldi	r25, 0x00	; 0
     844:	89 2b       	or	r24, r25
     846:	21 f0       	breq	.+8      	; 0x850 <_Z14serialEventRunv+0x48>
     848:	0e 94 8d 06 	call	0xd1a	; 0xd1a <_Z17Serial2_availablev>
     84c:	81 11       	cpse	r24, r1
     84e:	13 c0       	rjmp	.+38     	; 0x876 <_Z14serialEventRunv+0x6e>
     850:	87 ef       	ldi	r24, 0xF7	; 247
     852:	96 e0       	ldi	r25, 0x06	; 6
     854:	89 2b       	or	r24, r25
     856:	a1 f0       	breq	.+40     	; 0x880 <_Z14serialEventRunv+0x78>
     858:	80 e0       	ldi	r24, 0x00	; 0
     85a:	90 e0       	ldi	r25, 0x00	; 0
     85c:	89 2b       	or	r24, r25
     85e:	81 f0       	breq	.+32     	; 0x880 <_Z14serialEventRunv+0x78>
     860:	0e 94 f7 06 	call	0xdee	; 0xdee <_Z17Serial3_availablev>
     864:	81 11       	cpse	r24, r1
     866:	0a c0       	rjmp	.+20     	; 0x87c <_Z14serialEventRunv+0x74>
     868:	08 95       	ret
     86a:	0e 94 00 00 	call	0	; 0x0 <__vectors>
     86e:	d8 cf       	rjmp	.-80     	; 0x820 <_Z14serialEventRunv+0x18>
     870:	0e 94 00 00 	call	0	; 0x0 <__vectors>
     874:	e1 cf       	rjmp	.-62     	; 0x838 <_Z14serialEventRunv+0x30>
     876:	0e 94 00 00 	call	0	; 0x0 <__vectors>
     87a:	ea cf       	rjmp	.-44     	; 0x850 <_Z14serialEventRunv+0x48>
     87c:	0c 94 00 00 	jmp	0	; 0x0 <__vectors>
     880:	08 95       	ret

00000882 <_ZN14HardwareSerial17_tx_udr_empty_irqEv>:
     882:	fc 01       	movw	r30, r24
     884:	84 8d       	ldd	r24, Z+28	; 0x1c
     886:	df 01       	movw	r26, r30
     888:	a8 0f       	add	r26, r24
     88a:	b1 1d       	adc	r27, r1
     88c:	a3 5a       	subi	r26, 0xA3	; 163
     88e:	bf 4f       	sbci	r27, 0xFF	; 255
     890:	2c 91       	ld	r18, X
     892:	84 8d       	ldd	r24, Z+28	; 0x1c
     894:	90 e0       	ldi	r25, 0x00	; 0
     896:	01 96       	adiw	r24, 0x01	; 1
     898:	8f 73       	andi	r24, 0x3F	; 63
     89a:	99 27       	eor	r25, r25
     89c:	84 8f       	std	Z+28, r24	; 0x1c
     89e:	a6 89       	ldd	r26, Z+22	; 0x16
     8a0:	b7 89       	ldd	r27, Z+23	; 0x17
     8a2:	2c 93       	st	X, r18
     8a4:	a0 89       	ldd	r26, Z+16	; 0x10
     8a6:	b1 89       	ldd	r27, Z+17	; 0x11
     8a8:	8c 91       	ld	r24, X
     8aa:	83 70       	andi	r24, 0x03	; 3
     8ac:	80 64       	ori	r24, 0x40	; 64
     8ae:	8c 93       	st	X, r24
     8b0:	93 8d       	ldd	r25, Z+27	; 0x1b
     8b2:	84 8d       	ldd	r24, Z+28	; 0x1c
     8b4:	98 13       	cpse	r25, r24
     8b6:	06 c0       	rjmp	.+12     	; 0x8c4 <_ZN14HardwareSerial17_tx_udr_empty_irqEv+0x42>
     8b8:	02 88       	ldd	r0, Z+18	; 0x12
     8ba:	f3 89       	ldd	r31, Z+19	; 0x13
     8bc:	e0 2d       	mov	r30, r0
     8be:	80 81       	ld	r24, Z
     8c0:	8f 7d       	andi	r24, 0xDF	; 223
     8c2:	80 83       	st	Z, r24
     8c4:	08 95       	ret

000008c6 <_ZN14HardwareSerial5writeEh>:
     8c6:	ef 92       	push	r14
     8c8:	ff 92       	push	r15
     8ca:	0f 93       	push	r16
     8cc:	1f 93       	push	r17
     8ce:	cf 93       	push	r28
     8d0:	df 93       	push	r29
     8d2:	ec 01       	movw	r28, r24
     8d4:	81 e0       	ldi	r24, 0x01	; 1
     8d6:	88 8f       	std	Y+24, r24	; 0x18
     8d8:	9b 8d       	ldd	r25, Y+27	; 0x1b
     8da:	8c 8d       	ldd	r24, Y+28	; 0x1c
     8dc:	98 13       	cpse	r25, r24
     8de:	05 c0       	rjmp	.+10     	; 0x8ea <_ZN14HardwareSerial5writeEh+0x24>
     8e0:	e8 89       	ldd	r30, Y+16	; 0x10
     8e2:	f9 89       	ldd	r31, Y+17	; 0x11
     8e4:	80 81       	ld	r24, Z
     8e6:	85 fd       	sbrc	r24, 5
     8e8:	26 c0       	rjmp	.+76     	; 0x936 <_ZN14HardwareSerial5writeEh+0x70>
     8ea:	f6 2e       	mov	r15, r22
     8ec:	0b 8d       	ldd	r16, Y+27	; 0x1b
     8ee:	10 e0       	ldi	r17, 0x00	; 0
     8f0:	0f 5f       	subi	r16, 0xFF	; 255
     8f2:	1f 4f       	sbci	r17, 0xFF	; 255
     8f4:	0f 73       	andi	r16, 0x3F	; 63
     8f6:	11 27       	eor	r17, r17
     8f8:	e0 2e       	mov	r14, r16
     8fa:	8c 8d       	ldd	r24, Y+28	; 0x1c
     8fc:	e8 12       	cpse	r14, r24
     8fe:	0c c0       	rjmp	.+24     	; 0x918 <_ZN14HardwareSerial5writeEh+0x52>
     900:	0f b6       	in	r0, 0x3f	; 63
     902:	07 fc       	sbrc	r0, 7
     904:	fa cf       	rjmp	.-12     	; 0x8fa <_ZN14HardwareSerial5writeEh+0x34>
     906:	e8 89       	ldd	r30, Y+16	; 0x10
     908:	f9 89       	ldd	r31, Y+17	; 0x11
     90a:	80 81       	ld	r24, Z
     90c:	85 ff       	sbrs	r24, 5
     90e:	f5 cf       	rjmp	.-22     	; 0x8fa <_ZN14HardwareSerial5writeEh+0x34>
     910:	ce 01       	movw	r24, r28
     912:	0e 94 41 04 	call	0x882	; 0x882 <_ZN14HardwareSerial17_tx_udr_empty_irqEv>
     916:	f1 cf       	rjmp	.-30     	; 0x8fa <_ZN14HardwareSerial5writeEh+0x34>
     918:	8b 8d       	ldd	r24, Y+27	; 0x1b
     91a:	fe 01       	movw	r30, r28
     91c:	e8 0f       	add	r30, r24
     91e:	f1 1d       	adc	r31, r1
     920:	e3 5a       	subi	r30, 0xA3	; 163
     922:	ff 4f       	sbci	r31, 0xFF	; 255
     924:	f0 82       	st	Z, r15
     926:	9f b7       	in	r25, 0x3f	; 63
     928:	f8 94       	cli
     92a:	0b 8f       	std	Y+27, r16	; 0x1b
     92c:	ea 89       	ldd	r30, Y+18	; 0x12
     92e:	fb 89       	ldd	r31, Y+19	; 0x13
     930:	80 81       	ld	r24, Z
     932:	80 62       	ori	r24, 0x20	; 32
     934:	0a c0       	rjmp	.+20     	; 0x94a <_ZN14HardwareSerial5writeEh+0x84>
     936:	9f b7       	in	r25, 0x3f	; 63
     938:	f8 94       	cli
     93a:	ee 89       	ldd	r30, Y+22	; 0x16
     93c:	ff 89       	ldd	r31, Y+23	; 0x17
     93e:	60 83       	st	Z, r22
     940:	e8 89       	ldd	r30, Y+16	; 0x10
     942:	f9 89       	ldd	r31, Y+17	; 0x11
     944:	80 81       	ld	r24, Z
     946:	83 70       	andi	r24, 0x03	; 3
     948:	80 64       	ori	r24, 0x40	; 64
     94a:	80 83       	st	Z, r24
     94c:	9f bf       	out	0x3f, r25	; 63
     94e:	81 e0       	ldi	r24, 0x01	; 1
     950:	90 e0       	ldi	r25, 0x00	; 0
     952:	df 91       	pop	r29
     954:	cf 91       	pop	r28
     956:	1f 91       	pop	r17
     958:	0f 91       	pop	r16
     95a:	ff 90       	pop	r15
     95c:	ef 90       	pop	r14
     95e:	08 95       	ret

00000960 <_ZN14HardwareSerial5flushEv>:
     960:	cf 93       	push	r28
     962:	df 93       	push	r29
     964:	ec 01       	movw	r28, r24
     966:	88 8d       	ldd	r24, Y+24	; 0x18
     968:	88 23       	and	r24, r24
     96a:	c9 f0       	breq	.+50     	; 0x99e <_ZN14HardwareSerial5flushEv+0x3e>
     96c:	ea 89       	ldd	r30, Y+18	; 0x12
     96e:	fb 89       	ldd	r31, Y+19	; 0x13
     970:	80 81       	ld	r24, Z
     972:	85 fd       	sbrc	r24, 5
     974:	05 c0       	rjmp	.+10     	; 0x980 <_ZN14HardwareSerial5flushEv+0x20>
     976:	a8 89       	ldd	r26, Y+16	; 0x10
     978:	b9 89       	ldd	r27, Y+17	; 0x11
     97a:	8c 91       	ld	r24, X
     97c:	86 fd       	sbrc	r24, 6
     97e:	0f c0       	rjmp	.+30     	; 0x99e <_ZN14HardwareSerial5flushEv+0x3e>
     980:	0f b6       	in	r0, 0x3f	; 63
     982:	07 fc       	sbrc	r0, 7
     984:	f5 cf       	rjmp	.-22     	; 0x970 <_ZN14HardwareSerial5flushEv+0x10>
     986:	80 81       	ld	r24, Z
     988:	85 ff       	sbrs	r24, 5
     98a:	f2 cf       	rjmp	.-28     	; 0x970 <_ZN14HardwareSerial5flushEv+0x10>
     98c:	a8 89       	ldd	r26, Y+16	; 0x10
     98e:	b9 89       	ldd	r27, Y+17	; 0x11
     990:	8c 91       	ld	r24, X
     992:	85 ff       	sbrs	r24, 5
     994:	ed cf       	rjmp	.-38     	; 0x970 <_ZN14HardwareSerial5flushEv+0x10>
     996:	ce 01       	movw	r24, r28
     998:	0e 94 41 04 	call	0x882	; 0x882 <_ZN14HardwareSerial17_tx_udr_empty_irqEv>
     99c:	e7 cf       	rjmp	.-50     	; 0x96c <_ZN14HardwareSerial5flushEv+0xc>
     99e:	df 91       	pop	r29
     9a0:	cf 91       	pop	r28
     9a2:	08 95       	ret

000009a4 <_ZN14HardwareSerial5beginEmh>:
     9a4:	cf 92       	push	r12
     9a6:	df 92       	push	r13
     9a8:	ef 92       	push	r14
     9aa:	ff 92       	push	r15
     9ac:	1f 93       	push	r17
     9ae:	cf 93       	push	r28
     9b0:	df 93       	push	r29
     9b2:	ec 01       	movw	r28, r24
     9b4:	6a 01       	movw	r12, r20
     9b6:	7b 01       	movw	r14, r22
     9b8:	12 2f       	mov	r17, r18
     9ba:	e8 89       	ldd	r30, Y+16	; 0x10
     9bc:	f9 89       	ldd	r31, Y+17	; 0x11
     9be:	82 e0       	ldi	r24, 0x02	; 2
     9c0:	80 83       	st	Z, r24
     9c2:	41 15       	cp	r20, r1
     9c4:	51 4e       	sbci	r21, 0xE1	; 225
     9c6:	61 05       	cpc	r22, r1
     9c8:	71 05       	cpc	r23, r1
     9ca:	b1 f0       	breq	.+44     	; 0x9f8 <_ZN14HardwareSerial5beginEmh+0x54>
     9cc:	60 e0       	ldi	r22, 0x00	; 0
     9ce:	79 e0       	ldi	r23, 0x09	; 9
     9d0:	8d e3       	ldi	r24, 0x3D	; 61
     9d2:	90 e0       	ldi	r25, 0x00	; 0
     9d4:	a7 01       	movw	r20, r14
     9d6:	96 01       	movw	r18, r12
     9d8:	0e 94 d3 24 	call	0x49a6	; 0x49a6 <__udivmodsi4>
     9dc:	da 01       	movw	r26, r20
     9de:	c9 01       	movw	r24, r18
     9e0:	01 97       	sbiw	r24, 0x01	; 1
     9e2:	a1 09       	sbc	r26, r1
     9e4:	b1 09       	sbc	r27, r1
     9e6:	b6 95       	lsr	r27
     9e8:	a7 95       	ror	r26
     9ea:	97 95       	ror	r25
     9ec:	87 95       	ror	r24
     9ee:	9c 01       	movw	r18, r24
     9f0:	21 15       	cp	r18, r1
     9f2:	80 e1       	ldi	r24, 0x10	; 16
     9f4:	38 07       	cpc	r19, r24
     9f6:	a8 f0       	brcs	.+42     	; 0xa22 <_ZN14HardwareSerial5beginEmh+0x7e>
     9f8:	e8 89       	ldd	r30, Y+16	; 0x10
     9fa:	f9 89       	ldd	r31, Y+17	; 0x11
     9fc:	10 82       	st	Z, r1
     9fe:	60 e8       	ldi	r22, 0x80	; 128
     a00:	74 e8       	ldi	r23, 0x84	; 132
     a02:	8e e1       	ldi	r24, 0x1E	; 30
     a04:	90 e0       	ldi	r25, 0x00	; 0
     a06:	a7 01       	movw	r20, r14
     a08:	96 01       	movw	r18, r12
     a0a:	0e 94 d3 24 	call	0x49a6	; 0x49a6 <__udivmodsi4>
     a0e:	da 01       	movw	r26, r20
     a10:	c9 01       	movw	r24, r18
     a12:	01 97       	sbiw	r24, 0x01	; 1
     a14:	a1 09       	sbc	r26, r1
     a16:	b1 09       	sbc	r27, r1
     a18:	b6 95       	lsr	r27
     a1a:	a7 95       	ror	r26
     a1c:	97 95       	ror	r25
     a1e:	87 95       	ror	r24
     a20:	9c 01       	movw	r18, r24
     a22:	ec 85       	ldd	r30, Y+12	; 0x0c
     a24:	fd 85       	ldd	r31, Y+13	; 0x0d
     a26:	30 83       	st	Z, r19
     a28:	ee 85       	ldd	r30, Y+14	; 0x0e
     a2a:	ff 85       	ldd	r31, Y+15	; 0x0f
     a2c:	20 83       	st	Z, r18
     a2e:	18 8e       	std	Y+24, r1	; 0x18
     a30:	ec 89       	ldd	r30, Y+20	; 0x14
     a32:	fd 89       	ldd	r31, Y+21	; 0x15
     a34:	10 83       	st	Z, r17
     a36:	ea 89       	ldd	r30, Y+18	; 0x12
     a38:	fb 89       	ldd	r31, Y+19	; 0x13
     a3a:	80 81       	ld	r24, Z
     a3c:	80 61       	ori	r24, 0x10	; 16
     a3e:	80 83       	st	Z, r24
     a40:	ea 89       	ldd	r30, Y+18	; 0x12
     a42:	fb 89       	ldd	r31, Y+19	; 0x13
     a44:	80 81       	ld	r24, Z
     a46:	88 60       	ori	r24, 0x08	; 8
     a48:	80 83       	st	Z, r24
     a4a:	ea 89       	ldd	r30, Y+18	; 0x12
     a4c:	fb 89       	ldd	r31, Y+19	; 0x13
     a4e:	80 81       	ld	r24, Z
     a50:	80 68       	ori	r24, 0x80	; 128
     a52:	80 83       	st	Z, r24
     a54:	ea 89       	ldd	r30, Y+18	; 0x12
     a56:	fb 89       	ldd	r31, Y+19	; 0x13
     a58:	80 81       	ld	r24, Z
     a5a:	8f 7d       	andi	r24, 0xDF	; 223
     a5c:	80 83       	st	Z, r24
     a5e:	df 91       	pop	r29
     a60:	cf 91       	pop	r28
     a62:	1f 91       	pop	r17
     a64:	ff 90       	pop	r15
     a66:	ef 90       	pop	r14
     a68:	df 90       	pop	r13
     a6a:	cf 90       	pop	r12
     a6c:	08 95       	ret

00000a6e <_ZN14HardwareSerial3endEv>:
     a6e:	cf 93       	push	r28
     a70:	df 93       	push	r29
     a72:	ec 01       	movw	r28, r24
     a74:	e8 81       	ld	r30, Y
     a76:	f9 81       	ldd	r31, Y+1	; 0x01
     a78:	06 80       	ldd	r0, Z+6	; 0x06
     a7a:	f7 81       	ldd	r31, Z+7	; 0x07
     a7c:	e0 2d       	mov	r30, r0
     a7e:	19 95       	eicall
     a80:	ea 89       	ldd	r30, Y+18	; 0x12
     a82:	fb 89       	ldd	r31, Y+19	; 0x13
     a84:	80 81       	ld	r24, Z
     a86:	8f 7e       	andi	r24, 0xEF	; 239
     a88:	80 83       	st	Z, r24
     a8a:	ea 89       	ldd	r30, Y+18	; 0x12
     a8c:	fb 89       	ldd	r31, Y+19	; 0x13
     a8e:	80 81       	ld	r24, Z
     a90:	87 7f       	andi	r24, 0xF7	; 247
     a92:	80 83       	st	Z, r24
     a94:	ea 89       	ldd	r30, Y+18	; 0x12
     a96:	fb 89       	ldd	r31, Y+19	; 0x13
     a98:	80 81       	ld	r24, Z
     a9a:	8f 77       	andi	r24, 0x7F	; 127
     a9c:	80 83       	st	Z, r24
     a9e:	ea 89       	ldd	r30, Y+18	; 0x12
     aa0:	fb 89       	ldd	r31, Y+19	; 0x13
     aa2:	80 81       	ld	r24, Z
     aa4:	8f 7d       	andi	r24, 0xDF	; 223
     aa6:	80 83       	st	Z, r24
     aa8:	8a 8d       	ldd	r24, Y+26	; 0x1a
     aaa:	89 8f       	std	Y+25, r24	; 0x19
     aac:	df 91       	pop	r29
     aae:	cf 91       	pop	r28
     ab0:	08 95       	ret

00000ab2 <__vector_25>:
     ab2:	1f 92       	push	r1
     ab4:	0f 92       	push	r0
     ab6:	0f b6       	in	r0, 0x3f	; 63
     ab8:	0f 92       	push	r0
     aba:	11 24       	eor	r1, r1
     abc:	0b b6       	in	r0, 0x3b	; 59
     abe:	0f 92       	push	r0
     ac0:	2f 93       	push	r18
     ac2:	8f 93       	push	r24
     ac4:	9f 93       	push	r25
     ac6:	ef 93       	push	r30
     ac8:	ff 93       	push	r31
     aca:	e0 91 26 03 	lds	r30, 0x0326	; 0x800326 <__data_end+0x10>
     ace:	f0 91 27 03 	lds	r31, 0x0327	; 0x800327 <__data_end+0x11>
     ad2:	80 81       	ld	r24, Z
     ad4:	e0 91 2c 03 	lds	r30, 0x032C	; 0x80032c <__data_end+0x16>
     ad8:	f0 91 2d 03 	lds	r31, 0x032D	; 0x80032d <__data_end+0x17>
     adc:	82 fd       	sbrc	r24, 2
     ade:	12 c0       	rjmp	.+36     	; 0xb04 <__vector_25+0x52>
     ae0:	90 81       	ld	r25, Z
     ae2:	80 91 2f 03 	lds	r24, 0x032F	; 0x80032f <__data_end+0x19>
     ae6:	8f 5f       	subi	r24, 0xFF	; 255
     ae8:	8f 73       	andi	r24, 0x3F	; 63
     aea:	20 91 30 03 	lds	r18, 0x0330	; 0x800330 <__data_end+0x1a>
     aee:	82 17       	cp	r24, r18
     af0:	51 f0       	breq	.+20     	; 0xb06 <__vector_25+0x54>
     af2:	e0 91 2f 03 	lds	r30, 0x032F	; 0x80032f <__data_end+0x19>
     af6:	f0 e0       	ldi	r31, 0x00	; 0
     af8:	ea 5e       	subi	r30, 0xEA	; 234
     afa:	fc 4f       	sbci	r31, 0xFC	; 252
     afc:	95 8f       	std	Z+29, r25	; 0x1d
     afe:	80 93 2f 03 	sts	0x032F, r24	; 0x80032f <__data_end+0x19>
     b02:	01 c0       	rjmp	.+2      	; 0xb06 <__vector_25+0x54>
     b04:	80 81       	ld	r24, Z
     b06:	ff 91       	pop	r31
     b08:	ef 91       	pop	r30
     b0a:	9f 91       	pop	r25
     b0c:	8f 91       	pop	r24
     b0e:	2f 91       	pop	r18
     b10:	0f 90       	pop	r0
     b12:	0b be       	out	0x3b, r0	; 59
     b14:	0f 90       	pop	r0
     b16:	0f be       	out	0x3f, r0	; 63
     b18:	0f 90       	pop	r0
     b1a:	1f 90       	pop	r1
     b1c:	18 95       	reti

00000b1e <__vector_26>:
     b1e:	1f 92       	push	r1
     b20:	0f 92       	push	r0
     b22:	0f b6       	in	r0, 0x3f	; 63
     b24:	0f 92       	push	r0
     b26:	11 24       	eor	r1, r1
     b28:	0b b6       	in	r0, 0x3b	; 59
     b2a:	0f 92       	push	r0
     b2c:	2f 93       	push	r18
     b2e:	3f 93       	push	r19
     b30:	4f 93       	push	r20
     b32:	5f 93       	push	r21
     b34:	6f 93       	push	r22
     b36:	7f 93       	push	r23
     b38:	8f 93       	push	r24
     b3a:	9f 93       	push	r25
     b3c:	af 93       	push	r26
     b3e:	bf 93       	push	r27
     b40:	ef 93       	push	r30
     b42:	ff 93       	push	r31
     b44:	86 e1       	ldi	r24, 0x16	; 22
     b46:	93 e0       	ldi	r25, 0x03	; 3
     b48:	0e 94 41 04 	call	0x882	; 0x882 <_ZN14HardwareSerial17_tx_udr_empty_irqEv>
     b4c:	ff 91       	pop	r31
     b4e:	ef 91       	pop	r30
     b50:	bf 91       	pop	r27
     b52:	af 91       	pop	r26
     b54:	9f 91       	pop	r25
     b56:	8f 91       	pop	r24
     b58:	7f 91       	pop	r23
     b5a:	6f 91       	pop	r22
     b5c:	5f 91       	pop	r21
     b5e:	4f 91       	pop	r20
     b60:	3f 91       	pop	r19
     b62:	2f 91       	pop	r18
     b64:	0f 90       	pop	r0
     b66:	0b be       	out	0x3b, r0	; 59
     b68:	0f 90       	pop	r0
     b6a:	0f be       	out	0x3f, r0	; 63
     b6c:	0f 90       	pop	r0
     b6e:	1f 90       	pop	r1
     b70:	18 95       	reti

00000b72 <_Z17Serial0_availablev>:
     b72:	86 e1       	ldi	r24, 0x16	; 22
     b74:	93 e0       	ldi	r25, 0x03	; 3
     b76:	0e 94 c7 03 	call	0x78e	; 0x78e <_ZN14HardwareSerial9availableEv>
     b7a:	21 e0       	ldi	r18, 0x01	; 1
     b7c:	89 2b       	or	r24, r25
     b7e:	09 f4       	brne	.+2      	; 0xb82 <_Z17Serial0_availablev+0x10>
     b80:	20 e0       	ldi	r18, 0x00	; 0
     b82:	82 2f       	mov	r24, r18
     b84:	08 95       	ret

00000b86 <__vector_36>:
     b86:	1f 92       	push	r1
     b88:	0f 92       	push	r0
     b8a:	0f b6       	in	r0, 0x3f	; 63
     b8c:	0f 92       	push	r0
     b8e:	11 24       	eor	r1, r1
     b90:	0b b6       	in	r0, 0x3b	; 59
     b92:	0f 92       	push	r0
     b94:	2f 93       	push	r18
     b96:	8f 93       	push	r24
     b98:	9f 93       	push	r25
     b9a:	ef 93       	push	r30
     b9c:	ff 93       	push	r31
     b9e:	e0 91 c3 03 	lds	r30, 0x03C3	; 0x8003c3 <Serial1+0x10>
     ba2:	f0 91 c4 03 	lds	r31, 0x03C4	; 0x8003c4 <Serial1+0x11>
     ba6:	80 81       	ld	r24, Z
     ba8:	e0 91 c9 03 	lds	r30, 0x03C9	; 0x8003c9 <Serial1+0x16>
     bac:	f0 91 ca 03 	lds	r31, 0x03CA	; 0x8003ca <Serial1+0x17>
     bb0:	82 fd       	sbrc	r24, 2
     bb2:	12 c0       	rjmp	.+36     	; 0xbd8 <__vector_36+0x52>
     bb4:	90 81       	ld	r25, Z
     bb6:	80 91 cc 03 	lds	r24, 0x03CC	; 0x8003cc <Serial1+0x19>
     bba:	8f 5f       	subi	r24, 0xFF	; 255
     bbc:	8f 73       	andi	r24, 0x3F	; 63
     bbe:	20 91 cd 03 	lds	r18, 0x03CD	; 0x8003cd <Serial1+0x1a>
     bc2:	82 17       	cp	r24, r18
     bc4:	51 f0       	breq	.+20     	; 0xbda <__vector_36+0x54>
     bc6:	e0 91 cc 03 	lds	r30, 0x03CC	; 0x8003cc <Serial1+0x19>
     bca:	f0 e0       	ldi	r31, 0x00	; 0
     bcc:	ed 54       	subi	r30, 0x4D	; 77
     bce:	fc 4f       	sbci	r31, 0xFC	; 252
     bd0:	95 8f       	std	Z+29, r25	; 0x1d
     bd2:	80 93 cc 03 	sts	0x03CC, r24	; 0x8003cc <Serial1+0x19>
     bd6:	01 c0       	rjmp	.+2      	; 0xbda <__vector_36+0x54>
     bd8:	80 81       	ld	r24, Z
     bda:	ff 91       	pop	r31
     bdc:	ef 91       	pop	r30
     bde:	9f 91       	pop	r25
     be0:	8f 91       	pop	r24
     be2:	2f 91       	pop	r18
     be4:	0f 90       	pop	r0
     be6:	0b be       	out	0x3b, r0	; 59
     be8:	0f 90       	pop	r0
     bea:	0f be       	out	0x3f, r0	; 63
     bec:	0f 90       	pop	r0
     bee:	1f 90       	pop	r1
     bf0:	18 95       	reti

00000bf2 <__vector_37>:
     bf2:	1f 92       	push	r1
     bf4:	0f 92       	push	r0
     bf6:	0f b6       	in	r0, 0x3f	; 63
     bf8:	0f 92       	push	r0
     bfa:	11 24       	eor	r1, r1
     bfc:	0b b6       	in	r0, 0x3b	; 59
     bfe:	0f 92       	push	r0
     c00:	2f 93       	push	r18
     c02:	3f 93       	push	r19
     c04:	4f 93       	push	r20
     c06:	5f 93       	push	r21
     c08:	6f 93       	push	r22
     c0a:	7f 93       	push	r23
     c0c:	8f 93       	push	r24
     c0e:	9f 93       	push	r25
     c10:	af 93       	push	r26
     c12:	bf 93       	push	r27
     c14:	ef 93       	push	r30
     c16:	ff 93       	push	r31
     c18:	83 eb       	ldi	r24, 0xB3	; 179
     c1a:	93 e0       	ldi	r25, 0x03	; 3
     c1c:	0e 94 41 04 	call	0x882	; 0x882 <_ZN14HardwareSerial17_tx_udr_empty_irqEv>
     c20:	ff 91       	pop	r31
     c22:	ef 91       	pop	r30
     c24:	bf 91       	pop	r27
     c26:	af 91       	pop	r26
     c28:	9f 91       	pop	r25
     c2a:	8f 91       	pop	r24
     c2c:	7f 91       	pop	r23
     c2e:	6f 91       	pop	r22
     c30:	5f 91       	pop	r21
     c32:	4f 91       	pop	r20
     c34:	3f 91       	pop	r19
     c36:	2f 91       	pop	r18
     c38:	0f 90       	pop	r0
     c3a:	0b be       	out	0x3b, r0	; 59
     c3c:	0f 90       	pop	r0
     c3e:	0f be       	out	0x3f, r0	; 63
     c40:	0f 90       	pop	r0
     c42:	1f 90       	pop	r1
     c44:	18 95       	reti

00000c46 <_Z17Serial1_availablev>:
     c46:	83 eb       	ldi	r24, 0xB3	; 179
     c48:	93 e0       	ldi	r25, 0x03	; 3
     c4a:	0e 94 c7 03 	call	0x78e	; 0x78e <_ZN14HardwareSerial9availableEv>
     c4e:	21 e0       	ldi	r18, 0x01	; 1
     c50:	89 2b       	or	r24, r25
     c52:	09 f4       	brne	.+2      	; 0xc56 <_Z17Serial1_availablev+0x10>
     c54:	20 e0       	ldi	r18, 0x00	; 0
     c56:	82 2f       	mov	r24, r18
     c58:	08 95       	ret

00000c5a <__vector_51>:
     c5a:	1f 92       	push	r1
     c5c:	0f 92       	push	r0
     c5e:	0f b6       	in	r0, 0x3f	; 63
     c60:	0f 92       	push	r0
     c62:	11 24       	eor	r1, r1
     c64:	0b b6       	in	r0, 0x3b	; 59
     c66:	0f 92       	push	r0
     c68:	2f 93       	push	r18
     c6a:	8f 93       	push	r24
     c6c:	9f 93       	push	r25
     c6e:	ef 93       	push	r30
     c70:	ff 93       	push	r31
     c72:	e0 91 60 04 	lds	r30, 0x0460	; 0x800460 <Serial2+0x10>
     c76:	f0 91 61 04 	lds	r31, 0x0461	; 0x800461 <Serial2+0x11>
     c7a:	80 81       	ld	r24, Z
     c7c:	e0 91 66 04 	lds	r30, 0x0466	; 0x800466 <Serial2+0x16>
     c80:	f0 91 67 04 	lds	r31, 0x0467	; 0x800467 <Serial2+0x17>
     c84:	82 fd       	sbrc	r24, 2
     c86:	12 c0       	rjmp	.+36     	; 0xcac <__vector_51+0x52>
     c88:	90 81       	ld	r25, Z
     c8a:	80 91 69 04 	lds	r24, 0x0469	; 0x800469 <Serial2+0x19>
     c8e:	8f 5f       	subi	r24, 0xFF	; 255
     c90:	8f 73       	andi	r24, 0x3F	; 63
     c92:	20 91 6a 04 	lds	r18, 0x046A	; 0x80046a <Serial2+0x1a>
     c96:	82 17       	cp	r24, r18
     c98:	51 f0       	breq	.+20     	; 0xcae <__vector_51+0x54>
     c9a:	e0 91 69 04 	lds	r30, 0x0469	; 0x800469 <Serial2+0x19>
     c9e:	f0 e0       	ldi	r31, 0x00	; 0
     ca0:	e0 5b       	subi	r30, 0xB0	; 176
     ca2:	fb 4f       	sbci	r31, 0xFB	; 251
     ca4:	95 8f       	std	Z+29, r25	; 0x1d
     ca6:	80 93 69 04 	sts	0x0469, r24	; 0x800469 <Serial2+0x19>
     caa:	01 c0       	rjmp	.+2      	; 0xcae <__vector_51+0x54>
     cac:	80 81       	ld	r24, Z
     cae:	ff 91       	pop	r31
     cb0:	ef 91       	pop	r30
     cb2:	9f 91       	pop	r25
     cb4:	8f 91       	pop	r24
     cb6:	2f 91       	pop	r18
     cb8:	0f 90       	pop	r0
     cba:	0b be       	out	0x3b, r0	; 59
     cbc:	0f 90       	pop	r0
     cbe:	0f be       	out	0x3f, r0	; 63
     cc0:	0f 90       	pop	r0
     cc2:	1f 90       	pop	r1
     cc4:	18 95       	reti

00000cc6 <__vector_52>:
     cc6:	1f 92       	push	r1
     cc8:	0f 92       	push	r0
     cca:	0f b6       	in	r0, 0x3f	; 63
     ccc:	0f 92       	push	r0
     cce:	11 24       	eor	r1, r1
     cd0:	0b b6       	in	r0, 0x3b	; 59
     cd2:	0f 92       	push	r0
     cd4:	2f 93       	push	r18
     cd6:	3f 93       	push	r19
     cd8:	4f 93       	push	r20
     cda:	5f 93       	push	r21
     cdc:	6f 93       	push	r22
     cde:	7f 93       	push	r23
     ce0:	8f 93       	push	r24
     ce2:	9f 93       	push	r25
     ce4:	af 93       	push	r26
     ce6:	bf 93       	push	r27
     ce8:	ef 93       	push	r30
     cea:	ff 93       	push	r31
     cec:	80 e5       	ldi	r24, 0x50	; 80
     cee:	94 e0       	ldi	r25, 0x04	; 4
     cf0:	0e 94 41 04 	call	0x882	; 0x882 <_ZN14HardwareSerial17_tx_udr_empty_irqEv>
     cf4:	ff 91       	pop	r31
     cf6:	ef 91       	pop	r30
     cf8:	bf 91       	pop	r27
     cfa:	af 91       	pop	r26
     cfc:	9f 91       	pop	r25
     cfe:	8f 91       	pop	r24
     d00:	7f 91       	pop	r23
     d02:	6f 91       	pop	r22
     d04:	5f 91       	pop	r21
     d06:	4f 91       	pop	r20
     d08:	3f 91       	pop	r19
     d0a:	2f 91       	pop	r18
     d0c:	0f 90       	pop	r0
     d0e:	0b be       	out	0x3b, r0	; 59
     d10:	0f 90       	pop	r0
     d12:	0f be       	out	0x3f, r0	; 63
     d14:	0f 90       	pop	r0
     d16:	1f 90       	pop	r1
     d18:	18 95       	reti

00000d1a <_Z17Serial2_availablev>:
     d1a:	80 e5       	ldi	r24, 0x50	; 80
     d1c:	94 e0       	ldi	r25, 0x04	; 4
     d1e:	0e 94 c7 03 	call	0x78e	; 0x78e <_ZN14HardwareSerial9availableEv>
     d22:	21 e0       	ldi	r18, 0x01	; 1
     d24:	89 2b       	or	r24, r25
     d26:	09 f4       	brne	.+2      	; 0xd2a <_Z17Serial2_availablev+0x10>
     d28:	20 e0       	ldi	r18, 0x00	; 0
     d2a:	82 2f       	mov	r24, r18
     d2c:	08 95       	ret

00000d2e <__vector_54>:
     d2e:	1f 92       	push	r1
     d30:	0f 92       	push	r0
     d32:	0f b6       	in	r0, 0x3f	; 63
     d34:	0f 92       	push	r0
     d36:	11 24       	eor	r1, r1
     d38:	0b b6       	in	r0, 0x3b	; 59
     d3a:	0f 92       	push	r0
     d3c:	2f 93       	push	r18
     d3e:	8f 93       	push	r24
     d40:	9f 93       	push	r25
     d42:	ef 93       	push	r30
     d44:	ff 93       	push	r31
     d46:	e0 91 fd 04 	lds	r30, 0x04FD	; 0x8004fd <Serial3+0x10>
     d4a:	f0 91 fe 04 	lds	r31, 0x04FE	; 0x8004fe <Serial3+0x11>
     d4e:	80 81       	ld	r24, Z
     d50:	e0 91 03 05 	lds	r30, 0x0503	; 0x800503 <Serial3+0x16>
     d54:	f0 91 04 05 	lds	r31, 0x0504	; 0x800504 <Serial3+0x17>
     d58:	82 fd       	sbrc	r24, 2
     d5a:	12 c0       	rjmp	.+36     	; 0xd80 <__vector_54+0x52>
     d5c:	90 81       	ld	r25, Z
     d5e:	80 91 06 05 	lds	r24, 0x0506	; 0x800506 <Serial3+0x19>
     d62:	8f 5f       	subi	r24, 0xFF	; 255
     d64:	8f 73       	andi	r24, 0x3F	; 63
     d66:	20 91 07 05 	lds	r18, 0x0507	; 0x800507 <Serial3+0x1a>
     d6a:	82 17       	cp	r24, r18
     d6c:	51 f0       	breq	.+20     	; 0xd82 <__vector_54+0x54>
     d6e:	e0 91 06 05 	lds	r30, 0x0506	; 0x800506 <Serial3+0x19>
     d72:	f0 e0       	ldi	r31, 0x00	; 0
     d74:	e3 51       	subi	r30, 0x13	; 19
     d76:	fb 4f       	sbci	r31, 0xFB	; 251
     d78:	95 8f       	std	Z+29, r25	; 0x1d
     d7a:	80 93 06 05 	sts	0x0506, r24	; 0x800506 <Serial3+0x19>
     d7e:	01 c0       	rjmp	.+2      	; 0xd82 <__vector_54+0x54>
     d80:	80 81       	ld	r24, Z
     d82:	ff 91       	pop	r31
     d84:	ef 91       	pop	r30
     d86:	9f 91       	pop	r25
     d88:	8f 91       	pop	r24
     d8a:	2f 91       	pop	r18
     d8c:	0f 90       	pop	r0
     d8e:	0b be       	out	0x3b, r0	; 59
     d90:	0f 90       	pop	r0
     d92:	0f be       	out	0x3f, r0	; 63
     d94:	0f 90       	pop	r0
     d96:	1f 90       	pop	r1
     d98:	18 95       	reti

00000d9a <__vector_55>:
     d9a:	1f 92       	push	r1
     d9c:	0f 92       	push	r0
     d9e:	0f b6       	in	r0, 0x3f	; 63
     da0:	0f 92       	push	r0
     da2:	11 24       	eor	r1, r1
     da4:	0b b6       	in	r0, 0x3b	; 59
     da6:	0f 92       	push	r0
     da8:	2f 93       	push	r18
     daa:	3f 93       	push	r19
     dac:	4f 93       	push	r20
     dae:	5f 93       	push	r21
     db0:	6f 93       	push	r22
     db2:	7f 93       	push	r23
     db4:	8f 93       	push	r24
     db6:	9f 93       	push	r25
     db8:	af 93       	push	r26
     dba:	bf 93       	push	r27
     dbc:	ef 93       	push	r30
     dbe:	ff 93       	push	r31
     dc0:	8d ee       	ldi	r24, 0xED	; 237
     dc2:	94 e0       	ldi	r25, 0x04	; 4
     dc4:	0e 94 41 04 	call	0x882	; 0x882 <_ZN14HardwareSerial17_tx_udr_empty_irqEv>
     dc8:	ff 91       	pop	r31
     dca:	ef 91       	pop	r30
     dcc:	bf 91       	pop	r27
     dce:	af 91       	pop	r26
     dd0:	9f 91       	pop	r25
     dd2:	8f 91       	pop	r24
     dd4:	7f 91       	pop	r23
     dd6:	6f 91       	pop	r22
     dd8:	5f 91       	pop	r21
     dda:	4f 91       	pop	r20
     ddc:	3f 91       	pop	r19
     dde:	2f 91       	pop	r18
     de0:	0f 90       	pop	r0
     de2:	0b be       	out	0x3b, r0	; 59
     de4:	0f 90       	pop	r0
     de6:	0f be       	out	0x3f, r0	; 63
     de8:	0f 90       	pop	r0
     dea:	1f 90       	pop	r1
     dec:	18 95       	reti

00000dee <_Z17Serial3_availablev>:
     dee:	8d ee       	ldi	r24, 0xED	; 237
     df0:	94 e0       	ldi	r25, 0x04	; 4
     df2:	0e 94 c7 03 	call	0x78e	; 0x78e <_ZN14HardwareSerial9availableEv>
     df6:	21 e0       	ldi	r18, 0x01	; 1
     df8:	89 2b       	or	r24, r25
     dfa:	09 f4       	brne	.+2      	; 0xdfe <_Z17Serial3_availablev+0x10>
     dfc:	20 e0       	ldi	r18, 0x00	; 0
     dfe:	82 2f       	mov	r24, r18
     e00:	08 95       	ret

00000e02 <yield>:
     e02:	08 95       	ret

00000e04 <_ZNK9IPAddress7printToER5Print>:
     e04:	8f 92       	push	r8
     e06:	9f 92       	push	r9
     e08:	af 92       	push	r10
     e0a:	bf 92       	push	r11
     e0c:	cf 92       	push	r12
     e0e:	df 92       	push	r13
     e10:	ef 92       	push	r14
     e12:	ff 92       	push	r15
     e14:	0f 93       	push	r16
     e16:	1f 93       	push	r17
     e18:	cf 93       	push	r28
     e1a:	df 93       	push	r29
     e1c:	7c 01       	movw	r14, r24
     e1e:	8b 01       	movw	r16, r22
     e20:	4c 01       	movw	r8, r24
     e22:	82 e0       	ldi	r24, 0x02	; 2
     e24:	88 0e       	add	r8, r24
     e26:	91 1c       	adc	r9, r1
     e28:	57 01       	movw	r10, r14
     e2a:	e5 e0       	ldi	r30, 0x05	; 5
     e2c:	ae 0e       	add	r10, r30
     e2e:	b1 1c       	adc	r11, r1
     e30:	c0 e0       	ldi	r28, 0x00	; 0
     e32:	d0 e0       	ldi	r29, 0x00	; 0
     e34:	f4 01       	movw	r30, r8
     e36:	61 91       	ld	r22, Z+
     e38:	4f 01       	movw	r8, r30
     e3a:	4a e0       	ldi	r20, 0x0A	; 10
     e3c:	50 e0       	ldi	r21, 0x00	; 0
     e3e:	c8 01       	movw	r24, r16
     e40:	0e 94 f1 08 	call	0x11e2	; 0x11e2 <_ZN5Print5printEhi>
     e44:	6c 01       	movw	r12, r24
     e46:	6e e2       	ldi	r22, 0x2E	; 46
     e48:	c8 01       	movw	r24, r16
     e4a:	0e 94 2c 08 	call	0x1058	; 0x1058 <_ZN5Print5printEc>
     e4e:	8c 0d       	add	r24, r12
     e50:	9d 1d       	adc	r25, r13
     e52:	c8 0f       	add	r28, r24
     e54:	d9 1f       	adc	r29, r25
     e56:	8a 14       	cp	r8, r10
     e58:	9b 04       	cpc	r9, r11
     e5a:	61 f7       	brne	.-40     	; 0xe34 <_ZNK9IPAddress7printToER5Print+0x30>
     e5c:	4a e0       	ldi	r20, 0x0A	; 10
     e5e:	50 e0       	ldi	r21, 0x00	; 0
     e60:	f7 01       	movw	r30, r14
     e62:	65 81       	ldd	r22, Z+5	; 0x05
     e64:	c8 01       	movw	r24, r16
     e66:	0e 94 f1 08 	call	0x11e2	; 0x11e2 <_ZN5Print5printEhi>
     e6a:	8c 0f       	add	r24, r28
     e6c:	9d 1f       	adc	r25, r29
     e6e:	df 91       	pop	r29
     e70:	cf 91       	pop	r28
     e72:	1f 91       	pop	r17
     e74:	0f 91       	pop	r16
     e76:	ff 90       	pop	r15
     e78:	ef 90       	pop	r14
     e7a:	df 90       	pop	r13
     e7c:	cf 90       	pop	r12
     e7e:	bf 90       	pop	r11
     e80:	af 90       	pop	r10
     e82:	9f 90       	pop	r9
     e84:	8f 90       	pop	r8
     e86:	08 95       	ret

00000e88 <_ZN9IPAddressC1Ev>:
     e88:	22 e3       	ldi	r18, 0x32	; 50
     e8a:	32 e0       	ldi	r19, 0x02	; 2
     e8c:	fc 01       	movw	r30, r24
     e8e:	31 83       	std	Z+1, r19	; 0x01
     e90:	20 83       	st	Z, r18
     e92:	12 82       	std	Z+2, r1	; 0x02
     e94:	13 82       	std	Z+3, r1	; 0x03
     e96:	14 82       	std	Z+4, r1	; 0x04
     e98:	15 82       	std	Z+5, r1	; 0x05
     e9a:	08 95       	ret

00000e9c <_ZN9IPAddressC1Ehhhh>:
     e9c:	0f 93       	push	r16
     e9e:	fc 01       	movw	r30, r24
     ea0:	82 e3       	ldi	r24, 0x32	; 50
     ea2:	92 e0       	ldi	r25, 0x02	; 2
     ea4:	91 83       	std	Z+1, r25	; 0x01
     ea6:	80 83       	st	Z, r24
     ea8:	62 83       	std	Z+2, r22	; 0x02
     eaa:	43 83       	std	Z+3, r20	; 0x03
     eac:	24 83       	std	Z+4, r18	; 0x04
     eae:	05 83       	std	Z+5, r16	; 0x05
     eb0:	0f 91       	pop	r16
     eb2:	08 95       	ret

00000eb4 <_ZN9IPAddressC1Em>:
     eb4:	22 e3       	ldi	r18, 0x32	; 50
     eb6:	32 e0       	ldi	r19, 0x02	; 2
     eb8:	fc 01       	movw	r30, r24
     eba:	31 83       	std	Z+1, r19	; 0x01
     ebc:	20 83       	st	Z, r18
     ebe:	42 83       	std	Z+2, r20	; 0x02
     ec0:	53 83       	std	Z+3, r21	; 0x03
     ec2:	64 83       	std	Z+4, r22	; 0x04
     ec4:	75 83       	std	Z+5, r23	; 0x05
     ec6:	08 95       	ret

00000ec8 <_ZN9IPAddressC1EPKh>:
     ec8:	dc 01       	movw	r26, r24
     eca:	82 e3       	ldi	r24, 0x32	; 50
     ecc:	92 e0       	ldi	r25, 0x02	; 2
     ece:	8d 93       	st	X+, r24
     ed0:	9d 93       	st	X+, r25
     ed2:	84 e0       	ldi	r24, 0x04	; 4
     ed4:	fb 01       	movw	r30, r22
     ed6:	01 90       	ld	r0, Z+
     ed8:	0d 92       	st	X+, r0
     eda:	8a 95       	dec	r24
     edc:	e1 f7       	brne	.-8      	; 0xed6 <_ZN9IPAddressC1EPKh+0xe>
     ede:	08 95       	ret

00000ee0 <_ZN9IPAddress10fromStringEPKc>:
     ee0:	dc 01       	movw	r26, r24
     ee2:	90 e0       	ldi	r25, 0x00	; 0
     ee4:	20 e0       	ldi	r18, 0x00	; 0
     ee6:	30 e0       	ldi	r19, 0x00	; 0
     ee8:	8a e0       	ldi	r24, 0x0A	; 10
     eea:	fb 01       	movw	r30, r22
     eec:	41 91       	ld	r20, Z+
     eee:	bf 01       	movw	r22, r30
     ef0:	44 23       	and	r20, r20
     ef2:	09 f1       	breq	.+66     	; 0xf36 <_ZN9IPAddress10fromStringEPKc+0x56>
     ef4:	50 ed       	ldi	r21, 0xD0	; 208
     ef6:	54 0f       	add	r21, r20
     ef8:	5a 30       	cpi	r21, 0x0A	; 10
     efa:	88 f4       	brcc	.+34     	; 0xf1e <_ZN9IPAddress10fromStringEPKc+0x3e>
     efc:	82 9f       	mul	r24, r18
     efe:	f0 01       	movw	r30, r0
     f00:	83 9f       	mul	r24, r19
     f02:	f0 0d       	add	r31, r0
     f04:	11 24       	eor	r1, r1
     f06:	9f 01       	movw	r18, r30
     f08:	20 53       	subi	r18, 0x30	; 48
     f0a:	31 09       	sbc	r19, r1
     f0c:	24 0f       	add	r18, r20
     f0e:	31 1d       	adc	r19, r1
     f10:	47 fd       	sbrc	r20, 7
     f12:	3a 95       	dec	r19
     f14:	2f 3f       	cpi	r18, 0xFF	; 255
     f16:	31 05       	cpc	r19, r1
     f18:	41 f3       	breq	.-48     	; 0xeea <_ZN9IPAddress10fromStringEPKc+0xa>
     f1a:	38 f3       	brcs	.-50     	; 0xeea <_ZN9IPAddress10fromStringEPKc+0xa>
     f1c:	12 c0       	rjmp	.+36     	; 0xf42 <_ZN9IPAddress10fromStringEPKc+0x62>
     f1e:	4e 32       	cpi	r20, 0x2E	; 46
     f20:	81 f4       	brne	.+32     	; 0xf42 <_ZN9IPAddress10fromStringEPKc+0x62>
     f22:	93 30       	cpi	r25, 0x03	; 3
     f24:	71 f0       	breq	.+28     	; 0xf42 <_ZN9IPAddress10fromStringEPKc+0x62>
     f26:	fd 01       	movw	r30, r26
     f28:	e9 0f       	add	r30, r25
     f2a:	f1 1d       	adc	r31, r1
     f2c:	22 83       	std	Z+2, r18	; 0x02
     f2e:	9f 5f       	subi	r25, 0xFF	; 255
     f30:	20 e0       	ldi	r18, 0x00	; 0
     f32:	30 e0       	ldi	r19, 0x00	; 0
     f34:	da cf       	rjmp	.-76     	; 0xeea <_ZN9IPAddress10fromStringEPKc+0xa>
     f36:	93 30       	cpi	r25, 0x03	; 3
     f38:	21 f4       	brne	.+8      	; 0xf42 <_ZN9IPAddress10fromStringEPKc+0x62>
     f3a:	15 96       	adiw	r26, 0x05	; 5
     f3c:	2c 93       	st	X, r18
     f3e:	81 e0       	ldi	r24, 0x01	; 1
     f40:	08 95       	ret
     f42:	80 e0       	ldi	r24, 0x00	; 0
     f44:	08 95       	ret

00000f46 <_ZN9IPAddressaSEPKh>:
     f46:	dc 01       	movw	r26, r24
     f48:	12 96       	adiw	r26, 0x02	; 2
     f4a:	24 e0       	ldi	r18, 0x04	; 4
     f4c:	fb 01       	movw	r30, r22
     f4e:	01 90       	ld	r0, Z+
     f50:	0d 92       	st	X+, r0
     f52:	2a 95       	dec	r18
     f54:	e1 f7       	brne	.-8      	; 0xf4e <_ZN9IPAddressaSEPKh+0x8>
     f56:	08 95       	ret

00000f58 <_ZN9IPAddressaSEm>:
     f58:	fc 01       	movw	r30, r24
     f5a:	42 83       	std	Z+2, r20	; 0x02
     f5c:	53 83       	std	Z+3, r21	; 0x03
     f5e:	64 83       	std	Z+4, r22	; 0x04
     f60:	75 83       	std	Z+5, r23	; 0x05
     f62:	08 95       	ret

00000f64 <_ZNK9IPAddresseqEPKh>:
     f64:	9b 01       	movw	r18, r22
     f66:	bc 01       	movw	r22, r24
     f68:	6e 5f       	subi	r22, 0xFE	; 254
     f6a:	7f 4f       	sbci	r23, 0xFF	; 255
     f6c:	44 e0       	ldi	r20, 0x04	; 4
     f6e:	50 e0       	ldi	r21, 0x00	; 0
     f70:	c9 01       	movw	r24, r18
     f72:	0e 94 93 2a 	call	0x5526	; 0x5526 <memcmp>
     f76:	21 e0       	ldi	r18, 0x01	; 1
     f78:	89 2b       	or	r24, r25
     f7a:	09 f0       	breq	.+2      	; 0xf7e <_ZNK9IPAddresseqEPKh+0x1a>
     f7c:	20 e0       	ldi	r18, 0x00	; 0
     f7e:	82 2f       	mov	r24, r18
     f80:	08 95       	ret

00000f82 <atexit>:
     f82:	80 e0       	ldi	r24, 0x00	; 0
     f84:	90 e0       	ldi	r25, 0x00	; 0
     f86:	08 95       	ret

00000f88 <initVariant>:
     f88:	08 95       	ret

00000f8a <_Z8setupUSBv>:
     f8a:	08 95       	ret

00000f8c <_Znwj>:
     f8c:	0c 94 92 27 	jmp	0x4f24	; 0x4f24 <malloc>

00000f90 <_Znaj>:
     f90:	0c 94 92 27 	jmp	0x4f24	; 0x4f24 <malloc>

00000f94 <_ZdlPv>:
     f94:	0c 94 2a 28 	jmp	0x5054	; 0x5054 <free>

00000f98 <_ZdaPv>:
     f98:	0c 94 2a 28 	jmp	0x5054	; 0x5054 <free>

00000f9c <_ZN5Print5writeEPKhj>:
     f9c:	cf 92       	push	r12
     f9e:	df 92       	push	r13
     fa0:	ef 92       	push	r14
     fa2:	ff 92       	push	r15
     fa4:	0f 93       	push	r16
     fa6:	1f 93       	push	r17
     fa8:	cf 93       	push	r28
     faa:	df 93       	push	r29
     fac:	6c 01       	movw	r12, r24
     fae:	7a 01       	movw	r14, r20
     fb0:	8b 01       	movw	r16, r22
     fb2:	c0 e0       	ldi	r28, 0x00	; 0
     fb4:	d0 e0       	ldi	r29, 0x00	; 0
     fb6:	ce 15       	cp	r28, r14
     fb8:	df 05       	cpc	r29, r15
     fba:	81 f0       	breq	.+32     	; 0xfdc <_ZN5Print5writeEPKhj+0x40>
     fbc:	d8 01       	movw	r26, r16
     fbe:	6d 91       	ld	r22, X+
     fc0:	8d 01       	movw	r16, r26
     fc2:	d6 01       	movw	r26, r12
     fc4:	ed 91       	ld	r30, X+
     fc6:	fc 91       	ld	r31, X
     fc8:	01 90       	ld	r0, Z+
     fca:	f0 81       	ld	r31, Z
     fcc:	e0 2d       	mov	r30, r0
     fce:	c6 01       	movw	r24, r12
     fd0:	19 95       	eicall
     fd2:	89 2b       	or	r24, r25
     fd4:	11 f0       	breq	.+4      	; 0xfda <_ZN5Print5writeEPKhj+0x3e>
     fd6:	21 96       	adiw	r28, 0x01	; 1
     fd8:	ee cf       	rjmp	.-36     	; 0xfb6 <_ZN5Print5writeEPKhj+0x1a>
     fda:	7e 01       	movw	r14, r28
     fdc:	c7 01       	movw	r24, r14
     fde:	df 91       	pop	r29
     fe0:	cf 91       	pop	r28
     fe2:	1f 91       	pop	r17
     fe4:	0f 91       	pop	r16
     fe6:	ff 90       	pop	r15
     fe8:	ef 90       	pop	r14
     fea:	df 90       	pop	r13
     fec:	cf 90       	pop	r12
     fee:	08 95       	ret

00000ff0 <_ZN5Print5printEPK19__FlashStringHelper>:
     ff0:	ef 92       	push	r14
     ff2:	ff 92       	push	r15
     ff4:	0f 93       	push	r16
     ff6:	1f 93       	push	r17
     ff8:	cf 93       	push	r28
     ffa:	df 93       	push	r29
     ffc:	8c 01       	movw	r16, r24
     ffe:	7b 01       	movw	r14, r22
    1000:	c0 e0       	ldi	r28, 0x00	; 0
    1002:	d0 e0       	ldi	r29, 0x00	; 0
    1004:	f7 01       	movw	r30, r14
    1006:	ec 0f       	add	r30, r28
    1008:	fd 1f       	adc	r31, r29
    100a:	64 91       	lpm	r22, Z
    100c:	66 23       	and	r22, r22
    100e:	61 f0       	breq	.+24     	; 0x1028 <__EEPROM_REGION_LENGTH__+0x28>
    1010:	d8 01       	movw	r26, r16
    1012:	ed 91       	ld	r30, X+
    1014:	fc 91       	ld	r31, X
    1016:	01 90       	ld	r0, Z+
    1018:	f0 81       	ld	r31, Z
    101a:	e0 2d       	mov	r30, r0
    101c:	c8 01       	movw	r24, r16
    101e:	19 95       	eicall
    1020:	89 2b       	or	r24, r25
    1022:	11 f0       	breq	.+4      	; 0x1028 <__EEPROM_REGION_LENGTH__+0x28>
    1024:	21 96       	adiw	r28, 0x01	; 1
    1026:	ee cf       	rjmp	.-36     	; 0x1004 <__EEPROM_REGION_LENGTH__+0x4>
    1028:	ce 01       	movw	r24, r28
    102a:	df 91       	pop	r29
    102c:	cf 91       	pop	r28
    102e:	1f 91       	pop	r17
    1030:	0f 91       	pop	r16
    1032:	ff 90       	pop	r15
    1034:	ef 90       	pop	r14
    1036:	08 95       	ret

00001038 <_ZN5Print5printERK6String>:
    1038:	db 01       	movw	r26, r22
    103a:	14 96       	adiw	r26, 0x04	; 4
    103c:	4d 91       	ld	r20, X+
    103e:	5c 91       	ld	r21, X
    1040:	15 97       	sbiw	r26, 0x05	; 5
    1042:	6d 91       	ld	r22, X+
    1044:	7c 91       	ld	r23, X
    1046:	dc 01       	movw	r26, r24
    1048:	ed 91       	ld	r30, X+
    104a:	fc 91       	ld	r31, X
    104c:	02 80       	ldd	r0, Z+2	; 0x02
    104e:	f3 81       	ldd	r31, Z+3	; 0x03
    1050:	e0 2d       	mov	r30, r0
    1052:	19 94       	eijmp

00001054 <_ZN5Print5printEPKc>:
    1054:	0c 94 a6 24 	jmp	0x494c	; 0x494c <_ZN5Print5writeEPKc>

00001058 <_ZN5Print5printEc>:
    1058:	dc 01       	movw	r26, r24
    105a:	ed 91       	ld	r30, X+
    105c:	fc 91       	ld	r31, X
    105e:	01 90       	ld	r0, Z+
    1060:	f0 81       	ld	r31, Z
    1062:	e0 2d       	mov	r30, r0
    1064:	19 94       	eijmp

00001066 <_ZN5Print5printERK9Printable>:
    1066:	db 01       	movw	r26, r22
    1068:	ed 91       	ld	r30, X+
    106a:	fc 91       	ld	r31, X
    106c:	11 97       	sbiw	r26, 0x01	; 1
    106e:	01 90       	ld	r0, Z+
    1070:	f0 81       	ld	r31, Z
    1072:	e0 2d       	mov	r30, r0
    1074:	bc 01       	movw	r22, r24
    1076:	cd 01       	movw	r24, r26
    1078:	19 94       	eijmp

0000107a <_ZN5Print7printlnEv>:
    107a:	64 e3       	ldi	r22, 0x34	; 52
    107c:	72 e0       	ldi	r23, 0x02	; 2
    107e:	0c 94 a6 24 	jmp	0x494c	; 0x494c <_ZN5Print5writeEPKc>

00001082 <_ZN5Print7printlnEPK19__FlashStringHelper>:
    1082:	0f 93       	push	r16
    1084:	1f 93       	push	r17
    1086:	cf 93       	push	r28
    1088:	df 93       	push	r29
    108a:	ec 01       	movw	r28, r24
    108c:	0e 94 f8 07 	call	0xff0	; 0xff0 <_ZN5Print5printEPK19__FlashStringHelper>
    1090:	8c 01       	movw	r16, r24
    1092:	ce 01       	movw	r24, r28
    1094:	0e 94 3d 08 	call	0x107a	; 0x107a <_ZN5Print7printlnEv>
    1098:	80 0f       	add	r24, r16
    109a:	91 1f       	adc	r25, r17
    109c:	df 91       	pop	r29
    109e:	cf 91       	pop	r28
    10a0:	1f 91       	pop	r17
    10a2:	0f 91       	pop	r16
    10a4:	08 95       	ret

000010a6 <_ZN5Print7printlnERK6String>:
    10a6:	0f 93       	push	r16
    10a8:	1f 93       	push	r17
    10aa:	cf 93       	push	r28
    10ac:	df 93       	push	r29
    10ae:	ec 01       	movw	r28, r24
    10b0:	0e 94 1c 08 	call	0x1038	; 0x1038 <_ZN5Print5printERK6String>
    10b4:	8c 01       	movw	r16, r24
    10b6:	ce 01       	movw	r24, r28
    10b8:	0e 94 3d 08 	call	0x107a	; 0x107a <_ZN5Print7printlnEv>
    10bc:	80 0f       	add	r24, r16
    10be:	91 1f       	adc	r25, r17
    10c0:	df 91       	pop	r29
    10c2:	cf 91       	pop	r28
    10c4:	1f 91       	pop	r17
    10c6:	0f 91       	pop	r16
    10c8:	08 95       	ret

000010ca <_ZN5Print7printlnEPKc>:
    10ca:	0f 93       	push	r16
    10cc:	1f 93       	push	r17
    10ce:	cf 93       	push	r28
    10d0:	df 93       	push	r29
    10d2:	ec 01       	movw	r28, r24
    10d4:	0e 94 a6 24 	call	0x494c	; 0x494c <_ZN5Print5writeEPKc>
    10d8:	8c 01       	movw	r16, r24
    10da:	ce 01       	movw	r24, r28
    10dc:	0e 94 3d 08 	call	0x107a	; 0x107a <_ZN5Print7printlnEv>
    10e0:	80 0f       	add	r24, r16
    10e2:	91 1f       	adc	r25, r17
    10e4:	df 91       	pop	r29
    10e6:	cf 91       	pop	r28
    10e8:	1f 91       	pop	r17
    10ea:	0f 91       	pop	r16
    10ec:	08 95       	ret

000010ee <_ZN5Print7printlnEc>:
    10ee:	0f 93       	push	r16
    10f0:	1f 93       	push	r17
    10f2:	cf 93       	push	r28
    10f4:	df 93       	push	r29
    10f6:	ec 01       	movw	r28, r24
    10f8:	0e 94 2c 08 	call	0x1058	; 0x1058 <_ZN5Print5printEc>
    10fc:	8c 01       	movw	r16, r24
    10fe:	ce 01       	movw	r24, r28
    1100:	0e 94 3d 08 	call	0x107a	; 0x107a <_ZN5Print7printlnEv>
    1104:	80 0f       	add	r24, r16
    1106:	91 1f       	adc	r25, r17
    1108:	df 91       	pop	r29
    110a:	cf 91       	pop	r28
    110c:	1f 91       	pop	r17
    110e:	0f 91       	pop	r16
    1110:	08 95       	ret

00001112 <_ZN5Print7printlnERK9Printable>:
    1112:	0f 93       	push	r16
    1114:	1f 93       	push	r17
    1116:	cf 93       	push	r28
    1118:	df 93       	push	r29
    111a:	ec 01       	movw	r28, r24
    111c:	0e 94 33 08 	call	0x1066	; 0x1066 <_ZN5Print5printERK9Printable>
    1120:	8c 01       	movw	r16, r24
    1122:	ce 01       	movw	r24, r28
    1124:	0e 94 3d 08 	call	0x107a	; 0x107a <_ZN5Print7printlnEv>
    1128:	80 0f       	add	r24, r16
    112a:	91 1f       	adc	r25, r17
    112c:	df 91       	pop	r29
    112e:	cf 91       	pop	r28
    1130:	1f 91       	pop	r17
    1132:	0f 91       	pop	r16
    1134:	08 95       	ret

00001136 <_ZN5Print11printNumberEmh>:
    1136:	8f 92       	push	r8
    1138:	9f 92       	push	r9
    113a:	af 92       	push	r10
    113c:	bf 92       	push	r11
    113e:	ef 92       	push	r14
    1140:	ff 92       	push	r15
    1142:	0f 93       	push	r16
    1144:	1f 93       	push	r17
    1146:	cf 93       	push	r28
    1148:	df 93       	push	r29
    114a:	cd b7       	in	r28, 0x3d	; 61
    114c:	de b7       	in	r29, 0x3e	; 62
    114e:	a1 97       	sbiw	r28, 0x21	; 33
    1150:	0f b6       	in	r0, 0x3f	; 63
    1152:	f8 94       	cli
    1154:	de bf       	out	0x3e, r29	; 62
    1156:	0f be       	out	0x3f, r0	; 63
    1158:	cd bf       	out	0x3d, r28	; 61
    115a:	7c 01       	movw	r14, r24
    115c:	fa 01       	movw	r30, r20
    115e:	cb 01       	movw	r24, r22
    1160:	19 a2       	std	Y+33, r1	; 0x21
    1162:	22 30       	cpi	r18, 0x02	; 2
    1164:	08 f4       	brcc	.+2      	; 0x1168 <_ZN5Print11printNumberEmh+0x32>
    1166:	2a e0       	ldi	r18, 0x0A	; 10
    1168:	8e 01       	movw	r16, r28
    116a:	0f 5d       	subi	r16, 0xDF	; 223
    116c:	1f 4f       	sbci	r17, 0xFF	; 255
    116e:	82 2e       	mov	r8, r18
    1170:	91 2c       	mov	r9, r1
    1172:	a1 2c       	mov	r10, r1
    1174:	b1 2c       	mov	r11, r1
    1176:	bf 01       	movw	r22, r30
    1178:	a5 01       	movw	r20, r10
    117a:	94 01       	movw	r18, r8
    117c:	0e 94 d3 24 	call	0x49a6	; 0x49a6 <__udivmodsi4>
    1180:	f9 01       	movw	r30, r18
    1182:	ca 01       	movw	r24, r20
    1184:	01 50       	subi	r16, 0x01	; 1
    1186:	11 09       	sbc	r17, r1
    1188:	6a 30       	cpi	r22, 0x0A	; 10
    118a:	14 f4       	brge	.+4      	; 0x1190 <_ZN5Print11printNumberEmh+0x5a>
    118c:	60 5d       	subi	r22, 0xD0	; 208
    118e:	01 c0       	rjmp	.+2      	; 0x1192 <_ZN5Print11printNumberEmh+0x5c>
    1190:	69 5c       	subi	r22, 0xC9	; 201
    1192:	d8 01       	movw	r26, r16
    1194:	6c 93       	st	X, r22
    1196:	23 2b       	or	r18, r19
    1198:	24 2b       	or	r18, r20
    119a:	25 2b       	or	r18, r21
    119c:	61 f7       	brne	.-40     	; 0x1176 <_ZN5Print11printNumberEmh+0x40>
    119e:	b8 01       	movw	r22, r16
    11a0:	c7 01       	movw	r24, r14
    11a2:	0e 94 a6 24 	call	0x494c	; 0x494c <_ZN5Print5writeEPKc>
    11a6:	a1 96       	adiw	r28, 0x21	; 33
    11a8:	0f b6       	in	r0, 0x3f	; 63
    11aa:	f8 94       	cli
    11ac:	de bf       	out	0x3e, r29	; 62
    11ae:	0f be       	out	0x3f, r0	; 63
    11b0:	cd bf       	out	0x3d, r28	; 61
    11b2:	df 91       	pop	r29
    11b4:	cf 91       	pop	r28
    11b6:	1f 91       	pop	r17
    11b8:	0f 91       	pop	r16
    11ba:	ff 90       	pop	r15
    11bc:	ef 90       	pop	r14
    11be:	bf 90       	pop	r11
    11c0:	af 90       	pop	r10
    11c2:	9f 90       	pop	r9
    11c4:	8f 90       	pop	r8
    11c6:	08 95       	ret

000011c8 <_ZN5Print5printEmi>:
    11c8:	21 15       	cp	r18, r1
    11ca:	31 05       	cpc	r19, r1
    11cc:	41 f4       	brne	.+16     	; 0x11de <_ZN5Print5printEmi+0x16>
    11ce:	dc 01       	movw	r26, r24
    11d0:	ed 91       	ld	r30, X+
    11d2:	fc 91       	ld	r31, X
    11d4:	01 90       	ld	r0, Z+
    11d6:	f0 81       	ld	r31, Z
    11d8:	e0 2d       	mov	r30, r0
    11da:	64 2f       	mov	r22, r20
    11dc:	19 94       	eijmp
    11de:	0c 94 9b 08 	jmp	0x1136	; 0x1136 <_ZN5Print11printNumberEmh>

000011e2 <_ZN5Print5printEhi>:
    11e2:	9a 01       	movw	r18, r20
    11e4:	46 2f       	mov	r20, r22
    11e6:	50 e0       	ldi	r21, 0x00	; 0
    11e8:	60 e0       	ldi	r22, 0x00	; 0
    11ea:	70 e0       	ldi	r23, 0x00	; 0
    11ec:	0c 94 e4 08 	jmp	0x11c8	; 0x11c8 <_ZN5Print5printEmi>

000011f0 <_ZN5Print7printlnEhi>:
    11f0:	0f 93       	push	r16
    11f2:	1f 93       	push	r17
    11f4:	cf 93       	push	r28
    11f6:	df 93       	push	r29
    11f8:	ec 01       	movw	r28, r24
    11fa:	0e 94 f1 08 	call	0x11e2	; 0x11e2 <_ZN5Print5printEhi>
    11fe:	8c 01       	movw	r16, r24
    1200:	ce 01       	movw	r24, r28
    1202:	0e 94 3d 08 	call	0x107a	; 0x107a <_ZN5Print7printlnEv>
    1206:	80 0f       	add	r24, r16
    1208:	91 1f       	adc	r25, r17
    120a:	df 91       	pop	r29
    120c:	cf 91       	pop	r28
    120e:	1f 91       	pop	r17
    1210:	0f 91       	pop	r16
    1212:	08 95       	ret

00001214 <_ZN5Print5printEji>:
    1214:	9a 01       	movw	r18, r20
    1216:	ab 01       	movw	r20, r22
    1218:	60 e0       	ldi	r22, 0x00	; 0
    121a:	70 e0       	ldi	r23, 0x00	; 0
    121c:	0c 94 e4 08 	jmp	0x11c8	; 0x11c8 <_ZN5Print5printEmi>

00001220 <_ZN5Print7printlnEji>:
    1220:	0f 93       	push	r16
    1222:	1f 93       	push	r17
    1224:	cf 93       	push	r28
    1226:	df 93       	push	r29
    1228:	ec 01       	movw	r28, r24
    122a:	0e 94 0a 09 	call	0x1214	; 0x1214 <_ZN5Print5printEji>
    122e:	8c 01       	movw	r16, r24
    1230:	ce 01       	movw	r24, r28
    1232:	0e 94 3d 08 	call	0x107a	; 0x107a <_ZN5Print7printlnEv>
    1236:	80 0f       	add	r24, r16
    1238:	91 1f       	adc	r25, r17
    123a:	df 91       	pop	r29
    123c:	cf 91       	pop	r28
    123e:	1f 91       	pop	r17
    1240:	0f 91       	pop	r16
    1242:	08 95       	ret

00001244 <_ZN5Print7printlnEmi>:
    1244:	0f 93       	push	r16
    1246:	1f 93       	push	r17
    1248:	cf 93       	push	r28
    124a:	df 93       	push	r29
    124c:	ec 01       	movw	r28, r24
    124e:	0e 94 e4 08 	call	0x11c8	; 0x11c8 <_ZN5Print5printEmi>
    1252:	8c 01       	movw	r16, r24
    1254:	ce 01       	movw	r24, r28
    1256:	0e 94 3d 08 	call	0x107a	; 0x107a <_ZN5Print7printlnEv>
    125a:	80 0f       	add	r24, r16
    125c:	91 1f       	adc	r25, r17
    125e:	df 91       	pop	r29
    1260:	cf 91       	pop	r28
    1262:	1f 91       	pop	r17
    1264:	0f 91       	pop	r16
    1266:	08 95       	ret

00001268 <_ZN5Print5printEli>:
    1268:	cf 92       	push	r12
    126a:	df 92       	push	r13
    126c:	ef 92       	push	r14
    126e:	ff 92       	push	r15
    1270:	0f 93       	push	r16
    1272:	1f 93       	push	r17
    1274:	cf 93       	push	r28
    1276:	df 93       	push	r29
    1278:	21 15       	cp	r18, r1
    127a:	31 05       	cpc	r19, r1
    127c:	81 f4       	brne	.+32     	; 0x129e <_ZN5Print5printEli+0x36>
    127e:	dc 01       	movw	r26, r24
    1280:	ed 91       	ld	r30, X+
    1282:	fc 91       	ld	r31, X
    1284:	01 90       	ld	r0, Z+
    1286:	f0 81       	ld	r31, Z
    1288:	e0 2d       	mov	r30, r0
    128a:	64 2f       	mov	r22, r20
    128c:	df 91       	pop	r29
    128e:	cf 91       	pop	r28
    1290:	1f 91       	pop	r17
    1292:	0f 91       	pop	r16
    1294:	ff 90       	pop	r15
    1296:	ef 90       	pop	r14
    1298:	df 90       	pop	r13
    129a:	cf 90       	pop	r12
    129c:	19 94       	eijmp
    129e:	2a 30       	cpi	r18, 0x0A	; 10
    12a0:	31 05       	cpc	r19, r1
    12a2:	01 f5       	brne	.+64     	; 0x12e4 <_ZN5Print5printEli+0x7c>
    12a4:	77 ff       	sbrs	r23, 7
    12a6:	1d c0       	rjmp	.+58     	; 0x12e2 <_ZN5Print5printEli+0x7a>
    12a8:	6a 01       	movw	r12, r20
    12aa:	7b 01       	movw	r14, r22
    12ac:	ec 01       	movw	r28, r24
    12ae:	6d e2       	ldi	r22, 0x2D	; 45
    12b0:	0e 94 2c 08 	call	0x1058	; 0x1058 <_ZN5Print5printEc>
    12b4:	8c 01       	movw	r16, r24
    12b6:	44 27       	eor	r20, r20
    12b8:	55 27       	eor	r21, r21
    12ba:	ba 01       	movw	r22, r20
    12bc:	4c 19       	sub	r20, r12
    12be:	5d 09       	sbc	r21, r13
    12c0:	6e 09       	sbc	r22, r14
    12c2:	7f 09       	sbc	r23, r15
    12c4:	2a e0       	ldi	r18, 0x0A	; 10
    12c6:	ce 01       	movw	r24, r28
    12c8:	0e 94 9b 08 	call	0x1136	; 0x1136 <_ZN5Print11printNumberEmh>
    12cc:	80 0f       	add	r24, r16
    12ce:	91 1f       	adc	r25, r17
    12d0:	df 91       	pop	r29
    12d2:	cf 91       	pop	r28
    12d4:	1f 91       	pop	r17
    12d6:	0f 91       	pop	r16
    12d8:	ff 90       	pop	r15
    12da:	ef 90       	pop	r14
    12dc:	df 90       	pop	r13
    12de:	cf 90       	pop	r12
    12e0:	08 95       	ret
    12e2:	2a e0       	ldi	r18, 0x0A	; 10
    12e4:	df 91       	pop	r29
    12e6:	cf 91       	pop	r28
    12e8:	1f 91       	pop	r17
    12ea:	0f 91       	pop	r16
    12ec:	ff 90       	pop	r15
    12ee:	ef 90       	pop	r14
    12f0:	df 90       	pop	r13
    12f2:	cf 90       	pop	r12
    12f4:	0c 94 9b 08 	jmp	0x1136	; 0x1136 <_ZN5Print11printNumberEmh>

000012f8 <_ZN5Print5printEii>:
    12f8:	9a 01       	movw	r18, r20
    12fa:	ab 01       	movw	r20, r22
    12fc:	77 0f       	add	r23, r23
    12fe:	66 0b       	sbc	r22, r22
    1300:	77 0b       	sbc	r23, r23
    1302:	0c 94 34 09 	jmp	0x1268	; 0x1268 <_ZN5Print5printEli>

00001306 <_ZN5Print7printlnEii>:
    1306:	0f 93       	push	r16
    1308:	1f 93       	push	r17
    130a:	cf 93       	push	r28
    130c:	df 93       	push	r29
    130e:	ec 01       	movw	r28, r24
    1310:	0e 94 7c 09 	call	0x12f8	; 0x12f8 <_ZN5Print5printEii>
    1314:	8c 01       	movw	r16, r24
    1316:	ce 01       	movw	r24, r28
    1318:	0e 94 3d 08 	call	0x107a	; 0x107a <_ZN5Print7printlnEv>
    131c:	80 0f       	add	r24, r16
    131e:	91 1f       	adc	r25, r17
    1320:	df 91       	pop	r29
    1322:	cf 91       	pop	r28
    1324:	1f 91       	pop	r17
    1326:	0f 91       	pop	r16
    1328:	08 95       	ret

0000132a <_ZN5Print7printlnEli>:
    132a:	0f 93       	push	r16
    132c:	1f 93       	push	r17
    132e:	cf 93       	push	r28
    1330:	df 93       	push	r29
    1332:	ec 01       	movw	r28, r24
    1334:	0e 94 34 09 	call	0x1268	; 0x1268 <_ZN5Print5printEli>
    1338:	8c 01       	movw	r16, r24
    133a:	ce 01       	movw	r24, r28
    133c:	0e 94 3d 08 	call	0x107a	; 0x107a <_ZN5Print7printlnEv>
    1340:	80 0f       	add	r24, r16
    1342:	91 1f       	adc	r25, r17
    1344:	df 91       	pop	r29
    1346:	cf 91       	pop	r28
    1348:	1f 91       	pop	r17
    134a:	0f 91       	pop	r16
    134c:	08 95       	ret

0000134e <_ZN5Print10printFloatEdh>:
    134e:	7f 92       	push	r7
    1350:	8f 92       	push	r8
    1352:	9f 92       	push	r9
    1354:	af 92       	push	r10
    1356:	bf 92       	push	r11
    1358:	cf 92       	push	r12
    135a:	df 92       	push	r13
    135c:	ef 92       	push	r14
    135e:	ff 92       	push	r15
    1360:	0f 93       	push	r16
    1362:	1f 93       	push	r17
    1364:	cf 93       	push	r28
    1366:	df 93       	push	r29
    1368:	8c 01       	movw	r16, r24
    136a:	6a 01       	movw	r12, r20
    136c:	7b 01       	movw	r14, r22
    136e:	72 2e       	mov	r7, r18
    1370:	9a 01       	movw	r18, r20
    1372:	ab 01       	movw	r20, r22
    1374:	c7 01       	movw	r24, r14
    1376:	b6 01       	movw	r22, r12
    1378:	0e 94 6d 27 	call	0x4eda	; 0x4eda <__unordsf2>
    137c:	88 23       	and	r24, r24
    137e:	19 f0       	breq	.+6      	; 0x1386 <_ZN5Print10printFloatEdh+0x38>
    1380:	67 e3       	ldi	r22, 0x37	; 55
    1382:	72 e0       	ldi	r23, 0x02	; 2
    1384:	27 c0       	rjmp	.+78     	; 0x13d4 <_ZN5Print10printFloatEdh+0x86>
    1386:	46 01       	movw	r8, r12
    1388:	57 01       	movw	r10, r14
    138a:	e8 94       	clt
    138c:	b7 f8       	bld	r11, 7
    138e:	2f ef       	ldi	r18, 0xFF	; 255
    1390:	3f ef       	ldi	r19, 0xFF	; 255
    1392:	4f e7       	ldi	r20, 0x7F	; 127
    1394:	5f e7       	ldi	r21, 0x7F	; 127
    1396:	c5 01       	movw	r24, r10
    1398:	b4 01       	movw	r22, r8
    139a:	0e 94 6d 27 	call	0x4eda	; 0x4eda <__unordsf2>
    139e:	81 11       	cpse	r24, r1
    13a0:	0d c0       	rjmp	.+26     	; 0x13bc <_ZN5Print10printFloatEdh+0x6e>
    13a2:	2f ef       	ldi	r18, 0xFF	; 255
    13a4:	3f ef       	ldi	r19, 0xFF	; 255
    13a6:	4f e7       	ldi	r20, 0x7F	; 127
    13a8:	5f e7       	ldi	r21, 0x7F	; 127
    13aa:	c5 01       	movw	r24, r10
    13ac:	b4 01       	movw	r22, r8
    13ae:	0e 94 a3 25 	call	0x4b46	; 0x4b46 <__cmpsf2>
    13b2:	18 16       	cp	r1, r24
    13b4:	1c f4       	brge	.+6      	; 0x13bc <_ZN5Print10printFloatEdh+0x6e>
    13b6:	6b e3       	ldi	r22, 0x3B	; 59
    13b8:	72 e0       	ldi	r23, 0x02	; 2
    13ba:	0c c0       	rjmp	.+24     	; 0x13d4 <_ZN5Print10printFloatEdh+0x86>
    13bc:	2f ef       	ldi	r18, 0xFF	; 255
    13be:	3f ef       	ldi	r19, 0xFF	; 255
    13c0:	4f e7       	ldi	r20, 0x7F	; 127
    13c2:	5f e4       	ldi	r21, 0x4F	; 79
    13c4:	c7 01       	movw	r24, r14
    13c6:	b6 01       	movw	r22, r12
    13c8:	0e 94 fb 26 	call	0x4df6	; 0x4df6 <__gesf2>
    13cc:	18 16       	cp	r1, r24
    13ce:	94 f4       	brge	.+36     	; 0x13f4 <_ZN5Print10printFloatEdh+0xa6>
    13d0:	6f e3       	ldi	r22, 0x3F	; 63
    13d2:	72 e0       	ldi	r23, 0x02	; 2
    13d4:	c8 01       	movw	r24, r16
    13d6:	df 91       	pop	r29
    13d8:	cf 91       	pop	r28
    13da:	1f 91       	pop	r17
    13dc:	0f 91       	pop	r16
    13de:	ff 90       	pop	r15
    13e0:	ef 90       	pop	r14
    13e2:	df 90       	pop	r13
    13e4:	cf 90       	pop	r12
    13e6:	bf 90       	pop	r11
    13e8:	af 90       	pop	r10
    13ea:	9f 90       	pop	r9
    13ec:	8f 90       	pop	r8
    13ee:	7f 90       	pop	r7
    13f0:	0c 94 a6 24 	jmp	0x494c	; 0x494c <_ZN5Print5writeEPKc>
    13f4:	2f ef       	ldi	r18, 0xFF	; 255
    13f6:	3f ef       	ldi	r19, 0xFF	; 255
    13f8:	4f e7       	ldi	r20, 0x7F	; 127
    13fa:	5f ec       	ldi	r21, 0xCF	; 207
    13fc:	c7 01       	movw	r24, r14
    13fe:	b6 01       	movw	r22, r12
    1400:	0e 94 a3 25 	call	0x4b46	; 0x4b46 <__cmpsf2>
    1404:	87 fd       	sbrc	r24, 7
    1406:	e4 cf       	rjmp	.-56     	; 0x13d0 <_ZN5Print10printFloatEdh+0x82>
    1408:	20 e0       	ldi	r18, 0x00	; 0
    140a:	30 e0       	ldi	r19, 0x00	; 0
    140c:	a9 01       	movw	r20, r18
    140e:	c7 01       	movw	r24, r14
    1410:	b6 01       	movw	r22, r12
    1412:	0e 94 a3 25 	call	0x4b46	; 0x4b46 <__cmpsf2>
    1416:	87 ff       	sbrs	r24, 7
    1418:	0a c0       	rjmp	.+20     	; 0x142e <_ZN5Print10printFloatEdh+0xe0>
    141a:	6d e2       	ldi	r22, 0x2D	; 45
    141c:	c8 01       	movw	r24, r16
    141e:	0e 94 2c 08 	call	0x1058	; 0x1058 <_ZN5Print5printEc>
    1422:	ec 01       	movw	r28, r24
    1424:	f7 fa       	bst	r15, 7
    1426:	f0 94       	com	r15
    1428:	f7 f8       	bld	r15, 7
    142a:	f0 94       	com	r15
    142c:	02 c0       	rjmp	.+4      	; 0x1432 <_ZN5Print10printFloatEdh+0xe4>
    142e:	c0 e0       	ldi	r28, 0x00	; 0
    1430:	d0 e0       	ldi	r29, 0x00	; 0
    1432:	b1 2c       	mov	r11, r1
    1434:	60 e0       	ldi	r22, 0x00	; 0
    1436:	70 e0       	ldi	r23, 0x00	; 0
    1438:	80 e0       	ldi	r24, 0x00	; 0
    143a:	9f e3       	ldi	r25, 0x3F	; 63
    143c:	7b 14       	cp	r7, r11
    143e:	41 f0       	breq	.+16     	; 0x1450 <_ZN5Print10printFloatEdh+0x102>
    1440:	20 e0       	ldi	r18, 0x00	; 0
    1442:	30 e0       	ldi	r19, 0x00	; 0
    1444:	40 e2       	ldi	r20, 0x20	; 32
    1446:	51 e4       	ldi	r21, 0x41	; 65
    1448:	0e 94 a8 25 	call	0x4b50	; 0x4b50 <__divsf3>
    144c:	b3 94       	inc	r11
    144e:	f6 cf       	rjmp	.-20     	; 0x143c <_ZN5Print10printFloatEdh+0xee>
    1450:	a7 01       	movw	r20, r14
    1452:	96 01       	movw	r18, r12
    1454:	0e 94 37 25 	call	0x4a6e	; 0x4a6e <__addsf3>
    1458:	6b 01       	movw	r12, r22
    145a:	7c 01       	movw	r14, r24
    145c:	0e 94 1a 26 	call	0x4c34	; 0x4c34 <__fixunssfsi>
    1460:	4b 01       	movw	r8, r22
    1462:	5c 01       	movw	r10, r24
    1464:	2a e0       	ldi	r18, 0x0A	; 10
    1466:	ab 01       	movw	r20, r22
    1468:	bc 01       	movw	r22, r24
    146a:	c8 01       	movw	r24, r16
    146c:	0e 94 9b 08 	call	0x1136	; 0x1136 <_ZN5Print11printNumberEmh>
    1470:	c8 0f       	add	r28, r24
    1472:	d9 1f       	adc	r29, r25
    1474:	77 20       	and	r7, r7
    1476:	b9 f1       	breq	.+110    	; 0x14e6 <_ZN5Print10printFloatEdh+0x198>
    1478:	c5 01       	movw	r24, r10
    147a:	b4 01       	movw	r22, r8
    147c:	0e 94 49 26 	call	0x4c92	; 0x4c92 <__floatunsisf>
    1480:	9b 01       	movw	r18, r22
    1482:	ac 01       	movw	r20, r24
    1484:	c7 01       	movw	r24, r14
    1486:	b6 01       	movw	r22, r12
    1488:	0e 94 36 25 	call	0x4a6c	; 0x4a6c <__subsf3>
    148c:	6b 01       	movw	r12, r22
    148e:	7c 01       	movw	r14, r24
    1490:	6e e2       	ldi	r22, 0x2E	; 46
    1492:	c8 01       	movw	r24, r16
    1494:	0e 94 2c 08 	call	0x1058	; 0x1058 <_ZN5Print5printEc>
    1498:	c8 0f       	add	r28, r24
    149a:	d9 1f       	adc	r29, r25
    149c:	20 e0       	ldi	r18, 0x00	; 0
    149e:	30 e0       	ldi	r19, 0x00	; 0
    14a0:	40 e2       	ldi	r20, 0x20	; 32
    14a2:	51 e4       	ldi	r21, 0x41	; 65
    14a4:	c7 01       	movw	r24, r14
    14a6:	b6 01       	movw	r22, r12
    14a8:	0e 94 00 27 	call	0x4e00	; 0x4e00 <__mulsf3>
    14ac:	4b 01       	movw	r8, r22
    14ae:	5c 01       	movw	r10, r24
    14b0:	0e 94 1a 26 	call	0x4c34	; 0x4c34 <__fixunssfsi>
    14b4:	6b 01       	movw	r12, r22
    14b6:	7c 01       	movw	r14, r24
    14b8:	4a e0       	ldi	r20, 0x0A	; 10
    14ba:	50 e0       	ldi	r21, 0x00	; 0
    14bc:	c8 01       	movw	r24, r16
    14be:	0e 94 0a 09 	call	0x1214	; 0x1214 <_ZN5Print5printEji>
    14c2:	c8 0f       	add	r28, r24
    14c4:	d9 1f       	adc	r29, r25
    14c6:	b6 01       	movw	r22, r12
    14c8:	80 e0       	ldi	r24, 0x00	; 0
    14ca:	90 e0       	ldi	r25, 0x00	; 0
    14cc:	0e 94 49 26 	call	0x4c92	; 0x4c92 <__floatunsisf>
    14d0:	9b 01       	movw	r18, r22
    14d2:	ac 01       	movw	r20, r24
    14d4:	c5 01       	movw	r24, r10
    14d6:	b4 01       	movw	r22, r8
    14d8:	0e 94 36 25 	call	0x4a6c	; 0x4a6c <__subsf3>
    14dc:	6b 01       	movw	r12, r22
    14de:	7c 01       	movw	r14, r24
    14e0:	7a 94       	dec	r7
    14e2:	71 10       	cpse	r7, r1
    14e4:	db cf       	rjmp	.-74     	; 0x149c <_ZN5Print10printFloatEdh+0x14e>
    14e6:	ce 01       	movw	r24, r28
    14e8:	df 91       	pop	r29
    14ea:	cf 91       	pop	r28
    14ec:	1f 91       	pop	r17
    14ee:	0f 91       	pop	r16
    14f0:	ff 90       	pop	r15
    14f2:	ef 90       	pop	r14
    14f4:	df 90       	pop	r13
    14f6:	cf 90       	pop	r12
    14f8:	bf 90       	pop	r11
    14fa:	af 90       	pop	r10
    14fc:	9f 90       	pop	r9
    14fe:	8f 90       	pop	r8
    1500:	7f 90       	pop	r7
    1502:	08 95       	ret

00001504 <_ZN5Print5printEdi>:
    1504:	0c 94 a7 09 	jmp	0x134e	; 0x134e <_ZN5Print10printFloatEdh>

00001508 <_ZN5Print7printlnEdi>:
    1508:	0f 93       	push	r16
    150a:	1f 93       	push	r17
    150c:	cf 93       	push	r28
    150e:	df 93       	push	r29
    1510:	ec 01       	movw	r28, r24
    1512:	0e 94 a7 09 	call	0x134e	; 0x134e <_ZN5Print10printFloatEdh>
    1516:	8c 01       	movw	r16, r24
    1518:	ce 01       	movw	r24, r28
    151a:	0e 94 3d 08 	call	0x107a	; 0x107a <_ZN5Print7printlnEv>
    151e:	80 0f       	add	r24, r16
    1520:	91 1f       	adc	r25, r17
    1522:	df 91       	pop	r29
    1524:	cf 91       	pop	r28
    1526:	1f 91       	pop	r17
    1528:	0f 91       	pop	r16
    152a:	08 95       	ret

0000152c <_ZN6Stream9timedReadEv>:
    152c:	0f 93       	push	r16
    152e:	1f 93       	push	r17
    1530:	cf 93       	push	r28
    1532:	df 93       	push	r29
    1534:	ec 01       	movw	r28, r24
    1536:	0e 94 61 14 	call	0x28c2	; 0x28c2 <millis>
    153a:	68 87       	std	Y+8, r22	; 0x08
    153c:	79 87       	std	Y+9, r23	; 0x09
    153e:	8a 87       	std	Y+10, r24	; 0x0a
    1540:	9b 87       	std	Y+11, r25	; 0x0b
    1542:	e8 81       	ld	r30, Y
    1544:	f9 81       	ldd	r31, Y+1	; 0x01
    1546:	02 84       	ldd	r0, Z+10	; 0x0a
    1548:	f3 85       	ldd	r31, Z+11	; 0x0b
    154a:	e0 2d       	mov	r30, r0
    154c:	ce 01       	movw	r24, r28
    154e:	19 95       	eicall
    1550:	97 ff       	sbrs	r25, 7
    1552:	17 c0       	rjmp	.+46     	; 0x1582 <_ZN6Stream9timedReadEv+0x56>
    1554:	0e 94 61 14 	call	0x28c2	; 0x28c2 <millis>
    1558:	08 85       	ldd	r16, Y+8	; 0x08
    155a:	19 85       	ldd	r17, Y+9	; 0x09
    155c:	2a 85       	ldd	r18, Y+10	; 0x0a
    155e:	3b 85       	ldd	r19, Y+11	; 0x0b
    1560:	dc 01       	movw	r26, r24
    1562:	cb 01       	movw	r24, r22
    1564:	80 1b       	sub	r24, r16
    1566:	91 0b       	sbc	r25, r17
    1568:	a2 0b       	sbc	r26, r18
    156a:	b3 0b       	sbc	r27, r19
    156c:	0c 81       	ldd	r16, Y+4	; 0x04
    156e:	1d 81       	ldd	r17, Y+5	; 0x05
    1570:	2e 81       	ldd	r18, Y+6	; 0x06
    1572:	3f 81       	ldd	r19, Y+7	; 0x07
    1574:	80 17       	cp	r24, r16
    1576:	91 07       	cpc	r25, r17
    1578:	a2 07       	cpc	r26, r18
    157a:	b3 07       	cpc	r27, r19
    157c:	10 f3       	brcs	.-60     	; 0x1542 <_ZN6Stream9timedReadEv+0x16>
    157e:	8f ef       	ldi	r24, 0xFF	; 255
    1580:	9f ef       	ldi	r25, 0xFF	; 255
    1582:	df 91       	pop	r29
    1584:	cf 91       	pop	r28
    1586:	1f 91       	pop	r17
    1588:	0f 91       	pop	r16
    158a:	08 95       	ret

0000158c <_ZN6Stream9timedPeekEv>:
    158c:	0f 93       	push	r16
    158e:	1f 93       	push	r17
    1590:	cf 93       	push	r28
    1592:	df 93       	push	r29
    1594:	ec 01       	movw	r28, r24
    1596:	0e 94 61 14 	call	0x28c2	; 0x28c2 <millis>
    159a:	68 87       	std	Y+8, r22	; 0x08
    159c:	79 87       	std	Y+9, r23	; 0x09
    159e:	8a 87       	std	Y+10, r24	; 0x0a
    15a0:	9b 87       	std	Y+11, r25	; 0x0b
    15a2:	e8 81       	ld	r30, Y
    15a4:	f9 81       	ldd	r31, Y+1	; 0x01
    15a6:	04 84       	ldd	r0, Z+12	; 0x0c
    15a8:	f5 85       	ldd	r31, Z+13	; 0x0d
    15aa:	e0 2d       	mov	r30, r0
    15ac:	ce 01       	movw	r24, r28
    15ae:	19 95       	eicall
    15b0:	97 ff       	sbrs	r25, 7
    15b2:	17 c0       	rjmp	.+46     	; 0x15e2 <_ZN6Stream9timedPeekEv+0x56>
    15b4:	0e 94 61 14 	call	0x28c2	; 0x28c2 <millis>
    15b8:	08 85       	ldd	r16, Y+8	; 0x08
    15ba:	19 85       	ldd	r17, Y+9	; 0x09
    15bc:	2a 85       	ldd	r18, Y+10	; 0x0a
    15be:	3b 85       	ldd	r19, Y+11	; 0x0b
    15c0:	dc 01       	movw	r26, r24
    15c2:	cb 01       	movw	r24, r22
    15c4:	80 1b       	sub	r24, r16
    15c6:	91 0b       	sbc	r25, r17
    15c8:	a2 0b       	sbc	r26, r18
    15ca:	b3 0b       	sbc	r27, r19
    15cc:	0c 81       	ldd	r16, Y+4	; 0x04
    15ce:	1d 81       	ldd	r17, Y+5	; 0x05
    15d0:	2e 81       	ldd	r18, Y+6	; 0x06
    15d2:	3f 81       	ldd	r19, Y+7	; 0x07
    15d4:	80 17       	cp	r24, r16
    15d6:	91 07       	cpc	r25, r17
    15d8:	a2 07       	cpc	r26, r18
    15da:	b3 07       	cpc	r27, r19
    15dc:	10 f3       	brcs	.-60     	; 0x15a2 <_ZN6Stream9timedPeekEv+0x16>
    15de:	8f ef       	ldi	r24, 0xFF	; 255
    15e0:	9f ef       	ldi	r25, 0xFF	; 255
    15e2:	df 91       	pop	r29
    15e4:	cf 91       	pop	r28
    15e6:	1f 91       	pop	r17
    15e8:	0f 91       	pop	r16
    15ea:	08 95       	ret

000015ec <_ZN6Stream13peekNextDigitE13LookaheadModeb>:
    15ec:	ff 92       	push	r15
    15ee:	0f 93       	push	r16
    15f0:	1f 93       	push	r17
    15f2:	cf 93       	push	r28
    15f4:	df 93       	push	r29
    15f6:	ec 01       	movw	r28, r24
    15f8:	8b 01       	movw	r16, r22
    15fa:	f4 2e       	mov	r15, r20
    15fc:	ce 01       	movw	r24, r28
    15fe:	0e 94 c6 0a 	call	0x158c	; 0x158c <_ZN6Stream9timedPeekEv>
    1602:	97 fd       	sbrc	r25, 7
    1604:	2d c0       	rjmp	.+90     	; 0x1660 <_ZN6Stream13peekNextDigitE13LookaheadModeb+0x74>
    1606:	8d 32       	cpi	r24, 0x2D	; 45
    1608:	91 05       	cpc	r25, r1
    160a:	19 f1       	breq	.+70     	; 0x1652 <_ZN6Stream13peekNextDigitE13LookaheadModeb+0x66>
    160c:	9c 01       	movw	r18, r24
    160e:	20 53       	subi	r18, 0x30	; 48
    1610:	31 09       	sbc	r19, r1
    1612:	2a 30       	cpi	r18, 0x0A	; 10
    1614:	31 05       	cpc	r19, r1
    1616:	20 f1       	brcs	.+72     	; 0x1660 <_ZN6Stream13peekNextDigitE13LookaheadModeb+0x74>
    1618:	ff 20       	and	r15, r15
    161a:	19 f0       	breq	.+6      	; 0x1622 <_ZN6Stream13peekNextDigitE13LookaheadModeb+0x36>
    161c:	8e 32       	cpi	r24, 0x2E	; 46
    161e:	91 05       	cpc	r25, r1
    1620:	d1 f0       	breq	.+52     	; 0x1656 <_ZN6Stream13peekNextDigitE13LookaheadModeb+0x6a>
    1622:	01 30       	cpi	r16, 0x01	; 1
    1624:	11 05       	cpc	r17, r1
    1626:	d1 f0       	breq	.+52     	; 0x165c <_ZN6Stream13peekNextDigitE13LookaheadModeb+0x70>
    1628:	02 30       	cpi	r16, 0x02	; 2
    162a:	11 05       	cpc	r17, r1
    162c:	51 f4       	brne	.+20     	; 0x1642 <_ZN6Stream13peekNextDigitE13LookaheadModeb+0x56>
    162e:	8d 30       	cpi	r24, 0x0D	; 13
    1630:	91 05       	cpc	r25, r1
    1632:	39 f0       	breq	.+14     	; 0x1642 <_ZN6Stream13peekNextDigitE13LookaheadModeb+0x56>
    1634:	24 f4       	brge	.+8      	; 0x163e <_ZN6Stream13peekNextDigitE13LookaheadModeb+0x52>
    1636:	09 97       	sbiw	r24, 0x09	; 9
    1638:	02 97       	sbiw	r24, 0x02	; 2
    163a:	18 f0       	brcs	.+6      	; 0x1642 <_ZN6Stream13peekNextDigitE13LookaheadModeb+0x56>
    163c:	0f c0       	rjmp	.+30     	; 0x165c <_ZN6Stream13peekNextDigitE13LookaheadModeb+0x70>
    163e:	80 97       	sbiw	r24, 0x20	; 32
    1640:	69 f4       	brne	.+26     	; 0x165c <_ZN6Stream13peekNextDigitE13LookaheadModeb+0x70>
    1642:	e8 81       	ld	r30, Y
    1644:	f9 81       	ldd	r31, Y+1	; 0x01
    1646:	02 84       	ldd	r0, Z+10	; 0x0a
    1648:	f3 85       	ldd	r31, Z+11	; 0x0b
    164a:	e0 2d       	mov	r30, r0
    164c:	ce 01       	movw	r24, r28
    164e:	19 95       	eicall
    1650:	d5 cf       	rjmp	.-86     	; 0x15fc <_ZN6Stream13peekNextDigitE13LookaheadModeb+0x10>
    1652:	8d e2       	ldi	r24, 0x2D	; 45
    1654:	01 c0       	rjmp	.+2      	; 0x1658 <_ZN6Stream13peekNextDigitE13LookaheadModeb+0x6c>
    1656:	8e e2       	ldi	r24, 0x2E	; 46
    1658:	90 e0       	ldi	r25, 0x00	; 0
    165a:	02 c0       	rjmp	.+4      	; 0x1660 <_ZN6Stream13peekNextDigitE13LookaheadModeb+0x74>
    165c:	8f ef       	ldi	r24, 0xFF	; 255
    165e:	9f ef       	ldi	r25, 0xFF	; 255
    1660:	df 91       	pop	r29
    1662:	cf 91       	pop	r28
    1664:	1f 91       	pop	r17
    1666:	0f 91       	pop	r16
    1668:	ff 90       	pop	r15
    166a:	08 95       	ret

0000166c <_ZN6Stream10setTimeoutEm>:
    166c:	fc 01       	movw	r30, r24
    166e:	44 83       	std	Z+4, r20	; 0x04
    1670:	55 83       	std	Z+5, r21	; 0x05
    1672:	66 83       	std	Z+6, r22	; 0x06
    1674:	77 83       	std	Z+7, r23	; 0x07
    1676:	08 95       	ret

00001678 <_ZN6Stream8parseIntE13LookaheadModec>:
    1678:	bf 92       	push	r11
    167a:	cf 92       	push	r12
    167c:	df 92       	push	r13
    167e:	ef 92       	push	r14
    1680:	ff 92       	push	r15
    1682:	0f 93       	push	r16
    1684:	1f 93       	push	r17
    1686:	cf 93       	push	r28
    1688:	df 93       	push	r29
    168a:	8c 01       	movw	r16, r24
    168c:	c4 2f       	mov	r28, r20
    168e:	40 e0       	ldi	r20, 0x00	; 0
    1690:	0e 94 f6 0a 	call	0x15ec	; 0x15ec <_ZN6Stream13peekNextDigitE13LookaheadModeb>
    1694:	fc 01       	movw	r30, r24
    1696:	97 fd       	sbrc	r25, 7
    1698:	47 c0       	rjmp	.+142    	; 0x1728 <_ZN6Stream8parseIntE13LookaheadModec+0xb0>
    169a:	c1 2c       	mov	r12, r1
    169c:	d1 2c       	mov	r13, r1
    169e:	76 01       	movw	r14, r12
    16a0:	b1 2c       	mov	r11, r1
    16a2:	0c 2e       	mov	r0, r28
    16a4:	00 0c       	add	r0, r0
    16a6:	dd 0b       	sbc	r29, r29
    16a8:	ec 17       	cp	r30, r28
    16aa:	fd 07       	cpc	r31, r29
    16ac:	09 f1       	breq	.+66     	; 0x16f0 <_ZN6Stream8parseIntE13LookaheadModec+0x78>
    16ae:	ed 32       	cpi	r30, 0x2D	; 45
    16b0:	f1 05       	cpc	r31, r1
    16b2:	e1 f0       	breq	.+56     	; 0x16ec <_ZN6Stream8parseIntE13LookaheadModec+0x74>
    16b4:	cf 01       	movw	r24, r30
    16b6:	c0 97       	sbiw	r24, 0x30	; 48
    16b8:	0a 97       	sbiw	r24, 0x0a	; 10
    16ba:	d0 f4       	brcc	.+52     	; 0x16f0 <_ZN6Stream8parseIntE13LookaheadModec+0x78>
    16bc:	aa e0       	ldi	r26, 0x0A	; 10
    16be:	b0 e0       	ldi	r27, 0x00	; 0
    16c0:	a7 01       	movw	r20, r14
    16c2:	96 01       	movw	r18, r12
    16c4:	0e 94 1c 25 	call	0x4a38	; 0x4a38 <__muluhisi3>
    16c8:	6f 01       	movw	r12, r30
    16ca:	ff 0f       	add	r31, r31
    16cc:	ee 08       	sbc	r14, r14
    16ce:	ff 08       	sbc	r15, r15
    16d0:	dc 01       	movw	r26, r24
    16d2:	cb 01       	movw	r24, r22
    16d4:	8c 0d       	add	r24, r12
    16d6:	9d 1d       	adc	r25, r13
    16d8:	ae 1d       	adc	r26, r14
    16da:	bf 1d       	adc	r27, r15
    16dc:	6c 01       	movw	r12, r24
    16de:	7d 01       	movw	r14, r26
    16e0:	20 e3       	ldi	r18, 0x30	; 48
    16e2:	c2 1a       	sub	r12, r18
    16e4:	d1 08       	sbc	r13, r1
    16e6:	e1 08       	sbc	r14, r1
    16e8:	f1 08       	sbc	r15, r1
    16ea:	02 c0       	rjmp	.+4      	; 0x16f0 <_ZN6Stream8parseIntE13LookaheadModec+0x78>
    16ec:	bb 24       	eor	r11, r11
    16ee:	b3 94       	inc	r11
    16f0:	d8 01       	movw	r26, r16
    16f2:	ed 91       	ld	r30, X+
    16f4:	fc 91       	ld	r31, X
    16f6:	02 84       	ldd	r0, Z+10	; 0x0a
    16f8:	f3 85       	ldd	r31, Z+11	; 0x0b
    16fa:	e0 2d       	mov	r30, r0
    16fc:	c8 01       	movw	r24, r16
    16fe:	19 95       	eicall
    1700:	c8 01       	movw	r24, r16
    1702:	0e 94 c6 0a 	call	0x158c	; 0x158c <_ZN6Stream9timedPeekEv>
    1706:	fc 01       	movw	r30, r24
    1708:	c0 97       	sbiw	r24, 0x30	; 48
    170a:	0a 97       	sbiw	r24, 0x0a	; 10
    170c:	68 f2       	brcs	.-102    	; 0x16a8 <_ZN6Stream8parseIntE13LookaheadModec+0x30>
    170e:	ce 17       	cp	r28, r30
    1710:	df 07       	cpc	r29, r31
    1712:	51 f2       	breq	.-108    	; 0x16a8 <_ZN6Stream8parseIntE13LookaheadModec+0x30>
    1714:	bb 20       	and	r11, r11
    1716:	61 f0       	breq	.+24     	; 0x1730 <_ZN6Stream8parseIntE13LookaheadModec+0xb8>
    1718:	66 27       	eor	r22, r22
    171a:	77 27       	eor	r23, r23
    171c:	cb 01       	movw	r24, r22
    171e:	6c 19       	sub	r22, r12
    1720:	7d 09       	sbc	r23, r13
    1722:	8e 09       	sbc	r24, r14
    1724:	9f 09       	sbc	r25, r15
    1726:	06 c0       	rjmp	.+12     	; 0x1734 <_ZN6Stream8parseIntE13LookaheadModec+0xbc>
    1728:	60 e0       	ldi	r22, 0x00	; 0
    172a:	70 e0       	ldi	r23, 0x00	; 0
    172c:	cb 01       	movw	r24, r22
    172e:	02 c0       	rjmp	.+4      	; 0x1734 <_ZN6Stream8parseIntE13LookaheadModec+0xbc>
    1730:	c7 01       	movw	r24, r14
    1732:	b6 01       	movw	r22, r12
    1734:	df 91       	pop	r29
    1736:	cf 91       	pop	r28
    1738:	1f 91       	pop	r17
    173a:	0f 91       	pop	r16
    173c:	ff 90       	pop	r15
    173e:	ef 90       	pop	r14
    1740:	df 90       	pop	r13
    1742:	cf 90       	pop	r12
    1744:	bf 90       	pop	r11
    1746:	08 95       	ret

00001748 <_ZN6Stream10parseFloatE13LookaheadModec>:
    1748:	4f 92       	push	r4
    174a:	5f 92       	push	r5
    174c:	6f 92       	push	r6
    174e:	7f 92       	push	r7
    1750:	af 92       	push	r10
    1752:	bf 92       	push	r11
    1754:	cf 92       	push	r12
    1756:	df 92       	push	r13
    1758:	ef 92       	push	r14
    175a:	ff 92       	push	r15
    175c:	0f 93       	push	r16
    175e:	1f 93       	push	r17
    1760:	cf 93       	push	r28
    1762:	df 93       	push	r29
    1764:	5c 01       	movw	r10, r24
    1766:	04 2f       	mov	r16, r20
    1768:	41 e0       	ldi	r20, 0x01	; 1
    176a:	0e 94 f6 0a 	call	0x15ec	; 0x15ec <_ZN6Stream13peekNextDigitE13LookaheadModeb>
    176e:	fc 01       	movw	r30, r24
    1770:	97 fd       	sbrc	r25, 7
    1772:	6f c0       	rjmp	.+222    	; 0x1852 <_ZN6Stream10parseFloatE13LookaheadModec+0x10a>
    1774:	41 2c       	mov	r4, r1
    1776:	51 2c       	mov	r5, r1
    1778:	80 e8       	ldi	r24, 0x80	; 128
    177a:	68 2e       	mov	r6, r24
    177c:	8f e3       	ldi	r24, 0x3F	; 63
    177e:	78 2e       	mov	r7, r24
    1780:	c1 2c       	mov	r12, r1
    1782:	d1 2c       	mov	r13, r1
    1784:	76 01       	movw	r14, r12
    1786:	c0 e0       	ldi	r28, 0x00	; 0
    1788:	d0 e0       	ldi	r29, 0x00	; 0
    178a:	00 2e       	mov	r0, r16
    178c:	00 0c       	add	r0, r0
    178e:	11 0b       	sbc	r17, r17
    1790:	e0 17       	cp	r30, r16
    1792:	f1 07       	cpc	r31, r17
    1794:	69 f1       	breq	.+90     	; 0x17f0 <_ZN6Stream10parseFloatE13LookaheadModec+0xa8>
    1796:	ed 32       	cpi	r30, 0x2D	; 45
    1798:	f1 05       	cpc	r31, r1
    179a:	39 f1       	breq	.+78     	; 0x17ea <_ZN6Stream10parseFloatE13LookaheadModec+0xa2>
    179c:	ee 32       	cpi	r30, 0x2E	; 46
    179e:	f1 05       	cpc	r31, r1
    17a0:	31 f1       	breq	.+76     	; 0x17ee <_ZN6Stream10parseFloatE13LookaheadModec+0xa6>
    17a2:	cf 01       	movw	r24, r30
    17a4:	c0 97       	sbiw	r24, 0x30	; 48
    17a6:	0a 97       	sbiw	r24, 0x0a	; 10
    17a8:	18 f5       	brcc	.+70     	; 0x17f0 <_ZN6Stream10parseFloatE13LookaheadModec+0xa8>
    17aa:	aa e0       	ldi	r26, 0x0A	; 10
    17ac:	b0 e0       	ldi	r27, 0x00	; 0
    17ae:	a7 01       	movw	r20, r14
    17b0:	96 01       	movw	r18, r12
    17b2:	0e 94 1c 25 	call	0x4a38	; 0x4a38 <__muluhisi3>
    17b6:	6f 01       	movw	r12, r30
    17b8:	ff 0f       	add	r31, r31
    17ba:	ee 08       	sbc	r14, r14
    17bc:	ff 08       	sbc	r15, r15
    17be:	c6 0e       	add	r12, r22
    17c0:	d7 1e       	adc	r13, r23
    17c2:	e8 1e       	adc	r14, r24
    17c4:	f9 1e       	adc	r15, r25
    17c6:	80 e3       	ldi	r24, 0x30	; 48
    17c8:	c8 1a       	sub	r12, r24
    17ca:	d1 08       	sbc	r13, r1
    17cc:	e1 08       	sbc	r14, r1
    17ce:	f1 08       	sbc	r15, r1
    17d0:	cc 23       	and	r28, r28
    17d2:	71 f0       	breq	.+28     	; 0x17f0 <_ZN6Stream10parseFloatE13LookaheadModec+0xa8>
    17d4:	2d ec       	ldi	r18, 0xCD	; 205
    17d6:	3c ec       	ldi	r19, 0xCC	; 204
    17d8:	4c ec       	ldi	r20, 0xCC	; 204
    17da:	5d e3       	ldi	r21, 0x3D	; 61
    17dc:	c3 01       	movw	r24, r6
    17de:	b2 01       	movw	r22, r4
    17e0:	0e 94 00 27 	call	0x4e00	; 0x4e00 <__mulsf3>
    17e4:	2b 01       	movw	r4, r22
    17e6:	3c 01       	movw	r6, r24
    17e8:	03 c0       	rjmp	.+6      	; 0x17f0 <_ZN6Stream10parseFloatE13LookaheadModec+0xa8>
    17ea:	d1 e0       	ldi	r29, 0x01	; 1
    17ec:	01 c0       	rjmp	.+2      	; 0x17f0 <_ZN6Stream10parseFloatE13LookaheadModec+0xa8>
    17ee:	c1 e0       	ldi	r28, 0x01	; 1
    17f0:	d5 01       	movw	r26, r10
    17f2:	ed 91       	ld	r30, X+
    17f4:	fc 91       	ld	r31, X
    17f6:	02 84       	ldd	r0, Z+10	; 0x0a
    17f8:	f3 85       	ldd	r31, Z+11	; 0x0b
    17fa:	e0 2d       	mov	r30, r0
    17fc:	c5 01       	movw	r24, r10
    17fe:	19 95       	eicall
    1800:	c5 01       	movw	r24, r10
    1802:	0e 94 c6 0a 	call	0x158c	; 0x158c <_ZN6Stream9timedPeekEv>
    1806:	fc 01       	movw	r30, r24
    1808:	c0 97       	sbiw	r24, 0x30	; 48
    180a:	0a 97       	sbiw	r24, 0x0a	; 10
    180c:	08 f2       	brcs	.-126    	; 0x1790 <_ZN6Stream10parseFloatE13LookaheadModec+0x48>
    180e:	ee 32       	cpi	r30, 0x2E	; 46
    1810:	f1 05       	cpc	r31, r1
    1812:	19 f4       	brne	.+6      	; 0x181a <_ZN6Stream10parseFloatE13LookaheadModec+0xd2>
    1814:	cc 23       	and	r28, r28
    1816:	09 f4       	brne	.+2      	; 0x181a <_ZN6Stream10parseFloatE13LookaheadModec+0xd2>
    1818:	bb cf       	rjmp	.-138    	; 0x1790 <_ZN6Stream10parseFloatE13LookaheadModec+0x48>
    181a:	0e 17       	cp	r16, r30
    181c:	1f 07       	cpc	r17, r31
    181e:	09 f4       	brne	.+2      	; 0x1822 <_ZN6Stream10parseFloatE13LookaheadModec+0xda>
    1820:	b7 cf       	rjmp	.-146    	; 0x1790 <_ZN6Stream10parseFloatE13LookaheadModec+0x48>
    1822:	dd 23       	and	r29, r29
    1824:	41 f0       	breq	.+16     	; 0x1836 <_ZN6Stream10parseFloatE13LookaheadModec+0xee>
    1826:	f0 94       	com	r15
    1828:	e0 94       	com	r14
    182a:	d0 94       	com	r13
    182c:	c0 94       	com	r12
    182e:	c1 1c       	adc	r12, r1
    1830:	d1 1c       	adc	r13, r1
    1832:	e1 1c       	adc	r14, r1
    1834:	f1 1c       	adc	r15, r1
    1836:	c7 01       	movw	r24, r14
    1838:	b6 01       	movw	r22, r12
    183a:	cc 23       	and	r28, r28
    183c:	39 f0       	breq	.+14     	; 0x184c <_ZN6Stream10parseFloatE13LookaheadModec+0x104>
    183e:	0e 94 4b 26 	call	0x4c96	; 0x4c96 <__floatsisf>
    1842:	a3 01       	movw	r20, r6
    1844:	92 01       	movw	r18, r4
    1846:	0e 94 00 27 	call	0x4e00	; 0x4e00 <__mulsf3>
    184a:	06 c0       	rjmp	.+12     	; 0x1858 <_ZN6Stream10parseFloatE13LookaheadModec+0x110>
    184c:	0e 94 4b 26 	call	0x4c96	; 0x4c96 <__floatsisf>
    1850:	03 c0       	rjmp	.+6      	; 0x1858 <_ZN6Stream10parseFloatE13LookaheadModec+0x110>
    1852:	60 e0       	ldi	r22, 0x00	; 0
    1854:	70 e0       	ldi	r23, 0x00	; 0
    1856:	cb 01       	movw	r24, r22
    1858:	df 91       	pop	r29
    185a:	cf 91       	pop	r28
    185c:	1f 91       	pop	r17
    185e:	0f 91       	pop	r16
    1860:	ff 90       	pop	r15
    1862:	ef 90       	pop	r14
    1864:	df 90       	pop	r13
    1866:	cf 90       	pop	r12
    1868:	bf 90       	pop	r11
    186a:	af 90       	pop	r10
    186c:	7f 90       	pop	r7
    186e:	6f 90       	pop	r6
    1870:	5f 90       	pop	r5
    1872:	4f 90       	pop	r4
    1874:	08 95       	ret

00001876 <_ZN6Stream9readBytesEPcj>:
    1876:	cf 92       	push	r12
    1878:	df 92       	push	r13
    187a:	ef 92       	push	r14
    187c:	ff 92       	push	r15
    187e:	0f 93       	push	r16
    1880:	1f 93       	push	r17
    1882:	cf 93       	push	r28
    1884:	df 93       	push	r29
    1886:	6c 01       	movw	r12, r24
    1888:	7a 01       	movw	r14, r20
    188a:	8b 01       	movw	r16, r22
    188c:	c0 e0       	ldi	r28, 0x00	; 0
    188e:	d0 e0       	ldi	r29, 0x00	; 0
    1890:	ce 15       	cp	r28, r14
    1892:	df 05       	cpc	r29, r15
    1894:	59 f0       	breq	.+22     	; 0x18ac <_ZN6Stream9readBytesEPcj+0x36>
    1896:	c6 01       	movw	r24, r12
    1898:	0e 94 96 0a 	call	0x152c	; 0x152c <_ZN6Stream9timedReadEv>
    189c:	97 fd       	sbrc	r25, 7
    189e:	05 c0       	rjmp	.+10     	; 0x18aa <_ZN6Stream9readBytesEPcj+0x34>
    18a0:	f8 01       	movw	r30, r16
    18a2:	81 93       	st	Z+, r24
    18a4:	8f 01       	movw	r16, r30
    18a6:	21 96       	adiw	r28, 0x01	; 1
    18a8:	f3 cf       	rjmp	.-26     	; 0x1890 <_ZN6Stream9readBytesEPcj+0x1a>
    18aa:	7e 01       	movw	r14, r28
    18ac:	c7 01       	movw	r24, r14
    18ae:	df 91       	pop	r29
    18b0:	cf 91       	pop	r28
    18b2:	1f 91       	pop	r17
    18b4:	0f 91       	pop	r16
    18b6:	ff 90       	pop	r15
    18b8:	ef 90       	pop	r14
    18ba:	df 90       	pop	r13
    18bc:	cf 90       	pop	r12
    18be:	08 95       	ret

000018c0 <_ZN6Stream14readBytesUntilEcPcj>:
    18c0:	af 92       	push	r10
    18c2:	bf 92       	push	r11
    18c4:	cf 92       	push	r12
    18c6:	df 92       	push	r13
    18c8:	ef 92       	push	r14
    18ca:	ff 92       	push	r15
    18cc:	0f 93       	push	r16
    18ce:	1f 93       	push	r17
    18d0:	cf 93       	push	r28
    18d2:	df 93       	push	r29
    18d4:	21 15       	cp	r18, r1
    18d6:	31 05       	cpc	r19, r1
    18d8:	c9 f0       	breq	.+50     	; 0x190c <_ZN6Stream14readBytesUntilEcPcj+0x4c>
    18da:	89 01       	movw	r16, r18
    18dc:	5c 01       	movw	r10, r24
    18de:	6a 01       	movw	r12, r20
    18e0:	c0 e0       	ldi	r28, 0x00	; 0
    18e2:	d0 e0       	ldi	r29, 0x00	; 0
    18e4:	e6 2e       	mov	r14, r22
    18e6:	66 0f       	add	r22, r22
    18e8:	ff 08       	sbc	r15, r15
    18ea:	c5 01       	movw	r24, r10
    18ec:	0e 94 96 0a 	call	0x152c	; 0x152c <_ZN6Stream9timedReadEv>
    18f0:	97 fd       	sbrc	r25, 7
    18f2:	0f c0       	rjmp	.+30     	; 0x1912 <_ZN6Stream14readBytesUntilEcPcj+0x52>
    18f4:	8e 15       	cp	r24, r14
    18f6:	9f 05       	cpc	r25, r15
    18f8:	61 f0       	breq	.+24     	; 0x1912 <_ZN6Stream14readBytesUntilEcPcj+0x52>
    18fa:	f6 01       	movw	r30, r12
    18fc:	81 93       	st	Z+, r24
    18fe:	6f 01       	movw	r12, r30
    1900:	21 96       	adiw	r28, 0x01	; 1
    1902:	0c 17       	cp	r16, r28
    1904:	1d 07       	cpc	r17, r29
    1906:	89 f7       	brne	.-30     	; 0x18ea <_ZN6Stream14readBytesUntilEcPcj+0x2a>
    1908:	c8 01       	movw	r24, r16
    190a:	04 c0       	rjmp	.+8      	; 0x1914 <_ZN6Stream14readBytesUntilEcPcj+0x54>
    190c:	80 e0       	ldi	r24, 0x00	; 0
    190e:	90 e0       	ldi	r25, 0x00	; 0
    1910:	01 c0       	rjmp	.+2      	; 0x1914 <_ZN6Stream14readBytesUntilEcPcj+0x54>
    1912:	ce 01       	movw	r24, r28
    1914:	df 91       	pop	r29
    1916:	cf 91       	pop	r28
    1918:	1f 91       	pop	r17
    191a:	0f 91       	pop	r16
    191c:	ff 90       	pop	r15
    191e:	ef 90       	pop	r14
    1920:	df 90       	pop	r13
    1922:	cf 90       	pop	r12
    1924:	bf 90       	pop	r11
    1926:	af 90       	pop	r10
    1928:	08 95       	ret

0000192a <_ZN6Stream10readStringEv>:
    192a:	0f 93       	push	r16
    192c:	1f 93       	push	r17
    192e:	cf 93       	push	r28
    1930:	df 93       	push	r29
    1932:	ec 01       	movw	r28, r24
    1934:	8b 01       	movw	r16, r22
    1936:	65 e7       	ldi	r22, 0x75	; 117
    1938:	72 e0       	ldi	r23, 0x02	; 2
    193a:	0e 94 74 19 	call	0x32e8	; 0x32e8 <_ZN6StringC1EPKc>
    193e:	c8 01       	movw	r24, r16
    1940:	0e 94 96 0a 	call	0x152c	; 0x152c <_ZN6Stream9timedReadEv>
    1944:	97 fd       	sbrc	r25, 7
    1946:	05 c0       	rjmp	.+10     	; 0x1952 <_ZN6Stream10readStringEv+0x28>
    1948:	68 2f       	mov	r22, r24
    194a:	ce 01       	movw	r24, r28
    194c:	0e 94 a0 1b 	call	0x3740	; 0x3740 <_ZN6String6concatEc>
    1950:	f6 cf       	rjmp	.-20     	; 0x193e <_ZN6Stream10readStringEv+0x14>
    1952:	ce 01       	movw	r24, r28
    1954:	df 91       	pop	r29
    1956:	cf 91       	pop	r28
    1958:	1f 91       	pop	r17
    195a:	0f 91       	pop	r16
    195c:	08 95       	ret

0000195e <_ZN6Stream15readStringUntilEc>:
    195e:	ef 92       	push	r14
    1960:	ff 92       	push	r15
    1962:	0f 93       	push	r16
    1964:	1f 93       	push	r17
    1966:	cf 93       	push	r28
    1968:	df 93       	push	r29
    196a:	ec 01       	movw	r28, r24
    196c:	7b 01       	movw	r14, r22
    196e:	04 2f       	mov	r16, r20
    1970:	65 e7       	ldi	r22, 0x75	; 117
    1972:	72 e0       	ldi	r23, 0x02	; 2
    1974:	0e 94 74 19 	call	0x32e8	; 0x32e8 <_ZN6StringC1EPKc>
    1978:	c7 01       	movw	r24, r14
    197a:	0e 94 96 0a 	call	0x152c	; 0x152c <_ZN6Stream9timedReadEv>
    197e:	00 2e       	mov	r0, r16
    1980:	00 0c       	add	r0, r0
    1982:	11 0b       	sbc	r17, r17
    1984:	97 fd       	sbrc	r25, 7
    1986:	0b c0       	rjmp	.+22     	; 0x199e <_ZN6Stream15readStringUntilEc+0x40>
    1988:	80 17       	cp	r24, r16
    198a:	91 07       	cpc	r25, r17
    198c:	41 f0       	breq	.+16     	; 0x199e <_ZN6Stream15readStringUntilEc+0x40>
    198e:	68 2f       	mov	r22, r24
    1990:	ce 01       	movw	r24, r28
    1992:	0e 94 a0 1b 	call	0x3740	; 0x3740 <_ZN6String6concatEc>
    1996:	c7 01       	movw	r24, r14
    1998:	0e 94 96 0a 	call	0x152c	; 0x152c <_ZN6Stream9timedReadEv>
    199c:	f3 cf       	rjmp	.-26     	; 0x1984 <_ZN6Stream15readStringUntilEc+0x26>
    199e:	ce 01       	movw	r24, r28
    19a0:	df 91       	pop	r29
    19a2:	cf 91       	pop	r28
    19a4:	1f 91       	pop	r17
    19a6:	0f 91       	pop	r16
    19a8:	ff 90       	pop	r15
    19aa:	ef 90       	pop	r14
    19ac:	08 95       	ret

000019ae <_ZN6Stream9findMultiEPNS_11MultiTargetEi>:
    19ae:	4f 92       	push	r4
    19b0:	5f 92       	push	r5
    19b2:	6f 92       	push	r6
    19b4:	7f 92       	push	r7
    19b6:	8f 92       	push	r8
    19b8:	9f 92       	push	r9
    19ba:	af 92       	push	r10
    19bc:	bf 92       	push	r11
    19be:	cf 92       	push	r12
    19c0:	df 92       	push	r13
    19c2:	ef 92       	push	r14
    19c4:	ff 92       	push	r15
    19c6:	0f 93       	push	r16
    19c8:	1f 93       	push	r17
    19ca:	cf 93       	push	r28
    19cc:	df 93       	push	r29
    19ce:	8c 01       	movw	r16, r24
    19d0:	eb 01       	movw	r28, r22
    19d2:	86 e0       	ldi	r24, 0x06	; 6
    19d4:	84 9f       	mul	r24, r20
    19d6:	40 01       	movw	r8, r0
    19d8:	85 9f       	mul	r24, r21
    19da:	90 0c       	add	r9, r0
    19dc:	11 24       	eor	r1, r1
    19de:	86 0e       	add	r8, r22
    19e0:	97 1e       	adc	r9, r23
    19e2:	fb 01       	movw	r30, r22
    19e4:	e8 15       	cp	r30, r8
    19e6:	f9 05       	cpc	r31, r9
    19e8:	08 f5       	brcc	.+66     	; 0x1a2c <_ZN6Stream9findMultiEPNS_11MultiTargetEi+0x7e>
    19ea:	82 81       	ldd	r24, Z+2	; 0x02
    19ec:	93 81       	ldd	r25, Z+3	; 0x03
    19ee:	89 2b       	or	r24, r25
    19f0:	21 f1       	breq	.+72     	; 0x1a3a <_ZN6Stream9findMultiEPNS_11MultiTargetEi+0x8c>
    19f2:	36 96       	adiw	r30, 0x06	; 6
    19f4:	f7 cf       	rjmp	.-18     	; 0x19e4 <_ZN6Stream9findMultiEPNS_11MultiTargetEi+0x36>
    19f6:	60 81       	ld	r22, Z
    19f8:	71 81       	ldd	r23, Z+1	; 0x01
    19fa:	44 81       	ldd	r20, Z+4	; 0x04
    19fc:	55 81       	ldd	r21, Z+5	; 0x05
    19fe:	db 01       	movw	r26, r22
    1a00:	a4 0f       	add	r26, r20
    1a02:	b5 1f       	adc	r27, r21
    1a04:	2c 91       	ld	r18, X
    1a06:	02 2e       	mov	r0, r18
    1a08:	00 0c       	add	r0, r0
    1a0a:	33 0b       	sbc	r19, r19
    1a0c:	82 17       	cp	r24, r18
    1a0e:	93 07       	cpc	r25, r19
    1a10:	11 f5       	brne	.+68     	; 0x1a56 <_ZN6Stream9findMultiEPNS_11MultiTargetEi+0xa8>
    1a12:	4f 5f       	subi	r20, 0xFF	; 255
    1a14:	5f 4f       	sbci	r21, 0xFF	; 255
    1a16:	55 83       	std	Z+5, r21	; 0x05
    1a18:	44 83       	std	Z+4, r20	; 0x04
    1a1a:	22 81       	ldd	r18, Z+2	; 0x02
    1a1c:	33 81       	ldd	r19, Z+3	; 0x03
    1a1e:	42 17       	cp	r20, r18
    1a20:	53 07       	cpc	r21, r19
    1a22:	59 f0       	breq	.+22     	; 0x1a3a <_ZN6Stream9findMultiEPNS_11MultiTargetEi+0x8c>
    1a24:	36 96       	adiw	r30, 0x06	; 6
    1a26:	e8 15       	cp	r30, r8
    1a28:	f9 05       	cpc	r31, r9
    1a2a:	28 f3       	brcs	.-54     	; 0x19f6 <_ZN6Stream9findMultiEPNS_11MultiTargetEi+0x48>
    1a2c:	c8 01       	movw	r24, r16
    1a2e:	0e 94 96 0a 	call	0x152c	; 0x152c <_ZN6Stream9timedReadEv>
    1a32:	97 fd       	sbrc	r25, 7
    1a34:	46 c0       	rjmp	.+140    	; 0x1ac2 <_ZN6Stream9findMultiEPNS_11MultiTargetEi+0x114>
    1a36:	fe 01       	movw	r30, r28
    1a38:	f6 cf       	rjmp	.-20     	; 0x1a26 <_ZN6Stream9findMultiEPNS_11MultiTargetEi+0x78>
    1a3a:	ec 1b       	sub	r30, r28
    1a3c:	fd 0b       	sbc	r31, r29
    1a3e:	f5 95       	asr	r31
    1a40:	e7 95       	ror	r30
    1a42:	2b ea       	ldi	r18, 0xAB	; 171
    1a44:	3a ea       	ldi	r19, 0xAA	; 170
    1a46:	e2 9f       	mul	r30, r18
    1a48:	c0 01       	movw	r24, r0
    1a4a:	e3 9f       	mul	r30, r19
    1a4c:	90 0d       	add	r25, r0
    1a4e:	f2 9f       	mul	r31, r18
    1a50:	90 0d       	add	r25, r0
    1a52:	11 24       	eor	r1, r1
    1a54:	38 c0       	rjmp	.+112    	; 0x1ac6 <_ZN6Stream9findMultiEPNS_11MultiTargetEi+0x118>
    1a56:	41 15       	cp	r20, r1
    1a58:	51 05       	cpc	r21, r1
    1a5a:	21 f3       	breq	.-56     	; 0x1a24 <_ZN6Stream9findMultiEPNS_11MultiTargetEi+0x76>
    1a5c:	c4 80       	ldd	r12, Z+4	; 0x04
    1a5e:	d5 80       	ldd	r13, Z+5	; 0x05
    1a60:	96 01       	movw	r18, r12
    1a62:	21 50       	subi	r18, 0x01	; 1
    1a64:	31 09       	sbc	r19, r1
    1a66:	35 83       	std	Z+5, r19	; 0x05
    1a68:	24 83       	std	Z+4, r18	; 0x04
    1a6a:	db 01       	movw	r26, r22
    1a6c:	a2 0f       	add	r26, r18
    1a6e:	b3 1f       	adc	r27, r19
    1a70:	ac 91       	ld	r26, X
    1a72:	0a 2e       	mov	r0, r26
    1a74:	00 0c       	add	r0, r0
    1a76:	bb 0b       	sbc	r27, r27
    1a78:	8a 17       	cp	r24, r26
    1a7a:	9b 07       	cpc	r25, r27
    1a7c:	f9 f4       	brne	.+62     	; 0x1abc <_ZN6Stream9findMultiEPNS_11MultiTargetEi+0x10e>
    1a7e:	21 15       	cp	r18, r1
    1a80:	31 05       	cpc	r19, r1
    1a82:	c9 f0       	breq	.+50     	; 0x1ab6 <_ZN6Stream9findMultiEPNS_11MultiTargetEi+0x108>
    1a84:	5b 01       	movw	r10, r22
    1a86:	7a 01       	movw	r14, r20
    1a88:	e2 1a       	sub	r14, r18
    1a8a:	f3 0a       	sbc	r15, r19
    1a8c:	e6 0e       	add	r14, r22
    1a8e:	f7 1e       	adc	r15, r23
    1a90:	41 2c       	mov	r4, r1
    1a92:	51 2c       	mov	r5, r1
    1a94:	d5 01       	movw	r26, r10
    1a96:	6d 90       	ld	r6, X+
    1a98:	5d 01       	movw	r10, r26
    1a9a:	d7 01       	movw	r26, r14
    1a9c:	7d 90       	ld	r7, X+
    1a9e:	7d 01       	movw	r14, r26
    1aa0:	67 10       	cpse	r6, r7
    1aa2:	06 c0       	rjmp	.+12     	; 0x1ab0 <_ZN6Stream9findMultiEPNS_11MultiTargetEi+0x102>
    1aa4:	bf ef       	ldi	r27, 0xFF	; 255
    1aa6:	4b 1a       	sub	r4, r27
    1aa8:	5b 0a       	sbc	r5, r27
    1aaa:	42 16       	cp	r4, r18
    1aac:	53 06       	cpc	r5, r19
    1aae:	90 f3       	brcs	.-28     	; 0x1a94 <_ZN6Stream9findMultiEPNS_11MultiTargetEi+0xe6>
    1ab0:	24 15       	cp	r18, r4
    1ab2:	35 05       	cpc	r19, r5
    1ab4:	99 f6       	brne	.-90     	; 0x1a5c <_ZN6Stream9findMultiEPNS_11MultiTargetEi+0xae>
    1ab6:	d5 82       	std	Z+5, r13	; 0x05
    1ab8:	c4 82       	std	Z+4, r12	; 0x04
    1aba:	b4 cf       	rjmp	.-152    	; 0x1a24 <_ZN6Stream9findMultiEPNS_11MultiTargetEi+0x76>
    1abc:	23 2b       	or	r18, r19
    1abe:	71 f6       	brne	.-100    	; 0x1a5c <_ZN6Stream9findMultiEPNS_11MultiTargetEi+0xae>
    1ac0:	b1 cf       	rjmp	.-158    	; 0x1a24 <_ZN6Stream9findMultiEPNS_11MultiTargetEi+0x76>
    1ac2:	8f ef       	ldi	r24, 0xFF	; 255
    1ac4:	9f ef       	ldi	r25, 0xFF	; 255
    1ac6:	df 91       	pop	r29
    1ac8:	cf 91       	pop	r28
    1aca:	1f 91       	pop	r17
    1acc:	0f 91       	pop	r16
    1ace:	ff 90       	pop	r15
    1ad0:	ef 90       	pop	r14
    1ad2:	df 90       	pop	r13
    1ad4:	cf 90       	pop	r12
    1ad6:	bf 90       	pop	r11
    1ad8:	af 90       	pop	r10
    1ada:	9f 90       	pop	r9
    1adc:	8f 90       	pop	r8
    1ade:	7f 90       	pop	r7
    1ae0:	6f 90       	pop	r6
    1ae2:	5f 90       	pop	r5
    1ae4:	4f 90       	pop	r4
    1ae6:	08 95       	ret

00001ae8 <_ZN6Stream9findUntilEPcjS0_j.part.0.constprop.1>:
    1ae8:	cf 93       	push	r28
    1aea:	df 93       	push	r29
    1aec:	00 d0       	rcall	.+0      	; 0x1aee <_ZN6Stream9findUntilEPcjS0_j.part.0.constprop.1+0x6>
    1aee:	00 d0       	rcall	.+0      	; 0x1af0 <_ZN6Stream9findUntilEPcjS0_j.part.0.constprop.1+0x8>
    1af0:	cd b7       	in	r28, 0x3d	; 61
    1af2:	de b7       	in	r29, 0x3e	; 62
    1af4:	fe 01       	movw	r30, r28
    1af6:	31 96       	adiw	r30, 0x01	; 1
    1af8:	26 e0       	ldi	r18, 0x06	; 6
    1afa:	df 01       	movw	r26, r30
    1afc:	1d 92       	st	X+, r1
    1afe:	2a 95       	dec	r18
    1b00:	e9 f7       	brne	.-6      	; 0x1afc <_ZN6Stream9findUntilEPcjS0_j.part.0.constprop.1+0x14>
    1b02:	7a 83       	std	Y+2, r23	; 0x02
    1b04:	69 83       	std	Y+1, r22	; 0x01
    1b06:	5c 83       	std	Y+4, r21	; 0x04
    1b08:	4b 83       	std	Y+3, r20	; 0x03
    1b0a:	41 e0       	ldi	r20, 0x01	; 1
    1b0c:	50 e0       	ldi	r21, 0x00	; 0
    1b0e:	bf 01       	movw	r22, r30
    1b10:	0e 94 d7 0c 	call	0x19ae	; 0x19ae <_ZN6Stream9findMultiEPNS_11MultiTargetEi>
    1b14:	21 e0       	ldi	r18, 0x01	; 1
    1b16:	89 2b       	or	r24, r25
    1b18:	09 f0       	breq	.+2      	; 0x1b1c <_ZN6Stream9findUntilEPcjS0_j.part.0.constprop.1+0x34>
    1b1a:	20 e0       	ldi	r18, 0x00	; 0
    1b1c:	82 2f       	mov	r24, r18
    1b1e:	26 96       	adiw	r28, 0x06	; 6
    1b20:	0f b6       	in	r0, 0x3f	; 63
    1b22:	f8 94       	cli
    1b24:	de bf       	out	0x3e, r29	; 62
    1b26:	0f be       	out	0x3f, r0	; 63
    1b28:	cd bf       	out	0x3d, r28	; 61
    1b2a:	df 91       	pop	r29
    1b2c:	cf 91       	pop	r28
    1b2e:	08 95       	ret

00001b30 <_ZN6Stream4findEPcj>:
    1b30:	0c 94 74 0d 	jmp	0x1ae8	; 0x1ae8 <_ZN6Stream9findUntilEPcjS0_j.part.0.constprop.1>

00001b34 <_ZN6Stream4findEPc>:
    1b34:	fb 01       	movw	r30, r22
    1b36:	01 90       	ld	r0, Z+
    1b38:	00 20       	and	r0, r0
    1b3a:	e9 f7       	brne	.-6      	; 0x1b36 <_ZN6Stream4findEPc+0x2>
    1b3c:	31 97       	sbiw	r30, 0x01	; 1
    1b3e:	af 01       	movw	r20, r30
    1b40:	46 1b       	sub	r20, r22
    1b42:	57 0b       	sbc	r21, r23
    1b44:	0c 94 74 0d 	jmp	0x1ae8	; 0x1ae8 <_ZN6Stream9findUntilEPcjS0_j.part.0.constprop.1>

00001b48 <_ZN6Stream9findUntilEPcjS0_j>:
    1b48:	ff 92       	push	r15
    1b4a:	0f 93       	push	r16
    1b4c:	1f 93       	push	r17
    1b4e:	cf 93       	push	r28
    1b50:	df 93       	push	r29
    1b52:	cd b7       	in	r28, 0x3d	; 61
    1b54:	de b7       	in	r29, 0x3e	; 62
    1b56:	2c 97       	sbiw	r28, 0x0c	; 12
    1b58:	0f b6       	in	r0, 0x3f	; 63
    1b5a:	f8 94       	cli
    1b5c:	de bf       	out	0x3e, r29	; 62
    1b5e:	0f be       	out	0x3f, r0	; 63
    1b60:	cd bf       	out	0x3d, r28	; 61
    1b62:	21 15       	cp	r18, r1
    1b64:	31 05       	cpc	r19, r1
    1b66:	21 f4       	brne	.+8      	; 0x1b70 <_ZN6Stream9findUntilEPcjS0_j+0x28>
    1b68:	0e 94 74 0d 	call	0x1ae8	; 0x1ae8 <_ZN6Stream9findUntilEPcjS0_j.part.0.constprop.1>
    1b6c:	28 2f       	mov	r18, r24
    1b6e:	19 c0       	rjmp	.+50     	; 0x1ba2 <_ZN6Stream9findUntilEPcjS0_j+0x5a>
    1b70:	fe 01       	movw	r30, r28
    1b72:	31 96       	adiw	r30, 0x01	; 1
    1b74:	ac e0       	ldi	r26, 0x0C	; 12
    1b76:	fa 2e       	mov	r15, r26
    1b78:	df 01       	movw	r26, r30
    1b7a:	1d 92       	st	X+, r1
    1b7c:	fa 94       	dec	r15
    1b7e:	e9 f7       	brne	.-6      	; 0x1b7a <_ZN6Stream9findUntilEPcjS0_j+0x32>
    1b80:	7a 83       	std	Y+2, r23	; 0x02
    1b82:	69 83       	std	Y+1, r22	; 0x01
    1b84:	5c 83       	std	Y+4, r21	; 0x04
    1b86:	4b 83       	std	Y+3, r20	; 0x03
    1b88:	38 87       	std	Y+8, r19	; 0x08
    1b8a:	2f 83       	std	Y+7, r18	; 0x07
    1b8c:	1a 87       	std	Y+10, r17	; 0x0a
    1b8e:	09 87       	std	Y+9, r16	; 0x09
    1b90:	42 e0       	ldi	r20, 0x02	; 2
    1b92:	50 e0       	ldi	r21, 0x00	; 0
    1b94:	bf 01       	movw	r22, r30
    1b96:	0e 94 d7 0c 	call	0x19ae	; 0x19ae <_ZN6Stream9findMultiEPNS_11MultiTargetEi>
    1b9a:	21 e0       	ldi	r18, 0x01	; 1
    1b9c:	89 2b       	or	r24, r25
    1b9e:	09 f0       	breq	.+2      	; 0x1ba2 <_ZN6Stream9findUntilEPcjS0_j+0x5a>
    1ba0:	20 e0       	ldi	r18, 0x00	; 0
    1ba2:	82 2f       	mov	r24, r18
    1ba4:	2c 96       	adiw	r28, 0x0c	; 12
    1ba6:	0f b6       	in	r0, 0x3f	; 63
    1ba8:	f8 94       	cli
    1baa:	de bf       	out	0x3e, r29	; 62
    1bac:	0f be       	out	0x3f, r0	; 63
    1bae:	cd bf       	out	0x3d, r28	; 61
    1bb0:	df 91       	pop	r29
    1bb2:	cf 91       	pop	r28
    1bb4:	1f 91       	pop	r17
    1bb6:	0f 91       	pop	r16
    1bb8:	ff 90       	pop	r15
    1bba:	08 95       	ret

00001bbc <_ZN6Stream9findUntilEPcS0_>:
    1bbc:	0f 93       	push	r16
    1bbe:	1f 93       	push	r17
    1bc0:	9a 01       	movw	r18, r20
    1bc2:	fa 01       	movw	r30, r20
    1bc4:	01 90       	ld	r0, Z+
    1bc6:	00 20       	and	r0, r0
    1bc8:	e9 f7       	brne	.-6      	; 0x1bc4 <_ZN6Stream9findUntilEPcS0_+0x8>
    1bca:	31 97       	sbiw	r30, 0x01	; 1
    1bcc:	8f 01       	movw	r16, r30
    1bce:	04 1b       	sub	r16, r20
    1bd0:	15 0b       	sbc	r17, r21
    1bd2:	fb 01       	movw	r30, r22
    1bd4:	01 90       	ld	r0, Z+
    1bd6:	00 20       	and	r0, r0
    1bd8:	e9 f7       	brne	.-6      	; 0x1bd4 <_ZN6Stream9findUntilEPcS0_+0x18>
    1bda:	31 97       	sbiw	r30, 0x01	; 1
    1bdc:	af 01       	movw	r20, r30
    1bde:	46 1b       	sub	r20, r22
    1be0:	57 0b       	sbc	r21, r23
    1be2:	0e 94 a4 0d 	call	0x1b48	; 0x1b48 <_ZN6Stream9findUntilEPcjS0_j>
    1be6:	1f 91       	pop	r17
    1be8:	0f 91       	pop	r16
    1bea:	08 95       	ret

00001bec <_Z4tonehjm>:
    1bec:	4f 92       	push	r4
    1bee:	5f 92       	push	r5
    1bf0:	6f 92       	push	r6
    1bf2:	7f 92       	push	r7
    1bf4:	8f 92       	push	r8
    1bf6:	9f 92       	push	r9
    1bf8:	af 92       	push	r10
    1bfa:	bf 92       	push	r11
    1bfc:	cf 92       	push	r12
    1bfe:	df 92       	push	r13
    1c00:	ef 92       	push	r14
    1c02:	ff 92       	push	r15
    1c04:	0f 93       	push	r16
    1c06:	1f 93       	push	r17
    1c08:	cf 93       	push	r28
    1c0a:	df 93       	push	r29
    1c0c:	00 d0       	rcall	.+0      	; 0x1c0e <_Z4tonehjm+0x22>
    1c0e:	1f 92       	push	r1
    1c10:	1f 92       	push	r1
    1c12:	cd b7       	in	r28, 0x3d	; 61
    1c14:	de b7       	in	r29, 0x3e	; 62
    1c16:	8b 01       	movw	r16, r22
    1c18:	29 01       	movw	r4, r18
    1c1a:	3a 01       	movw	r6, r20
    1c1c:	90 91 00 02 	lds	r25, 0x0200	; 0x800200 <__DATA_REGION_ORIGIN__>
    1c20:	89 17       	cp	r24, r25
    1c22:	21 f0       	breq	.+8      	; 0x1c2c <_Z4tonehjm+0x40>
    1c24:	9f 3f       	cpi	r25, 0xFF	; 255
    1c26:	09 f0       	breq	.+2      	; 0x1c2a <_Z4tonehjm+0x3e>
    1c28:	46 c3       	rjmp	.+1676   	; 0x22b6 <__stack+0xb7>
    1c2a:	05 c0       	rjmp	.+10     	; 0x1c36 <_Z4tonehjm+0x4a>
    1c2c:	e1 e9       	ldi	r30, 0x91	; 145
    1c2e:	f3 e0       	ldi	r31, 0x03	; 3
    1c30:	24 91       	lpm	r18, Z
    1c32:	2d 83       	std	Y+5, r18	; 0x05
    1c34:	03 c1       	rjmp	.+518    	; 0x1e3c <_Z4tonehjm+0x250>
    1c36:	80 93 00 02 	sts	0x0200, r24	; 0x800200 <__DATA_REGION_ORIGIN__>
    1c3a:	e1 e9       	ldi	r30, 0x91	; 145
    1c3c:	f3 e0       	ldi	r31, 0x03	; 3
    1c3e:	94 91       	lpm	r25, Z
    1c40:	9d 83       	std	Y+5, r25	; 0x05
    1c42:	9f 3f       	cpi	r25, 0xFF	; 255
    1c44:	09 f4       	brne	.+2      	; 0x1c48 <_Z4tonehjm+0x5c>
    1c46:	37 c3       	rjmp	.+1646   	; 0x22b6 <__stack+0xb7>
    1c48:	92 30       	cpi	r25, 0x02	; 2
    1c4a:	09 f4       	brne	.+2      	; 0x1c4e <_Z4tonehjm+0x62>
    1c4c:	7f c0       	rjmp	.+254    	; 0x1d4c <_Z4tonehjm+0x160>
    1c4e:	68 f5       	brcc	.+90     	; 0x1caa <_Z4tonehjm+0xbe>
    1c50:	99 23       	and	r25, r25
    1c52:	09 f4       	brne	.+2      	; 0x1c56 <_Z4tonehjm+0x6a>
    1c54:	5a c0       	rjmp	.+180    	; 0x1d0a <_Z4tonehjm+0x11e>
    1c56:	91 30       	cpi	r25, 0x01	; 1
    1c58:	09 f0       	breq	.+2      	; 0x1c5c <_Z4tonehjm+0x70>
    1c5a:	f0 c0       	rjmp	.+480    	; 0x1e3c <_Z4tonehjm+0x250>
    1c5c:	10 92 80 00 	sts	0x0080, r1	; 0x800080 <__TEXT_REGION_LENGTH__+0x7c0080>
    1c60:	10 92 81 00 	sts	0x0081, r1	; 0x800081 <__TEXT_REGION_LENGTH__+0x7c0081>
    1c64:	90 91 81 00 	lds	r25, 0x0081	; 0x800081 <__TEXT_REGION_LENGTH__+0x7c0081>
    1c68:	98 60       	ori	r25, 0x08	; 8
    1c6a:	90 93 81 00 	sts	0x0081, r25	; 0x800081 <__TEXT_REGION_LENGTH__+0x7c0081>
    1c6e:	90 91 81 00 	lds	r25, 0x0081	; 0x800081 <__TEXT_REGION_LENGTH__+0x7c0081>
    1c72:	91 60       	ori	r25, 0x01	; 1
    1c74:	90 93 81 00 	sts	0x0081, r25	; 0x800081 <__TEXT_REGION_LENGTH__+0x7c0081>
    1c78:	28 2f       	mov	r18, r24
    1c7a:	30 e0       	ldi	r19, 0x00	; 0
    1c7c:	f9 01       	movw	r30, r18
    1c7e:	e2 5e       	subi	r30, 0xE2	; 226
    1c80:	fb 4f       	sbci	r31, 0xFB	; 251
    1c82:	e4 91       	lpm	r30, Z
    1c84:	f0 e0       	ldi	r31, 0x00	; 0
    1c86:	ee 0f       	add	r30, r30
    1c88:	ff 1f       	adc	r31, r31
    1c8a:	e2 58       	subi	r30, 0x82	; 130
    1c8c:	fb 4f       	sbci	r31, 0xFB	; 251
    1c8e:	45 91       	lpm	r20, Z+
    1c90:	54 91       	lpm	r21, Z
    1c92:	50 93 a8 05 	sts	0x05A8, r21	; 0x8005a8 <timer1_pin_port+0x1>
    1c96:	40 93 a7 05 	sts	0x05A7, r20	; 0x8005a7 <timer1_pin_port>
    1c9a:	f9 01       	movw	r30, r18
    1c9c:	e8 52       	subi	r30, 0x28	; 40
    1c9e:	fc 4f       	sbci	r31, 0xFC	; 252
    1ca0:	e4 91       	lpm	r30, Z
    1ca2:	e0 93 a6 05 	sts	0x05A6, r30	; 0x8005a6 <timer1_pin_mask>
    1ca6:	91 e0       	ldi	r25, 0x01	; 1
    1ca8:	9f c0       	rjmp	.+318    	; 0x1de8 <_Z4tonehjm+0x1fc>
    1caa:	2d 81       	ldd	r18, Y+5	; 0x05
    1cac:	24 30       	cpi	r18, 0x04	; 4
    1cae:	09 f4       	brne	.+2      	; 0x1cb2 <_Z4tonehjm+0xc6>
    1cb0:	9d c0       	rjmp	.+314    	; 0x1dec <_Z4tonehjm+0x200>
    1cb2:	08 f4       	brcc	.+2      	; 0x1cb6 <_Z4tonehjm+0xca>
    1cb4:	73 c0       	rjmp	.+230    	; 0x1d9c <_Z4tonehjm+0x1b0>
    1cb6:	25 30       	cpi	r18, 0x05	; 5
    1cb8:	09 f0       	breq	.+2      	; 0x1cbc <_Z4tonehjm+0xd0>
    1cba:	c0 c0       	rjmp	.+384    	; 0x1e3c <_Z4tonehjm+0x250>
    1cbc:	10 92 20 01 	sts	0x0120, r1	; 0x800120 <__TEXT_REGION_LENGTH__+0x7c0120>
    1cc0:	10 92 21 01 	sts	0x0121, r1	; 0x800121 <__TEXT_REGION_LENGTH__+0x7c0121>
    1cc4:	90 91 21 01 	lds	r25, 0x0121	; 0x800121 <__TEXT_REGION_LENGTH__+0x7c0121>
    1cc8:	98 60       	ori	r25, 0x08	; 8
    1cca:	90 93 21 01 	sts	0x0121, r25	; 0x800121 <__TEXT_REGION_LENGTH__+0x7c0121>
    1cce:	90 91 21 01 	lds	r25, 0x0121	; 0x800121 <__TEXT_REGION_LENGTH__+0x7c0121>
    1cd2:	91 60       	ori	r25, 0x01	; 1
    1cd4:	90 93 21 01 	sts	0x0121, r25	; 0x800121 <__TEXT_REGION_LENGTH__+0x7c0121>
    1cd8:	28 2f       	mov	r18, r24
    1cda:	30 e0       	ldi	r19, 0x00	; 0
    1cdc:	f9 01       	movw	r30, r18
    1cde:	e2 5e       	subi	r30, 0xE2	; 226
    1ce0:	fb 4f       	sbci	r31, 0xFB	; 251
    1ce2:	e4 91       	lpm	r30, Z
    1ce4:	f0 e0       	ldi	r31, 0x00	; 0
    1ce6:	ee 0f       	add	r30, r30
    1ce8:	ff 1f       	adc	r31, r31
    1cea:	e2 58       	subi	r30, 0x82	; 130
    1cec:	fb 4f       	sbci	r31, 0xFB	; 251
    1cee:	45 91       	lpm	r20, Z+
    1cf0:	54 91       	lpm	r21, Z
    1cf2:	50 93 8c 05 	sts	0x058C, r21	; 0x80058c <timer5_pin_port+0x1>
    1cf6:	40 93 8b 05 	sts	0x058B, r20	; 0x80058b <timer5_pin_port>
    1cfa:	f9 01       	movw	r30, r18
    1cfc:	e8 52       	subi	r30, 0x28	; 40
    1cfe:	fc 4f       	sbci	r31, 0xFC	; 252
    1d00:	e4 91       	lpm	r30, Z
    1d02:	e0 93 8a 05 	sts	0x058A, r30	; 0x80058a <timer5_pin_mask>
    1d06:	95 e0       	ldi	r25, 0x05	; 5
    1d08:	6f c0       	rjmp	.+222    	; 0x1de8 <_Z4tonehjm+0x1fc>
    1d0a:	14 bc       	out	0x24, r1	; 36
    1d0c:	15 bc       	out	0x25, r1	; 37
    1d0e:	94 b5       	in	r25, 0x24	; 36
    1d10:	92 60       	ori	r25, 0x02	; 2
    1d12:	94 bd       	out	0x24, r25	; 36
    1d14:	95 b5       	in	r25, 0x25	; 37
    1d16:	91 60       	ori	r25, 0x01	; 1
    1d18:	95 bd       	out	0x25, r25	; 37
    1d1a:	28 2f       	mov	r18, r24
    1d1c:	30 e0       	ldi	r19, 0x00	; 0
    1d1e:	f9 01       	movw	r30, r18
    1d20:	e2 5e       	subi	r30, 0xE2	; 226
    1d22:	fb 4f       	sbci	r31, 0xFB	; 251
    1d24:	e4 91       	lpm	r30, Z
    1d26:	f0 e0       	ldi	r31, 0x00	; 0
    1d28:	ee 0f       	add	r30, r30
    1d2a:	ff 1f       	adc	r31, r31
    1d2c:	e2 58       	subi	r30, 0x82	; 130
    1d2e:	fb 4f       	sbci	r31, 0xFB	; 251
    1d30:	45 91       	lpm	r20, Z+
    1d32:	54 91       	lpm	r21, Z
    1d34:	50 93 af 05 	sts	0x05AF, r21	; 0x8005af <timer0_pin_port+0x1>
    1d38:	40 93 ae 05 	sts	0x05AE, r20	; 0x8005ae <timer0_pin_port>
    1d3c:	f9 01       	movw	r30, r18
    1d3e:	e8 52       	subi	r30, 0x28	; 40
    1d40:	fc 4f       	sbci	r31, 0xFC	; 252
    1d42:	e4 91       	lpm	r30, Z
    1d44:	e0 93 ad 05 	sts	0x05AD, r30	; 0x8005ad <timer0_pin_mask>
    1d48:	1d 82       	std	Y+5, r1	; 0x05
    1d4a:	b1 c2       	rjmp	.+1378   	; 0x22ae <__stack+0xaf>
    1d4c:	10 92 b0 00 	sts	0x00B0, r1	; 0x8000b0 <__TEXT_REGION_LENGTH__+0x7c00b0>
    1d50:	10 92 b1 00 	sts	0x00B1, r1	; 0x8000b1 <__TEXT_REGION_LENGTH__+0x7c00b1>
    1d54:	90 91 b0 00 	lds	r25, 0x00B0	; 0x8000b0 <__TEXT_REGION_LENGTH__+0x7c00b0>
    1d58:	92 60       	ori	r25, 0x02	; 2
    1d5a:	90 93 b0 00 	sts	0x00B0, r25	; 0x8000b0 <__TEXT_REGION_LENGTH__+0x7c00b0>
    1d5e:	90 91 b1 00 	lds	r25, 0x00B1	; 0x8000b1 <__TEXT_REGION_LENGTH__+0x7c00b1>
    1d62:	91 60       	ori	r25, 0x01	; 1
    1d64:	90 93 b1 00 	sts	0x00B1, r25	; 0x8000b1 <__TEXT_REGION_LENGTH__+0x7c00b1>
    1d68:	28 2f       	mov	r18, r24
    1d6a:	30 e0       	ldi	r19, 0x00	; 0
    1d6c:	f9 01       	movw	r30, r18
    1d6e:	e2 5e       	subi	r30, 0xE2	; 226
    1d70:	fb 4f       	sbci	r31, 0xFB	; 251
    1d72:	e4 91       	lpm	r30, Z
    1d74:	f0 e0       	ldi	r31, 0x00	; 0
    1d76:	ee 0f       	add	r30, r30
    1d78:	ff 1f       	adc	r31, r31
    1d7a:	e2 58       	subi	r30, 0x82	; 130
    1d7c:	fb 4f       	sbci	r31, 0xFB	; 251
    1d7e:	45 91       	lpm	r20, Z+
    1d80:	54 91       	lpm	r21, Z
    1d82:	50 93 a1 05 	sts	0x05A1, r21	; 0x8005a1 <timer2_pin_port+0x1>
    1d86:	40 93 a0 05 	sts	0x05A0, r20	; 0x8005a0 <timer2_pin_port>
    1d8a:	f9 01       	movw	r30, r18
    1d8c:	e8 52       	subi	r30, 0x28	; 40
    1d8e:	fc 4f       	sbci	r31, 0xFC	; 252
    1d90:	e4 91       	lpm	r30, Z
    1d92:	e0 93 9f 05 	sts	0x059F, r30	; 0x80059f <timer2_pin_mask>
    1d96:	22 e0       	ldi	r18, 0x02	; 2
    1d98:	2d 83       	std	Y+5, r18	; 0x05
    1d9a:	89 c2       	rjmp	.+1298   	; 0x22ae <__stack+0xaf>
    1d9c:	10 92 90 00 	sts	0x0090, r1	; 0x800090 <__TEXT_REGION_LENGTH__+0x7c0090>
    1da0:	10 92 91 00 	sts	0x0091, r1	; 0x800091 <__TEXT_REGION_LENGTH__+0x7c0091>
    1da4:	90 91 91 00 	lds	r25, 0x0091	; 0x800091 <__TEXT_REGION_LENGTH__+0x7c0091>
    1da8:	98 60       	ori	r25, 0x08	; 8
    1daa:	90 93 91 00 	sts	0x0091, r25	; 0x800091 <__TEXT_REGION_LENGTH__+0x7c0091>
    1dae:	90 91 91 00 	lds	r25, 0x0091	; 0x800091 <__TEXT_REGION_LENGTH__+0x7c0091>
    1db2:	91 60       	ori	r25, 0x01	; 1
    1db4:	90 93 91 00 	sts	0x0091, r25	; 0x800091 <__TEXT_REGION_LENGTH__+0x7c0091>
    1db8:	28 2f       	mov	r18, r24
    1dba:	30 e0       	ldi	r19, 0x00	; 0
    1dbc:	f9 01       	movw	r30, r18
    1dbe:	e2 5e       	subi	r30, 0xE2	; 226
    1dc0:	fb 4f       	sbci	r31, 0xFB	; 251
    1dc2:	e4 91       	lpm	r30, Z
    1dc4:	f0 e0       	ldi	r31, 0x00	; 0
    1dc6:	ee 0f       	add	r30, r30
    1dc8:	ff 1f       	adc	r31, r31
    1dca:	e2 58       	subi	r30, 0x82	; 130
    1dcc:	fb 4f       	sbci	r31, 0xFB	; 251
    1dce:	45 91       	lpm	r20, Z+
    1dd0:	54 91       	lpm	r21, Z
    1dd2:	50 93 9a 05 	sts	0x059A, r21	; 0x80059a <timer3_pin_port+0x1>
    1dd6:	40 93 99 05 	sts	0x0599, r20	; 0x800599 <timer3_pin_port>
    1dda:	f9 01       	movw	r30, r18
    1ddc:	e8 52       	subi	r30, 0x28	; 40
    1dde:	fc 4f       	sbci	r31, 0xFC	; 252
    1de0:	e4 91       	lpm	r30, Z
    1de2:	e0 93 98 05 	sts	0x0598, r30	; 0x800598 <timer3_pin_mask>
    1de6:	93 e0       	ldi	r25, 0x03	; 3
    1de8:	9d 83       	std	Y+5, r25	; 0x05
    1dea:	b1 c0       	rjmp	.+354    	; 0x1f4e <_Z4tonehjm+0x362>
    1dec:	10 92 a0 00 	sts	0x00A0, r1	; 0x8000a0 <__TEXT_REGION_LENGTH__+0x7c00a0>
    1df0:	10 92 a1 00 	sts	0x00A1, r1	; 0x8000a1 <__TEXT_REGION_LENGTH__+0x7c00a1>
    1df4:	90 91 a1 00 	lds	r25, 0x00A1	; 0x8000a1 <__TEXT_REGION_LENGTH__+0x7c00a1>
    1df8:	98 60       	ori	r25, 0x08	; 8
    1dfa:	90 93 a1 00 	sts	0x00A1, r25	; 0x8000a1 <__TEXT_REGION_LENGTH__+0x7c00a1>
    1dfe:	90 91 a1 00 	lds	r25, 0x00A1	; 0x8000a1 <__TEXT_REGION_LENGTH__+0x7c00a1>
    1e02:	91 60       	ori	r25, 0x01	; 1
    1e04:	90 93 a1 00 	sts	0x00A1, r25	; 0x8000a1 <__TEXT_REGION_LENGTH__+0x7c00a1>
    1e08:	28 2f       	mov	r18, r24
    1e0a:	30 e0       	ldi	r19, 0x00	; 0
    1e0c:	f9 01       	movw	r30, r18
    1e0e:	e2 5e       	subi	r30, 0xE2	; 226
    1e10:	fb 4f       	sbci	r31, 0xFB	; 251
    1e12:	e4 91       	lpm	r30, Z
    1e14:	f0 e0       	ldi	r31, 0x00	; 0
    1e16:	ee 0f       	add	r30, r30
    1e18:	ff 1f       	adc	r31, r31
    1e1a:	e2 58       	subi	r30, 0x82	; 130
    1e1c:	fb 4f       	sbci	r31, 0xFB	; 251
    1e1e:	45 91       	lpm	r20, Z+
    1e20:	54 91       	lpm	r21, Z
    1e22:	50 93 93 05 	sts	0x0593, r21	; 0x800593 <timer4_pin_port+0x1>
    1e26:	40 93 92 05 	sts	0x0592, r20	; 0x800592 <timer4_pin_port>
    1e2a:	f9 01       	movw	r30, r18
    1e2c:	e8 52       	subi	r30, 0x28	; 40
    1e2e:	fc 4f       	sbci	r31, 0xFC	; 252
    1e30:	e4 91       	lpm	r30, Z
    1e32:	e0 93 91 05 	sts	0x0591, r30	; 0x800591 <timer4_pin_mask>
    1e36:	24 e0       	ldi	r18, 0x04	; 4
    1e38:	2d 83       	std	Y+5, r18	; 0x05
    1e3a:	89 c0       	rjmp	.+274    	; 0x1f4e <_Z4tonehjm+0x362>
    1e3c:	2d 81       	ldd	r18, Y+5	; 0x05
    1e3e:	27 fd       	sbrc	r18, 7
    1e40:	3a c2       	rjmp	.+1140   	; 0x22b6 <__stack+0xb7>
    1e42:	61 e0       	ldi	r22, 0x01	; 1
    1e44:	0e 94 82 16 	call	0x2d04	; 0x2d04 <pinMode>
    1e48:	8d 81       	ldd	r24, Y+5	; 0x05
    1e4a:	8d 7f       	andi	r24, 0xFD	; 253
    1e4c:	09 f0       	breq	.+2      	; 0x1e50 <_Z4tonehjm+0x264>
    1e4e:	82 c0       	rjmp	.+260    	; 0x1f54 <_Z4tonehjm+0x368>
    1e50:	48 01       	movw	r8, r16
    1e52:	a1 2c       	mov	r10, r1
    1e54:	b1 2c       	mov	r11, r1
    1e56:	60 e0       	ldi	r22, 0x00	; 0
    1e58:	72 e1       	ldi	r23, 0x12	; 18
    1e5a:	8a e7       	ldi	r24, 0x7A	; 122
    1e5c:	90 e0       	ldi	r25, 0x00	; 0
    1e5e:	a5 01       	movw	r20, r10
    1e60:	94 01       	movw	r18, r8
    1e62:	0e 94 d3 24 	call	0x49a6	; 0x49a6 <__udivmodsi4>
    1e66:	29 83       	std	Y+1, r18	; 0x01
    1e68:	3a 83       	std	Y+2, r19	; 0x02
    1e6a:	4b 83       	std	Y+3, r20	; 0x03
    1e6c:	5c 83       	std	Y+4, r21	; 0x04
    1e6e:	69 01       	movw	r12, r18
    1e70:	7a 01       	movw	r14, r20
    1e72:	81 e0       	ldi	r24, 0x01	; 1
    1e74:	c8 1a       	sub	r12, r24
    1e76:	d1 08       	sbc	r13, r1
    1e78:	e1 08       	sbc	r14, r1
    1e7a:	f1 08       	sbc	r15, r1
    1e7c:	9f ef       	ldi	r25, 0xFF	; 255
    1e7e:	c9 16       	cp	r12, r25
    1e80:	d1 04       	cpc	r13, r1
    1e82:	e1 04       	cpc	r14, r1
    1e84:	f1 04       	cpc	r15, r1
    1e86:	09 f0       	breq	.+2      	; 0x1e8a <_Z4tonehjm+0x29e>
    1e88:	08 f4       	brcc	.+2      	; 0x1e8c <_Z4tonehjm+0x2a0>
    1e8a:	4e c0       	rjmp	.+156    	; 0x1f28 <_Z4tonehjm+0x33c>
    1e8c:	60 e4       	ldi	r22, 0x40	; 64
    1e8e:	72 e4       	ldi	r23, 0x42	; 66
    1e90:	8f e0       	ldi	r24, 0x0F	; 15
    1e92:	90 e0       	ldi	r25, 0x00	; 0
    1e94:	a5 01       	movw	r20, r10
    1e96:	94 01       	movw	r18, r8
    1e98:	0e 94 d3 24 	call	0x49a6	; 0x49a6 <__udivmodsi4>
    1e9c:	69 01       	movw	r12, r18
    1e9e:	7a 01       	movw	r14, r20
    1ea0:	81 e0       	ldi	r24, 0x01	; 1
    1ea2:	c8 1a       	sub	r12, r24
    1ea4:	d1 08       	sbc	r13, r1
    1ea6:	e1 08       	sbc	r14, r1
    1ea8:	f1 08       	sbc	r15, r1
    1eaa:	9d 81       	ldd	r25, Y+5	; 0x05
    1eac:	92 30       	cpi	r25, 0x02	; 2
    1eae:	09 f5       	brne	.+66     	; 0x1ef2 <_Z4tonehjm+0x306>
    1eb0:	2f ef       	ldi	r18, 0xFF	; 255
    1eb2:	c2 16       	cp	r12, r18
    1eb4:	d1 04       	cpc	r13, r1
    1eb6:	e1 04       	cpc	r14, r1
    1eb8:	f1 04       	cpc	r15, r1
    1eba:	09 f0       	breq	.+2      	; 0x1ebe <_Z4tonehjm+0x2d2>
    1ebc:	08 f4       	brcc	.+2      	; 0x1ec0 <_Z4tonehjm+0x2d4>
    1ebe:	be c1       	rjmp	.+892    	; 0x223c <__stack+0x3d>
    1ec0:	60 e9       	ldi	r22, 0x90	; 144
    1ec2:	70 ed       	ldi	r23, 0xD0	; 208
    1ec4:	83 e0       	ldi	r24, 0x03	; 3
    1ec6:	90 e0       	ldi	r25, 0x00	; 0
    1ec8:	a5 01       	movw	r20, r10
    1eca:	94 01       	movw	r18, r8
    1ecc:	0e 94 d3 24 	call	0x49a6	; 0x49a6 <__udivmodsi4>
    1ed0:	69 01       	movw	r12, r18
    1ed2:	7a 01       	movw	r14, r20
    1ed4:	81 e0       	ldi	r24, 0x01	; 1
    1ed6:	c8 1a       	sub	r12, r24
    1ed8:	d1 08       	sbc	r13, r1
    1eda:	e1 08       	sbc	r14, r1
    1edc:	f1 08       	sbc	r15, r1
    1ede:	9f ef       	ldi	r25, 0xFF	; 255
    1ee0:	c9 16       	cp	r12, r25
    1ee2:	d1 04       	cpc	r13, r1
    1ee4:	e1 04       	cpc	r14, r1
    1ee6:	f1 04       	cpc	r15, r1
    1ee8:	11 f0       	breq	.+4      	; 0x1eee <_Z4tonehjm+0x302>
    1eea:	08 f0       	brcs	.+2      	; 0x1eee <_Z4tonehjm+0x302>
    1eec:	35 c1       	rjmp	.+618    	; 0x2158 <__DATA_REGION_LENGTH__+0x158>
    1eee:	83 e0       	ldi	r24, 0x03	; 3
    1ef0:	27 c0       	rjmp	.+78     	; 0x1f40 <_Z4tonehjm+0x354>
    1ef2:	2f ef       	ldi	r18, 0xFF	; 255
    1ef4:	c2 16       	cp	r12, r18
    1ef6:	d1 04       	cpc	r13, r1
    1ef8:	e1 04       	cpc	r14, r1
    1efa:	f1 04       	cpc	r15, r1
    1efc:	b9 f0       	breq	.+46     	; 0x1f2c <_Z4tonehjm+0x340>
    1efe:	b0 f0       	brcs	.+44     	; 0x1f2c <_Z4tonehjm+0x340>
    1f00:	68 e4       	ldi	r22, 0x48	; 72
    1f02:	78 ee       	ldi	r23, 0xE8	; 232
    1f04:	81 e0       	ldi	r24, 0x01	; 1
    1f06:	90 e0       	ldi	r25, 0x00	; 0
    1f08:	a5 01       	movw	r20, r10
    1f0a:	94 01       	movw	r18, r8
    1f0c:	0e 94 d3 24 	call	0x49a6	; 0x49a6 <__udivmodsi4>
    1f10:	69 01       	movw	r12, r18
    1f12:	7a 01       	movw	r14, r20
    1f14:	81 e0       	ldi	r24, 0x01	; 1
    1f16:	c8 1a       	sub	r12, r24
    1f18:	d1 08       	sbc	r13, r1
    1f1a:	e1 08       	sbc	r14, r1
    1f1c:	f1 08       	sbc	r15, r1
    1f1e:	9d 81       	ldd	r25, Y+5	; 0x05
    1f20:	99 23       	and	r25, r25
    1f22:	09 f4       	brne	.+2      	; 0x1f26 <_Z4tonehjm+0x33a>
    1f24:	8f c1       	rjmp	.+798    	; 0x2244 <__stack+0x45>
    1f26:	57 c1       	rjmp	.+686    	; 0x21d6 <__DATA_REGION_LENGTH__+0x1d6>
    1f28:	81 e0       	ldi	r24, 0x01	; 1
    1f2a:	01 c0       	rjmp	.+2      	; 0x1f2e <_Z4tonehjm+0x342>
    1f2c:	82 e0       	ldi	r24, 0x02	; 2
    1f2e:	9d 81       	ldd	r25, Y+5	; 0x05
    1f30:	91 11       	cpse	r25, r1
    1f32:	06 c0       	rjmp	.+12     	; 0x1f40 <_Z4tonehjm+0x354>
    1f34:	95 b5       	in	r25, 0x25	; 37
    1f36:	98 7f       	andi	r25, 0xF8	; 248
    1f38:	89 2b       	or	r24, r25
    1f3a:	85 bd       	out	0x25, r24	; 37
    1f3c:	7e c0       	rjmp	.+252    	; 0x203a <__DATA_REGION_LENGTH__+0x3a>
    1f3e:	85 e0       	ldi	r24, 0x05	; 5
    1f40:	90 91 b1 00 	lds	r25, 0x00B1	; 0x8000b1 <__TEXT_REGION_LENGTH__+0x7c00b1>
    1f44:	98 7f       	andi	r25, 0xF8	; 248
    1f46:	89 2b       	or	r24, r25
    1f48:	80 93 b1 00 	sts	0x00B1, r24	; 0x8000b1 <__TEXT_REGION_LENGTH__+0x7c00b1>
    1f4c:	76 c0       	rjmp	.+236    	; 0x203a <__DATA_REGION_LENGTH__+0x3a>
    1f4e:	61 e0       	ldi	r22, 0x01	; 1
    1f50:	0e 94 82 16 	call	0x2d04	; 0x2d04 <pinMode>
    1f54:	48 01       	movw	r8, r16
    1f56:	a1 2c       	mov	r10, r1
    1f58:	b1 2c       	mov	r11, r1
    1f5a:	60 e0       	ldi	r22, 0x00	; 0
    1f5c:	72 e1       	ldi	r23, 0x12	; 18
    1f5e:	8a e7       	ldi	r24, 0x7A	; 122
    1f60:	90 e0       	ldi	r25, 0x00	; 0
    1f62:	a5 01       	movw	r20, r10
    1f64:	94 01       	movw	r18, r8
    1f66:	0e 94 d3 24 	call	0x49a6	; 0x49a6 <__udivmodsi4>
    1f6a:	69 01       	movw	r12, r18
    1f6c:	7a 01       	movw	r14, r20
    1f6e:	81 e0       	ldi	r24, 0x01	; 1
    1f70:	c8 1a       	sub	r12, r24
    1f72:	d1 08       	sbc	r13, r1
    1f74:	e1 08       	sbc	r14, r1
    1f76:	f1 08       	sbc	r15, r1
    1f78:	c1 14       	cp	r12, r1
    1f7a:	d1 04       	cpc	r13, r1
    1f7c:	91 e0       	ldi	r25, 0x01	; 1
    1f7e:	e9 06       	cpc	r14, r25
    1f80:	f1 04       	cpc	r15, r1
    1f82:	88 f0       	brcs	.+34     	; 0x1fa6 <_Z4tonehjm+0x3ba>
    1f84:	68 e4       	ldi	r22, 0x48	; 72
    1f86:	78 ee       	ldi	r23, 0xE8	; 232
    1f88:	81 e0       	ldi	r24, 0x01	; 1
    1f8a:	90 e0       	ldi	r25, 0x00	; 0
    1f8c:	a5 01       	movw	r20, r10
    1f8e:	94 01       	movw	r18, r8
    1f90:	0e 94 d3 24 	call	0x49a6	; 0x49a6 <__udivmodsi4>
    1f94:	69 01       	movw	r12, r18
    1f96:	7a 01       	movw	r14, r20
    1f98:	81 e0       	ldi	r24, 0x01	; 1
    1f9a:	c8 1a       	sub	r12, r24
    1f9c:	d1 08       	sbc	r13, r1
    1f9e:	e1 08       	sbc	r14, r1
    1fa0:	f1 08       	sbc	r15, r1
    1fa2:	83 e0       	ldi	r24, 0x03	; 3
    1fa4:	01 c0       	rjmp	.+2      	; 0x1fa8 <_Z4tonehjm+0x3bc>
    1fa6:	81 e0       	ldi	r24, 0x01	; 1
    1fa8:	9d 81       	ldd	r25, Y+5	; 0x05
    1faa:	91 30       	cpi	r25, 0x01	; 1
    1fac:	81 f4       	brne	.+32     	; 0x1fce <_Z4tonehjm+0x3e2>
    1fae:	90 91 81 00 	lds	r25, 0x0081	; 0x800081 <__TEXT_REGION_LENGTH__+0x7c0081>
    1fb2:	98 7f       	andi	r25, 0xF8	; 248
    1fb4:	89 2b       	or	r24, r25
    1fb6:	80 93 81 00 	sts	0x0081, r24	; 0x800081 <__TEXT_REGION_LENGTH__+0x7c0081>
    1fba:	41 14       	cp	r4, r1
    1fbc:	51 04       	cpc	r5, r1
    1fbe:	61 04       	cpc	r6, r1
    1fc0:	71 04       	cpc	r7, r1
    1fc2:	09 f0       	breq	.+2      	; 0x1fc6 <_Z4tonehjm+0x3da>
    1fc4:	3f c0       	rjmp	.+126    	; 0x2044 <__DATA_REGION_LENGTH__+0x44>
    1fc6:	2f ef       	ldi	r18, 0xFF	; 255
    1fc8:	3f ef       	ldi	r19, 0xFF	; 255
    1fca:	a9 01       	movw	r20, r18
    1fcc:	6d c0       	rjmp	.+218    	; 0x20a8 <__DATA_REGION_LENGTH__+0xa8>
    1fce:	2d 81       	ldd	r18, Y+5	; 0x05
    1fd0:	23 30       	cpi	r18, 0x03	; 3
    1fd2:	79 f4       	brne	.+30     	; 0x1ff2 <_Z4tonehjm+0x406>
    1fd4:	90 91 91 00 	lds	r25, 0x0091	; 0x800091 <__TEXT_REGION_LENGTH__+0x7c0091>
    1fd8:	98 7f       	andi	r25, 0xF8	; 248
    1fda:	89 2b       	or	r24, r25
    1fdc:	80 93 91 00 	sts	0x0091, r24	; 0x800091 <__TEXT_REGION_LENGTH__+0x7c0091>
    1fe0:	41 14       	cp	r4, r1
    1fe2:	51 04       	cpc	r5, r1
    1fe4:	61 04       	cpc	r6, r1
    1fe6:	71 04       	cpc	r7, r1
    1fe8:	69 f5       	brne	.+90     	; 0x2044 <__DATA_REGION_LENGTH__+0x44>
    1fea:	2f ef       	ldi	r18, 0xFF	; 255
    1fec:	3f ef       	ldi	r19, 0xFF	; 255
    1fee:	a9 01       	movw	r20, r18
    1ff0:	7d c0       	rjmp	.+250    	; 0x20ec <__DATA_REGION_LENGTH__+0xec>
    1ff2:	9d 81       	ldd	r25, Y+5	; 0x05
    1ff4:	94 30       	cpi	r25, 0x04	; 4
    1ff6:	79 f4       	brne	.+30     	; 0x2016 <__DATA_REGION_LENGTH__+0x16>
    1ff8:	90 91 a1 00 	lds	r25, 0x00A1	; 0x8000a1 <__TEXT_REGION_LENGTH__+0x7c00a1>
    1ffc:	98 7f       	andi	r25, 0xF8	; 248
    1ffe:	89 2b       	or	r24, r25
    2000:	80 93 a1 00 	sts	0x00A1, r24	; 0x8000a1 <__TEXT_REGION_LENGTH__+0x7c00a1>
    2004:	41 14       	cp	r4, r1
    2006:	51 04       	cpc	r5, r1
    2008:	61 04       	cpc	r6, r1
    200a:	71 04       	cpc	r7, r1
    200c:	d9 f4       	brne	.+54     	; 0x2044 <__DATA_REGION_LENGTH__+0x44>
    200e:	2f ef       	ldi	r18, 0xFF	; 255
    2010:	3f ef       	ldi	r19, 0xFF	; 255
    2012:	a9 01       	movw	r20, r18
    2014:	7d c0       	rjmp	.+250    	; 0x2110 <__DATA_REGION_LENGTH__+0x110>
    2016:	2d 81       	ldd	r18, Y+5	; 0x05
    2018:	25 30       	cpi	r18, 0x05	; 5
    201a:	79 f4       	brne	.+30     	; 0x203a <__DATA_REGION_LENGTH__+0x3a>
    201c:	90 91 21 01 	lds	r25, 0x0121	; 0x800121 <__TEXT_REGION_LENGTH__+0x7c0121>
    2020:	98 7f       	andi	r25, 0xF8	; 248
    2022:	89 2b       	or	r24, r25
    2024:	80 93 21 01 	sts	0x0121, r24	; 0x800121 <__TEXT_REGION_LENGTH__+0x7c0121>
    2028:	41 14       	cp	r4, r1
    202a:	51 04       	cpc	r5, r1
    202c:	61 04       	cpc	r6, r1
    202e:	71 04       	cpc	r7, r1
    2030:	49 f4       	brne	.+18     	; 0x2044 <__DATA_REGION_LENGTH__+0x44>
    2032:	2f ef       	ldi	r18, 0xFF	; 255
    2034:	3f ef       	ldi	r19, 0xFF	; 255
    2036:	a9 01       	movw	r20, r18
    2038:	7d c0       	rjmp	.+250    	; 0x2134 <__DATA_REGION_LENGTH__+0x134>
    203a:	41 14       	cp	r4, r1
    203c:	51 04       	cpc	r5, r1
    203e:	61 04       	cpc	r6, r1
    2040:	71 04       	cpc	r7, r1
    2042:	71 f0       	breq	.+28     	; 0x2060 <__DATA_REGION_LENGTH__+0x60>
    2044:	d8 01       	movw	r26, r16
    2046:	aa 0f       	add	r26, r26
    2048:	bb 1f       	adc	r27, r27
    204a:	a3 01       	movw	r20, r6
    204c:	92 01       	movw	r18, r4
    204e:	0e 94 1c 25 	call	0x4a38	; 0x4a38 <__muluhisi3>
    2052:	28 ee       	ldi	r18, 0xE8	; 232
    2054:	33 e0       	ldi	r19, 0x03	; 3
    2056:	40 e0       	ldi	r20, 0x00	; 0
    2058:	50 e0       	ldi	r21, 0x00	; 0
    205a:	0e 94 d3 24 	call	0x49a6	; 0x49a6 <__udivmodsi4>
    205e:	03 c0       	rjmp	.+6      	; 0x2066 <__DATA_REGION_LENGTH__+0x66>
    2060:	2f ef       	ldi	r18, 0xFF	; 255
    2062:	3f ef       	ldi	r19, 0xFF	; 255
    2064:	a9 01       	movw	r20, r18
    2066:	8d 81       	ldd	r24, Y+5	; 0x05
    2068:	82 30       	cpi	r24, 0x02	; 2
    206a:	81 f1       	breq	.+96     	; 0x20cc <__DATA_REGION_LENGTH__+0xcc>
    206c:	2c f4       	brge	.+10     	; 0x2078 <__DATA_REGION_LENGTH__+0x78>
    206e:	88 23       	and	r24, r24
    2070:	61 f0       	breq	.+24     	; 0x208a <__DATA_REGION_LENGTH__+0x8a>
    2072:	81 30       	cpi	r24, 0x01	; 1
    2074:	c9 f0       	breq	.+50     	; 0x20a8 <__DATA_REGION_LENGTH__+0xa8>
    2076:	1f c1       	rjmp	.+574    	; 0x22b6 <__stack+0xb7>
    2078:	9d 81       	ldd	r25, Y+5	; 0x05
    207a:	94 30       	cpi	r25, 0x04	; 4
    207c:	09 f4       	brne	.+2      	; 0x2080 <__DATA_REGION_LENGTH__+0x80>
    207e:	48 c0       	rjmp	.+144    	; 0x2110 <__DATA_REGION_LENGTH__+0x110>
    2080:	ac f1       	brlt	.+106    	; 0x20ec <__DATA_REGION_LENGTH__+0xec>
    2082:	95 30       	cpi	r25, 0x05	; 5
    2084:	09 f4       	brne	.+2      	; 0x2088 <__DATA_REGION_LENGTH__+0x88>
    2086:	56 c0       	rjmp	.+172    	; 0x2134 <__DATA_REGION_LENGTH__+0x134>
    2088:	16 c1       	rjmp	.+556    	; 0x22b6 <__stack+0xb7>
    208a:	c7 bc       	out	0x27, r12	; 39
    208c:	20 93 b0 05 	sts	0x05B0, r18	; 0x8005b0 <timer0_toggle_count>
    2090:	30 93 b1 05 	sts	0x05B1, r19	; 0x8005b1 <timer0_toggle_count+0x1>
    2094:	40 93 b2 05 	sts	0x05B2, r20	; 0x8005b2 <timer0_toggle_count+0x2>
    2098:	50 93 b3 05 	sts	0x05B3, r21	; 0x8005b3 <timer0_toggle_count+0x3>
    209c:	80 91 6e 00 	lds	r24, 0x006E	; 0x80006e <__TEXT_REGION_LENGTH__+0x7c006e>
    20a0:	82 60       	ori	r24, 0x02	; 2
    20a2:	80 93 6e 00 	sts	0x006E, r24	; 0x80006e <__TEXT_REGION_LENGTH__+0x7c006e>
    20a6:	07 c1       	rjmp	.+526    	; 0x22b6 <__stack+0xb7>
    20a8:	d0 92 89 00 	sts	0x0089, r13	; 0x800089 <__TEXT_REGION_LENGTH__+0x7c0089>
    20ac:	c0 92 88 00 	sts	0x0088, r12	; 0x800088 <__TEXT_REGION_LENGTH__+0x7c0088>
    20b0:	20 93 a9 05 	sts	0x05A9, r18	; 0x8005a9 <timer1_toggle_count>
    20b4:	30 93 aa 05 	sts	0x05AA, r19	; 0x8005aa <timer1_toggle_count+0x1>
    20b8:	40 93 ab 05 	sts	0x05AB, r20	; 0x8005ab <timer1_toggle_count+0x2>
    20bc:	50 93 ac 05 	sts	0x05AC, r21	; 0x8005ac <timer1_toggle_count+0x3>
    20c0:	80 91 6f 00 	lds	r24, 0x006F	; 0x80006f <__TEXT_REGION_LENGTH__+0x7c006f>
    20c4:	82 60       	ori	r24, 0x02	; 2
    20c6:	80 93 6f 00 	sts	0x006F, r24	; 0x80006f <__TEXT_REGION_LENGTH__+0x7c006f>
    20ca:	f5 c0       	rjmp	.+490    	; 0x22b6 <__stack+0xb7>
    20cc:	c0 92 b3 00 	sts	0x00B3, r12	; 0x8000b3 <__TEXT_REGION_LENGTH__+0x7c00b3>
    20d0:	20 93 a2 05 	sts	0x05A2, r18	; 0x8005a2 <timer2_toggle_count>
    20d4:	30 93 a3 05 	sts	0x05A3, r19	; 0x8005a3 <timer2_toggle_count+0x1>
    20d8:	40 93 a4 05 	sts	0x05A4, r20	; 0x8005a4 <timer2_toggle_count+0x2>
    20dc:	50 93 a5 05 	sts	0x05A5, r21	; 0x8005a5 <timer2_toggle_count+0x3>
    20e0:	80 91 70 00 	lds	r24, 0x0070	; 0x800070 <__TEXT_REGION_LENGTH__+0x7c0070>
    20e4:	82 60       	ori	r24, 0x02	; 2
    20e6:	80 93 70 00 	sts	0x0070, r24	; 0x800070 <__TEXT_REGION_LENGTH__+0x7c0070>
    20ea:	e5 c0       	rjmp	.+458    	; 0x22b6 <__stack+0xb7>
    20ec:	d0 92 99 00 	sts	0x0099, r13	; 0x800099 <__TEXT_REGION_LENGTH__+0x7c0099>
    20f0:	c0 92 98 00 	sts	0x0098, r12	; 0x800098 <__TEXT_REGION_LENGTH__+0x7c0098>
    20f4:	20 93 9b 05 	sts	0x059B, r18	; 0x80059b <timer3_toggle_count>
    20f8:	30 93 9c 05 	sts	0x059C, r19	; 0x80059c <timer3_toggle_count+0x1>
    20fc:	40 93 9d 05 	sts	0x059D, r20	; 0x80059d <timer3_toggle_count+0x2>
    2100:	50 93 9e 05 	sts	0x059E, r21	; 0x80059e <timer3_toggle_count+0x3>
    2104:	80 91 71 00 	lds	r24, 0x0071	; 0x800071 <__TEXT_REGION_LENGTH__+0x7c0071>
    2108:	82 60       	ori	r24, 0x02	; 2
    210a:	80 93 71 00 	sts	0x0071, r24	; 0x800071 <__TEXT_REGION_LENGTH__+0x7c0071>
    210e:	d3 c0       	rjmp	.+422    	; 0x22b6 <__stack+0xb7>
    2110:	d0 92 a9 00 	sts	0x00A9, r13	; 0x8000a9 <__TEXT_REGION_LENGTH__+0x7c00a9>
    2114:	c0 92 a8 00 	sts	0x00A8, r12	; 0x8000a8 <__TEXT_REGION_LENGTH__+0x7c00a8>
    2118:	20 93 94 05 	sts	0x0594, r18	; 0x800594 <timer4_toggle_count>
    211c:	30 93 95 05 	sts	0x0595, r19	; 0x800595 <timer4_toggle_count+0x1>
    2120:	40 93 96 05 	sts	0x0596, r20	; 0x800596 <timer4_toggle_count+0x2>
    2124:	50 93 97 05 	sts	0x0597, r21	; 0x800597 <timer4_toggle_count+0x3>
    2128:	80 91 72 00 	lds	r24, 0x0072	; 0x800072 <__TEXT_REGION_LENGTH__+0x7c0072>
    212c:	82 60       	ori	r24, 0x02	; 2
    212e:	80 93 72 00 	sts	0x0072, r24	; 0x800072 <__TEXT_REGION_LENGTH__+0x7c0072>
    2132:	c1 c0       	rjmp	.+386    	; 0x22b6 <__stack+0xb7>
    2134:	d0 92 29 01 	sts	0x0129, r13	; 0x800129 <__TEXT_REGION_LENGTH__+0x7c0129>
    2138:	c0 92 28 01 	sts	0x0128, r12	; 0x800128 <__TEXT_REGION_LENGTH__+0x7c0128>
    213c:	20 93 8d 05 	sts	0x058D, r18	; 0x80058d <timer5_toggle_count>
    2140:	30 93 8e 05 	sts	0x058E, r19	; 0x80058e <timer5_toggle_count+0x1>
    2144:	40 93 8f 05 	sts	0x058F, r20	; 0x80058f <timer5_toggle_count+0x2>
    2148:	50 93 90 05 	sts	0x0590, r21	; 0x800590 <timer5_toggle_count+0x3>
    214c:	80 91 73 00 	lds	r24, 0x0073	; 0x800073 <__TEXT_REGION_LENGTH__+0x7c0073>
    2150:	82 60       	ori	r24, 0x02	; 2
    2152:	80 93 73 00 	sts	0x0073, r24	; 0x800073 <__TEXT_REGION_LENGTH__+0x7c0073>
    2156:	af c0       	rjmp	.+350    	; 0x22b6 <__stack+0xb7>
    2158:	68 e4       	ldi	r22, 0x48	; 72
    215a:	78 ee       	ldi	r23, 0xE8	; 232
    215c:	81 e0       	ldi	r24, 0x01	; 1
    215e:	90 e0       	ldi	r25, 0x00	; 0
    2160:	a5 01       	movw	r20, r10
    2162:	94 01       	movw	r18, r8
    2164:	0e 94 d3 24 	call	0x49a6	; 0x49a6 <__udivmodsi4>
    2168:	69 01       	movw	r12, r18
    216a:	7a 01       	movw	r14, r20
    216c:	81 e0       	ldi	r24, 0x01	; 1
    216e:	c8 1a       	sub	r12, r24
    2170:	d1 08       	sbc	r13, r1
    2172:	e1 08       	sbc	r14, r1
    2174:	f1 08       	sbc	r15, r1
    2176:	9f ef       	ldi	r25, 0xFF	; 255
    2178:	c9 16       	cp	r12, r25
    217a:	d1 04       	cpc	r13, r1
    217c:	e1 04       	cpc	r14, r1
    217e:	f1 04       	cpc	r15, r1
    2180:	41 f1       	breq	.+80     	; 0x21d2 <__DATA_REGION_LENGTH__+0x1d2>
    2182:	38 f1       	brcs	.+78     	; 0x21d2 <__DATA_REGION_LENGTH__+0x1d2>
    2184:	64 e2       	ldi	r22, 0x24	; 36
    2186:	74 ef       	ldi	r23, 0xF4	; 244
    2188:	80 e0       	ldi	r24, 0x00	; 0
    218a:	90 e0       	ldi	r25, 0x00	; 0
    218c:	a5 01       	movw	r20, r10
    218e:	94 01       	movw	r18, r8
    2190:	0e 94 d3 24 	call	0x49a6	; 0x49a6 <__udivmodsi4>
    2194:	69 01       	movw	r12, r18
    2196:	7a 01       	movw	r14, r20
    2198:	81 e0       	ldi	r24, 0x01	; 1
    219a:	c8 1a       	sub	r12, r24
    219c:	d1 08       	sbc	r13, r1
    219e:	e1 08       	sbc	r14, r1
    21a0:	f1 08       	sbc	r15, r1
    21a2:	9f ef       	ldi	r25, 0xFF	; 255
    21a4:	c9 16       	cp	r12, r25
    21a6:	d1 04       	cpc	r13, r1
    21a8:	e1 04       	cpc	r14, r1
    21aa:	f1 04       	cpc	r15, r1
    21ac:	09 f0       	breq	.+2      	; 0x21b0 <__DATA_REGION_LENGTH__+0x1b0>
    21ae:	08 f4       	brcc	.+2      	; 0x21b2 <__DATA_REGION_LENGTH__+0x1b2>
    21b0:	c6 ce       	rjmp	.-628    	; 0x1f3e <_Z4tonehjm+0x352>
    21b2:	62 e1       	ldi	r22, 0x12	; 18
    21b4:	7a e7       	ldi	r23, 0x7A	; 122
    21b6:	80 e0       	ldi	r24, 0x00	; 0
    21b8:	90 e0       	ldi	r25, 0x00	; 0
    21ba:	a5 01       	movw	r20, r10
    21bc:	94 01       	movw	r18, r8
    21be:	0e 94 d3 24 	call	0x49a6	; 0x49a6 <__udivmodsi4>
    21c2:	69 01       	movw	r12, r18
    21c4:	7a 01       	movw	r14, r20
    21c6:	81 e0       	ldi	r24, 0x01	; 1
    21c8:	c8 1a       	sub	r12, r24
    21ca:	d1 08       	sbc	r13, r1
    21cc:	e1 08       	sbc	r14, r1
    21ce:	f1 08       	sbc	r15, r1
    21d0:	18 c0       	rjmp	.+48     	; 0x2202 <__stack+0x3>
    21d2:	84 e0       	ldi	r24, 0x04	; 4
    21d4:	b5 ce       	rjmp	.-662    	; 0x1f40 <_Z4tonehjm+0x354>
    21d6:	2f ef       	ldi	r18, 0xFF	; 255
    21d8:	c2 16       	cp	r12, r18
    21da:	d1 04       	cpc	r13, r1
    21dc:	e1 04       	cpc	r14, r1
    21de:	f1 04       	cpc	r15, r1
    21e0:	79 f1       	breq	.+94     	; 0x2240 <__stack+0x41>
    21e2:	70 f1       	brcs	.+92     	; 0x2240 <__stack+0x41>
    21e4:	62 e1       	ldi	r22, 0x12	; 18
    21e6:	7a e7       	ldi	r23, 0x7A	; 122
    21e8:	80 e0       	ldi	r24, 0x00	; 0
    21ea:	90 e0       	ldi	r25, 0x00	; 0
    21ec:	a5 01       	movw	r20, r10
    21ee:	94 01       	movw	r18, r8
    21f0:	0e 94 d3 24 	call	0x49a6	; 0x49a6 <__udivmodsi4>
    21f4:	69 01       	movw	r12, r18
    21f6:	7a 01       	movw	r14, r20
    21f8:	91 e0       	ldi	r25, 0x01	; 1
    21fa:	c9 1a       	sub	r12, r25
    21fc:	d1 08       	sbc	r13, r1
    21fe:	e1 08       	sbc	r14, r1
    2200:	f1 08       	sbc	r15, r1
    2202:	8f ef       	ldi	r24, 0xFF	; 255
    2204:	c8 16       	cp	r12, r24
    2206:	d1 04       	cpc	r13, r1
    2208:	e1 04       	cpc	r14, r1
    220a:	f1 04       	cpc	r15, r1
    220c:	a9 f0       	breq	.+42     	; 0x2238 <__stack+0x39>
    220e:	a0 f0       	brcs	.+40     	; 0x2238 <__stack+0x39>
    2210:	89 81       	ldd	r24, Y+1	; 0x01
    2212:	9a 81       	ldd	r25, Y+2	; 0x02
    2214:	ab 81       	ldd	r26, Y+3	; 0x03
    2216:	bc 81       	ldd	r27, Y+4	; 0x04
    2218:	2a e0       	ldi	r18, 0x0A	; 10
    221a:	b6 95       	lsr	r27
    221c:	a7 95       	ror	r26
    221e:	97 95       	ror	r25
    2220:	87 95       	ror	r24
    2222:	2a 95       	dec	r18
    2224:	d1 f7       	brne	.-12     	; 0x221a <__stack+0x1b>
    2226:	6c 01       	movw	r12, r24
    2228:	7d 01       	movw	r14, r26
    222a:	21 e0       	ldi	r18, 0x01	; 1
    222c:	c2 1a       	sub	r12, r18
    222e:	d1 08       	sbc	r13, r1
    2230:	e1 08       	sbc	r14, r1
    2232:	f1 08       	sbc	r15, r1
    2234:	87 e0       	ldi	r24, 0x07	; 7
    2236:	84 ce       	rjmp	.-760    	; 0x1f40 <_Z4tonehjm+0x354>
    2238:	86 e0       	ldi	r24, 0x06	; 6
    223a:	82 ce       	rjmp	.-764    	; 0x1f40 <_Z4tonehjm+0x354>
    223c:	82 e0       	ldi	r24, 0x02	; 2
    223e:	80 ce       	rjmp	.-768    	; 0x1f40 <_Z4tonehjm+0x354>
    2240:	84 e0       	ldi	r24, 0x04	; 4
    2242:	75 ce       	rjmp	.-790    	; 0x1f2e <_Z4tonehjm+0x342>
    2244:	2f ef       	ldi	r18, 0xFF	; 255
    2246:	c2 16       	cp	r12, r18
    2248:	d1 04       	cpc	r13, r1
    224a:	e1 04       	cpc	r14, r1
    224c:	f1 04       	cpc	r15, r1
    224e:	69 f1       	breq	.+90     	; 0x22aa <__stack+0xab>
    2250:	60 f1       	brcs	.+88     	; 0x22aa <__stack+0xab>
    2252:	62 e1       	ldi	r22, 0x12	; 18
    2254:	7a e7       	ldi	r23, 0x7A	; 122
    2256:	80 e0       	ldi	r24, 0x00	; 0
    2258:	90 e0       	ldi	r25, 0x00	; 0
    225a:	a5 01       	movw	r20, r10
    225c:	94 01       	movw	r18, r8
    225e:	0e 94 d3 24 	call	0x49a6	; 0x49a6 <__udivmodsi4>
    2262:	69 01       	movw	r12, r18
    2264:	7a 01       	movw	r14, r20
    2266:	81 e0       	ldi	r24, 0x01	; 1
    2268:	c8 1a       	sub	r12, r24
    226a:	d1 08       	sbc	r13, r1
    226c:	e1 08       	sbc	r14, r1
    226e:	f1 08       	sbc	r15, r1
    2270:	9f ef       	ldi	r25, 0xFF	; 255
    2272:	c9 16       	cp	r12, r25
    2274:	d1 04       	cpc	r13, r1
    2276:	e1 04       	cpc	r14, r1
    2278:	f1 04       	cpc	r15, r1
    227a:	a9 f0       	breq	.+42     	; 0x22a6 <__stack+0xa7>
    227c:	a0 f0       	brcs	.+40     	; 0x22a6 <__stack+0xa7>
    227e:	89 81       	ldd	r24, Y+1	; 0x01
    2280:	9a 81       	ldd	r25, Y+2	; 0x02
    2282:	ab 81       	ldd	r26, Y+3	; 0x03
    2284:	bc 81       	ldd	r27, Y+4	; 0x04
    2286:	3a e0       	ldi	r19, 0x0A	; 10
    2288:	b6 95       	lsr	r27
    228a:	a7 95       	ror	r26
    228c:	97 95       	ror	r25
    228e:	87 95       	ror	r24
    2290:	3a 95       	dec	r19
    2292:	d1 f7       	brne	.-12     	; 0x2288 <__stack+0x89>
    2294:	6c 01       	movw	r12, r24
    2296:	7d 01       	movw	r14, r26
    2298:	21 e0       	ldi	r18, 0x01	; 1
    229a:	c2 1a       	sub	r12, r18
    229c:	d1 08       	sbc	r13, r1
    229e:	e1 08       	sbc	r14, r1
    22a0:	f1 08       	sbc	r15, r1
    22a2:	85 e0       	ldi	r24, 0x05	; 5
    22a4:	47 ce       	rjmp	.-882    	; 0x1f34 <_Z4tonehjm+0x348>
    22a6:	84 e0       	ldi	r24, 0x04	; 4
    22a8:	45 ce       	rjmp	.-886    	; 0x1f34 <_Z4tonehjm+0x348>
    22aa:	83 e0       	ldi	r24, 0x03	; 3
    22ac:	43 ce       	rjmp	.-890    	; 0x1f34 <_Z4tonehjm+0x348>
    22ae:	61 e0       	ldi	r22, 0x01	; 1
    22b0:	0e 94 82 16 	call	0x2d04	; 0x2d04 <pinMode>
    22b4:	cd cd       	rjmp	.-1126   	; 0x1e50 <_Z4tonehjm+0x264>
    22b6:	0f 90       	pop	r0
    22b8:	0f 90       	pop	r0
    22ba:	0f 90       	pop	r0
    22bc:	0f 90       	pop	r0
    22be:	0f 90       	pop	r0
    22c0:	df 91       	pop	r29
    22c2:	cf 91       	pop	r28
    22c4:	1f 91       	pop	r17
    22c6:	0f 91       	pop	r16
    22c8:	ff 90       	pop	r15
    22ca:	ef 90       	pop	r14
    22cc:	df 90       	pop	r13
    22ce:	cf 90       	pop	r12
    22d0:	bf 90       	pop	r11
    22d2:	af 90       	pop	r10
    22d4:	9f 90       	pop	r9
    22d6:	8f 90       	pop	r8
    22d8:	7f 90       	pop	r7
    22da:	6f 90       	pop	r6
    22dc:	5f 90       	pop	r5
    22de:	4f 90       	pop	r4
    22e0:	08 95       	ret

000022e2 <_Z12disableTimerh>:
    22e2:	82 30       	cpi	r24, 0x02	; 2
    22e4:	a9 f0       	breq	.+42     	; 0x2310 <_Z12disableTimerh+0x2e>
    22e6:	28 f4       	brcc	.+10     	; 0x22f2 <_Z12disableTimerh+0x10>
    22e8:	88 23       	and	r24, r24
    22ea:	49 f0       	breq	.+18     	; 0x22fe <_Z12disableTimerh+0x1c>
    22ec:	81 30       	cpi	r24, 0x01	; 1
    22ee:	51 f0       	breq	.+20     	; 0x2304 <_Z12disableTimerh+0x22>
    22f0:	08 95       	ret
    22f2:	84 30       	cpi	r24, 0x04	; 4
    22f4:	21 f1       	breq	.+72     	; 0x233e <_Z12disableTimerh+0x5c>
    22f6:	e8 f0       	brcs	.+58     	; 0x2332 <_Z12disableTimerh+0x50>
    22f8:	85 30       	cpi	r24, 0x05	; 5
    22fa:	39 f1       	breq	.+78     	; 0x234a <_Z12disableTimerh+0x68>
    22fc:	08 95       	ret
    22fe:	10 92 6e 00 	sts	0x006E, r1	; 0x80006e <__TEXT_REGION_LENGTH__+0x7c006e>
    2302:	08 95       	ret
    2304:	80 91 6f 00 	lds	r24, 0x006F	; 0x80006f <__TEXT_REGION_LENGTH__+0x7c006f>
    2308:	8d 7f       	andi	r24, 0xFD	; 253
    230a:	80 93 6f 00 	sts	0x006F, r24	; 0x80006f <__TEXT_REGION_LENGTH__+0x7c006f>
    230e:	08 95       	ret
    2310:	80 91 70 00 	lds	r24, 0x0070	; 0x800070 <__TEXT_REGION_LENGTH__+0x7c0070>
    2314:	8d 7f       	andi	r24, 0xFD	; 253
    2316:	80 93 70 00 	sts	0x0070, r24	; 0x800070 <__TEXT_REGION_LENGTH__+0x7c0070>
    231a:	81 e0       	ldi	r24, 0x01	; 1
    231c:	80 93 b0 00 	sts	0x00B0, r24	; 0x8000b0 <__TEXT_REGION_LENGTH__+0x7c00b0>
    2320:	80 91 b1 00 	lds	r24, 0x00B1	; 0x8000b1 <__TEXT_REGION_LENGTH__+0x7c00b1>
    2324:	88 7f       	andi	r24, 0xF8	; 248
    2326:	84 60       	ori	r24, 0x04	; 4
    2328:	80 93 b1 00 	sts	0x00B1, r24	; 0x8000b1 <__TEXT_REGION_LENGTH__+0x7c00b1>
    232c:	10 92 b3 00 	sts	0x00B3, r1	; 0x8000b3 <__TEXT_REGION_LENGTH__+0x7c00b3>
    2330:	08 95       	ret
    2332:	80 91 71 00 	lds	r24, 0x0071	; 0x800071 <__TEXT_REGION_LENGTH__+0x7c0071>
    2336:	8d 7f       	andi	r24, 0xFD	; 253
    2338:	80 93 71 00 	sts	0x0071, r24	; 0x800071 <__TEXT_REGION_LENGTH__+0x7c0071>
    233c:	08 95       	ret
    233e:	80 91 72 00 	lds	r24, 0x0072	; 0x800072 <__TEXT_REGION_LENGTH__+0x7c0072>
    2342:	8d 7f       	andi	r24, 0xFD	; 253
    2344:	80 93 72 00 	sts	0x0072, r24	; 0x800072 <__TEXT_REGION_LENGTH__+0x7c0072>
    2348:	08 95       	ret
    234a:	80 91 73 00 	lds	r24, 0x0073	; 0x800073 <__TEXT_REGION_LENGTH__+0x7c0073>
    234e:	8d 7f       	andi	r24, 0xFD	; 253
    2350:	80 93 73 00 	sts	0x0073, r24	; 0x800073 <__TEXT_REGION_LENGTH__+0x7c0073>
    2354:	08 95       	ret

00002356 <_Z6noToneh>:
    2356:	cf 93       	push	r28
    2358:	c8 2f       	mov	r28, r24
    235a:	80 91 00 02 	lds	r24, 0x0200	; 0x800200 <__DATA_REGION_ORIGIN__>
    235e:	c8 13       	cpse	r28, r24
    2360:	07 c0       	rjmp	.+14     	; 0x2370 <_Z6noToneh+0x1a>
    2362:	e1 e9       	ldi	r30, 0x91	; 145
    2364:	f3 e0       	ldi	r31, 0x03	; 3
    2366:	84 91       	lpm	r24, Z
    2368:	9f ef       	ldi	r25, 0xFF	; 255
    236a:	90 93 00 02 	sts	0x0200, r25	; 0x800200 <__DATA_REGION_ORIGIN__>
    236e:	01 c0       	rjmp	.+2      	; 0x2372 <_Z6noToneh+0x1c>
    2370:	8f ef       	ldi	r24, 0xFF	; 255
    2372:	0e 94 71 11 	call	0x22e2	; 0x22e2 <_Z12disableTimerh>
    2376:	60 e0       	ldi	r22, 0x00	; 0
    2378:	8c 2f       	mov	r24, r28
    237a:	cf 91       	pop	r28
    237c:	0c 94 be 16 	jmp	0x2d7c	; 0x2d7c <digitalWrite>

00002380 <__vector_13>:
    2380:	1f 92       	push	r1
    2382:	0f 92       	push	r0
    2384:	0f b6       	in	r0, 0x3f	; 63
    2386:	0f 92       	push	r0
    2388:	11 24       	eor	r1, r1
    238a:	0b b6       	in	r0, 0x3b	; 59
    238c:	0f 92       	push	r0
    238e:	2f 93       	push	r18
    2390:	3f 93       	push	r19
    2392:	4f 93       	push	r20
    2394:	5f 93       	push	r21
    2396:	6f 93       	push	r22
    2398:	7f 93       	push	r23
    239a:	8f 93       	push	r24
    239c:	9f 93       	push	r25
    239e:	af 93       	push	r26
    23a0:	bf 93       	push	r27
    23a2:	ef 93       	push	r30
    23a4:	ff 93       	push	r31
    23a6:	80 91 a2 05 	lds	r24, 0x05A2	; 0x8005a2 <timer2_toggle_count>
    23aa:	90 91 a3 05 	lds	r25, 0x05A3	; 0x8005a3 <timer2_toggle_count+0x1>
    23ae:	a0 91 a4 05 	lds	r26, 0x05A4	; 0x8005a4 <timer2_toggle_count+0x2>
    23b2:	b0 91 a5 05 	lds	r27, 0x05A5	; 0x8005a5 <timer2_toggle_count+0x3>
    23b6:	89 2b       	or	r24, r25
    23b8:	8a 2b       	or	r24, r26
    23ba:	8b 2b       	or	r24, r27
    23bc:	51 f1       	breq	.+84     	; 0x2412 <__vector_13+0x92>
    23be:	90 91 9f 05 	lds	r25, 0x059F	; 0x80059f <timer2_pin_mask>
    23c2:	e0 91 a0 05 	lds	r30, 0x05A0	; 0x8005a0 <timer2_pin_port>
    23c6:	f0 91 a1 05 	lds	r31, 0x05A1	; 0x8005a1 <timer2_pin_port+0x1>
    23ca:	80 81       	ld	r24, Z
    23cc:	89 27       	eor	r24, r25
    23ce:	80 83       	st	Z, r24
    23d0:	80 91 a2 05 	lds	r24, 0x05A2	; 0x8005a2 <timer2_toggle_count>
    23d4:	90 91 a3 05 	lds	r25, 0x05A3	; 0x8005a3 <timer2_toggle_count+0x1>
    23d8:	a0 91 a4 05 	lds	r26, 0x05A4	; 0x8005a4 <timer2_toggle_count+0x2>
    23dc:	b0 91 a5 05 	lds	r27, 0x05A5	; 0x8005a5 <timer2_toggle_count+0x3>
    23e0:	18 16       	cp	r1, r24
    23e2:	19 06       	cpc	r1, r25
    23e4:	1a 06       	cpc	r1, r26
    23e6:	1b 06       	cpc	r1, r27
    23e8:	c4 f4       	brge	.+48     	; 0x241a <__vector_13+0x9a>
    23ea:	80 91 a2 05 	lds	r24, 0x05A2	; 0x8005a2 <timer2_toggle_count>
    23ee:	90 91 a3 05 	lds	r25, 0x05A3	; 0x8005a3 <timer2_toggle_count+0x1>
    23f2:	a0 91 a4 05 	lds	r26, 0x05A4	; 0x8005a4 <timer2_toggle_count+0x2>
    23f6:	b0 91 a5 05 	lds	r27, 0x05A5	; 0x8005a5 <timer2_toggle_count+0x3>
    23fa:	01 97       	sbiw	r24, 0x01	; 1
    23fc:	a1 09       	sbc	r26, r1
    23fe:	b1 09       	sbc	r27, r1
    2400:	80 93 a2 05 	sts	0x05A2, r24	; 0x8005a2 <timer2_toggle_count>
    2404:	90 93 a3 05 	sts	0x05A3, r25	; 0x8005a3 <timer2_toggle_count+0x1>
    2408:	a0 93 a4 05 	sts	0x05A4, r26	; 0x8005a4 <timer2_toggle_count+0x2>
    240c:	b0 93 a5 05 	sts	0x05A5, r27	; 0x8005a5 <timer2_toggle_count+0x3>
    2410:	04 c0       	rjmp	.+8      	; 0x241a <__vector_13+0x9a>
    2412:	80 91 00 02 	lds	r24, 0x0200	; 0x800200 <__DATA_REGION_ORIGIN__>
    2416:	0e 94 ab 11 	call	0x2356	; 0x2356 <_Z6noToneh>
    241a:	ff 91       	pop	r31
    241c:	ef 91       	pop	r30
    241e:	bf 91       	pop	r27
    2420:	af 91       	pop	r26
    2422:	9f 91       	pop	r25
    2424:	8f 91       	pop	r24
    2426:	7f 91       	pop	r23
    2428:	6f 91       	pop	r22
    242a:	5f 91       	pop	r21
    242c:	4f 91       	pop	r20
    242e:	3f 91       	pop	r19
    2430:	2f 91       	pop	r18
    2432:	0f 90       	pop	r0
    2434:	0b be       	out	0x3b, r0	; 59
    2436:	0f 90       	pop	r0
    2438:	0f be       	out	0x3f, r0	; 63
    243a:	0f 90       	pop	r0
    243c:	1f 90       	pop	r1
    243e:	18 95       	reti

00002440 <nothing>:
    2440:	08 95       	ret

00002442 <attachInterrupt>:
    2442:	88 30       	cpi	r24, 0x08	; 8
    2444:	08 f0       	brcs	.+2      	; 0x2448 <attachInterrupt+0x6>
    2446:	70 c0       	rjmp	.+224    	; 0x2528 <attachInterrupt+0xe6>
    2448:	a8 2f       	mov	r26, r24
    244a:	b0 e0       	ldi	r27, 0x00	; 0
    244c:	aa 0f       	add	r26, r26
    244e:	bb 1f       	adc	r27, r27
    2450:	af 5f       	subi	r26, 0xFF	; 255
    2452:	bd 4f       	sbci	r27, 0xFD	; 253
    2454:	11 96       	adiw	r26, 0x01	; 1
    2456:	7c 93       	st	X, r23
    2458:	6e 93       	st	-X, r22
    245a:	90 e0       	ldi	r25, 0x00	; 0
    245c:	fc 01       	movw	r30, r24
    245e:	31 97       	sbiw	r30, 0x01	; 1
    2460:	e7 30       	cpi	r30, 0x07	; 7
    2462:	f1 05       	cpc	r31, r1
    2464:	a0 f5       	brcc	.+104    	; 0x24ce <attachInterrupt+0x8c>
    2466:	88 27       	eor	r24, r24
    2468:	ee 58       	subi	r30, 0x8E	; 142
    246a:	ff 4f       	sbci	r31, 0xFF	; 255
    246c:	8f 4f       	sbci	r24, 0xFF	; 255
    246e:	0c 94 14 25 	jmp	0x4a28	; 0x4a28 <__tablejump2__>
    2472:	80 91 69 00 	lds	r24, 0x0069	; 0x800069 <__TEXT_REGION_LENGTH__+0x7c0069>
    2476:	8c 7f       	andi	r24, 0xFC	; 252
    2478:	48 2b       	or	r20, r24
    247a:	40 93 69 00 	sts	0x0069, r20	; 0x800069 <__TEXT_REGION_LENGTH__+0x7c0069>
    247e:	e8 9a       	sbi	0x1d, 0	; 29
    2480:	08 95       	ret
    2482:	80 91 69 00 	lds	r24, 0x0069	; 0x800069 <__TEXT_REGION_LENGTH__+0x7c0069>
    2486:	83 7f       	andi	r24, 0xF3	; 243
    2488:	44 0f       	add	r20, r20
    248a:	55 1f       	adc	r21, r21
    248c:	44 0f       	add	r20, r20
    248e:	55 1f       	adc	r21, r21
    2490:	48 2b       	or	r20, r24
    2492:	40 93 69 00 	sts	0x0069, r20	; 0x800069 <__TEXT_REGION_LENGTH__+0x7c0069>
    2496:	e9 9a       	sbi	0x1d, 1	; 29
    2498:	08 95       	ret
    249a:	80 91 69 00 	lds	r24, 0x0069	; 0x800069 <__TEXT_REGION_LENGTH__+0x7c0069>
    249e:	8f 7c       	andi	r24, 0xCF	; 207
    24a0:	74 e0       	ldi	r23, 0x04	; 4
    24a2:	44 0f       	add	r20, r20
    24a4:	55 1f       	adc	r21, r21
    24a6:	7a 95       	dec	r23
    24a8:	e1 f7       	brne	.-8      	; 0x24a2 <attachInterrupt+0x60>
    24aa:	48 2b       	or	r20, r24
    24ac:	40 93 69 00 	sts	0x0069, r20	; 0x800069 <__TEXT_REGION_LENGTH__+0x7c0069>
    24b0:	ea 9a       	sbi	0x1d, 2	; 29
    24b2:	08 95       	ret
    24b4:	80 91 69 00 	lds	r24, 0x0069	; 0x800069 <__TEXT_REGION_LENGTH__+0x7c0069>
    24b8:	8f 73       	andi	r24, 0x3F	; 63
    24ba:	66 e0       	ldi	r22, 0x06	; 6
    24bc:	44 0f       	add	r20, r20
    24be:	55 1f       	adc	r21, r21
    24c0:	6a 95       	dec	r22
    24c2:	e1 f7       	brne	.-8      	; 0x24bc <attachInterrupt+0x7a>
    24c4:	48 2b       	or	r20, r24
    24c6:	40 93 69 00 	sts	0x0069, r20	; 0x800069 <__TEXT_REGION_LENGTH__+0x7c0069>
    24ca:	eb 9a       	sbi	0x1d, 3	; 29
    24cc:	08 95       	ret
    24ce:	80 91 6a 00 	lds	r24, 0x006A	; 0x80006a <__TEXT_REGION_LENGTH__+0x7c006a>
    24d2:	8c 7f       	andi	r24, 0xFC	; 252
    24d4:	48 2b       	or	r20, r24
    24d6:	40 93 6a 00 	sts	0x006A, r20	; 0x80006a <__TEXT_REGION_LENGTH__+0x7c006a>
    24da:	ec 9a       	sbi	0x1d, 4	; 29
    24dc:	08 95       	ret
    24de:	80 91 6a 00 	lds	r24, 0x006A	; 0x80006a <__TEXT_REGION_LENGTH__+0x7c006a>
    24e2:	83 7f       	andi	r24, 0xF3	; 243
    24e4:	44 0f       	add	r20, r20
    24e6:	55 1f       	adc	r21, r21
    24e8:	44 0f       	add	r20, r20
    24ea:	55 1f       	adc	r21, r21
    24ec:	48 2b       	or	r20, r24
    24ee:	40 93 6a 00 	sts	0x006A, r20	; 0x80006a <__TEXT_REGION_LENGTH__+0x7c006a>
    24f2:	ed 9a       	sbi	0x1d, 5	; 29
    24f4:	08 95       	ret
    24f6:	80 91 6a 00 	lds	r24, 0x006A	; 0x80006a <__TEXT_REGION_LENGTH__+0x7c006a>
    24fa:	8f 7c       	andi	r24, 0xCF	; 207
    24fc:	24 e0       	ldi	r18, 0x04	; 4
    24fe:	44 0f       	add	r20, r20
    2500:	55 1f       	adc	r21, r21
    2502:	2a 95       	dec	r18
    2504:	e1 f7       	brne	.-8      	; 0x24fe <attachInterrupt+0xbc>
    2506:	48 2b       	or	r20, r24
    2508:	40 93 6a 00 	sts	0x006A, r20	; 0x80006a <__TEXT_REGION_LENGTH__+0x7c006a>
    250c:	ee 9a       	sbi	0x1d, 6	; 29
    250e:	08 95       	ret
    2510:	80 91 6a 00 	lds	r24, 0x006A	; 0x80006a <__TEXT_REGION_LENGTH__+0x7c006a>
    2514:	8f 73       	andi	r24, 0x3F	; 63
    2516:	96 e0       	ldi	r25, 0x06	; 6
    2518:	44 0f       	add	r20, r20
    251a:	55 1f       	adc	r21, r21
    251c:	9a 95       	dec	r25
    251e:	e1 f7       	brne	.-8      	; 0x2518 <attachInterrupt+0xd6>
    2520:	48 2b       	or	r20, r24
    2522:	40 93 6a 00 	sts	0x006A, r20	; 0x80006a <__TEXT_REGION_LENGTH__+0x7c006a>
    2526:	ef 9a       	sbi	0x1d, 7	; 29
    2528:	08 95       	ret

0000252a <detachInterrupt>:
    252a:	98 2f       	mov	r25, r24
    252c:	88 30       	cpi	r24, 0x08	; 8
    252e:	30 f5       	brcc	.+76     	; 0x257c <detachInterrupt+0x52>
    2530:	48 2f       	mov	r20, r24
    2532:	50 e0       	ldi	r21, 0x00	; 0
    2534:	fa 01       	movw	r30, r20
    2536:	31 97       	sbiw	r30, 0x01	; 1
    2538:	e7 30       	cpi	r30, 0x07	; 7
    253a:	f1 05       	cpc	r31, r1
    253c:	70 f4       	brcc	.+28     	; 0x255a <detachInterrupt+0x30>
    253e:	88 27       	eor	r24, r24
    2540:	e7 58       	subi	r30, 0x87	; 135
    2542:	ff 4f       	sbci	r31, 0xFF	; 255
    2544:	8f 4f       	sbci	r24, 0xFF	; 255
    2546:	0c 94 14 25 	jmp	0x4a28	; 0x4a28 <__tablejump2__>
    254a:	e8 98       	cbi	0x1d, 0	; 29
    254c:	0d c0       	rjmp	.+26     	; 0x2568 <detachInterrupt+0x3e>
    254e:	e9 98       	cbi	0x1d, 1	; 29
    2550:	0b c0       	rjmp	.+22     	; 0x2568 <detachInterrupt+0x3e>
    2552:	ea 98       	cbi	0x1d, 2	; 29
    2554:	09 c0       	rjmp	.+18     	; 0x2568 <detachInterrupt+0x3e>
    2556:	eb 98       	cbi	0x1d, 3	; 29
    2558:	07 c0       	rjmp	.+14     	; 0x2568 <detachInterrupt+0x3e>
    255a:	ec 98       	cbi	0x1d, 4	; 29
    255c:	05 c0       	rjmp	.+10     	; 0x2568 <detachInterrupt+0x3e>
    255e:	ed 98       	cbi	0x1d, 5	; 29
    2560:	03 c0       	rjmp	.+6      	; 0x2568 <detachInterrupt+0x3e>
    2562:	ee 98       	cbi	0x1d, 6	; 29
    2564:	01 c0       	rjmp	.+2      	; 0x2568 <detachInterrupt+0x3e>
    2566:	ef 98       	cbi	0x1d, 7	; 29
    2568:	e9 2f       	mov	r30, r25
    256a:	f0 e0       	ldi	r31, 0x00	; 0
    256c:	ee 0f       	add	r30, r30
    256e:	ff 1f       	adc	r31, r31
    2570:	ef 5f       	subi	r30, 0xFF	; 255
    2572:	fd 4f       	sbci	r31, 0xFD	; 253
    2574:	80 e2       	ldi	r24, 0x20	; 32
    2576:	92 e1       	ldi	r25, 0x12	; 18
    2578:	91 83       	std	Z+1, r25	; 0x01
    257a:	80 83       	st	Z, r24
    257c:	08 95       	ret

0000257e <__vector_1>:
    257e:	1f 92       	push	r1
    2580:	0f 92       	push	r0
    2582:	0f b6       	in	r0, 0x3f	; 63
    2584:	0f 92       	push	r0
    2586:	11 24       	eor	r1, r1
    2588:	0b b6       	in	r0, 0x3b	; 59
    258a:	0f 92       	push	r0
    258c:	2f 93       	push	r18
    258e:	3f 93       	push	r19
    2590:	4f 93       	push	r20
    2592:	5f 93       	push	r21
    2594:	6f 93       	push	r22
    2596:	7f 93       	push	r23
    2598:	8f 93       	push	r24
    259a:	9f 93       	push	r25
    259c:	af 93       	push	r26
    259e:	bf 93       	push	r27
    25a0:	ef 93       	push	r30
    25a2:	ff 93       	push	r31
    25a4:	e0 91 05 02 	lds	r30, 0x0205	; 0x800205 <intFunc+0x4>
    25a8:	f0 91 06 02 	lds	r31, 0x0206	; 0x800206 <intFunc+0x5>
    25ac:	19 95       	eicall
    25ae:	ff 91       	pop	r31
    25b0:	ef 91       	pop	r30
    25b2:	bf 91       	pop	r27
    25b4:	af 91       	pop	r26
    25b6:	9f 91       	pop	r25
    25b8:	8f 91       	pop	r24
    25ba:	7f 91       	pop	r23
    25bc:	6f 91       	pop	r22
    25be:	5f 91       	pop	r21
    25c0:	4f 91       	pop	r20
    25c2:	3f 91       	pop	r19
    25c4:	2f 91       	pop	r18
    25c6:	0f 90       	pop	r0
    25c8:	0b be       	out	0x3b, r0	; 59
    25ca:	0f 90       	pop	r0
    25cc:	0f be       	out	0x3f, r0	; 63
    25ce:	0f 90       	pop	r0
    25d0:	1f 90       	pop	r1
    25d2:	18 95       	reti

000025d4 <__vector_2>:
    25d4:	1f 92       	push	r1
    25d6:	0f 92       	push	r0
    25d8:	0f b6       	in	r0, 0x3f	; 63
    25da:	0f 92       	push	r0
    25dc:	11 24       	eor	r1, r1
    25de:	0b b6       	in	r0, 0x3b	; 59
    25e0:	0f 92       	push	r0
    25e2:	2f 93       	push	r18
    25e4:	3f 93       	push	r19
    25e6:	4f 93       	push	r20
    25e8:	5f 93       	push	r21
    25ea:	6f 93       	push	r22
    25ec:	7f 93       	push	r23
    25ee:	8f 93       	push	r24
    25f0:	9f 93       	push	r25
    25f2:	af 93       	push	r26
    25f4:	bf 93       	push	r27
    25f6:	ef 93       	push	r30
    25f8:	ff 93       	push	r31
    25fa:	e0 91 07 02 	lds	r30, 0x0207	; 0x800207 <intFunc+0x6>
    25fe:	f0 91 08 02 	lds	r31, 0x0208	; 0x800208 <intFunc+0x7>
    2602:	19 95       	eicall
    2604:	ff 91       	pop	r31
    2606:	ef 91       	pop	r30
    2608:	bf 91       	pop	r27
    260a:	af 91       	pop	r26
    260c:	9f 91       	pop	r25
    260e:	8f 91       	pop	r24
    2610:	7f 91       	pop	r23
    2612:	6f 91       	pop	r22
    2614:	5f 91       	pop	r21
    2616:	4f 91       	pop	r20
    2618:	3f 91       	pop	r19
    261a:	2f 91       	pop	r18
    261c:	0f 90       	pop	r0
    261e:	0b be       	out	0x3b, r0	; 59
    2620:	0f 90       	pop	r0
    2622:	0f be       	out	0x3f, r0	; 63
    2624:	0f 90       	pop	r0
    2626:	1f 90       	pop	r1
    2628:	18 95       	reti

0000262a <__vector_3>:
    262a:	1f 92       	push	r1
    262c:	0f 92       	push	r0
    262e:	0f b6       	in	r0, 0x3f	; 63
    2630:	0f 92       	push	r0
    2632:	11 24       	eor	r1, r1
    2634:	0b b6       	in	r0, 0x3b	; 59
    2636:	0f 92       	push	r0
    2638:	2f 93       	push	r18
    263a:	3f 93       	push	r19
    263c:	4f 93       	push	r20
    263e:	5f 93       	push	r21
    2640:	6f 93       	push	r22
    2642:	7f 93       	push	r23
    2644:	8f 93       	push	r24
    2646:	9f 93       	push	r25
    2648:	af 93       	push	r26
    264a:	bf 93       	push	r27
    264c:	ef 93       	push	r30
    264e:	ff 93       	push	r31
    2650:	e0 91 09 02 	lds	r30, 0x0209	; 0x800209 <intFunc+0x8>
    2654:	f0 91 0a 02 	lds	r31, 0x020A	; 0x80020a <intFunc+0x9>
    2658:	19 95       	eicall
    265a:	ff 91       	pop	r31
    265c:	ef 91       	pop	r30
    265e:	bf 91       	pop	r27
    2660:	af 91       	pop	r26
    2662:	9f 91       	pop	r25
    2664:	8f 91       	pop	r24
    2666:	7f 91       	pop	r23
    2668:	6f 91       	pop	r22
    266a:	5f 91       	pop	r21
    266c:	4f 91       	pop	r20
    266e:	3f 91       	pop	r19
    2670:	2f 91       	pop	r18
    2672:	0f 90       	pop	r0
    2674:	0b be       	out	0x3b, r0	; 59
    2676:	0f 90       	pop	r0
    2678:	0f be       	out	0x3f, r0	; 63
    267a:	0f 90       	pop	r0
    267c:	1f 90       	pop	r1
    267e:	18 95       	reti

00002680 <__vector_4>:
    2680:	1f 92       	push	r1
    2682:	0f 92       	push	r0
    2684:	0f b6       	in	r0, 0x3f	; 63
    2686:	0f 92       	push	r0
    2688:	11 24       	eor	r1, r1
    268a:	0b b6       	in	r0, 0x3b	; 59
    268c:	0f 92       	push	r0
    268e:	2f 93       	push	r18
    2690:	3f 93       	push	r19
    2692:	4f 93       	push	r20
    2694:	5f 93       	push	r21
    2696:	6f 93       	push	r22
    2698:	7f 93       	push	r23
    269a:	8f 93       	push	r24
    269c:	9f 93       	push	r25
    269e:	af 93       	push	r26
    26a0:	bf 93       	push	r27
    26a2:	ef 93       	push	r30
    26a4:	ff 93       	push	r31
    26a6:	e0 91 0b 02 	lds	r30, 0x020B	; 0x80020b <intFunc+0xa>
    26aa:	f0 91 0c 02 	lds	r31, 0x020C	; 0x80020c <intFunc+0xb>
    26ae:	19 95       	eicall
    26b0:	ff 91       	pop	r31
    26b2:	ef 91       	pop	r30
    26b4:	bf 91       	pop	r27
    26b6:	af 91       	pop	r26
    26b8:	9f 91       	pop	r25
    26ba:	8f 91       	pop	r24
    26bc:	7f 91       	pop	r23
    26be:	6f 91       	pop	r22
    26c0:	5f 91       	pop	r21
    26c2:	4f 91       	pop	r20
    26c4:	3f 91       	pop	r19
    26c6:	2f 91       	pop	r18
    26c8:	0f 90       	pop	r0
    26ca:	0b be       	out	0x3b, r0	; 59
    26cc:	0f 90       	pop	r0
    26ce:	0f be       	out	0x3f, r0	; 63
    26d0:	0f 90       	pop	r0
    26d2:	1f 90       	pop	r1
    26d4:	18 95       	reti

000026d6 <__vector_5>:
    26d6:	1f 92       	push	r1
    26d8:	0f 92       	push	r0
    26da:	0f b6       	in	r0, 0x3f	; 63
    26dc:	0f 92       	push	r0
    26de:	11 24       	eor	r1, r1
    26e0:	0b b6       	in	r0, 0x3b	; 59
    26e2:	0f 92       	push	r0
    26e4:	2f 93       	push	r18
    26e6:	3f 93       	push	r19
    26e8:	4f 93       	push	r20
    26ea:	5f 93       	push	r21
    26ec:	6f 93       	push	r22
    26ee:	7f 93       	push	r23
    26f0:	8f 93       	push	r24
    26f2:	9f 93       	push	r25
    26f4:	af 93       	push	r26
    26f6:	bf 93       	push	r27
    26f8:	ef 93       	push	r30
    26fa:	ff 93       	push	r31
    26fc:	e0 91 01 02 	lds	r30, 0x0201	; 0x800201 <intFunc>
    2700:	f0 91 02 02 	lds	r31, 0x0202	; 0x800202 <intFunc+0x1>
    2704:	19 95       	eicall
    2706:	ff 91       	pop	r31
    2708:	ef 91       	pop	r30
    270a:	bf 91       	pop	r27
    270c:	af 91       	pop	r26
    270e:	9f 91       	pop	r25
    2710:	8f 91       	pop	r24
    2712:	7f 91       	pop	r23
    2714:	6f 91       	pop	r22
    2716:	5f 91       	pop	r21
    2718:	4f 91       	pop	r20
    271a:	3f 91       	pop	r19
    271c:	2f 91       	pop	r18
    271e:	0f 90       	pop	r0
    2720:	0b be       	out	0x3b, r0	; 59
    2722:	0f 90       	pop	r0
    2724:	0f be       	out	0x3f, r0	; 63
    2726:	0f 90       	pop	r0
    2728:	1f 90       	pop	r1
    272a:	18 95       	reti

0000272c <__vector_6>:
    272c:	1f 92       	push	r1
    272e:	0f 92       	push	r0
    2730:	0f b6       	in	r0, 0x3f	; 63
    2732:	0f 92       	push	r0
    2734:	11 24       	eor	r1, r1
    2736:	0b b6       	in	r0, 0x3b	; 59
    2738:	0f 92       	push	r0
    273a:	2f 93       	push	r18
    273c:	3f 93       	push	r19
    273e:	4f 93       	push	r20
    2740:	5f 93       	push	r21
    2742:	6f 93       	push	r22
    2744:	7f 93       	push	r23
    2746:	8f 93       	push	r24
    2748:	9f 93       	push	r25
    274a:	af 93       	push	r26
    274c:	bf 93       	push	r27
    274e:	ef 93       	push	r30
    2750:	ff 93       	push	r31
    2752:	e0 91 03 02 	lds	r30, 0x0203	; 0x800203 <intFunc+0x2>
    2756:	f0 91 04 02 	lds	r31, 0x0204	; 0x800204 <intFunc+0x3>
    275a:	19 95       	eicall
    275c:	ff 91       	pop	r31
    275e:	ef 91       	pop	r30
    2760:	bf 91       	pop	r27
    2762:	af 91       	pop	r26
    2764:	9f 91       	pop	r25
    2766:	8f 91       	pop	r24
    2768:	7f 91       	pop	r23
    276a:	6f 91       	pop	r22
    276c:	5f 91       	pop	r21
    276e:	4f 91       	pop	r20
    2770:	3f 91       	pop	r19
    2772:	2f 91       	pop	r18
    2774:	0f 90       	pop	r0
    2776:	0b be       	out	0x3b, r0	; 59
    2778:	0f 90       	pop	r0
    277a:	0f be       	out	0x3f, r0	; 63
    277c:	0f 90       	pop	r0
    277e:	1f 90       	pop	r1
    2780:	18 95       	reti

00002782 <__vector_7>:
    2782:	1f 92       	push	r1
    2784:	0f 92       	push	r0
    2786:	0f b6       	in	r0, 0x3f	; 63
    2788:	0f 92       	push	r0
    278a:	11 24       	eor	r1, r1
    278c:	0b b6       	in	r0, 0x3b	; 59
    278e:	0f 92       	push	r0
    2790:	2f 93       	push	r18
    2792:	3f 93       	push	r19
    2794:	4f 93       	push	r20
    2796:	5f 93       	push	r21
    2798:	6f 93       	push	r22
    279a:	7f 93       	push	r23
    279c:	8f 93       	push	r24
    279e:	9f 93       	push	r25
    27a0:	af 93       	push	r26
    27a2:	bf 93       	push	r27
    27a4:	ef 93       	push	r30
    27a6:	ff 93       	push	r31
    27a8:	e0 91 0d 02 	lds	r30, 0x020D	; 0x80020d <intFunc+0xc>
    27ac:	f0 91 0e 02 	lds	r31, 0x020E	; 0x80020e <intFunc+0xd>
    27b0:	19 95       	eicall
    27b2:	ff 91       	pop	r31
    27b4:	ef 91       	pop	r30
    27b6:	bf 91       	pop	r27
    27b8:	af 91       	pop	r26
    27ba:	9f 91       	pop	r25
    27bc:	8f 91       	pop	r24
    27be:	7f 91       	pop	r23
    27c0:	6f 91       	pop	r22
    27c2:	5f 91       	pop	r21
    27c4:	4f 91       	pop	r20
    27c6:	3f 91       	pop	r19
    27c8:	2f 91       	pop	r18
    27ca:	0f 90       	pop	r0
    27cc:	0b be       	out	0x3b, r0	; 59
    27ce:	0f 90       	pop	r0
    27d0:	0f be       	out	0x3f, r0	; 63
    27d2:	0f 90       	pop	r0
    27d4:	1f 90       	pop	r1
    27d6:	18 95       	reti

000027d8 <__vector_8>:
    27d8:	1f 92       	push	r1
    27da:	0f 92       	push	r0
    27dc:	0f b6       	in	r0, 0x3f	; 63
    27de:	0f 92       	push	r0
    27e0:	11 24       	eor	r1, r1
    27e2:	0b b6       	in	r0, 0x3b	; 59
    27e4:	0f 92       	push	r0
    27e6:	2f 93       	push	r18
    27e8:	3f 93       	push	r19
    27ea:	4f 93       	push	r20
    27ec:	5f 93       	push	r21
    27ee:	6f 93       	push	r22
    27f0:	7f 93       	push	r23
    27f2:	8f 93       	push	r24
    27f4:	9f 93       	push	r25
    27f6:	af 93       	push	r26
    27f8:	bf 93       	push	r27
    27fa:	ef 93       	push	r30
    27fc:	ff 93       	push	r31
    27fe:	e0 91 0f 02 	lds	r30, 0x020F	; 0x80020f <intFunc+0xe>
    2802:	f0 91 10 02 	lds	r31, 0x0210	; 0x800210 <intFunc+0xf>
    2806:	19 95       	eicall
    2808:	ff 91       	pop	r31
    280a:	ef 91       	pop	r30
    280c:	bf 91       	pop	r27
    280e:	af 91       	pop	r26
    2810:	9f 91       	pop	r25
    2812:	8f 91       	pop	r24
    2814:	7f 91       	pop	r23
    2816:	6f 91       	pop	r22
    2818:	5f 91       	pop	r21
    281a:	4f 91       	pop	r20
    281c:	3f 91       	pop	r19
    281e:	2f 91       	pop	r18
    2820:	0f 90       	pop	r0
    2822:	0b be       	out	0x3b, r0	; 59
    2824:	0f 90       	pop	r0
    2826:	0f be       	out	0x3f, r0	; 63
    2828:	0f 90       	pop	r0
    282a:	1f 90       	pop	r1
    282c:	18 95       	reti

0000282e <__vector_23>:
    282e:	1f 92       	push	r1
    2830:	0f 92       	push	r0
    2832:	0f b6       	in	r0, 0x3f	; 63
    2834:	0f 92       	push	r0
    2836:	11 24       	eor	r1, r1
    2838:	2f 93       	push	r18
    283a:	3f 93       	push	r19
    283c:	8f 93       	push	r24
    283e:	9f 93       	push	r25
    2840:	af 93       	push	r26
    2842:	bf 93       	push	r27
    2844:	80 91 b4 05 	lds	r24, 0x05B4	; 0x8005b4 <timer0_millis>
    2848:	90 91 b5 05 	lds	r25, 0x05B5	; 0x8005b5 <timer0_millis+0x1>
    284c:	a0 91 b6 05 	lds	r26, 0x05B6	; 0x8005b6 <timer0_millis+0x2>
    2850:	b0 91 b7 05 	lds	r27, 0x05B7	; 0x8005b7 <timer0_millis+0x3>
    2854:	30 91 bc 05 	lds	r19, 0x05BC	; 0x8005bc <timer0_fract>
    2858:	23 e0       	ldi	r18, 0x03	; 3
    285a:	23 0f       	add	r18, r19
    285c:	2d 37       	cpi	r18, 0x7D	; 125
    285e:	20 f4       	brcc	.+8      	; 0x2868 <__vector_23+0x3a>
    2860:	01 96       	adiw	r24, 0x01	; 1
    2862:	a1 1d       	adc	r26, r1
    2864:	b1 1d       	adc	r27, r1
    2866:	05 c0       	rjmp	.+10     	; 0x2872 <__vector_23+0x44>
    2868:	26 e8       	ldi	r18, 0x86	; 134
    286a:	23 0f       	add	r18, r19
    286c:	02 96       	adiw	r24, 0x02	; 2
    286e:	a1 1d       	adc	r26, r1
    2870:	b1 1d       	adc	r27, r1
    2872:	20 93 bc 05 	sts	0x05BC, r18	; 0x8005bc <timer0_fract>
    2876:	80 93 b4 05 	sts	0x05B4, r24	; 0x8005b4 <timer0_millis>
    287a:	90 93 b5 05 	sts	0x05B5, r25	; 0x8005b5 <timer0_millis+0x1>
    287e:	a0 93 b6 05 	sts	0x05B6, r26	; 0x8005b6 <timer0_millis+0x2>
    2882:	b0 93 b7 05 	sts	0x05B7, r27	; 0x8005b7 <timer0_millis+0x3>
    2886:	80 91 b8 05 	lds	r24, 0x05B8	; 0x8005b8 <timer0_overflow_count>
    288a:	90 91 b9 05 	lds	r25, 0x05B9	; 0x8005b9 <timer0_overflow_count+0x1>
    288e:	a0 91 ba 05 	lds	r26, 0x05BA	; 0x8005ba <timer0_overflow_count+0x2>
    2892:	b0 91 bb 05 	lds	r27, 0x05BB	; 0x8005bb <timer0_overflow_count+0x3>
    2896:	01 96       	adiw	r24, 0x01	; 1
    2898:	a1 1d       	adc	r26, r1
    289a:	b1 1d       	adc	r27, r1
    289c:	80 93 b8 05 	sts	0x05B8, r24	; 0x8005b8 <timer0_overflow_count>
    28a0:	90 93 b9 05 	sts	0x05B9, r25	; 0x8005b9 <timer0_overflow_count+0x1>
    28a4:	a0 93 ba 05 	sts	0x05BA, r26	; 0x8005ba <timer0_overflow_count+0x2>
    28a8:	b0 93 bb 05 	sts	0x05BB, r27	; 0x8005bb <timer0_overflow_count+0x3>
    28ac:	bf 91       	pop	r27
    28ae:	af 91       	pop	r26
    28b0:	9f 91       	pop	r25
    28b2:	8f 91       	pop	r24
    28b4:	3f 91       	pop	r19
    28b6:	2f 91       	pop	r18
    28b8:	0f 90       	pop	r0
    28ba:	0f be       	out	0x3f, r0	; 63
    28bc:	0f 90       	pop	r0
    28be:	1f 90       	pop	r1
    28c0:	18 95       	reti

000028c2 <millis>:
    28c2:	2f b7       	in	r18, 0x3f	; 63
    28c4:	f8 94       	cli
    28c6:	60 91 b4 05 	lds	r22, 0x05B4	; 0x8005b4 <timer0_millis>
    28ca:	70 91 b5 05 	lds	r23, 0x05B5	; 0x8005b5 <timer0_millis+0x1>
    28ce:	80 91 b6 05 	lds	r24, 0x05B6	; 0x8005b6 <timer0_millis+0x2>
    28d2:	90 91 b7 05 	lds	r25, 0x05B7	; 0x8005b7 <timer0_millis+0x3>
    28d6:	2f bf       	out	0x3f, r18	; 63
    28d8:	08 95       	ret

000028da <micros>:
    28da:	3f b7       	in	r19, 0x3f	; 63
    28dc:	f8 94       	cli
    28de:	80 91 b8 05 	lds	r24, 0x05B8	; 0x8005b8 <timer0_overflow_count>
    28e2:	90 91 b9 05 	lds	r25, 0x05B9	; 0x8005b9 <timer0_overflow_count+0x1>
    28e6:	a0 91 ba 05 	lds	r26, 0x05BA	; 0x8005ba <timer0_overflow_count+0x2>
    28ea:	b0 91 bb 05 	lds	r27, 0x05BB	; 0x8005bb <timer0_overflow_count+0x3>
    28ee:	26 b5       	in	r18, 0x26	; 38
    28f0:	a8 9b       	sbis	0x15, 0	; 21
    28f2:	05 c0       	rjmp	.+10     	; 0x28fe <micros+0x24>
    28f4:	2f 3f       	cpi	r18, 0xFF	; 255
    28f6:	19 f0       	breq	.+6      	; 0x28fe <micros+0x24>
    28f8:	01 96       	adiw	r24, 0x01	; 1
    28fa:	a1 1d       	adc	r26, r1
    28fc:	b1 1d       	adc	r27, r1
    28fe:	3f bf       	out	0x3f, r19	; 63
    2900:	ba 2f       	mov	r27, r26
    2902:	a9 2f       	mov	r26, r25
    2904:	98 2f       	mov	r25, r24
    2906:	88 27       	eor	r24, r24
    2908:	82 0f       	add	r24, r18
    290a:	91 1d       	adc	r25, r1
    290c:	a1 1d       	adc	r26, r1
    290e:	b1 1d       	adc	r27, r1
    2910:	bc 01       	movw	r22, r24
    2912:	cd 01       	movw	r24, r26
    2914:	42 e0       	ldi	r20, 0x02	; 2
    2916:	66 0f       	add	r22, r22
    2918:	77 1f       	adc	r23, r23
    291a:	88 1f       	adc	r24, r24
    291c:	99 1f       	adc	r25, r25
    291e:	4a 95       	dec	r20
    2920:	d1 f7       	brne	.-12     	; 0x2916 <micros+0x3c>
    2922:	08 95       	ret

00002924 <delay>:
    2924:	8f 92       	push	r8
    2926:	9f 92       	push	r9
    2928:	af 92       	push	r10
    292a:	bf 92       	push	r11
    292c:	cf 92       	push	r12
    292e:	df 92       	push	r13
    2930:	ef 92       	push	r14
    2932:	ff 92       	push	r15
    2934:	6b 01       	movw	r12, r22
    2936:	7c 01       	movw	r14, r24
    2938:	0e 94 6d 14 	call	0x28da	; 0x28da <micros>
    293c:	4b 01       	movw	r8, r22
    293e:	5c 01       	movw	r10, r24
    2940:	c1 14       	cp	r12, r1
    2942:	d1 04       	cpc	r13, r1
    2944:	e1 04       	cpc	r14, r1
    2946:	f1 04       	cpc	r15, r1
    2948:	01 f1       	breq	.+64     	; 0x298a <delay+0x66>
    294a:	0e 94 01 07 	call	0xe02	; 0xe02 <yield>
    294e:	0e 94 6d 14 	call	0x28da	; 0x28da <micros>
    2952:	dc 01       	movw	r26, r24
    2954:	cb 01       	movw	r24, r22
    2956:	88 19       	sub	r24, r8
    2958:	99 09       	sbc	r25, r9
    295a:	aa 09       	sbc	r26, r10
    295c:	bb 09       	sbc	r27, r11
    295e:	88 3e       	cpi	r24, 0xE8	; 232
    2960:	93 40       	sbci	r25, 0x03	; 3
    2962:	a1 05       	cpc	r26, r1
    2964:	b1 05       	cpc	r27, r1
    2966:	60 f3       	brcs	.-40     	; 0x2940 <delay+0x1c>
    2968:	21 e0       	ldi	r18, 0x01	; 1
    296a:	c2 1a       	sub	r12, r18
    296c:	d1 08       	sbc	r13, r1
    296e:	e1 08       	sbc	r14, r1
    2970:	f1 08       	sbc	r15, r1
    2972:	88 ee       	ldi	r24, 0xE8	; 232
    2974:	88 0e       	add	r8, r24
    2976:	83 e0       	ldi	r24, 0x03	; 3
    2978:	98 1e       	adc	r9, r24
    297a:	a1 1c       	adc	r10, r1
    297c:	b1 1c       	adc	r11, r1
    297e:	c1 14       	cp	r12, r1
    2980:	d1 04       	cpc	r13, r1
    2982:	e1 04       	cpc	r14, r1
    2984:	f1 04       	cpc	r15, r1
    2986:	19 f7       	brne	.-58     	; 0x294e <delay+0x2a>
    2988:	db cf       	rjmp	.-74     	; 0x2940 <delay+0x1c>
    298a:	ff 90       	pop	r15
    298c:	ef 90       	pop	r14
    298e:	df 90       	pop	r13
    2990:	cf 90       	pop	r12
    2992:	bf 90       	pop	r11
    2994:	af 90       	pop	r10
    2996:	9f 90       	pop	r9
    2998:	8f 90       	pop	r8
    299a:	08 95       	ret

0000299c <delayMicroseconds>:
    299c:	82 30       	cpi	r24, 0x02	; 2
    299e:	91 05       	cpc	r25, r1
    29a0:	38 f0       	brcs	.+14     	; 0x29b0 <delayMicroseconds+0x14>
    29a2:	88 0f       	add	r24, r24
    29a4:	99 1f       	adc	r25, r25
    29a6:	88 0f       	add	r24, r24
    29a8:	99 1f       	adc	r25, r25
    29aa:	05 97       	sbiw	r24, 0x05	; 5
    29ac:	01 97       	sbiw	r24, 0x01	; 1
    29ae:	f1 f7       	brne	.-4      	; 0x29ac <delayMicroseconds+0x10>
    29b0:	08 95       	ret

000029b2 <init>:
    29b2:	78 94       	sei
    29b4:	84 b5       	in	r24, 0x24	; 36
    29b6:	82 60       	ori	r24, 0x02	; 2
    29b8:	84 bd       	out	0x24, r24	; 36
    29ba:	84 b5       	in	r24, 0x24	; 36
    29bc:	81 60       	ori	r24, 0x01	; 1
    29be:	84 bd       	out	0x24, r24	; 36
    29c0:	85 b5       	in	r24, 0x25	; 37
    29c2:	82 60       	ori	r24, 0x02	; 2
    29c4:	85 bd       	out	0x25, r24	; 37
    29c6:	85 b5       	in	r24, 0x25	; 37
    29c8:	81 60       	ori	r24, 0x01	; 1
    29ca:	85 bd       	out	0x25, r24	; 37
    29cc:	ee e6       	ldi	r30, 0x6E	; 110
    29ce:	f0 e0       	ldi	r31, 0x00	; 0
    29d0:	80 81       	ld	r24, Z
    29d2:	81 60       	ori	r24, 0x01	; 1
    29d4:	80 83       	st	Z, r24
    29d6:	e1 e8       	ldi	r30, 0x81	; 129
    29d8:	f0 e0       	ldi	r31, 0x00	; 0
    29da:	10 82       	st	Z, r1
    29dc:	80 81       	ld	r24, Z
    29de:	82 60       	ori	r24, 0x02	; 2
    29e0:	80 83       	st	Z, r24
    29e2:	80 81       	ld	r24, Z
    29e4:	81 60       	ori	r24, 0x01	; 1
    29e6:	80 83       	st	Z, r24
    29e8:	e0 e8       	ldi	r30, 0x80	; 128
    29ea:	f0 e0       	ldi	r31, 0x00	; 0
    29ec:	80 81       	ld	r24, Z
    29ee:	81 60       	ori	r24, 0x01	; 1
    29f0:	80 83       	st	Z, r24
    29f2:	e1 eb       	ldi	r30, 0xB1	; 177
    29f4:	f0 e0       	ldi	r31, 0x00	; 0
    29f6:	80 81       	ld	r24, Z
    29f8:	84 60       	ori	r24, 0x04	; 4
    29fa:	80 83       	st	Z, r24
    29fc:	e0 eb       	ldi	r30, 0xB0	; 176
    29fe:	f0 e0       	ldi	r31, 0x00	; 0
    2a00:	80 81       	ld	r24, Z
    2a02:	81 60       	ori	r24, 0x01	; 1
    2a04:	80 83       	st	Z, r24
    2a06:	e1 e9       	ldi	r30, 0x91	; 145
    2a08:	f0 e0       	ldi	r31, 0x00	; 0
    2a0a:	80 81       	ld	r24, Z
    2a0c:	82 60       	ori	r24, 0x02	; 2
    2a0e:	80 83       	st	Z, r24
    2a10:	80 81       	ld	r24, Z
    2a12:	81 60       	ori	r24, 0x01	; 1
    2a14:	80 83       	st	Z, r24
    2a16:	e0 e9       	ldi	r30, 0x90	; 144
    2a18:	f0 e0       	ldi	r31, 0x00	; 0
    2a1a:	80 81       	ld	r24, Z
    2a1c:	81 60       	ori	r24, 0x01	; 1
    2a1e:	80 83       	st	Z, r24
    2a20:	e1 ea       	ldi	r30, 0xA1	; 161
    2a22:	f0 e0       	ldi	r31, 0x00	; 0
    2a24:	80 81       	ld	r24, Z
    2a26:	82 60       	ori	r24, 0x02	; 2
    2a28:	80 83       	st	Z, r24
    2a2a:	80 81       	ld	r24, Z
    2a2c:	81 60       	ori	r24, 0x01	; 1
    2a2e:	80 83       	st	Z, r24
    2a30:	e0 ea       	ldi	r30, 0xA0	; 160
    2a32:	f0 e0       	ldi	r31, 0x00	; 0
    2a34:	80 81       	ld	r24, Z
    2a36:	81 60       	ori	r24, 0x01	; 1
    2a38:	80 83       	st	Z, r24
    2a3a:	e1 e2       	ldi	r30, 0x21	; 33
    2a3c:	f1 e0       	ldi	r31, 0x01	; 1
    2a3e:	80 81       	ld	r24, Z
    2a40:	82 60       	ori	r24, 0x02	; 2
    2a42:	80 83       	st	Z, r24
    2a44:	80 81       	ld	r24, Z
    2a46:	81 60       	ori	r24, 0x01	; 1
    2a48:	80 83       	st	Z, r24
    2a4a:	e0 e2       	ldi	r30, 0x20	; 32
    2a4c:	f1 e0       	ldi	r31, 0x01	; 1
    2a4e:	80 81       	ld	r24, Z
    2a50:	81 60       	ori	r24, 0x01	; 1
    2a52:	80 83       	st	Z, r24
    2a54:	ea e7       	ldi	r30, 0x7A	; 122
    2a56:	f0 e0       	ldi	r31, 0x00	; 0
    2a58:	80 81       	ld	r24, Z
    2a5a:	84 60       	ori	r24, 0x04	; 4
    2a5c:	80 83       	st	Z, r24
    2a5e:	80 81       	ld	r24, Z
    2a60:	82 60       	ori	r24, 0x02	; 2
    2a62:	80 83       	st	Z, r24
    2a64:	80 81       	ld	r24, Z
    2a66:	81 60       	ori	r24, 0x01	; 1
    2a68:	80 83       	st	Z, r24
    2a6a:	80 81       	ld	r24, Z
    2a6c:	80 68       	ori	r24, 0x80	; 128
    2a6e:	80 83       	st	Z, r24
    2a70:	10 92 c1 00 	sts	0x00C1, r1	; 0x8000c1 <__TEXT_REGION_LENGTH__+0x7c00c1>
    2a74:	08 95       	ret

00002a76 <analogReference>:
    2a76:	80 93 11 02 	sts	0x0211, r24	; 0x800211 <analog_reference>
    2a7a:	08 95       	ret

00002a7c <analogRead>:
    2a7c:	86 33       	cpi	r24, 0x36	; 54
    2a7e:	08 f0       	brcs	.+2      	; 0x2a82 <analogRead+0x6>
    2a80:	86 53       	subi	r24, 0x36	; 54
    2a82:	90 91 7b 00 	lds	r25, 0x007B	; 0x80007b <__TEXT_REGION_LENGTH__+0x7c007b>
    2a86:	28 2f       	mov	r18, r24
    2a88:	28 70       	andi	r18, 0x08	; 8
    2a8a:	97 7f       	andi	r25, 0xF7	; 247
    2a8c:	92 2b       	or	r25, r18
    2a8e:	90 93 7b 00 	sts	0x007B, r25	; 0x80007b <__TEXT_REGION_LENGTH__+0x7c007b>
    2a92:	20 91 11 02 	lds	r18, 0x0211	; 0x800211 <analog_reference>
    2a96:	90 e4       	ldi	r25, 0x40	; 64
    2a98:	29 9f       	mul	r18, r25
    2a9a:	90 01       	movw	r18, r0
    2a9c:	11 24       	eor	r1, r1
    2a9e:	87 70       	andi	r24, 0x07	; 7
    2aa0:	82 2b       	or	r24, r18
    2aa2:	80 93 7c 00 	sts	0x007C, r24	; 0x80007c <__TEXT_REGION_LENGTH__+0x7c007c>
    2aa6:	80 91 7a 00 	lds	r24, 0x007A	; 0x80007a <__TEXT_REGION_LENGTH__+0x7c007a>
    2aaa:	80 64       	ori	r24, 0x40	; 64
    2aac:	80 93 7a 00 	sts	0x007A, r24	; 0x80007a <__TEXT_REGION_LENGTH__+0x7c007a>
    2ab0:	80 91 7a 00 	lds	r24, 0x007A	; 0x80007a <__TEXT_REGION_LENGTH__+0x7c007a>
    2ab4:	86 fd       	sbrc	r24, 6
    2ab6:	fc cf       	rjmp	.-8      	; 0x2ab0 <analogRead+0x34>
    2ab8:	80 91 78 00 	lds	r24, 0x0078	; 0x800078 <__TEXT_REGION_LENGTH__+0x7c0078>
    2abc:	20 91 79 00 	lds	r18, 0x0079	; 0x800079 <__TEXT_REGION_LENGTH__+0x7c0079>
    2ac0:	90 e0       	ldi	r25, 0x00	; 0
    2ac2:	92 2b       	or	r25, r18
    2ac4:	08 95       	ret

00002ac6 <analogWrite>:
    2ac6:	1f 93       	push	r17
    2ac8:	cf 93       	push	r28
    2aca:	df 93       	push	r29
    2acc:	18 2f       	mov	r17, r24
    2ace:	eb 01       	movw	r28, r22
    2ad0:	61 e0       	ldi	r22, 0x01	; 1
    2ad2:	0e 94 82 16 	call	0x2d04	; 0x2d04 <pinMode>
    2ad6:	20 97       	sbiw	r28, 0x00	; 0
    2ad8:	11 f4       	brne	.+4      	; 0x2ade <analogWrite+0x18>
    2ada:	60 e0       	ldi	r22, 0x00	; 0
    2adc:	04 c0       	rjmp	.+8      	; 0x2ae6 <analogWrite+0x20>
    2ade:	cf 3f       	cpi	r28, 0xFF	; 255
    2ae0:	d1 05       	cpc	r29, r1
    2ae2:	39 f4       	brne	.+14     	; 0x2af2 <analogWrite+0x2c>
    2ae4:	61 e0       	ldi	r22, 0x01	; 1
    2ae6:	81 2f       	mov	r24, r17
    2ae8:	df 91       	pop	r29
    2aea:	cf 91       	pop	r28
    2aec:	1f 91       	pop	r17
    2aee:	0c 94 be 16 	jmp	0x2d7c	; 0x2d7c <digitalWrite>
    2af2:	e1 2f       	mov	r30, r17
    2af4:	f0 e0       	ldi	r31, 0x00	; 0
    2af6:	ee 56       	subi	r30, 0x6E	; 110
    2af8:	fc 4f       	sbci	r31, 0xFC	; 252
    2afa:	e4 91       	lpm	r30, Z
    2afc:	8e 2f       	mov	r24, r30
    2afe:	90 e0       	ldi	r25, 0x00	; 0
    2b00:	fc 01       	movw	r30, r24
    2b02:	31 97       	sbiw	r30, 0x01	; 1
    2b04:	e2 31       	cpi	r30, 0x12	; 18
    2b06:	f1 05       	cpc	r31, r1
    2b08:	08 f0       	brcs	.+2      	; 0x2b0c <analogWrite+0x46>
    2b0a:	9d c0       	rjmp	.+314    	; 0x2c46 <analogWrite+0x180>
    2b0c:	88 27       	eor	r24, r24
    2b0e:	e0 58       	subi	r30, 0x80	; 128
    2b10:	ff 4f       	sbci	r31, 0xFF	; 255
    2b12:	8f 4f       	sbci	r24, 0xFF	; 255
    2b14:	0c 94 14 25 	jmp	0x4a28	; 0x4a28 <__tablejump2__>
    2b18:	84 b5       	in	r24, 0x24	; 36
    2b1a:	80 68       	ori	r24, 0x80	; 128
    2b1c:	84 bd       	out	0x24, r24	; 36
    2b1e:	c7 bd       	out	0x27, r28	; 39
    2b20:	97 c0       	rjmp	.+302    	; 0x2c50 <analogWrite+0x18a>
    2b22:	84 b5       	in	r24, 0x24	; 36
    2b24:	80 62       	ori	r24, 0x20	; 32
    2b26:	84 bd       	out	0x24, r24	; 36
    2b28:	c8 bd       	out	0x28, r28	; 40
    2b2a:	92 c0       	rjmp	.+292    	; 0x2c50 <analogWrite+0x18a>
    2b2c:	80 91 80 00 	lds	r24, 0x0080	; 0x800080 <__TEXT_REGION_LENGTH__+0x7c0080>
    2b30:	80 68       	ori	r24, 0x80	; 128
    2b32:	80 93 80 00 	sts	0x0080, r24	; 0x800080 <__TEXT_REGION_LENGTH__+0x7c0080>
    2b36:	d0 93 89 00 	sts	0x0089, r29	; 0x800089 <__TEXT_REGION_LENGTH__+0x7c0089>
    2b3a:	c0 93 88 00 	sts	0x0088, r28	; 0x800088 <__TEXT_REGION_LENGTH__+0x7c0088>
    2b3e:	88 c0       	rjmp	.+272    	; 0x2c50 <analogWrite+0x18a>
    2b40:	80 91 80 00 	lds	r24, 0x0080	; 0x800080 <__TEXT_REGION_LENGTH__+0x7c0080>
    2b44:	80 62       	ori	r24, 0x20	; 32
    2b46:	80 93 80 00 	sts	0x0080, r24	; 0x800080 <__TEXT_REGION_LENGTH__+0x7c0080>
    2b4a:	d0 93 8b 00 	sts	0x008B, r29	; 0x80008b <__TEXT_REGION_LENGTH__+0x7c008b>
    2b4e:	c0 93 8a 00 	sts	0x008A, r28	; 0x80008a <__TEXT_REGION_LENGTH__+0x7c008a>
    2b52:	7e c0       	rjmp	.+252    	; 0x2c50 <analogWrite+0x18a>
    2b54:	80 91 80 00 	lds	r24, 0x0080	; 0x800080 <__TEXT_REGION_LENGTH__+0x7c0080>
    2b58:	88 60       	ori	r24, 0x08	; 8
    2b5a:	80 93 80 00 	sts	0x0080, r24	; 0x800080 <__TEXT_REGION_LENGTH__+0x7c0080>
    2b5e:	d0 93 8d 00 	sts	0x008D, r29	; 0x80008d <__TEXT_REGION_LENGTH__+0x7c008d>
    2b62:	c0 93 8c 00 	sts	0x008C, r28	; 0x80008c <__TEXT_REGION_LENGTH__+0x7c008c>
    2b66:	74 c0       	rjmp	.+232    	; 0x2c50 <analogWrite+0x18a>
    2b68:	80 91 b0 00 	lds	r24, 0x00B0	; 0x8000b0 <__TEXT_REGION_LENGTH__+0x7c00b0>
    2b6c:	80 68       	ori	r24, 0x80	; 128
    2b6e:	80 93 b0 00 	sts	0x00B0, r24	; 0x8000b0 <__TEXT_REGION_LENGTH__+0x7c00b0>
    2b72:	c0 93 b3 00 	sts	0x00B3, r28	; 0x8000b3 <__TEXT_REGION_LENGTH__+0x7c00b3>
    2b76:	6c c0       	rjmp	.+216    	; 0x2c50 <analogWrite+0x18a>
    2b78:	80 91 b0 00 	lds	r24, 0x00B0	; 0x8000b0 <__TEXT_REGION_LENGTH__+0x7c00b0>
    2b7c:	80 62       	ori	r24, 0x20	; 32
    2b7e:	80 93 b0 00 	sts	0x00B0, r24	; 0x8000b0 <__TEXT_REGION_LENGTH__+0x7c00b0>
    2b82:	c0 93 b4 00 	sts	0x00B4, r28	; 0x8000b4 <__TEXT_REGION_LENGTH__+0x7c00b4>
    2b86:	64 c0       	rjmp	.+200    	; 0x2c50 <analogWrite+0x18a>
    2b88:	80 91 90 00 	lds	r24, 0x0090	; 0x800090 <__TEXT_REGION_LENGTH__+0x7c0090>
    2b8c:	80 68       	ori	r24, 0x80	; 128
    2b8e:	80 93 90 00 	sts	0x0090, r24	; 0x800090 <__TEXT_REGION_LENGTH__+0x7c0090>
    2b92:	d0 93 99 00 	sts	0x0099, r29	; 0x800099 <__TEXT_REGION_LENGTH__+0x7c0099>
    2b96:	c0 93 98 00 	sts	0x0098, r28	; 0x800098 <__TEXT_REGION_LENGTH__+0x7c0098>
    2b9a:	5a c0       	rjmp	.+180    	; 0x2c50 <analogWrite+0x18a>
    2b9c:	80 91 90 00 	lds	r24, 0x0090	; 0x800090 <__TEXT_REGION_LENGTH__+0x7c0090>
    2ba0:	80 62       	ori	r24, 0x20	; 32
    2ba2:	80 93 90 00 	sts	0x0090, r24	; 0x800090 <__TEXT_REGION_LENGTH__+0x7c0090>
    2ba6:	d0 93 9b 00 	sts	0x009B, r29	; 0x80009b <__TEXT_REGION_LENGTH__+0x7c009b>
    2baa:	c0 93 9a 00 	sts	0x009A, r28	; 0x80009a <__TEXT_REGION_LENGTH__+0x7c009a>
    2bae:	50 c0       	rjmp	.+160    	; 0x2c50 <analogWrite+0x18a>
    2bb0:	80 91 90 00 	lds	r24, 0x0090	; 0x800090 <__TEXT_REGION_LENGTH__+0x7c0090>
    2bb4:	88 60       	ori	r24, 0x08	; 8
    2bb6:	80 93 90 00 	sts	0x0090, r24	; 0x800090 <__TEXT_REGION_LENGTH__+0x7c0090>
    2bba:	d0 93 9d 00 	sts	0x009D, r29	; 0x80009d <__TEXT_REGION_LENGTH__+0x7c009d>
    2bbe:	c0 93 9c 00 	sts	0x009C, r28	; 0x80009c <__TEXT_REGION_LENGTH__+0x7c009c>
    2bc2:	46 c0       	rjmp	.+140    	; 0x2c50 <analogWrite+0x18a>
    2bc4:	80 91 a0 00 	lds	r24, 0x00A0	; 0x8000a0 <__TEXT_REGION_LENGTH__+0x7c00a0>
    2bc8:	80 68       	ori	r24, 0x80	; 128
    2bca:	80 93 a0 00 	sts	0x00A0, r24	; 0x8000a0 <__TEXT_REGION_LENGTH__+0x7c00a0>
    2bce:	80 91 a0 00 	lds	r24, 0x00A0	; 0x8000a0 <__TEXT_REGION_LENGTH__+0x7c00a0>
    2bd2:	8f 7b       	andi	r24, 0xBF	; 191
    2bd4:	80 93 a0 00 	sts	0x00A0, r24	; 0x8000a0 <__TEXT_REGION_LENGTH__+0x7c00a0>
    2bd8:	d0 93 a9 00 	sts	0x00A9, r29	; 0x8000a9 <__TEXT_REGION_LENGTH__+0x7c00a9>
    2bdc:	c0 93 a8 00 	sts	0x00A8, r28	; 0x8000a8 <__TEXT_REGION_LENGTH__+0x7c00a8>
    2be0:	37 c0       	rjmp	.+110    	; 0x2c50 <analogWrite+0x18a>
    2be2:	80 91 a0 00 	lds	r24, 0x00A0	; 0x8000a0 <__TEXT_REGION_LENGTH__+0x7c00a0>
    2be6:	80 62       	ori	r24, 0x20	; 32
    2be8:	80 93 a0 00 	sts	0x00A0, r24	; 0x8000a0 <__TEXT_REGION_LENGTH__+0x7c00a0>
    2bec:	d0 93 ab 00 	sts	0x00AB, r29	; 0x8000ab <__TEXT_REGION_LENGTH__+0x7c00ab>
    2bf0:	c0 93 aa 00 	sts	0x00AA, r28	; 0x8000aa <__TEXT_REGION_LENGTH__+0x7c00aa>
    2bf4:	2d c0       	rjmp	.+90     	; 0x2c50 <analogWrite+0x18a>
    2bf6:	80 91 a0 00 	lds	r24, 0x00A0	; 0x8000a0 <__TEXT_REGION_LENGTH__+0x7c00a0>
    2bfa:	88 60       	ori	r24, 0x08	; 8
    2bfc:	80 93 a0 00 	sts	0x00A0, r24	; 0x8000a0 <__TEXT_REGION_LENGTH__+0x7c00a0>
    2c00:	d0 93 ad 00 	sts	0x00AD, r29	; 0x8000ad <__TEXT_REGION_LENGTH__+0x7c00ad>
    2c04:	c0 93 ac 00 	sts	0x00AC, r28	; 0x8000ac <__TEXT_REGION_LENGTH__+0x7c00ac>
    2c08:	23 c0       	rjmp	.+70     	; 0x2c50 <analogWrite+0x18a>
    2c0a:	80 91 20 01 	lds	r24, 0x0120	; 0x800120 <__TEXT_REGION_LENGTH__+0x7c0120>
    2c0e:	80 68       	ori	r24, 0x80	; 128
    2c10:	80 93 20 01 	sts	0x0120, r24	; 0x800120 <__TEXT_REGION_LENGTH__+0x7c0120>
    2c14:	d0 93 29 01 	sts	0x0129, r29	; 0x800129 <__TEXT_REGION_LENGTH__+0x7c0129>
    2c18:	c0 93 28 01 	sts	0x0128, r28	; 0x800128 <__TEXT_REGION_LENGTH__+0x7c0128>
    2c1c:	19 c0       	rjmp	.+50     	; 0x2c50 <analogWrite+0x18a>
    2c1e:	80 91 20 01 	lds	r24, 0x0120	; 0x800120 <__TEXT_REGION_LENGTH__+0x7c0120>
    2c22:	80 62       	ori	r24, 0x20	; 32
    2c24:	80 93 20 01 	sts	0x0120, r24	; 0x800120 <__TEXT_REGION_LENGTH__+0x7c0120>
    2c28:	d0 93 2b 01 	sts	0x012B, r29	; 0x80012b <__TEXT_REGION_LENGTH__+0x7c012b>
    2c2c:	c0 93 2a 01 	sts	0x012A, r28	; 0x80012a <__TEXT_REGION_LENGTH__+0x7c012a>
    2c30:	0f c0       	rjmp	.+30     	; 0x2c50 <analogWrite+0x18a>
    2c32:	80 91 20 01 	lds	r24, 0x0120	; 0x800120 <__TEXT_REGION_LENGTH__+0x7c0120>
    2c36:	88 60       	ori	r24, 0x08	; 8
    2c38:	80 93 20 01 	sts	0x0120, r24	; 0x800120 <__TEXT_REGION_LENGTH__+0x7c0120>
    2c3c:	d0 93 2d 01 	sts	0x012D, r29	; 0x80012d <__TEXT_REGION_LENGTH__+0x7c012d>
    2c40:	c0 93 2c 01 	sts	0x012C, r28	; 0x80012c <__TEXT_REGION_LENGTH__+0x7c012c>
    2c44:	05 c0       	rjmp	.+10     	; 0x2c50 <analogWrite+0x18a>
    2c46:	c0 38       	cpi	r28, 0x80	; 128
    2c48:	d1 05       	cpc	r29, r1
    2c4a:	0c f0       	brlt	.+2      	; 0x2c4e <analogWrite+0x188>
    2c4c:	4b cf       	rjmp	.-362    	; 0x2ae4 <analogWrite+0x1e>
    2c4e:	45 cf       	rjmp	.-374    	; 0x2ada <analogWrite+0x14>
    2c50:	df 91       	pop	r29
    2c52:	cf 91       	pop	r28
    2c54:	1f 91       	pop	r17
    2c56:	08 95       	ret

00002c58 <turnOffPWM>:
    2c58:	90 e0       	ldi	r25, 0x00	; 0
    2c5a:	fc 01       	movw	r30, r24
    2c5c:	31 97       	sbiw	r30, 0x01	; 1
    2c5e:	e2 31       	cpi	r30, 0x12	; 18
    2c60:	f1 05       	cpc	r31, r1
    2c62:	08 f0       	brcs	.+2      	; 0x2c66 <turnOffPWM+0xe>
    2c64:	4e c0       	rjmp	.+156    	; 0x2d02 <turnOffPWM+0xaa>
    2c66:	88 27       	eor	r24, r24
    2c68:	ee 56       	subi	r30, 0x6E	; 110
    2c6a:	ff 4f       	sbci	r31, 0xFF	; 255
    2c6c:	8f 4f       	sbci	r24, 0xFF	; 255
    2c6e:	0c 94 14 25 	jmp	0x4a28	; 0x4a28 <__tablejump2__>
    2c72:	80 91 80 00 	lds	r24, 0x0080	; 0x800080 <__TEXT_REGION_LENGTH__+0x7c0080>
    2c76:	8f 77       	andi	r24, 0x7F	; 127
    2c78:	03 c0       	rjmp	.+6      	; 0x2c80 <turnOffPWM+0x28>
    2c7a:	80 91 80 00 	lds	r24, 0x0080	; 0x800080 <__TEXT_REGION_LENGTH__+0x7c0080>
    2c7e:	8f 7d       	andi	r24, 0xDF	; 223
    2c80:	80 93 80 00 	sts	0x0080, r24	; 0x800080 <__TEXT_REGION_LENGTH__+0x7c0080>
    2c84:	08 95       	ret
    2c86:	80 91 80 00 	lds	r24, 0x0080	; 0x800080 <__TEXT_REGION_LENGTH__+0x7c0080>
    2c8a:	87 7f       	andi	r24, 0xF7	; 247
    2c8c:	f9 cf       	rjmp	.-14     	; 0x2c80 <turnOffPWM+0x28>
    2c8e:	84 b5       	in	r24, 0x24	; 36
    2c90:	8f 77       	andi	r24, 0x7F	; 127
    2c92:	02 c0       	rjmp	.+4      	; 0x2c98 <turnOffPWM+0x40>
    2c94:	84 b5       	in	r24, 0x24	; 36
    2c96:	8f 7d       	andi	r24, 0xDF	; 223
    2c98:	84 bd       	out	0x24, r24	; 36
    2c9a:	08 95       	ret
    2c9c:	80 91 b0 00 	lds	r24, 0x00B0	; 0x8000b0 <__TEXT_REGION_LENGTH__+0x7c00b0>
    2ca0:	8f 77       	andi	r24, 0x7F	; 127
    2ca2:	03 c0       	rjmp	.+6      	; 0x2caa <turnOffPWM+0x52>
    2ca4:	80 91 b0 00 	lds	r24, 0x00B0	; 0x8000b0 <__TEXT_REGION_LENGTH__+0x7c00b0>
    2ca8:	8f 7d       	andi	r24, 0xDF	; 223
    2caa:	80 93 b0 00 	sts	0x00B0, r24	; 0x8000b0 <__TEXT_REGION_LENGTH__+0x7c00b0>
    2cae:	08 95       	ret
    2cb0:	80 91 90 00 	lds	r24, 0x0090	; 0x800090 <__TEXT_REGION_LENGTH__+0x7c0090>
    2cb4:	8f 77       	andi	r24, 0x7F	; 127
    2cb6:	07 c0       	rjmp	.+14     	; 0x2cc6 <turnOffPWM+0x6e>
    2cb8:	80 91 90 00 	lds	r24, 0x0090	; 0x800090 <__TEXT_REGION_LENGTH__+0x7c0090>
    2cbc:	8f 7d       	andi	r24, 0xDF	; 223
    2cbe:	03 c0       	rjmp	.+6      	; 0x2cc6 <turnOffPWM+0x6e>
    2cc0:	80 91 90 00 	lds	r24, 0x0090	; 0x800090 <__TEXT_REGION_LENGTH__+0x7c0090>
    2cc4:	87 7f       	andi	r24, 0xF7	; 247
    2cc6:	80 93 90 00 	sts	0x0090, r24	; 0x800090 <__TEXT_REGION_LENGTH__+0x7c0090>
    2cca:	08 95       	ret
    2ccc:	80 91 a0 00 	lds	r24, 0x00A0	; 0x8000a0 <__TEXT_REGION_LENGTH__+0x7c00a0>
    2cd0:	8f 77       	andi	r24, 0x7F	; 127
    2cd2:	07 c0       	rjmp	.+14     	; 0x2ce2 <turnOffPWM+0x8a>
    2cd4:	80 91 a0 00 	lds	r24, 0x00A0	; 0x8000a0 <__TEXT_REGION_LENGTH__+0x7c00a0>
    2cd8:	8f 7d       	andi	r24, 0xDF	; 223
    2cda:	03 c0       	rjmp	.+6      	; 0x2ce2 <turnOffPWM+0x8a>
    2cdc:	80 91 a0 00 	lds	r24, 0x00A0	; 0x8000a0 <__TEXT_REGION_LENGTH__+0x7c00a0>
    2ce0:	87 7f       	andi	r24, 0xF7	; 247
    2ce2:	80 93 a0 00 	sts	0x00A0, r24	; 0x8000a0 <__TEXT_REGION_LENGTH__+0x7c00a0>
    2ce6:	08 95       	ret
    2ce8:	80 91 20 01 	lds	r24, 0x0120	; 0x800120 <__TEXT_REGION_LENGTH__+0x7c0120>
    2cec:	8f 77       	andi	r24, 0x7F	; 127
    2cee:	07 c0       	rjmp	.+14     	; 0x2cfe <turnOffPWM+0xa6>
    2cf0:	80 91 20 01 	lds	r24, 0x0120	; 0x800120 <__TEXT_REGION_LENGTH__+0x7c0120>
    2cf4:	8f 7d       	andi	r24, 0xDF	; 223
    2cf6:	03 c0       	rjmp	.+6      	; 0x2cfe <turnOffPWM+0xa6>
    2cf8:	80 91 20 01 	lds	r24, 0x0120	; 0x800120 <__TEXT_REGION_LENGTH__+0x7c0120>
    2cfc:	87 7f       	andi	r24, 0xF7	; 247
    2cfe:	80 93 20 01 	sts	0x0120, r24	; 0x800120 <__TEXT_REGION_LENGTH__+0x7c0120>
    2d02:	08 95       	ret

00002d04 <pinMode>:
    2d04:	cf 93       	push	r28
    2d06:	df 93       	push	r29
    2d08:	90 e0       	ldi	r25, 0x00	; 0
    2d0a:	fc 01       	movw	r30, r24
    2d0c:	e8 52       	subi	r30, 0x28	; 40
    2d0e:	fc 4f       	sbci	r31, 0xFC	; 252
    2d10:	24 91       	lpm	r18, Z
    2d12:	fc 01       	movw	r30, r24
    2d14:	e2 5e       	subi	r30, 0xE2	; 226
    2d16:	fb 4f       	sbci	r31, 0xFB	; 251
    2d18:	84 91       	lpm	r24, Z
    2d1a:	88 23       	and	r24, r24
    2d1c:	61 f1       	breq	.+88     	; 0x2d76 <pinMode+0x72>
    2d1e:	90 e0       	ldi	r25, 0x00	; 0
    2d20:	88 0f       	add	r24, r24
    2d22:	99 1f       	adc	r25, r25
    2d24:	fc 01       	movw	r30, r24
    2d26:	e8 56       	subi	r30, 0x68	; 104
    2d28:	fb 4f       	sbci	r31, 0xFB	; 251
    2d2a:	c5 91       	lpm	r28, Z+
    2d2c:	d4 91       	lpm	r29, Z
    2d2e:	fc 01       	movw	r30, r24
    2d30:	e2 58       	subi	r30, 0x82	; 130
    2d32:	fb 4f       	sbci	r31, 0xFB	; 251
    2d34:	a5 91       	lpm	r26, Z+
    2d36:	b4 91       	lpm	r27, Z
    2d38:	61 11       	cpse	r22, r1
    2d3a:	09 c0       	rjmp	.+18     	; 0x2d4e <pinMode+0x4a>
    2d3c:	9f b7       	in	r25, 0x3f	; 63
    2d3e:	f8 94       	cli
    2d40:	88 81       	ld	r24, Y
    2d42:	20 95       	com	r18
    2d44:	82 23       	and	r24, r18
    2d46:	88 83       	st	Y, r24
    2d48:	ec 91       	ld	r30, X
    2d4a:	2e 23       	and	r18, r30
    2d4c:	0b c0       	rjmp	.+22     	; 0x2d64 <pinMode+0x60>
    2d4e:	62 30       	cpi	r22, 0x02	; 2
    2d50:	61 f4       	brne	.+24     	; 0x2d6a <pinMode+0x66>
    2d52:	9f b7       	in	r25, 0x3f	; 63
    2d54:	f8 94       	cli
    2d56:	88 81       	ld	r24, Y
    2d58:	32 2f       	mov	r19, r18
    2d5a:	30 95       	com	r19
    2d5c:	83 23       	and	r24, r19
    2d5e:	88 83       	st	Y, r24
    2d60:	ec 91       	ld	r30, X
    2d62:	2e 2b       	or	r18, r30
    2d64:	2c 93       	st	X, r18
    2d66:	9f bf       	out	0x3f, r25	; 63
    2d68:	06 c0       	rjmp	.+12     	; 0x2d76 <pinMode+0x72>
    2d6a:	8f b7       	in	r24, 0x3f	; 63
    2d6c:	f8 94       	cli
    2d6e:	e8 81       	ld	r30, Y
    2d70:	2e 2b       	or	r18, r30
    2d72:	28 83       	st	Y, r18
    2d74:	8f bf       	out	0x3f, r24	; 63
    2d76:	df 91       	pop	r29
    2d78:	cf 91       	pop	r28
    2d7a:	08 95       	ret

00002d7c <digitalWrite>:
    2d7c:	1f 93       	push	r17
    2d7e:	cf 93       	push	r28
    2d80:	df 93       	push	r29
    2d82:	28 2f       	mov	r18, r24
    2d84:	30 e0       	ldi	r19, 0x00	; 0
    2d86:	f9 01       	movw	r30, r18
    2d88:	ee 56       	subi	r30, 0x6E	; 110
    2d8a:	fc 4f       	sbci	r31, 0xFC	; 252
    2d8c:	84 91       	lpm	r24, Z
    2d8e:	f9 01       	movw	r30, r18
    2d90:	e8 52       	subi	r30, 0x28	; 40
    2d92:	fc 4f       	sbci	r31, 0xFC	; 252
    2d94:	d4 91       	lpm	r29, Z
    2d96:	f9 01       	movw	r30, r18
    2d98:	e2 5e       	subi	r30, 0xE2	; 226
    2d9a:	fb 4f       	sbci	r31, 0xFB	; 251
    2d9c:	c4 91       	lpm	r28, Z
    2d9e:	cc 23       	and	r28, r28
    2da0:	c1 f0       	breq	.+48     	; 0x2dd2 <digitalWrite+0x56>
    2da2:	16 2f       	mov	r17, r22
    2da4:	81 11       	cpse	r24, r1
    2da6:	0e 94 2c 16 	call	0x2c58	; 0x2c58 <turnOffPWM>
    2daa:	ec 2f       	mov	r30, r28
    2dac:	f0 e0       	ldi	r31, 0x00	; 0
    2dae:	ee 0f       	add	r30, r30
    2db0:	ff 1f       	adc	r31, r31
    2db2:	e2 58       	subi	r30, 0x82	; 130
    2db4:	fb 4f       	sbci	r31, 0xFB	; 251
    2db6:	a5 91       	lpm	r26, Z+
    2db8:	b4 91       	lpm	r27, Z
    2dba:	9f b7       	in	r25, 0x3f	; 63
    2dbc:	f8 94       	cli
    2dbe:	11 11       	cpse	r17, r1
    2dc0:	04 c0       	rjmp	.+8      	; 0x2dca <digitalWrite+0x4e>
    2dc2:	8c 91       	ld	r24, X
    2dc4:	d0 95       	com	r29
    2dc6:	d8 23       	and	r29, r24
    2dc8:	02 c0       	rjmp	.+4      	; 0x2dce <digitalWrite+0x52>
    2dca:	ec 91       	ld	r30, X
    2dcc:	de 2b       	or	r29, r30
    2dce:	dc 93       	st	X, r29
    2dd0:	9f bf       	out	0x3f, r25	; 63
    2dd2:	df 91       	pop	r29
    2dd4:	cf 91       	pop	r28
    2dd6:	1f 91       	pop	r17
    2dd8:	08 95       	ret

00002dda <digitalRead>:
    2dda:	cf 93       	push	r28
    2ddc:	df 93       	push	r29
    2dde:	28 2f       	mov	r18, r24
    2de0:	30 e0       	ldi	r19, 0x00	; 0
    2de2:	f9 01       	movw	r30, r18
    2de4:	ee 56       	subi	r30, 0x6E	; 110
    2de6:	fc 4f       	sbci	r31, 0xFC	; 252
    2de8:	84 91       	lpm	r24, Z
    2dea:	f9 01       	movw	r30, r18
    2dec:	e8 52       	subi	r30, 0x28	; 40
    2dee:	fc 4f       	sbci	r31, 0xFC	; 252
    2df0:	d4 91       	lpm	r29, Z
    2df2:	f9 01       	movw	r30, r18
    2df4:	e2 5e       	subi	r30, 0xE2	; 226
    2df6:	fb 4f       	sbci	r31, 0xFB	; 251
    2df8:	c4 91       	lpm	r28, Z
    2dfa:	cc 23       	and	r28, r28
    2dfc:	91 f0       	breq	.+36     	; 0x2e22 <digitalRead+0x48>
    2dfe:	81 11       	cpse	r24, r1
    2e00:	0e 94 2c 16 	call	0x2c58	; 0x2c58 <turnOffPWM>
    2e04:	ec 2f       	mov	r30, r28
    2e06:	f0 e0       	ldi	r31, 0x00	; 0
    2e08:	ee 0f       	add	r30, r30
    2e0a:	ff 1f       	adc	r31, r31
    2e0c:	ec 59       	subi	r30, 0x9C	; 156
    2e0e:	fb 4f       	sbci	r31, 0xFB	; 251
    2e10:	a5 91       	lpm	r26, Z+
    2e12:	b4 91       	lpm	r27, Z
    2e14:	ec 91       	ld	r30, X
    2e16:	ed 23       	and	r30, r29
    2e18:	81 e0       	ldi	r24, 0x01	; 1
    2e1a:	90 e0       	ldi	r25, 0x00	; 0
    2e1c:	21 f4       	brne	.+8      	; 0x2e26 <digitalRead+0x4c>
    2e1e:	80 e0       	ldi	r24, 0x00	; 0
    2e20:	02 c0       	rjmp	.+4      	; 0x2e26 <digitalRead+0x4c>
    2e22:	80 e0       	ldi	r24, 0x00	; 0
    2e24:	90 e0       	ldi	r25, 0x00	; 0
    2e26:	df 91       	pop	r29
    2e28:	cf 91       	pop	r28
    2e2a:	08 95       	ret

00002e2c <pulseInLong>:
    2e2c:	4f 92       	push	r4
    2e2e:	5f 92       	push	r5
    2e30:	6f 92       	push	r6
    2e32:	7f 92       	push	r7
    2e34:	8f 92       	push	r8
    2e36:	9f 92       	push	r9
    2e38:	af 92       	push	r10
    2e3a:	bf 92       	push	r11
    2e3c:	cf 92       	push	r12
    2e3e:	df 92       	push	r13
    2e40:	ef 92       	push	r14
    2e42:	ff 92       	push	r15
    2e44:	0f 93       	push	r16
    2e46:	1f 93       	push	r17
    2e48:	cf 93       	push	r28
    2e4a:	df 93       	push	r29
    2e4c:	49 01       	movw	r8, r18
    2e4e:	5a 01       	movw	r10, r20
    2e50:	90 e0       	ldi	r25, 0x00	; 0
    2e52:	fc 01       	movw	r30, r24
    2e54:	e8 52       	subi	r30, 0x28	; 40
    2e56:	fc 4f       	sbci	r31, 0xFC	; 252
    2e58:	14 91       	lpm	r17, Z
    2e5a:	fc 01       	movw	r30, r24
    2e5c:	e2 5e       	subi	r30, 0xE2	; 226
    2e5e:	fb 4f       	sbci	r31, 0xFB	; 251
    2e60:	c4 91       	lpm	r28, Z
    2e62:	66 23       	and	r22, r22
    2e64:	11 f0       	breq	.+4      	; 0x2e6a <pulseInLong+0x3e>
    2e66:	01 2f       	mov	r16, r17
    2e68:	01 c0       	rjmp	.+2      	; 0x2e6c <pulseInLong+0x40>
    2e6a:	00 e0       	ldi	r16, 0x00	; 0
    2e6c:	0e 94 6d 14 	call	0x28da	; 0x28da <micros>
    2e70:	6b 01       	movw	r12, r22
    2e72:	7c 01       	movw	r14, r24
    2e74:	d0 e0       	ldi	r29, 0x00	; 0
    2e76:	cc 0f       	add	r28, r28
    2e78:	dd 1f       	adc	r29, r29
    2e7a:	cc 59       	subi	r28, 0x9C	; 156
    2e7c:	db 4f       	sbci	r29, 0xFB	; 251
    2e7e:	fe 01       	movw	r30, r28
    2e80:	a5 91       	lpm	r26, Z+
    2e82:	b4 91       	lpm	r27, Z
    2e84:	8c 91       	ld	r24, X
    2e86:	81 23       	and	r24, r17
    2e88:	08 13       	cpse	r16, r24
    2e8a:	1e c0       	rjmp	.+60     	; 0x2ec8 <pulseInLong+0x9c>
    2e8c:	0e 94 6d 14 	call	0x28da	; 0x28da <micros>
    2e90:	dc 01       	movw	r26, r24
    2e92:	cb 01       	movw	r24, r22
    2e94:	8c 19       	sub	r24, r12
    2e96:	9d 09       	sbc	r25, r13
    2e98:	ae 09       	sbc	r26, r14
    2e9a:	bf 09       	sbc	r27, r15
    2e9c:	88 16       	cp	r8, r24
    2e9e:	99 06       	cpc	r9, r25
    2ea0:	aa 06       	cpc	r10, r26
    2ea2:	bb 06       	cpc	r11, r27
    2ea4:	60 f7       	brcc	.-40     	; 0x2e7e <pulseInLong+0x52>
    2ea6:	60 e0       	ldi	r22, 0x00	; 0
    2ea8:	70 e0       	ldi	r23, 0x00	; 0
    2eaa:	cb 01       	movw	r24, r22
    2eac:	33 c0       	rjmp	.+102    	; 0x2f14 <pulseInLong+0xe8>
    2eae:	0e 94 6d 14 	call	0x28da	; 0x28da <micros>
    2eb2:	dc 01       	movw	r26, r24
    2eb4:	cb 01       	movw	r24, r22
    2eb6:	8c 19       	sub	r24, r12
    2eb8:	9d 09       	sbc	r25, r13
    2eba:	ae 09       	sbc	r26, r14
    2ebc:	bf 09       	sbc	r27, r15
    2ebe:	88 16       	cp	r8, r24
    2ec0:	99 06       	cpc	r9, r25
    2ec2:	aa 06       	cpc	r10, r26
    2ec4:	bb 06       	cpc	r11, r27
    2ec6:	78 f3       	brcs	.-34     	; 0x2ea6 <pulseInLong+0x7a>
    2ec8:	fe 01       	movw	r30, r28
    2eca:	a5 91       	lpm	r26, Z+
    2ecc:	b4 91       	lpm	r27, Z
    2ece:	8c 91       	ld	r24, X
    2ed0:	81 23       	and	r24, r17
    2ed2:	08 13       	cpse	r16, r24
    2ed4:	ec cf       	rjmp	.-40     	; 0x2eae <pulseInLong+0x82>
    2ed6:	0e 94 6d 14 	call	0x28da	; 0x28da <micros>
    2eda:	2b 01       	movw	r4, r22
    2edc:	3c 01       	movw	r6, r24
    2ede:	fe 01       	movw	r30, r28
    2ee0:	a5 91       	lpm	r26, Z+
    2ee2:	b4 91       	lpm	r27, Z
    2ee4:	8c 91       	ld	r24, X
    2ee6:	81 23       	and	r24, r17
    2ee8:	08 13       	cpse	r16, r24
    2eea:	0e c0       	rjmp	.+28     	; 0x2f08 <pulseInLong+0xdc>
    2eec:	0e 94 6d 14 	call	0x28da	; 0x28da <micros>
    2ef0:	dc 01       	movw	r26, r24
    2ef2:	cb 01       	movw	r24, r22
    2ef4:	8c 19       	sub	r24, r12
    2ef6:	9d 09       	sbc	r25, r13
    2ef8:	ae 09       	sbc	r26, r14
    2efa:	bf 09       	sbc	r27, r15
    2efc:	88 16       	cp	r8, r24
    2efe:	99 06       	cpc	r9, r25
    2f00:	aa 06       	cpc	r10, r26
    2f02:	bb 06       	cpc	r11, r27
    2f04:	60 f7       	brcc	.-40     	; 0x2ede <pulseInLong+0xb2>
    2f06:	cf cf       	rjmp	.-98     	; 0x2ea6 <pulseInLong+0x7a>
    2f08:	0e 94 6d 14 	call	0x28da	; 0x28da <micros>
    2f0c:	64 19       	sub	r22, r4
    2f0e:	75 09       	sbc	r23, r5
    2f10:	86 09       	sbc	r24, r6
    2f12:	97 09       	sbc	r25, r7
    2f14:	df 91       	pop	r29
    2f16:	cf 91       	pop	r28
    2f18:	1f 91       	pop	r17
    2f1a:	0f 91       	pop	r16
    2f1c:	ff 90       	pop	r15
    2f1e:	ef 90       	pop	r14
    2f20:	df 90       	pop	r13
    2f22:	cf 90       	pop	r12
    2f24:	bf 90       	pop	r11
    2f26:	af 90       	pop	r10
    2f28:	9f 90       	pop	r9
    2f2a:	8f 90       	pop	r8
    2f2c:	7f 90       	pop	r7
    2f2e:	6f 90       	pop	r6
    2f30:	5f 90       	pop	r5
    2f32:	4f 90       	pop	r4
    2f34:	08 95       	ret

00002f36 <countPulseASM>:
    2f36:	cf 92       	push	r12
    2f38:	df 92       	push	r13
    2f3a:	ef 92       	push	r14
    2f3c:	ff 92       	push	r15
    2f3e:	0f 93       	push	r16
    2f40:	1f 93       	push	r17
    2f42:	fc 01       	movw	r30, r24
    2f44:	80 81       	ld	r24, Z
    2f46:	86 23       	and	r24, r22
    2f48:	84 13       	cpse	r24, r20
    2f4a:	0b c0       	rjmp	.+22     	; 0x2f62 <countPulseASM+0x2c>
    2f4c:	01 50       	subi	r16, 0x01	; 1
    2f4e:	11 09       	sbc	r17, r1
    2f50:	21 09       	sbc	r18, r1
    2f52:	31 09       	sbc	r19, r1
    2f54:	b9 f7       	brne	.-18     	; 0x2f44 <countPulseASM+0xe>
    2f56:	1e c0       	rjmp	.+60     	; 0x2f94 <countPulseASM+0x5e>
    2f58:	01 50       	subi	r16, 0x01	; 1
    2f5a:	11 09       	sbc	r17, r1
    2f5c:	21 09       	sbc	r18, r1
    2f5e:	31 09       	sbc	r19, r1
    2f60:	c9 f0       	breq	.+50     	; 0x2f94 <countPulseASM+0x5e>
    2f62:	80 81       	ld	r24, Z
    2f64:	86 23       	and	r24, r22
    2f66:	48 13       	cpse	r20, r24
    2f68:	f7 cf       	rjmp	.-18     	; 0x2f58 <countPulseASM+0x22>
    2f6a:	c1 2c       	mov	r12, r1
    2f6c:	d1 2c       	mov	r13, r1
    2f6e:	76 01       	movw	r14, r12
    2f70:	90 81       	ld	r25, Z
    2f72:	96 23       	and	r25, r22
    2f74:	49 13       	cpse	r20, r25
    2f76:	0b c0       	rjmp	.+22     	; 0x2f8e <countPulseASM+0x58>
    2f78:	8f ef       	ldi	r24, 0xFF	; 255
    2f7a:	c8 1a       	sub	r12, r24
    2f7c:	d8 0a       	sbc	r13, r24
    2f7e:	e8 0a       	sbc	r14, r24
    2f80:	f8 0a       	sbc	r15, r24
    2f82:	0c 15       	cp	r16, r12
    2f84:	1d 05       	cpc	r17, r13
    2f86:	2e 05       	cpc	r18, r14
    2f88:	3f 05       	cpc	r19, r15
    2f8a:	91 f7       	brne	.-28     	; 0x2f70 <countPulseASM+0x3a>
    2f8c:	03 c0       	rjmp	.+6      	; 0x2f94 <countPulseASM+0x5e>
    2f8e:	b6 01       	movw	r22, r12
    2f90:	c7 01       	movw	r24, r14
    2f92:	04 c0       	rjmp	.+8      	; 0x2f9c <countPulseASM+0x66>
    2f94:	60 e0       	ldi	r22, 0x00	; 0
    2f96:	70 e0       	ldi	r23, 0x00	; 0
    2f98:	80 e0       	ldi	r24, 0x00	; 0
    2f9a:	90 e0       	ldi	r25, 0x00	; 0
    2f9c:	1f 91       	pop	r17
    2f9e:	0f 91       	pop	r16
    2fa0:	ff 90       	pop	r15
    2fa2:	ef 90       	pop	r14
    2fa4:	df 90       	pop	r13
    2fa6:	cf 90       	pop	r12
    2fa8:	08 95       	ret

00002faa <pulseIn>:
    2faa:	0f 93       	push	r16
    2fac:	1f 93       	push	r17
    2fae:	90 e0       	ldi	r25, 0x00	; 0
    2fb0:	fc 01       	movw	r30, r24
    2fb2:	e8 52       	subi	r30, 0x28	; 40
    2fb4:	fc 4f       	sbci	r31, 0xFC	; 252
    2fb6:	74 91       	lpm	r23, Z
    2fb8:	fc 01       	movw	r30, r24
    2fba:	e2 5e       	subi	r30, 0xE2	; 226
    2fbc:	fb 4f       	sbci	r31, 0xFB	; 251
    2fbe:	e4 91       	lpm	r30, Z
    2fc0:	66 23       	and	r22, r22
    2fc2:	11 f0       	breq	.+4      	; 0x2fc8 <pulseIn+0x1e>
    2fc4:	67 2f       	mov	r22, r23
    2fc6:	01 c0       	rjmp	.+2      	; 0x2fca <pulseIn+0x20>
    2fc8:	60 e0       	ldi	r22, 0x00	; 0
    2fca:	f0 e0       	ldi	r31, 0x00	; 0
    2fcc:	ee 0f       	add	r30, r30
    2fce:	ff 1f       	adc	r31, r31
    2fd0:	ec 59       	subi	r30, 0x9C	; 156
    2fd2:	fb 4f       	sbci	r31, 0xFB	; 251
    2fd4:	85 91       	lpm	r24, Z+
    2fd6:	94 91       	lpm	r25, Z
    2fd8:	89 01       	movw	r16, r18
    2fda:	9a 01       	movw	r18, r20
    2fdc:	3f 70       	andi	r19, 0x0F	; 15
    2fde:	46 2f       	mov	r20, r22
    2fe0:	67 2f       	mov	r22, r23
    2fe2:	0e 94 9b 17 	call	0x2f36	; 0x2f36 <countPulseASM>
    2fe6:	61 15       	cp	r22, r1
    2fe8:	71 05       	cpc	r23, r1
    2fea:	81 05       	cpc	r24, r1
    2fec:	91 05       	cpc	r25, r1
    2fee:	49 f0       	breq	.+18     	; 0x3002 <pulseIn+0x58>
    2ff0:	dc 01       	movw	r26, r24
    2ff2:	cb 01       	movw	r24, r22
    2ff4:	01 96       	adiw	r24, 0x01	; 1
    2ff6:	a1 1d       	adc	r26, r1
    2ff8:	b1 1d       	adc	r27, r1
    2ffa:	bc 01       	movw	r22, r24
    2ffc:	cd 01       	movw	r24, r26
    2ffe:	9f 70       	andi	r25, 0x0F	; 15
    3000:	03 c0       	rjmp	.+6      	; 0x3008 <pulseIn+0x5e>
    3002:	60 e0       	ldi	r22, 0x00	; 0
    3004:	70 e0       	ldi	r23, 0x00	; 0
    3006:	cb 01       	movw	r24, r22
    3008:	1f 91       	pop	r17
    300a:	0f 91       	pop	r16
    300c:	08 95       	ret

0000300e <shiftIn>:
    300e:	cf 92       	push	r12
    3010:	df 92       	push	r13
    3012:	ef 92       	push	r14
    3014:	ff 92       	push	r15
    3016:	0f 93       	push	r16
    3018:	1f 93       	push	r17
    301a:	cf 93       	push	r28
    301c:	df 93       	push	r29
    301e:	f8 2e       	mov	r15, r24
    3020:	d6 2f       	mov	r29, r22
    3022:	e4 2e       	mov	r14, r20
    3024:	07 e0       	ldi	r16, 0x07	; 7
    3026:	10 e0       	ldi	r17, 0x00	; 0
    3028:	c0 e0       	ldi	r28, 0x00	; 0
    302a:	87 e0       	ldi	r24, 0x07	; 7
    302c:	c8 2e       	mov	r12, r24
    302e:	d1 2c       	mov	r13, r1
    3030:	61 e0       	ldi	r22, 0x01	; 1
    3032:	8d 2f       	mov	r24, r29
    3034:	0e 94 be 16 	call	0x2d7c	; 0x2d7c <digitalWrite>
    3038:	8f 2d       	mov	r24, r15
    303a:	e1 10       	cpse	r14, r1
    303c:	0a c0       	rjmp	.+20     	; 0x3052 <shiftIn+0x44>
    303e:	0e 94 ed 16 	call	0x2dda	; 0x2dda <digitalRead>
    3042:	96 01       	movw	r18, r12
    3044:	20 1b       	sub	r18, r16
    3046:	31 0b       	sbc	r19, r17
    3048:	01 c0       	rjmp	.+2      	; 0x304c <shiftIn+0x3e>
    304a:	88 0f       	add	r24, r24
    304c:	2a 95       	dec	r18
    304e:	ea f7       	brpl	.-6      	; 0x304a <shiftIn+0x3c>
    3050:	07 c0       	rjmp	.+14     	; 0x3060 <shiftIn+0x52>
    3052:	0e 94 ed 16 	call	0x2dda	; 0x2dda <digitalRead>
    3056:	00 2e       	mov	r0, r16
    3058:	01 c0       	rjmp	.+2      	; 0x305c <shiftIn+0x4e>
    305a:	88 0f       	add	r24, r24
    305c:	0a 94       	dec	r0
    305e:	ea f7       	brpl	.-6      	; 0x305a <shiftIn+0x4c>
    3060:	c8 2b       	or	r28, r24
    3062:	60 e0       	ldi	r22, 0x00	; 0
    3064:	8d 2f       	mov	r24, r29
    3066:	0e 94 be 16 	call	0x2d7c	; 0x2d7c <digitalWrite>
    306a:	01 50       	subi	r16, 0x01	; 1
    306c:	11 09       	sbc	r17, r1
    306e:	00 f7       	brcc	.-64     	; 0x3030 <shiftIn+0x22>
    3070:	8c 2f       	mov	r24, r28
    3072:	df 91       	pop	r29
    3074:	cf 91       	pop	r28
    3076:	1f 91       	pop	r17
    3078:	0f 91       	pop	r16
    307a:	ff 90       	pop	r15
    307c:	ef 90       	pop	r14
    307e:	df 90       	pop	r13
    3080:	cf 90       	pop	r12
    3082:	08 95       	ret

00003084 <shiftOut>:
    3084:	bf 92       	push	r11
    3086:	cf 92       	push	r12
    3088:	df 92       	push	r13
    308a:	ef 92       	push	r14
    308c:	ff 92       	push	r15
    308e:	0f 93       	push	r16
    3090:	1f 93       	push	r17
    3092:	cf 93       	push	r28
    3094:	df 93       	push	r29
    3096:	c8 2e       	mov	r12, r24
    3098:	d6 2e       	mov	r13, r22
    309a:	b4 2e       	mov	r11, r20
    309c:	c7 e0       	ldi	r28, 0x07	; 7
    309e:	d0 e0       	ldi	r29, 0x00	; 0
    30a0:	02 2f       	mov	r16, r18
    30a2:	10 e0       	ldi	r17, 0x00	; 0
    30a4:	87 e0       	ldi	r24, 0x07	; 7
    30a6:	e8 2e       	mov	r14, r24
    30a8:	f1 2c       	mov	r15, r1
    30aa:	b1 10       	cpse	r11, r1
    30ac:	05 c0       	rjmp	.+10     	; 0x30b8 <shiftOut+0x34>
    30ae:	c7 01       	movw	r24, r14
    30b0:	8c 1b       	sub	r24, r28
    30b2:	9d 0b       	sbc	r25, r29
    30b4:	b8 01       	movw	r22, r16
    30b6:	02 c0       	rjmp	.+4      	; 0x30bc <shiftOut+0x38>
    30b8:	b8 01       	movw	r22, r16
    30ba:	8c 2f       	mov	r24, r28
    30bc:	02 c0       	rjmp	.+4      	; 0x30c2 <shiftOut+0x3e>
    30be:	75 95       	asr	r23
    30c0:	67 95       	ror	r22
    30c2:	8a 95       	dec	r24
    30c4:	e2 f7       	brpl	.-8      	; 0x30be <shiftOut+0x3a>
    30c6:	61 70       	andi	r22, 0x01	; 1
    30c8:	8c 2d       	mov	r24, r12
    30ca:	0e 94 be 16 	call	0x2d7c	; 0x2d7c <digitalWrite>
    30ce:	61 e0       	ldi	r22, 0x01	; 1
    30d0:	8d 2d       	mov	r24, r13
    30d2:	0e 94 be 16 	call	0x2d7c	; 0x2d7c <digitalWrite>
    30d6:	60 e0       	ldi	r22, 0x00	; 0
    30d8:	8d 2d       	mov	r24, r13
    30da:	0e 94 be 16 	call	0x2d7c	; 0x2d7c <digitalWrite>
    30de:	21 97       	sbiw	r28, 0x01	; 1
    30e0:	20 f7       	brcc	.-56     	; 0x30aa <shiftOut+0x26>
    30e2:	df 91       	pop	r29
    30e4:	cf 91       	pop	r28
    30e6:	1f 91       	pop	r17
    30e8:	0f 91       	pop	r16
    30ea:	ff 90       	pop	r15
    30ec:	ef 90       	pop	r14
    30ee:	df 90       	pop	r13
    30f0:	cf 90       	pop	r12
    30f2:	bf 90       	pop	r11
    30f4:	08 95       	ret

000030f6 <_Z10randomSeedm>:
    30f6:	61 15       	cp	r22, r1
    30f8:	71 05       	cpc	r23, r1
    30fa:	81 05       	cpc	r24, r1
    30fc:	91 05       	cpc	r25, r1
    30fe:	11 f0       	breq	.+4      	; 0x3104 <_Z10randomSeedm+0xe>
    3100:	0c 94 4c 29 	jmp	0x5298	; 0x5298 <srandom>
    3104:	08 95       	ret

00003106 <_Z6randoml>:
    3106:	cf 92       	push	r12
    3108:	df 92       	push	r13
    310a:	ef 92       	push	r14
    310c:	ff 92       	push	r15
    310e:	61 15       	cp	r22, r1
    3110:	71 05       	cpc	r23, r1
    3112:	81 05       	cpc	r24, r1
    3114:	91 05       	cpc	r25, r1
    3116:	49 f0       	breq	.+18     	; 0x312a <_Z6randoml+0x24>
    3118:	6b 01       	movw	r12, r22
    311a:	7c 01       	movw	r14, r24
    311c:	0e 94 fe 28 	call	0x51fc	; 0x51fc <random>
    3120:	a7 01       	movw	r20, r14
    3122:	96 01       	movw	r18, r12
    3124:	0e 94 f5 24 	call	0x49ea	; 0x49ea <__divmodsi4>
    3128:	03 c0       	rjmp	.+6      	; 0x3130 <_Z6randoml+0x2a>
    312a:	60 e0       	ldi	r22, 0x00	; 0
    312c:	70 e0       	ldi	r23, 0x00	; 0
    312e:	cb 01       	movw	r24, r22
    3130:	ff 90       	pop	r15
    3132:	ef 90       	pop	r14
    3134:	df 90       	pop	r13
    3136:	cf 90       	pop	r12
    3138:	08 95       	ret

0000313a <_Z6randomll>:
    313a:	cf 92       	push	r12
    313c:	df 92       	push	r13
    313e:	ef 92       	push	r14
    3140:	ff 92       	push	r15
    3142:	0f 93       	push	r16
    3144:	1f 93       	push	r17
    3146:	62 17       	cp	r22, r18
    3148:	73 07       	cpc	r23, r19
    314a:	84 07       	cpc	r24, r20
    314c:	95 07       	cpc	r25, r21
    314e:	84 f4       	brge	.+32     	; 0x3170 <_Z6randomll+0x36>
    3150:	89 01       	movw	r16, r18
    3152:	9a 01       	movw	r18, r20
    3154:	6b 01       	movw	r12, r22
    3156:	7c 01       	movw	r14, r24
    3158:	c9 01       	movw	r24, r18
    315a:	b8 01       	movw	r22, r16
    315c:	6c 19       	sub	r22, r12
    315e:	7d 09       	sbc	r23, r13
    3160:	8e 09       	sbc	r24, r14
    3162:	9f 09       	sbc	r25, r15
    3164:	0e 94 83 18 	call	0x3106	; 0x3106 <_Z6randoml>
    3168:	6c 0d       	add	r22, r12
    316a:	7d 1d       	adc	r23, r13
    316c:	8e 1d       	adc	r24, r14
    316e:	9f 1d       	adc	r25, r15
    3170:	1f 91       	pop	r17
    3172:	0f 91       	pop	r16
    3174:	ff 90       	pop	r15
    3176:	ef 90       	pop	r14
    3178:	df 90       	pop	r13
    317a:	cf 90       	pop	r12
    317c:	08 95       	ret

0000317e <_Z3maplllll>:
    317e:	4f 92       	push	r4
    3180:	5f 92       	push	r5
    3182:	6f 92       	push	r6
    3184:	7f 92       	push	r7
    3186:	af 92       	push	r10
    3188:	bf 92       	push	r11
    318a:	cf 92       	push	r12
    318c:	df 92       	push	r13
    318e:	ef 92       	push	r14
    3190:	ff 92       	push	r15
    3192:	0f 93       	push	r16
    3194:	1f 93       	push	r17
    3196:	cf 93       	push	r28
    3198:	df 93       	push	r29
    319a:	cd b7       	in	r28, 0x3d	; 61
    319c:	de b7       	in	r29, 0x3e	; 62
    319e:	29 01       	movw	r4, r18
    31a0:	3a 01       	movw	r6, r20
    31a2:	9b 01       	movw	r18, r22
    31a4:	ac 01       	movw	r20, r24
    31a6:	24 19       	sub	r18, r4
    31a8:	35 09       	sbc	r19, r5
    31aa:	46 09       	sbc	r20, r6
    31ac:	57 09       	sbc	r21, r7
    31ae:	8a 89       	ldd	r24, Y+18	; 0x12
    31b0:	9b 89       	ldd	r25, Y+19	; 0x13
    31b2:	ac 89       	ldd	r26, Y+20	; 0x14
    31b4:	bd 89       	ldd	r27, Y+21	; 0x15
    31b6:	bc 01       	movw	r22, r24
    31b8:	cd 01       	movw	r24, r26
    31ba:	6a 19       	sub	r22, r10
    31bc:	7b 09       	sbc	r23, r11
    31be:	8c 09       	sbc	r24, r12
    31c0:	9d 09       	sbc	r25, r13
    31c2:	0e 94 c3 24 	call	0x4986	; 0x4986 <__mulsi3>
    31c6:	a8 01       	movw	r20, r16
    31c8:	97 01       	movw	r18, r14
    31ca:	24 19       	sub	r18, r4
    31cc:	35 09       	sbc	r19, r5
    31ce:	46 09       	sbc	r20, r6
    31d0:	57 09       	sbc	r21, r7
    31d2:	0e 94 f5 24 	call	0x49ea	; 0x49ea <__divmodsi4>
    31d6:	ca 01       	movw	r24, r20
    31d8:	b9 01       	movw	r22, r18
    31da:	6a 0d       	add	r22, r10
    31dc:	7b 1d       	adc	r23, r11
    31de:	8c 1d       	adc	r24, r12
    31e0:	9d 1d       	adc	r25, r13
    31e2:	df 91       	pop	r29
    31e4:	cf 91       	pop	r28
    31e6:	1f 91       	pop	r17
    31e8:	0f 91       	pop	r16
    31ea:	ff 90       	pop	r15
    31ec:	ef 90       	pop	r14
    31ee:	df 90       	pop	r13
    31f0:	cf 90       	pop	r12
    31f2:	bf 90       	pop	r11
    31f4:	af 90       	pop	r10
    31f6:	7f 90       	pop	r7
    31f8:	6f 90       	pop	r6
    31fa:	5f 90       	pop	r5
    31fc:	4f 90       	pop	r4
    31fe:	08 95       	ret

00003200 <_Z8makeWordj>:
    3200:	08 95       	ret

00003202 <_Z8makeWordhh>:
    3202:	70 e0       	ldi	r23, 0x00	; 0
    3204:	9b 01       	movw	r18, r22
    3206:	38 2b       	or	r19, r24
    3208:	c9 01       	movw	r24, r18
    320a:	08 95       	ret

0000320c <_ZN6StringD1Ev>:
    320c:	fc 01       	movw	r30, r24
    320e:	80 81       	ld	r24, Z
    3210:	91 81       	ldd	r25, Z+1	; 0x01
    3212:	0c 94 2a 28 	jmp	0x5054	; 0x5054 <free>

00003216 <_ZN6String10invalidateEv>:
    3216:	cf 93       	push	r28
    3218:	df 93       	push	r29
    321a:	ec 01       	movw	r28, r24
    321c:	88 81       	ld	r24, Y
    321e:	99 81       	ldd	r25, Y+1	; 0x01
    3220:	00 97       	sbiw	r24, 0x00	; 0
    3222:	11 f0       	breq	.+4      	; 0x3228 <_ZN6String10invalidateEv+0x12>
    3224:	0e 94 2a 28 	call	0x5054	; 0x5054 <free>
    3228:	19 82       	std	Y+1, r1	; 0x01
    322a:	18 82       	st	Y, r1
    322c:	1d 82       	std	Y+5, r1	; 0x05
    322e:	1c 82       	std	Y+4, r1	; 0x04
    3230:	1b 82       	std	Y+3, r1	; 0x03
    3232:	1a 82       	std	Y+2, r1	; 0x02
    3234:	df 91       	pop	r29
    3236:	cf 91       	pop	r28
    3238:	08 95       	ret

0000323a <_ZN6String12changeBufferEj>:
    323a:	0f 93       	push	r16
    323c:	1f 93       	push	r17
    323e:	cf 93       	push	r28
    3240:	df 93       	push	r29
    3242:	ec 01       	movw	r28, r24
    3244:	8b 01       	movw	r16, r22
    3246:	6f 5f       	subi	r22, 0xFF	; 255
    3248:	7f 4f       	sbci	r23, 0xFF	; 255
    324a:	88 81       	ld	r24, Y
    324c:	99 81       	ldd	r25, Y+1	; 0x01
    324e:	0e 94 55 29 	call	0x52aa	; 0x52aa <realloc>
    3252:	00 97       	sbiw	r24, 0x00	; 0
    3254:	31 f0       	breq	.+12     	; 0x3262 <_ZN6String12changeBufferEj+0x28>
    3256:	99 83       	std	Y+1, r25	; 0x01
    3258:	88 83       	st	Y, r24
    325a:	1b 83       	std	Y+3, r17	; 0x03
    325c:	0a 83       	std	Y+2, r16	; 0x02
    325e:	81 e0       	ldi	r24, 0x01	; 1
    3260:	01 c0       	rjmp	.+2      	; 0x3264 <_ZN6String12changeBufferEj+0x2a>
    3262:	80 e0       	ldi	r24, 0x00	; 0
    3264:	df 91       	pop	r29
    3266:	cf 91       	pop	r28
    3268:	1f 91       	pop	r17
    326a:	0f 91       	pop	r16
    326c:	08 95       	ret

0000326e <_ZN6String7reserveEj>:
    326e:	cf 93       	push	r28
    3270:	df 93       	push	r29
    3272:	ec 01       	movw	r28, r24
    3274:	88 81       	ld	r24, Y
    3276:	99 81       	ldd	r25, Y+1	; 0x01
    3278:	89 2b       	or	r24, r25
    327a:	29 f0       	breq	.+10     	; 0x3286 <_ZN6String7reserveEj+0x18>
    327c:	8a 81       	ldd	r24, Y+2	; 0x02
    327e:	9b 81       	ldd	r25, Y+3	; 0x03
    3280:	86 17       	cp	r24, r22
    3282:	97 07       	cpc	r25, r23
    3284:	60 f4       	brcc	.+24     	; 0x329e <_ZN6String7reserveEj+0x30>
    3286:	ce 01       	movw	r24, r28
    3288:	0e 94 1d 19 	call	0x323a	; 0x323a <_ZN6String12changeBufferEj>
    328c:	88 23       	and	r24, r24
    328e:	41 f0       	breq	.+16     	; 0x32a0 <_ZN6String7reserveEj+0x32>
    3290:	8c 81       	ldd	r24, Y+4	; 0x04
    3292:	9d 81       	ldd	r25, Y+5	; 0x05
    3294:	89 2b       	or	r24, r25
    3296:	19 f4       	brne	.+6      	; 0x329e <_ZN6String7reserveEj+0x30>
    3298:	e8 81       	ld	r30, Y
    329a:	f9 81       	ldd	r31, Y+1	; 0x01
    329c:	10 82       	st	Z, r1
    329e:	81 e0       	ldi	r24, 0x01	; 1
    32a0:	df 91       	pop	r29
    32a2:	cf 91       	pop	r28
    32a4:	08 95       	ret

000032a6 <_ZN6String4copyEPKcj>:
    32a6:	ef 92       	push	r14
    32a8:	ff 92       	push	r15
    32aa:	0f 93       	push	r16
    32ac:	1f 93       	push	r17
    32ae:	cf 93       	push	r28
    32b0:	df 93       	push	r29
    32b2:	ec 01       	movw	r28, r24
    32b4:	7b 01       	movw	r14, r22
    32b6:	8a 01       	movw	r16, r20
    32b8:	ba 01       	movw	r22, r20
    32ba:	0e 94 37 19 	call	0x326e	; 0x326e <_ZN6String7reserveEj>
    32be:	81 11       	cpse	r24, r1
    32c0:	04 c0       	rjmp	.+8      	; 0x32ca <_ZN6String4copyEPKcj+0x24>
    32c2:	ce 01       	movw	r24, r28
    32c4:	0e 94 0b 19 	call	0x3216	; 0x3216 <_ZN6String10invalidateEv>
    32c8:	07 c0       	rjmp	.+14     	; 0x32d8 <_ZN6String4copyEPKcj+0x32>
    32ca:	1d 83       	std	Y+5, r17	; 0x05
    32cc:	0c 83       	std	Y+4, r16	; 0x04
    32ce:	b7 01       	movw	r22, r14
    32d0:	88 81       	ld	r24, Y
    32d2:	99 81       	ldd	r25, Y+1	; 0x01
    32d4:	0e 94 cf 2a 	call	0x559e	; 0x559e <strcpy>
    32d8:	ce 01       	movw	r24, r28
    32da:	df 91       	pop	r29
    32dc:	cf 91       	pop	r28
    32de:	1f 91       	pop	r17
    32e0:	0f 91       	pop	r16
    32e2:	ff 90       	pop	r15
    32e4:	ef 90       	pop	r14
    32e6:	08 95       	ret

000032e8 <_ZN6StringC1EPKc>:
    32e8:	fc 01       	movw	r30, r24
    32ea:	11 82       	std	Z+1, r1	; 0x01
    32ec:	10 82       	st	Z, r1
    32ee:	13 82       	std	Z+3, r1	; 0x03
    32f0:	12 82       	std	Z+2, r1	; 0x02
    32f2:	15 82       	std	Z+5, r1	; 0x05
    32f4:	14 82       	std	Z+4, r1	; 0x04
    32f6:	61 15       	cp	r22, r1
    32f8:	71 05       	cpc	r23, r1
    32fa:	51 f0       	breq	.+20     	; 0x3310 <_ZN6StringC1EPKc+0x28>
    32fc:	fb 01       	movw	r30, r22
    32fe:	01 90       	ld	r0, Z+
    3300:	00 20       	and	r0, r0
    3302:	e9 f7       	brne	.-6      	; 0x32fe <_ZN6StringC1EPKc+0x16>
    3304:	31 97       	sbiw	r30, 0x01	; 1
    3306:	af 01       	movw	r20, r30
    3308:	46 1b       	sub	r20, r22
    330a:	57 0b       	sbc	r21, r23
    330c:	0c 94 53 19 	jmp	0x32a6	; 0x32a6 <_ZN6String4copyEPKcj>
    3310:	08 95       	ret

00003312 <_ZN6String4copyEPK19__FlashStringHelperj>:
    3312:	ef 92       	push	r14
    3314:	ff 92       	push	r15
    3316:	0f 93       	push	r16
    3318:	1f 93       	push	r17
    331a:	cf 93       	push	r28
    331c:	df 93       	push	r29
    331e:	ec 01       	movw	r28, r24
    3320:	7b 01       	movw	r14, r22
    3322:	8a 01       	movw	r16, r20
    3324:	ba 01       	movw	r22, r20
    3326:	0e 94 37 19 	call	0x326e	; 0x326e <_ZN6String7reserveEj>
    332a:	81 11       	cpse	r24, r1
    332c:	04 c0       	rjmp	.+8      	; 0x3336 <_ZN6String4copyEPK19__FlashStringHelperj+0x24>
    332e:	ce 01       	movw	r24, r28
    3330:	0e 94 0b 19 	call	0x3216	; 0x3216 <_ZN6String10invalidateEv>
    3334:	07 c0       	rjmp	.+14     	; 0x3344 <_ZN6String4copyEPK19__FlashStringHelperj+0x32>
    3336:	1d 83       	std	Y+5, r17	; 0x05
    3338:	0c 83       	std	Y+4, r16	; 0x04
    333a:	b7 01       	movw	r22, r14
    333c:	88 81       	ld	r24, Y
    333e:	99 81       	ldd	r25, Y+1	; 0x01
    3340:	0e 94 83 2a 	call	0x5506	; 0x5506 <strcpy_P>
    3344:	ce 01       	movw	r24, r28
    3346:	df 91       	pop	r29
    3348:	cf 91       	pop	r28
    334a:	1f 91       	pop	r17
    334c:	0f 91       	pop	r16
    334e:	ff 90       	pop	r15
    3350:	ef 90       	pop	r14
    3352:	08 95       	ret

00003354 <_ZN6StringaSERKS_>:
    3354:	cf 93       	push	r28
    3356:	df 93       	push	r29
    3358:	ec 01       	movw	r28, r24
    335a:	fb 01       	movw	r30, r22
    335c:	86 17       	cp	r24, r22
    335e:	97 07       	cpc	r25, r23
    3360:	61 f0       	breq	.+24     	; 0x337a <_ZN6StringaSERKS_+0x26>
    3362:	60 81       	ld	r22, Z
    3364:	71 81       	ldd	r23, Z+1	; 0x01
    3366:	61 15       	cp	r22, r1
    3368:	71 05       	cpc	r23, r1
    336a:	29 f0       	breq	.+10     	; 0x3376 <_ZN6StringaSERKS_+0x22>
    336c:	44 81       	ldd	r20, Z+4	; 0x04
    336e:	55 81       	ldd	r21, Z+5	; 0x05
    3370:	0e 94 53 19 	call	0x32a6	; 0x32a6 <_ZN6String4copyEPKcj>
    3374:	02 c0       	rjmp	.+4      	; 0x337a <_ZN6StringaSERKS_+0x26>
    3376:	0e 94 0b 19 	call	0x3216	; 0x3216 <_ZN6String10invalidateEv>
    337a:	ce 01       	movw	r24, r28
    337c:	df 91       	pop	r29
    337e:	cf 91       	pop	r28
    3380:	08 95       	ret

00003382 <_ZN6StringC1ERKS_>:
    3382:	fc 01       	movw	r30, r24
    3384:	11 82       	std	Z+1, r1	; 0x01
    3386:	10 82       	st	Z, r1
    3388:	13 82       	std	Z+3, r1	; 0x03
    338a:	12 82       	std	Z+2, r1	; 0x02
    338c:	15 82       	std	Z+5, r1	; 0x05
    338e:	14 82       	std	Z+4, r1	; 0x04
    3390:	0c 94 aa 19 	jmp	0x3354	; 0x3354 <_ZN6StringaSERKS_>

00003394 <_ZN6StringaSEPKc>:
    3394:	cf 93       	push	r28
    3396:	df 93       	push	r29
    3398:	ec 01       	movw	r28, r24
    339a:	61 15       	cp	r22, r1
    339c:	71 05       	cpc	r23, r1
    339e:	59 f0       	breq	.+22     	; 0x33b6 <_ZN6StringaSEPKc+0x22>
    33a0:	fb 01       	movw	r30, r22
    33a2:	01 90       	ld	r0, Z+
    33a4:	00 20       	and	r0, r0
    33a6:	e9 f7       	brne	.-6      	; 0x33a2 <_ZN6StringaSEPKc+0xe>
    33a8:	31 97       	sbiw	r30, 0x01	; 1
    33aa:	af 01       	movw	r20, r30
    33ac:	46 1b       	sub	r20, r22
    33ae:	57 0b       	sbc	r21, r23
    33b0:	0e 94 53 19 	call	0x32a6	; 0x32a6 <_ZN6String4copyEPKcj>
    33b4:	02 c0       	rjmp	.+4      	; 0x33ba <_ZN6StringaSEPKc+0x26>
    33b6:	0e 94 0b 19 	call	0x3216	; 0x3216 <_ZN6String10invalidateEv>
    33ba:	ce 01       	movw	r24, r28
    33bc:	df 91       	pop	r29
    33be:	cf 91       	pop	r28
    33c0:	08 95       	ret

000033c2 <_ZN6StringC1Ec>:
    33c2:	cf 93       	push	r28
    33c4:	df 93       	push	r29
    33c6:	1f 92       	push	r1
    33c8:	1f 92       	push	r1
    33ca:	cd b7       	in	r28, 0x3d	; 61
    33cc:	de b7       	in	r29, 0x3e	; 62
    33ce:	fc 01       	movw	r30, r24
    33d0:	11 82       	std	Z+1, r1	; 0x01
    33d2:	10 82       	st	Z, r1
    33d4:	13 82       	std	Z+3, r1	; 0x03
    33d6:	12 82       	std	Z+2, r1	; 0x02
    33d8:	15 82       	std	Z+5, r1	; 0x05
    33da:	14 82       	std	Z+4, r1	; 0x04
    33dc:	69 83       	std	Y+1, r22	; 0x01
    33de:	1a 82       	std	Y+2, r1	; 0x02
    33e0:	be 01       	movw	r22, r28
    33e2:	6f 5f       	subi	r22, 0xFF	; 255
    33e4:	7f 4f       	sbci	r23, 0xFF	; 255
    33e6:	0e 94 ca 19 	call	0x3394	; 0x3394 <_ZN6StringaSEPKc>
    33ea:	0f 90       	pop	r0
    33ec:	0f 90       	pop	r0
    33ee:	df 91       	pop	r29
    33f0:	cf 91       	pop	r28
    33f2:	08 95       	ret

000033f4 <_ZN6StringC1Ehh>:
    33f4:	0f 93       	push	r16
    33f6:	1f 93       	push	r17
    33f8:	cf 93       	push	r28
    33fa:	df 93       	push	r29
    33fc:	cd b7       	in	r28, 0x3d	; 61
    33fe:	de b7       	in	r29, 0x3e	; 62
    3400:	29 97       	sbiw	r28, 0x09	; 9
    3402:	0f b6       	in	r0, 0x3f	; 63
    3404:	f8 94       	cli
    3406:	de bf       	out	0x3e, r29	; 62
    3408:	0f be       	out	0x3f, r0	; 63
    340a:	cd bf       	out	0x3d, r28	; 61
    340c:	8c 01       	movw	r16, r24
    340e:	86 2f       	mov	r24, r22
    3410:	f8 01       	movw	r30, r16
    3412:	11 82       	std	Z+1, r1	; 0x01
    3414:	10 82       	st	Z, r1
    3416:	13 82       	std	Z+3, r1	; 0x03
    3418:	12 82       	std	Z+2, r1	; 0x02
    341a:	15 82       	std	Z+5, r1	; 0x05
    341c:	14 82       	std	Z+4, r1	; 0x04
    341e:	50 e0       	ldi	r21, 0x00	; 0
    3420:	be 01       	movw	r22, r28
    3422:	6f 5f       	subi	r22, 0xFF	; 255
    3424:	7f 4f       	sbci	r23, 0xFF	; 255
    3426:	90 e0       	ldi	r25, 0x00	; 0
    3428:	0e 94 8a 2b 	call	0x5714	; 0x5714 <utoa>
    342c:	be 01       	movw	r22, r28
    342e:	6f 5f       	subi	r22, 0xFF	; 255
    3430:	7f 4f       	sbci	r23, 0xFF	; 255
    3432:	c8 01       	movw	r24, r16
    3434:	0e 94 ca 19 	call	0x3394	; 0x3394 <_ZN6StringaSEPKc>
    3438:	29 96       	adiw	r28, 0x09	; 9
    343a:	0f b6       	in	r0, 0x3f	; 63
    343c:	f8 94       	cli
    343e:	de bf       	out	0x3e, r29	; 62
    3440:	0f be       	out	0x3f, r0	; 63
    3442:	cd bf       	out	0x3d, r28	; 61
    3444:	df 91       	pop	r29
    3446:	cf 91       	pop	r28
    3448:	1f 91       	pop	r17
    344a:	0f 91       	pop	r16
    344c:	08 95       	ret

0000344e <_ZN6StringC1Eih>:
    344e:	0f 93       	push	r16
    3450:	1f 93       	push	r17
    3452:	cf 93       	push	r28
    3454:	df 93       	push	r29
    3456:	cd b7       	in	r28, 0x3d	; 61
    3458:	de b7       	in	r29, 0x3e	; 62
    345a:	62 97       	sbiw	r28, 0x12	; 18
    345c:	0f b6       	in	r0, 0x3f	; 63
    345e:	f8 94       	cli
    3460:	de bf       	out	0x3e, r29	; 62
    3462:	0f be       	out	0x3f, r0	; 63
    3464:	cd bf       	out	0x3d, r28	; 61
    3466:	8c 01       	movw	r16, r24
    3468:	cb 01       	movw	r24, r22
    346a:	f8 01       	movw	r30, r16
    346c:	11 82       	std	Z+1, r1	; 0x01
    346e:	10 82       	st	Z, r1
    3470:	13 82       	std	Z+3, r1	; 0x03
    3472:	12 82       	std	Z+2, r1	; 0x02
    3474:	15 82       	std	Z+5, r1	; 0x05
    3476:	14 82       	std	Z+4, r1	; 0x04
    3478:	50 e0       	ldi	r21, 0x00	; 0
    347a:	be 01       	movw	r22, r28
    347c:	6f 5f       	subi	r22, 0xFF	; 255
    347e:	7f 4f       	sbci	r23, 0xFF	; 255
    3480:	0e 94 18 2b 	call	0x5630	; 0x5630 <itoa>
    3484:	be 01       	movw	r22, r28
    3486:	6f 5f       	subi	r22, 0xFF	; 255
    3488:	7f 4f       	sbci	r23, 0xFF	; 255
    348a:	c8 01       	movw	r24, r16
    348c:	0e 94 ca 19 	call	0x3394	; 0x3394 <_ZN6StringaSEPKc>
    3490:	62 96       	adiw	r28, 0x12	; 18
    3492:	0f b6       	in	r0, 0x3f	; 63
    3494:	f8 94       	cli
    3496:	de bf       	out	0x3e, r29	; 62
    3498:	0f be       	out	0x3f, r0	; 63
    349a:	cd bf       	out	0x3d, r28	; 61
    349c:	df 91       	pop	r29
    349e:	cf 91       	pop	r28
    34a0:	1f 91       	pop	r17
    34a2:	0f 91       	pop	r16
    34a4:	08 95       	ret

000034a6 <_ZN6StringC1Ejh>:
    34a6:	0f 93       	push	r16
    34a8:	1f 93       	push	r17
    34aa:	cf 93       	push	r28
    34ac:	df 93       	push	r29
    34ae:	cd b7       	in	r28, 0x3d	; 61
    34b0:	de b7       	in	r29, 0x3e	; 62
    34b2:	61 97       	sbiw	r28, 0x11	; 17
    34b4:	0f b6       	in	r0, 0x3f	; 63
    34b6:	f8 94       	cli
    34b8:	de bf       	out	0x3e, r29	; 62
    34ba:	0f be       	out	0x3f, r0	; 63
    34bc:	cd bf       	out	0x3d, r28	; 61
    34be:	8c 01       	movw	r16, r24
    34c0:	cb 01       	movw	r24, r22
    34c2:	f8 01       	movw	r30, r16
    34c4:	11 82       	std	Z+1, r1	; 0x01
    34c6:	10 82       	st	Z, r1
    34c8:	13 82       	std	Z+3, r1	; 0x03
    34ca:	12 82       	std	Z+2, r1	; 0x02
    34cc:	15 82       	std	Z+5, r1	; 0x05
    34ce:	14 82       	std	Z+4, r1	; 0x04
    34d0:	50 e0       	ldi	r21, 0x00	; 0
    34d2:	be 01       	movw	r22, r28
    34d4:	6f 5f       	subi	r22, 0xFF	; 255
    34d6:	7f 4f       	sbci	r23, 0xFF	; 255
    34d8:	0e 94 8a 2b 	call	0x5714	; 0x5714 <utoa>
    34dc:	be 01       	movw	r22, r28
    34de:	6f 5f       	subi	r22, 0xFF	; 255
    34e0:	7f 4f       	sbci	r23, 0xFF	; 255
    34e2:	c8 01       	movw	r24, r16
    34e4:	0e 94 ca 19 	call	0x3394	; 0x3394 <_ZN6StringaSEPKc>
    34e8:	61 96       	adiw	r28, 0x11	; 17
    34ea:	0f b6       	in	r0, 0x3f	; 63
    34ec:	f8 94       	cli
    34ee:	de bf       	out	0x3e, r29	; 62
    34f0:	0f be       	out	0x3f, r0	; 63
    34f2:	cd bf       	out	0x3d, r28	; 61
    34f4:	df 91       	pop	r29
    34f6:	cf 91       	pop	r28
    34f8:	1f 91       	pop	r17
    34fa:	0f 91       	pop	r16
    34fc:	08 95       	ret

000034fe <_ZN6StringC1Elh>:
    34fe:	0f 93       	push	r16
    3500:	1f 93       	push	r17
    3502:	cf 93       	push	r28
    3504:	df 93       	push	r29
    3506:	cd b7       	in	r28, 0x3d	; 61
    3508:	de b7       	in	r29, 0x3e	; 62
    350a:	a2 97       	sbiw	r28, 0x22	; 34
    350c:	0f b6       	in	r0, 0x3f	; 63
    350e:	f8 94       	cli
    3510:	de bf       	out	0x3e, r29	; 62
    3512:	0f be       	out	0x3f, r0	; 63
    3514:	cd bf       	out	0x3d, r28	; 61
    3516:	8c 01       	movw	r16, r24
    3518:	cb 01       	movw	r24, r22
    351a:	ba 01       	movw	r22, r20
    351c:	f8 01       	movw	r30, r16
    351e:	11 82       	std	Z+1, r1	; 0x01
    3520:	10 82       	st	Z, r1
    3522:	13 82       	std	Z+3, r1	; 0x03
    3524:	12 82       	std	Z+2, r1	; 0x02
    3526:	15 82       	std	Z+5, r1	; 0x05
    3528:	14 82       	std	Z+4, r1	; 0x04
    352a:	30 e0       	ldi	r19, 0x00	; 0
    352c:	ae 01       	movw	r20, r28
    352e:	4f 5f       	subi	r20, 0xFF	; 255
    3530:	5f 4f       	sbci	r21, 0xFF	; 255
    3532:	0e 94 2e 2b 	call	0x565c	; 0x565c <ltoa>
    3536:	be 01       	movw	r22, r28
    3538:	6f 5f       	subi	r22, 0xFF	; 255
    353a:	7f 4f       	sbci	r23, 0xFF	; 255
    353c:	c8 01       	movw	r24, r16
    353e:	0e 94 ca 19 	call	0x3394	; 0x3394 <_ZN6StringaSEPKc>
    3542:	a2 96       	adiw	r28, 0x22	; 34
    3544:	0f b6       	in	r0, 0x3f	; 63
    3546:	f8 94       	cli
    3548:	de bf       	out	0x3e, r29	; 62
    354a:	0f be       	out	0x3f, r0	; 63
    354c:	cd bf       	out	0x3d, r28	; 61
    354e:	df 91       	pop	r29
    3550:	cf 91       	pop	r28
    3552:	1f 91       	pop	r17
    3554:	0f 91       	pop	r16
    3556:	08 95       	ret

00003558 <_ZN6StringC1Emh>:
    3558:	0f 93       	push	r16
    355a:	1f 93       	push	r17
    355c:	cf 93       	push	r28
    355e:	df 93       	push	r29
    3560:	cd b7       	in	r28, 0x3d	; 61
    3562:	de b7       	in	r29, 0x3e	; 62
    3564:	a1 97       	sbiw	r28, 0x21	; 33
    3566:	0f b6       	in	r0, 0x3f	; 63
    3568:	f8 94       	cli
    356a:	de bf       	out	0x3e, r29	; 62
    356c:	0f be       	out	0x3f, r0	; 63
    356e:	cd bf       	out	0x3d, r28	; 61
    3570:	8c 01       	movw	r16, r24
    3572:	cb 01       	movw	r24, r22
    3574:	ba 01       	movw	r22, r20
    3576:	f8 01       	movw	r30, r16
    3578:	11 82       	std	Z+1, r1	; 0x01
    357a:	10 82       	st	Z, r1
    357c:	13 82       	std	Z+3, r1	; 0x03
    357e:	12 82       	std	Z+2, r1	; 0x02
    3580:	15 82       	std	Z+5, r1	; 0x05
    3582:	14 82       	std	Z+4, r1	; 0x04
    3584:	30 e0       	ldi	r19, 0x00	; 0
    3586:	ae 01       	movw	r20, r28
    3588:	4f 5f       	subi	r20, 0xFF	; 255
    358a:	5f 4f       	sbci	r21, 0xFF	; 255
    358c:	0e 94 5d 2b 	call	0x56ba	; 0x56ba <ultoa>
    3590:	be 01       	movw	r22, r28
    3592:	6f 5f       	subi	r22, 0xFF	; 255
    3594:	7f 4f       	sbci	r23, 0xFF	; 255
    3596:	c8 01       	movw	r24, r16
    3598:	0e 94 ca 19 	call	0x3394	; 0x3394 <_ZN6StringaSEPKc>
    359c:	a1 96       	adiw	r28, 0x21	; 33
    359e:	0f b6       	in	r0, 0x3f	; 63
    35a0:	f8 94       	cli
    35a2:	de bf       	out	0x3e, r29	; 62
    35a4:	0f be       	out	0x3f, r0	; 63
    35a6:	cd bf       	out	0x3d, r28	; 61
    35a8:	df 91       	pop	r29
    35aa:	cf 91       	pop	r28
    35ac:	1f 91       	pop	r17
    35ae:	0f 91       	pop	r16
    35b0:	08 95       	ret

000035b2 <_ZN6StringC1Efh>:
    35b2:	ef 92       	push	r14
    35b4:	ff 92       	push	r15
    35b6:	0f 93       	push	r16
    35b8:	1f 93       	push	r17
    35ba:	cf 93       	push	r28
    35bc:	df 93       	push	r29
    35be:	cd b7       	in	r28, 0x3d	; 61
    35c0:	de b7       	in	r29, 0x3e	; 62
    35c2:	a1 97       	sbiw	r28, 0x21	; 33
    35c4:	0f b6       	in	r0, 0x3f	; 63
    35c6:	f8 94       	cli
    35c8:	de bf       	out	0x3e, r29	; 62
    35ca:	0f be       	out	0x3f, r0	; 63
    35cc:	cd bf       	out	0x3d, r28	; 61
    35ce:	7c 01       	movw	r14, r24
    35d0:	cb 01       	movw	r24, r22
    35d2:	ba 01       	movw	r22, r20
    35d4:	f7 01       	movw	r30, r14
    35d6:	11 82       	std	Z+1, r1	; 0x01
    35d8:	10 82       	st	Z, r1
    35da:	13 82       	std	Z+3, r1	; 0x03
    35dc:	12 82       	std	Z+2, r1	; 0x02
    35de:	15 82       	std	Z+5, r1	; 0x05
    35e0:	14 82       	std	Z+4, r1	; 0x04
    35e2:	42 e0       	ldi	r20, 0x02	; 2
    35e4:	42 0f       	add	r20, r18
    35e6:	8e 01       	movw	r16, r28
    35e8:	0f 5f       	subi	r16, 0xFF	; 255
    35ea:	1f 4f       	sbci	r17, 0xFF	; 255
    35ec:	0e 94 72 27 	call	0x4ee4	; 0x4ee4 <dtostrf>
    35f0:	bc 01       	movw	r22, r24
    35f2:	c7 01       	movw	r24, r14
    35f4:	0e 94 ca 19 	call	0x3394	; 0x3394 <_ZN6StringaSEPKc>
    35f8:	a1 96       	adiw	r28, 0x21	; 33
    35fa:	0f b6       	in	r0, 0x3f	; 63
    35fc:	f8 94       	cli
    35fe:	de bf       	out	0x3e, r29	; 62
    3600:	0f be       	out	0x3f, r0	; 63
    3602:	cd bf       	out	0x3d, r28	; 61
    3604:	df 91       	pop	r29
    3606:	cf 91       	pop	r28
    3608:	1f 91       	pop	r17
    360a:	0f 91       	pop	r16
    360c:	ff 90       	pop	r15
    360e:	ef 90       	pop	r14
    3610:	08 95       	ret

00003612 <_ZN6StringC1Edh>:
    3612:	ef 92       	push	r14
    3614:	ff 92       	push	r15
    3616:	0f 93       	push	r16
    3618:	1f 93       	push	r17
    361a:	cf 93       	push	r28
    361c:	df 93       	push	r29
    361e:	cd b7       	in	r28, 0x3d	; 61
    3620:	de b7       	in	r29, 0x3e	; 62
    3622:	a1 97       	sbiw	r28, 0x21	; 33
    3624:	0f b6       	in	r0, 0x3f	; 63
    3626:	f8 94       	cli
    3628:	de bf       	out	0x3e, r29	; 62
    362a:	0f be       	out	0x3f, r0	; 63
    362c:	cd bf       	out	0x3d, r28	; 61
    362e:	7c 01       	movw	r14, r24
    3630:	cb 01       	movw	r24, r22
    3632:	ba 01       	movw	r22, r20
    3634:	f7 01       	movw	r30, r14
    3636:	11 82       	std	Z+1, r1	; 0x01
    3638:	10 82       	st	Z, r1
    363a:	13 82       	std	Z+3, r1	; 0x03
    363c:	12 82       	std	Z+2, r1	; 0x02
    363e:	15 82       	std	Z+5, r1	; 0x05
    3640:	14 82       	std	Z+4, r1	; 0x04
    3642:	42 e0       	ldi	r20, 0x02	; 2
    3644:	42 0f       	add	r20, r18
    3646:	8e 01       	movw	r16, r28
    3648:	0f 5f       	subi	r16, 0xFF	; 255
    364a:	1f 4f       	sbci	r17, 0xFF	; 255
    364c:	0e 94 72 27 	call	0x4ee4	; 0x4ee4 <dtostrf>
    3650:	bc 01       	movw	r22, r24
    3652:	c7 01       	movw	r24, r14
    3654:	0e 94 ca 19 	call	0x3394	; 0x3394 <_ZN6StringaSEPKc>
    3658:	a1 96       	adiw	r28, 0x21	; 33
    365a:	0f b6       	in	r0, 0x3f	; 63
    365c:	f8 94       	cli
    365e:	de bf       	out	0x3e, r29	; 62
    3660:	0f be       	out	0x3f, r0	; 63
    3662:	cd bf       	out	0x3d, r28	; 61
    3664:	df 91       	pop	r29
    3666:	cf 91       	pop	r28
    3668:	1f 91       	pop	r17
    366a:	0f 91       	pop	r16
    366c:	ff 90       	pop	r15
    366e:	ef 90       	pop	r14
    3670:	08 95       	ret

00003672 <_ZN6StringaSEPK19__FlashStringHelper>:
    3672:	0f 93       	push	r16
    3674:	1f 93       	push	r17
    3676:	cf 93       	push	r28
    3678:	df 93       	push	r29
    367a:	ec 01       	movw	r28, r24
    367c:	8b 01       	movw	r16, r22
    367e:	61 15       	cp	r22, r1
    3680:	71 05       	cpc	r23, r1
    3682:	49 f0       	breq	.+18     	; 0x3696 <_ZN6StringaSEPK19__FlashStringHelper+0x24>
    3684:	cb 01       	movw	r24, r22
    3686:	0e 94 8a 2a 	call	0x5514	; 0x5514 <__strlen_P>
    368a:	ac 01       	movw	r20, r24
    368c:	b8 01       	movw	r22, r16
    368e:	ce 01       	movw	r24, r28
    3690:	0e 94 89 19 	call	0x3312	; 0x3312 <_ZN6String4copyEPK19__FlashStringHelperj>
    3694:	02 c0       	rjmp	.+4      	; 0x369a <_ZN6StringaSEPK19__FlashStringHelper+0x28>
    3696:	0e 94 0b 19 	call	0x3216	; 0x3216 <_ZN6String10invalidateEv>
    369a:	ce 01       	movw	r24, r28
    369c:	df 91       	pop	r29
    369e:	cf 91       	pop	r28
    36a0:	1f 91       	pop	r17
    36a2:	0f 91       	pop	r16
    36a4:	08 95       	ret

000036a6 <_ZN6StringC1EPK19__FlashStringHelper>:
    36a6:	fc 01       	movw	r30, r24
    36a8:	11 82       	std	Z+1, r1	; 0x01
    36aa:	10 82       	st	Z, r1
    36ac:	13 82       	std	Z+3, r1	; 0x03
    36ae:	12 82       	std	Z+2, r1	; 0x02
    36b0:	15 82       	std	Z+5, r1	; 0x05
    36b2:	14 82       	std	Z+4, r1	; 0x04
    36b4:	0c 94 39 1b 	jmp	0x3672	; 0x3672 <_ZN6StringaSEPK19__FlashStringHelper>

000036b8 <_ZN6String6concatEPKcj>:
    36b8:	ef 92       	push	r14
    36ba:	ff 92       	push	r15
    36bc:	0f 93       	push	r16
    36be:	1f 93       	push	r17
    36c0:	cf 93       	push	r28
    36c2:	df 93       	push	r29
    36c4:	61 15       	cp	r22, r1
    36c6:	71 05       	cpc	r23, r1
    36c8:	11 f4       	brne	.+4      	; 0x36ce <_ZN6String6concatEPKcj+0x16>
    36ca:	80 e0       	ldi	r24, 0x00	; 0
    36cc:	1c c0       	rjmp	.+56     	; 0x3706 <_ZN6String6concatEPKcj+0x4e>
    36ce:	41 15       	cp	r20, r1
    36d0:	51 05       	cpc	r21, r1
    36d2:	c1 f0       	breq	.+48     	; 0x3704 <_ZN6String6concatEPKcj+0x4c>
    36d4:	7b 01       	movw	r14, r22
    36d6:	ec 01       	movw	r28, r24
    36d8:	8c 81       	ldd	r24, Y+4	; 0x04
    36da:	9d 81       	ldd	r25, Y+5	; 0x05
    36dc:	8a 01       	movw	r16, r20
    36de:	08 0f       	add	r16, r24
    36e0:	19 1f       	adc	r17, r25
    36e2:	b8 01       	movw	r22, r16
    36e4:	ce 01       	movw	r24, r28
    36e6:	0e 94 37 19 	call	0x326e	; 0x326e <_ZN6String7reserveEj>
    36ea:	88 23       	and	r24, r24
    36ec:	71 f3       	breq	.-36     	; 0x36ca <_ZN6String6concatEPKcj+0x12>
    36ee:	28 81       	ld	r18, Y
    36f0:	39 81       	ldd	r19, Y+1	; 0x01
    36f2:	8c 81       	ldd	r24, Y+4	; 0x04
    36f4:	9d 81       	ldd	r25, Y+5	; 0x05
    36f6:	b7 01       	movw	r22, r14
    36f8:	82 0f       	add	r24, r18
    36fa:	93 1f       	adc	r25, r19
    36fc:	0e 94 cf 2a 	call	0x559e	; 0x559e <strcpy>
    3700:	1d 83       	std	Y+5, r17	; 0x05
    3702:	0c 83       	std	Y+4, r16	; 0x04
    3704:	81 e0       	ldi	r24, 0x01	; 1
    3706:	df 91       	pop	r29
    3708:	cf 91       	pop	r28
    370a:	1f 91       	pop	r17
    370c:	0f 91       	pop	r16
    370e:	ff 90       	pop	r15
    3710:	ef 90       	pop	r14
    3712:	08 95       	ret

00003714 <_ZN6String6concatERKS_>:
    3714:	fb 01       	movw	r30, r22
    3716:	44 81       	ldd	r20, Z+4	; 0x04
    3718:	55 81       	ldd	r21, Z+5	; 0x05
    371a:	60 81       	ld	r22, Z
    371c:	71 81       	ldd	r23, Z+1	; 0x01
    371e:	0c 94 5c 1b 	jmp	0x36b8	; 0x36b8 <_ZN6String6concatEPKcj>

00003722 <_ZN6String6concatEPKc>:
    3722:	61 15       	cp	r22, r1
    3724:	71 05       	cpc	r23, r1
    3726:	51 f0       	breq	.+20     	; 0x373c <_ZN6String6concatEPKc+0x1a>
    3728:	fb 01       	movw	r30, r22
    372a:	01 90       	ld	r0, Z+
    372c:	00 20       	and	r0, r0
    372e:	e9 f7       	brne	.-6      	; 0x372a <_ZN6String6concatEPKc+0x8>
    3730:	31 97       	sbiw	r30, 0x01	; 1
    3732:	af 01       	movw	r20, r30
    3734:	46 1b       	sub	r20, r22
    3736:	57 0b       	sbc	r21, r23
    3738:	0c 94 5c 1b 	jmp	0x36b8	; 0x36b8 <_ZN6String6concatEPKcj>
    373c:	80 e0       	ldi	r24, 0x00	; 0
    373e:	08 95       	ret

00003740 <_ZN6String6concatEc>:
    3740:	cf 93       	push	r28
    3742:	df 93       	push	r29
    3744:	1f 92       	push	r1
    3746:	1f 92       	push	r1
    3748:	cd b7       	in	r28, 0x3d	; 61
    374a:	de b7       	in	r29, 0x3e	; 62
    374c:	69 83       	std	Y+1, r22	; 0x01
    374e:	1a 82       	std	Y+2, r1	; 0x02
    3750:	41 e0       	ldi	r20, 0x01	; 1
    3752:	50 e0       	ldi	r21, 0x00	; 0
    3754:	be 01       	movw	r22, r28
    3756:	6f 5f       	subi	r22, 0xFF	; 255
    3758:	7f 4f       	sbci	r23, 0xFF	; 255
    375a:	0e 94 5c 1b 	call	0x36b8	; 0x36b8 <_ZN6String6concatEPKcj>
    375e:	0f 90       	pop	r0
    3760:	0f 90       	pop	r0
    3762:	df 91       	pop	r29
    3764:	cf 91       	pop	r28
    3766:	08 95       	ret

00003768 <_ZN6String6concatEh>:
    3768:	ef 92       	push	r14
    376a:	ff 92       	push	r15
    376c:	0f 93       	push	r16
    376e:	1f 93       	push	r17
    3770:	cf 93       	push	r28
    3772:	df 93       	push	r29
    3774:	00 d0       	rcall	.+0      	; 0x3776 <_ZN6String6concatEh+0xe>
    3776:	1f 92       	push	r1
    3778:	cd b7       	in	r28, 0x3d	; 61
    377a:	de b7       	in	r29, 0x3e	; 62
    377c:	7c 01       	movw	r14, r24
    377e:	86 2f       	mov	r24, r22
    3780:	4a e0       	ldi	r20, 0x0A	; 10
    3782:	50 e0       	ldi	r21, 0x00	; 0
    3784:	8e 01       	movw	r16, r28
    3786:	0f 5f       	subi	r16, 0xFF	; 255
    3788:	1f 4f       	sbci	r17, 0xFF	; 255
    378a:	b8 01       	movw	r22, r16
    378c:	90 e0       	ldi	r25, 0x00	; 0
    378e:	0e 94 18 2b 	call	0x5630	; 0x5630 <itoa>
    3792:	f8 01       	movw	r30, r16
    3794:	01 90       	ld	r0, Z+
    3796:	00 20       	and	r0, r0
    3798:	e9 f7       	brne	.-6      	; 0x3794 <_ZN6String6concatEh+0x2c>
    379a:	31 97       	sbiw	r30, 0x01	; 1
    379c:	af 01       	movw	r20, r30
    379e:	40 1b       	sub	r20, r16
    37a0:	51 0b       	sbc	r21, r17
    37a2:	b8 01       	movw	r22, r16
    37a4:	c7 01       	movw	r24, r14
    37a6:	0e 94 5c 1b 	call	0x36b8	; 0x36b8 <_ZN6String6concatEPKcj>
    37aa:	0f 90       	pop	r0
    37ac:	0f 90       	pop	r0
    37ae:	0f 90       	pop	r0
    37b0:	0f 90       	pop	r0
    37b2:	df 91       	pop	r29
    37b4:	cf 91       	pop	r28
    37b6:	1f 91       	pop	r17
    37b8:	0f 91       	pop	r16
    37ba:	ff 90       	pop	r15
    37bc:	ef 90       	pop	r14
    37be:	08 95       	ret

000037c0 <_ZN6String6concatEi>:
    37c0:	ef 92       	push	r14
    37c2:	ff 92       	push	r15
    37c4:	0f 93       	push	r16
    37c6:	1f 93       	push	r17
    37c8:	cf 93       	push	r28
    37ca:	df 93       	push	r29
    37cc:	cd b7       	in	r28, 0x3d	; 61
    37ce:	de b7       	in	r29, 0x3e	; 62
    37d0:	28 97       	sbiw	r28, 0x08	; 8
    37d2:	0f b6       	in	r0, 0x3f	; 63
    37d4:	f8 94       	cli
    37d6:	de bf       	out	0x3e, r29	; 62
    37d8:	0f be       	out	0x3f, r0	; 63
    37da:	cd bf       	out	0x3d, r28	; 61
    37dc:	7c 01       	movw	r14, r24
    37de:	cb 01       	movw	r24, r22
    37e0:	4a e0       	ldi	r20, 0x0A	; 10
    37e2:	50 e0       	ldi	r21, 0x00	; 0
    37e4:	8e 01       	movw	r16, r28
    37e6:	0f 5f       	subi	r16, 0xFF	; 255
    37e8:	1f 4f       	sbci	r17, 0xFF	; 255
    37ea:	b8 01       	movw	r22, r16
    37ec:	0e 94 18 2b 	call	0x5630	; 0x5630 <itoa>
    37f0:	f8 01       	movw	r30, r16
    37f2:	01 90       	ld	r0, Z+
    37f4:	00 20       	and	r0, r0
    37f6:	e9 f7       	brne	.-6      	; 0x37f2 <_ZN6String6concatEi+0x32>
    37f8:	31 97       	sbiw	r30, 0x01	; 1
    37fa:	af 01       	movw	r20, r30
    37fc:	40 1b       	sub	r20, r16
    37fe:	51 0b       	sbc	r21, r17
    3800:	b8 01       	movw	r22, r16
    3802:	c7 01       	movw	r24, r14
    3804:	0e 94 5c 1b 	call	0x36b8	; 0x36b8 <_ZN6String6concatEPKcj>
    3808:	28 96       	adiw	r28, 0x08	; 8
    380a:	0f b6       	in	r0, 0x3f	; 63
    380c:	f8 94       	cli
    380e:	de bf       	out	0x3e, r29	; 62
    3810:	0f be       	out	0x3f, r0	; 63
    3812:	cd bf       	out	0x3d, r28	; 61
    3814:	df 91       	pop	r29
    3816:	cf 91       	pop	r28
    3818:	1f 91       	pop	r17
    381a:	0f 91       	pop	r16
    381c:	ff 90       	pop	r15
    381e:	ef 90       	pop	r14
    3820:	08 95       	ret

00003822 <_ZN6String6concatEj>:
    3822:	ef 92       	push	r14
    3824:	ff 92       	push	r15
    3826:	0f 93       	push	r16
    3828:	1f 93       	push	r17
    382a:	cf 93       	push	r28
    382c:	df 93       	push	r29
    382e:	cd b7       	in	r28, 0x3d	; 61
    3830:	de b7       	in	r29, 0x3e	; 62
    3832:	27 97       	sbiw	r28, 0x07	; 7
    3834:	0f b6       	in	r0, 0x3f	; 63
    3836:	f8 94       	cli
    3838:	de bf       	out	0x3e, r29	; 62
    383a:	0f be       	out	0x3f, r0	; 63
    383c:	cd bf       	out	0x3d, r28	; 61
    383e:	7c 01       	movw	r14, r24
    3840:	cb 01       	movw	r24, r22
    3842:	4a e0       	ldi	r20, 0x0A	; 10
    3844:	50 e0       	ldi	r21, 0x00	; 0
    3846:	8e 01       	movw	r16, r28
    3848:	0f 5f       	subi	r16, 0xFF	; 255
    384a:	1f 4f       	sbci	r17, 0xFF	; 255
    384c:	b8 01       	movw	r22, r16
    384e:	0e 94 8a 2b 	call	0x5714	; 0x5714 <utoa>
    3852:	f8 01       	movw	r30, r16
    3854:	01 90       	ld	r0, Z+
    3856:	00 20       	and	r0, r0
    3858:	e9 f7       	brne	.-6      	; 0x3854 <_ZN6String6concatEj+0x32>
    385a:	31 97       	sbiw	r30, 0x01	; 1
    385c:	af 01       	movw	r20, r30
    385e:	40 1b       	sub	r20, r16
    3860:	51 0b       	sbc	r21, r17
    3862:	b8 01       	movw	r22, r16
    3864:	c7 01       	movw	r24, r14
    3866:	0e 94 5c 1b 	call	0x36b8	; 0x36b8 <_ZN6String6concatEPKcj>
    386a:	27 96       	adiw	r28, 0x07	; 7
    386c:	0f b6       	in	r0, 0x3f	; 63
    386e:	f8 94       	cli
    3870:	de bf       	out	0x3e, r29	; 62
    3872:	0f be       	out	0x3f, r0	; 63
    3874:	cd bf       	out	0x3d, r28	; 61
    3876:	df 91       	pop	r29
    3878:	cf 91       	pop	r28
    387a:	1f 91       	pop	r17
    387c:	0f 91       	pop	r16
    387e:	ff 90       	pop	r15
    3880:	ef 90       	pop	r14
    3882:	08 95       	ret

00003884 <_ZN6String6concatEl>:
    3884:	ef 92       	push	r14
    3886:	ff 92       	push	r15
    3888:	0f 93       	push	r16
    388a:	1f 93       	push	r17
    388c:	cf 93       	push	r28
    388e:	df 93       	push	r29
    3890:	cd b7       	in	r28, 0x3d	; 61
    3892:	de b7       	in	r29, 0x3e	; 62
    3894:	2e 97       	sbiw	r28, 0x0e	; 14
    3896:	0f b6       	in	r0, 0x3f	; 63
    3898:	f8 94       	cli
    389a:	de bf       	out	0x3e, r29	; 62
    389c:	0f be       	out	0x3f, r0	; 63
    389e:	cd bf       	out	0x3d, r28	; 61
    38a0:	7c 01       	movw	r14, r24
    38a2:	cb 01       	movw	r24, r22
    38a4:	ba 01       	movw	r22, r20
    38a6:	2a e0       	ldi	r18, 0x0A	; 10
    38a8:	30 e0       	ldi	r19, 0x00	; 0
    38aa:	8e 01       	movw	r16, r28
    38ac:	0f 5f       	subi	r16, 0xFF	; 255
    38ae:	1f 4f       	sbci	r17, 0xFF	; 255
    38b0:	a8 01       	movw	r20, r16
    38b2:	0e 94 2e 2b 	call	0x565c	; 0x565c <ltoa>
    38b6:	f8 01       	movw	r30, r16
    38b8:	01 90       	ld	r0, Z+
    38ba:	00 20       	and	r0, r0
    38bc:	e9 f7       	brne	.-6      	; 0x38b8 <_ZN6String6concatEl+0x34>
    38be:	31 97       	sbiw	r30, 0x01	; 1
    38c0:	af 01       	movw	r20, r30
    38c2:	40 1b       	sub	r20, r16
    38c4:	51 0b       	sbc	r21, r17
    38c6:	b8 01       	movw	r22, r16
    38c8:	c7 01       	movw	r24, r14
    38ca:	0e 94 5c 1b 	call	0x36b8	; 0x36b8 <_ZN6String6concatEPKcj>
    38ce:	2e 96       	adiw	r28, 0x0e	; 14
    38d0:	0f b6       	in	r0, 0x3f	; 63
    38d2:	f8 94       	cli
    38d4:	de bf       	out	0x3e, r29	; 62
    38d6:	0f be       	out	0x3f, r0	; 63
    38d8:	cd bf       	out	0x3d, r28	; 61
    38da:	df 91       	pop	r29
    38dc:	cf 91       	pop	r28
    38de:	1f 91       	pop	r17
    38e0:	0f 91       	pop	r16
    38e2:	ff 90       	pop	r15
    38e4:	ef 90       	pop	r14
    38e6:	08 95       	ret

000038e8 <_ZN6String6concatEm>:
    38e8:	ef 92       	push	r14
    38ea:	ff 92       	push	r15
    38ec:	0f 93       	push	r16
    38ee:	1f 93       	push	r17
    38f0:	cf 93       	push	r28
    38f2:	df 93       	push	r29
    38f4:	cd b7       	in	r28, 0x3d	; 61
    38f6:	de b7       	in	r29, 0x3e	; 62
    38f8:	2d 97       	sbiw	r28, 0x0d	; 13
    38fa:	0f b6       	in	r0, 0x3f	; 63
    38fc:	f8 94       	cli
    38fe:	de bf       	out	0x3e, r29	; 62
    3900:	0f be       	out	0x3f, r0	; 63
    3902:	cd bf       	out	0x3d, r28	; 61
    3904:	7c 01       	movw	r14, r24
    3906:	cb 01       	movw	r24, r22
    3908:	ba 01       	movw	r22, r20
    390a:	2a e0       	ldi	r18, 0x0A	; 10
    390c:	30 e0       	ldi	r19, 0x00	; 0
    390e:	8e 01       	movw	r16, r28
    3910:	0f 5f       	subi	r16, 0xFF	; 255
    3912:	1f 4f       	sbci	r17, 0xFF	; 255
    3914:	a8 01       	movw	r20, r16
    3916:	0e 94 5d 2b 	call	0x56ba	; 0x56ba <ultoa>
    391a:	f8 01       	movw	r30, r16
    391c:	01 90       	ld	r0, Z+
    391e:	00 20       	and	r0, r0
    3920:	e9 f7       	brne	.-6      	; 0x391c <_ZN6String6concatEm+0x34>
    3922:	31 97       	sbiw	r30, 0x01	; 1
    3924:	af 01       	movw	r20, r30
    3926:	40 1b       	sub	r20, r16
    3928:	51 0b       	sbc	r21, r17
    392a:	b8 01       	movw	r22, r16
    392c:	c7 01       	movw	r24, r14
    392e:	0e 94 5c 1b 	call	0x36b8	; 0x36b8 <_ZN6String6concatEPKcj>
    3932:	2d 96       	adiw	r28, 0x0d	; 13
    3934:	0f b6       	in	r0, 0x3f	; 63
    3936:	f8 94       	cli
    3938:	de bf       	out	0x3e, r29	; 62
    393a:	0f be       	out	0x3f, r0	; 63
    393c:	cd bf       	out	0x3d, r28	; 61
    393e:	df 91       	pop	r29
    3940:	cf 91       	pop	r28
    3942:	1f 91       	pop	r17
    3944:	0f 91       	pop	r16
    3946:	ff 90       	pop	r15
    3948:	ef 90       	pop	r14
    394a:	08 95       	ret

0000394c <_ZN6String6concatEf>:
    394c:	ef 92       	push	r14
    394e:	ff 92       	push	r15
    3950:	0f 93       	push	r16
    3952:	1f 93       	push	r17
    3954:	cf 93       	push	r28
    3956:	df 93       	push	r29
    3958:	cd b7       	in	r28, 0x3d	; 61
    395a:	de b7       	in	r29, 0x3e	; 62
    395c:	64 97       	sbiw	r28, 0x14	; 20
    395e:	0f b6       	in	r0, 0x3f	; 63
    3960:	f8 94       	cli
    3962:	de bf       	out	0x3e, r29	; 62
    3964:	0f be       	out	0x3f, r0	; 63
    3966:	cd bf       	out	0x3d, r28	; 61
    3968:	7c 01       	movw	r14, r24
    396a:	cb 01       	movw	r24, r22
    396c:	ba 01       	movw	r22, r20
    396e:	8e 01       	movw	r16, r28
    3970:	0f 5f       	subi	r16, 0xFF	; 255
    3972:	1f 4f       	sbci	r17, 0xFF	; 255
    3974:	22 e0       	ldi	r18, 0x02	; 2
    3976:	44 e0       	ldi	r20, 0x04	; 4
    3978:	0e 94 72 27 	call	0x4ee4	; 0x4ee4 <dtostrf>
    397c:	fc 01       	movw	r30, r24
    397e:	01 90       	ld	r0, Z+
    3980:	00 20       	and	r0, r0
    3982:	e9 f7       	brne	.-6      	; 0x397e <_ZN6String6concatEf+0x32>
    3984:	31 97       	sbiw	r30, 0x01	; 1
    3986:	af 01       	movw	r20, r30
    3988:	48 1b       	sub	r20, r24
    398a:	59 0b       	sbc	r21, r25
    398c:	bc 01       	movw	r22, r24
    398e:	c7 01       	movw	r24, r14
    3990:	0e 94 5c 1b 	call	0x36b8	; 0x36b8 <_ZN6String6concatEPKcj>
    3994:	64 96       	adiw	r28, 0x14	; 20
    3996:	0f b6       	in	r0, 0x3f	; 63
    3998:	f8 94       	cli
    399a:	de bf       	out	0x3e, r29	; 62
    399c:	0f be       	out	0x3f, r0	; 63
    399e:	cd bf       	out	0x3d, r28	; 61
    39a0:	df 91       	pop	r29
    39a2:	cf 91       	pop	r28
    39a4:	1f 91       	pop	r17
    39a6:	0f 91       	pop	r16
    39a8:	ff 90       	pop	r15
    39aa:	ef 90       	pop	r14
    39ac:	08 95       	ret

000039ae <_ZN6String6concatEd>:
    39ae:	ef 92       	push	r14
    39b0:	ff 92       	push	r15
    39b2:	0f 93       	push	r16
    39b4:	1f 93       	push	r17
    39b6:	cf 93       	push	r28
    39b8:	df 93       	push	r29
    39ba:	cd b7       	in	r28, 0x3d	; 61
    39bc:	de b7       	in	r29, 0x3e	; 62
    39be:	64 97       	sbiw	r28, 0x14	; 20
    39c0:	0f b6       	in	r0, 0x3f	; 63
    39c2:	f8 94       	cli
    39c4:	de bf       	out	0x3e, r29	; 62
    39c6:	0f be       	out	0x3f, r0	; 63
    39c8:	cd bf       	out	0x3d, r28	; 61
    39ca:	7c 01       	movw	r14, r24
    39cc:	cb 01       	movw	r24, r22
    39ce:	ba 01       	movw	r22, r20
    39d0:	8e 01       	movw	r16, r28
    39d2:	0f 5f       	subi	r16, 0xFF	; 255
    39d4:	1f 4f       	sbci	r17, 0xFF	; 255
    39d6:	22 e0       	ldi	r18, 0x02	; 2
    39d8:	44 e0       	ldi	r20, 0x04	; 4
    39da:	0e 94 72 27 	call	0x4ee4	; 0x4ee4 <dtostrf>
    39de:	fc 01       	movw	r30, r24
    39e0:	01 90       	ld	r0, Z+
    39e2:	00 20       	and	r0, r0
    39e4:	e9 f7       	brne	.-6      	; 0x39e0 <_ZN6String6concatEd+0x32>
    39e6:	31 97       	sbiw	r30, 0x01	; 1
    39e8:	af 01       	movw	r20, r30
    39ea:	48 1b       	sub	r20, r24
    39ec:	59 0b       	sbc	r21, r25
    39ee:	bc 01       	movw	r22, r24
    39f0:	c7 01       	movw	r24, r14
    39f2:	0e 94 5c 1b 	call	0x36b8	; 0x36b8 <_ZN6String6concatEPKcj>
    39f6:	64 96       	adiw	r28, 0x14	; 20
    39f8:	0f b6       	in	r0, 0x3f	; 63
    39fa:	f8 94       	cli
    39fc:	de bf       	out	0x3e, r29	; 62
    39fe:	0f be       	out	0x3f, r0	; 63
    3a00:	cd bf       	out	0x3d, r28	; 61
    3a02:	df 91       	pop	r29
    3a04:	cf 91       	pop	r28
    3a06:	1f 91       	pop	r17
    3a08:	0f 91       	pop	r16
    3a0a:	ff 90       	pop	r15
    3a0c:	ef 90       	pop	r14
    3a0e:	08 95       	ret

00003a10 <_ZN6String6concatEPK19__FlashStringHelper>:
    3a10:	ef 92       	push	r14
    3a12:	ff 92       	push	r15
    3a14:	0f 93       	push	r16
    3a16:	1f 93       	push	r17
    3a18:	cf 93       	push	r28
    3a1a:	df 93       	push	r29
    3a1c:	61 15       	cp	r22, r1
    3a1e:	71 05       	cpc	r23, r1
    3a20:	11 f4       	brne	.+4      	; 0x3a26 <_ZN6String6concatEPK19__FlashStringHelper+0x16>
    3a22:	80 e0       	ldi	r24, 0x00	; 0
    3a24:	1e c0       	rjmp	.+60     	; 0x3a62 <_ZN6String6concatEPK19__FlashStringHelper+0x52>
    3a26:	8b 01       	movw	r16, r22
    3a28:	ec 01       	movw	r28, r24
    3a2a:	cb 01       	movw	r24, r22
    3a2c:	0e 94 8a 2a 	call	0x5514	; 0x5514 <__strlen_P>
    3a30:	00 97       	sbiw	r24, 0x00	; 0
    3a32:	b1 f0       	breq	.+44     	; 0x3a60 <_ZN6String6concatEPK19__FlashStringHelper+0x50>
    3a34:	2c 81       	ldd	r18, Y+4	; 0x04
    3a36:	3d 81       	ldd	r19, Y+5	; 0x05
    3a38:	7c 01       	movw	r14, r24
    3a3a:	e2 0e       	add	r14, r18
    3a3c:	f3 1e       	adc	r15, r19
    3a3e:	b7 01       	movw	r22, r14
    3a40:	ce 01       	movw	r24, r28
    3a42:	0e 94 37 19 	call	0x326e	; 0x326e <_ZN6String7reserveEj>
    3a46:	88 23       	and	r24, r24
    3a48:	61 f3       	breq	.-40     	; 0x3a22 <_ZN6String6concatEPK19__FlashStringHelper+0x12>
    3a4a:	28 81       	ld	r18, Y
    3a4c:	39 81       	ldd	r19, Y+1	; 0x01
    3a4e:	8c 81       	ldd	r24, Y+4	; 0x04
    3a50:	9d 81       	ldd	r25, Y+5	; 0x05
    3a52:	b8 01       	movw	r22, r16
    3a54:	82 0f       	add	r24, r18
    3a56:	93 1f       	adc	r25, r19
    3a58:	0e 94 83 2a 	call	0x5506	; 0x5506 <strcpy_P>
    3a5c:	fd 82       	std	Y+5, r15	; 0x05
    3a5e:	ec 82       	std	Y+4, r14	; 0x04
    3a60:	81 e0       	ldi	r24, 0x01	; 1
    3a62:	df 91       	pop	r29
    3a64:	cf 91       	pop	r28
    3a66:	1f 91       	pop	r17
    3a68:	0f 91       	pop	r16
    3a6a:	ff 90       	pop	r15
    3a6c:	ef 90       	pop	r14
    3a6e:	08 95       	ret

00003a70 <_ZplRK15StringSumHelperRK6String>:
    3a70:	cf 93       	push	r28
    3a72:	df 93       	push	r29
    3a74:	ec 01       	movw	r28, r24
    3a76:	fb 01       	movw	r30, r22
    3a78:	44 81       	ldd	r20, Z+4	; 0x04
    3a7a:	55 81       	ldd	r21, Z+5	; 0x05
    3a7c:	60 81       	ld	r22, Z
    3a7e:	71 81       	ldd	r23, Z+1	; 0x01
    3a80:	0e 94 5c 1b 	call	0x36b8	; 0x36b8 <_ZN6String6concatEPKcj>
    3a84:	81 11       	cpse	r24, r1
    3a86:	03 c0       	rjmp	.+6      	; 0x3a8e <_ZplRK15StringSumHelperRK6String+0x1e>
    3a88:	ce 01       	movw	r24, r28
    3a8a:	0e 94 0b 19 	call	0x3216	; 0x3216 <_ZN6String10invalidateEv>
    3a8e:	ce 01       	movw	r24, r28
    3a90:	df 91       	pop	r29
    3a92:	cf 91       	pop	r28
    3a94:	08 95       	ret

00003a96 <_ZplRK15StringSumHelperPKc>:
    3a96:	cf 93       	push	r28
    3a98:	df 93       	push	r29
    3a9a:	ec 01       	movw	r28, r24
    3a9c:	61 15       	cp	r22, r1
    3a9e:	71 05       	cpc	r23, r1
    3aa0:	61 f0       	breq	.+24     	; 0x3aba <_ZplRK15StringSumHelperPKc+0x24>
    3aa2:	fb 01       	movw	r30, r22
    3aa4:	01 90       	ld	r0, Z+
    3aa6:	00 20       	and	r0, r0
    3aa8:	e9 f7       	brne	.-6      	; 0x3aa4 <_ZplRK15StringSumHelperPKc+0xe>
    3aaa:	31 97       	sbiw	r30, 0x01	; 1
    3aac:	af 01       	movw	r20, r30
    3aae:	46 1b       	sub	r20, r22
    3ab0:	57 0b       	sbc	r21, r23
    3ab2:	0e 94 5c 1b 	call	0x36b8	; 0x36b8 <_ZN6String6concatEPKcj>
    3ab6:	81 11       	cpse	r24, r1
    3ab8:	03 c0       	rjmp	.+6      	; 0x3ac0 <_ZplRK15StringSumHelperPKc+0x2a>
    3aba:	ce 01       	movw	r24, r28
    3abc:	0e 94 0b 19 	call	0x3216	; 0x3216 <_ZN6String10invalidateEv>
    3ac0:	ce 01       	movw	r24, r28
    3ac2:	df 91       	pop	r29
    3ac4:	cf 91       	pop	r28
    3ac6:	08 95       	ret

00003ac8 <_ZplRK15StringSumHelperc>:
    3ac8:	cf 93       	push	r28
    3aca:	df 93       	push	r29
    3acc:	ec 01       	movw	r28, r24
    3ace:	0e 94 a0 1b 	call	0x3740	; 0x3740 <_ZN6String6concatEc>
    3ad2:	81 11       	cpse	r24, r1
    3ad4:	03 c0       	rjmp	.+6      	; 0x3adc <_ZplRK15StringSumHelperc+0x14>
    3ad6:	ce 01       	movw	r24, r28
    3ad8:	0e 94 0b 19 	call	0x3216	; 0x3216 <_ZN6String10invalidateEv>
    3adc:	ce 01       	movw	r24, r28
    3ade:	df 91       	pop	r29
    3ae0:	cf 91       	pop	r28
    3ae2:	08 95       	ret

00003ae4 <_ZplRK15StringSumHelperh>:
    3ae4:	cf 93       	push	r28
    3ae6:	df 93       	push	r29
    3ae8:	ec 01       	movw	r28, r24
    3aea:	0e 94 b4 1b 	call	0x3768	; 0x3768 <_ZN6String6concatEh>
    3aee:	81 11       	cpse	r24, r1
    3af0:	03 c0       	rjmp	.+6      	; 0x3af8 <_ZplRK15StringSumHelperh+0x14>
    3af2:	ce 01       	movw	r24, r28
    3af4:	0e 94 0b 19 	call	0x3216	; 0x3216 <_ZN6String10invalidateEv>
    3af8:	ce 01       	movw	r24, r28
    3afa:	df 91       	pop	r29
    3afc:	cf 91       	pop	r28
    3afe:	08 95       	ret

00003b00 <_ZplRK15StringSumHelperi>:
    3b00:	cf 93       	push	r28
    3b02:	df 93       	push	r29
    3b04:	ec 01       	movw	r28, r24
    3b06:	0e 94 e0 1b 	call	0x37c0	; 0x37c0 <_ZN6String6concatEi>
    3b0a:	81 11       	cpse	r24, r1
    3b0c:	03 c0       	rjmp	.+6      	; 0x3b14 <_ZplRK15StringSumHelperi+0x14>
    3b0e:	ce 01       	movw	r24, r28
    3b10:	0e 94 0b 19 	call	0x3216	; 0x3216 <_ZN6String10invalidateEv>
    3b14:	ce 01       	movw	r24, r28
    3b16:	df 91       	pop	r29
    3b18:	cf 91       	pop	r28
    3b1a:	08 95       	ret

00003b1c <_ZplRK15StringSumHelperj>:
    3b1c:	cf 93       	push	r28
    3b1e:	df 93       	push	r29
    3b20:	ec 01       	movw	r28, r24
    3b22:	0e 94 11 1c 	call	0x3822	; 0x3822 <_ZN6String6concatEj>
    3b26:	81 11       	cpse	r24, r1
    3b28:	03 c0       	rjmp	.+6      	; 0x3b30 <_ZplRK15StringSumHelperj+0x14>
    3b2a:	ce 01       	movw	r24, r28
    3b2c:	0e 94 0b 19 	call	0x3216	; 0x3216 <_ZN6String10invalidateEv>
    3b30:	ce 01       	movw	r24, r28
    3b32:	df 91       	pop	r29
    3b34:	cf 91       	pop	r28
    3b36:	08 95       	ret

00003b38 <_ZplRK15StringSumHelperl>:
    3b38:	cf 93       	push	r28
    3b3a:	df 93       	push	r29
    3b3c:	ec 01       	movw	r28, r24
    3b3e:	0e 94 42 1c 	call	0x3884	; 0x3884 <_ZN6String6concatEl>
    3b42:	81 11       	cpse	r24, r1
    3b44:	03 c0       	rjmp	.+6      	; 0x3b4c <_ZplRK15StringSumHelperl+0x14>
    3b46:	ce 01       	movw	r24, r28
    3b48:	0e 94 0b 19 	call	0x3216	; 0x3216 <_ZN6String10invalidateEv>
    3b4c:	ce 01       	movw	r24, r28
    3b4e:	df 91       	pop	r29
    3b50:	cf 91       	pop	r28
    3b52:	08 95       	ret

00003b54 <_ZplRK15StringSumHelperm>:
    3b54:	cf 93       	push	r28
    3b56:	df 93       	push	r29
    3b58:	ec 01       	movw	r28, r24
    3b5a:	0e 94 74 1c 	call	0x38e8	; 0x38e8 <_ZN6String6concatEm>
    3b5e:	81 11       	cpse	r24, r1
    3b60:	03 c0       	rjmp	.+6      	; 0x3b68 <_ZplRK15StringSumHelperm+0x14>
    3b62:	ce 01       	movw	r24, r28
    3b64:	0e 94 0b 19 	call	0x3216	; 0x3216 <_ZN6String10invalidateEv>
    3b68:	ce 01       	movw	r24, r28
    3b6a:	df 91       	pop	r29
    3b6c:	cf 91       	pop	r28
    3b6e:	08 95       	ret

00003b70 <_ZplRK15StringSumHelperf>:
    3b70:	cf 93       	push	r28
    3b72:	df 93       	push	r29
    3b74:	ec 01       	movw	r28, r24
    3b76:	0e 94 a6 1c 	call	0x394c	; 0x394c <_ZN6String6concatEf>
    3b7a:	81 11       	cpse	r24, r1
    3b7c:	03 c0       	rjmp	.+6      	; 0x3b84 <_ZplRK15StringSumHelperf+0x14>
    3b7e:	ce 01       	movw	r24, r28
    3b80:	0e 94 0b 19 	call	0x3216	; 0x3216 <_ZN6String10invalidateEv>
    3b84:	ce 01       	movw	r24, r28
    3b86:	df 91       	pop	r29
    3b88:	cf 91       	pop	r28
    3b8a:	08 95       	ret

00003b8c <_ZplRK15StringSumHelperd>:
    3b8c:	cf 93       	push	r28
    3b8e:	df 93       	push	r29
    3b90:	ec 01       	movw	r28, r24
    3b92:	0e 94 d7 1c 	call	0x39ae	; 0x39ae <_ZN6String6concatEd>
    3b96:	81 11       	cpse	r24, r1
    3b98:	03 c0       	rjmp	.+6      	; 0x3ba0 <_ZplRK15StringSumHelperd+0x14>
    3b9a:	ce 01       	movw	r24, r28
    3b9c:	0e 94 0b 19 	call	0x3216	; 0x3216 <_ZN6String10invalidateEv>
    3ba0:	ce 01       	movw	r24, r28
    3ba2:	df 91       	pop	r29
    3ba4:	cf 91       	pop	r28
    3ba6:	08 95       	ret

00003ba8 <_ZplRK15StringSumHelperPK19__FlashStringHelper>:
    3ba8:	cf 93       	push	r28
    3baa:	df 93       	push	r29
    3bac:	ec 01       	movw	r28, r24
    3bae:	0e 94 08 1d 	call	0x3a10	; 0x3a10 <_ZN6String6concatEPK19__FlashStringHelper>
    3bb2:	81 11       	cpse	r24, r1
    3bb4:	03 c0       	rjmp	.+6      	; 0x3bbc <_ZplRK15StringSumHelperPK19__FlashStringHelper+0x14>
    3bb6:	ce 01       	movw	r24, r28
    3bb8:	0e 94 0b 19 	call	0x3216	; 0x3216 <_ZN6String10invalidateEv>
    3bbc:	ce 01       	movw	r24, r28
    3bbe:	df 91       	pop	r29
    3bc0:	cf 91       	pop	r28
    3bc2:	08 95       	ret

00003bc4 <_ZNK6String9compareToERKS_>:
    3bc4:	cf 93       	push	r28
    3bc6:	df 93       	push	r29
    3bc8:	dc 01       	movw	r26, r24
    3bca:	ed 91       	ld	r30, X+
    3bcc:	fc 91       	ld	r31, X
    3bce:	eb 01       	movw	r28, r22
    3bd0:	a8 81       	ld	r26, Y
    3bd2:	b9 81       	ldd	r27, Y+1	; 0x01
    3bd4:	30 97       	sbiw	r30, 0x00	; 0
    3bd6:	11 f0       	breq	.+4      	; 0x3bdc <_ZNK6String9compareToERKS_+0x18>
    3bd8:	10 97       	sbiw	r26, 0x00	; 0
    3bda:	c9 f4       	brne	.+50     	; 0x3c0e <_ZNK6String9compareToERKS_+0x4a>
    3bdc:	10 97       	sbiw	r26, 0x00	; 0
    3bde:	59 f0       	breq	.+22     	; 0x3bf6 <_ZNK6String9compareToERKS_+0x32>
    3be0:	eb 01       	movw	r28, r22
    3be2:	2c 81       	ldd	r18, Y+4	; 0x04
    3be4:	3d 81       	ldd	r19, Y+5	; 0x05
    3be6:	23 2b       	or	r18, r19
    3be8:	31 f0       	breq	.+12     	; 0x3bf6 <_ZNK6String9compareToERKS_+0x32>
    3bea:	8c 91       	ld	r24, X
    3bec:	90 e0       	ldi	r25, 0x00	; 0
    3bee:	91 95       	neg	r25
    3bf0:	81 95       	neg	r24
    3bf2:	91 09       	sbc	r25, r1
    3bf4:	14 c0       	rjmp	.+40     	; 0x3c1e <_ZNK6String9compareToERKS_+0x5a>
    3bf6:	30 97       	sbiw	r30, 0x00	; 0
    3bf8:	81 f0       	breq	.+32     	; 0x3c1a <_ZNK6String9compareToERKS_+0x56>
    3bfa:	dc 01       	movw	r26, r24
    3bfc:	14 96       	adiw	r26, 0x04	; 4
    3bfe:	8d 91       	ld	r24, X+
    3c00:	9c 91       	ld	r25, X
    3c02:	15 97       	sbiw	r26, 0x05	; 5
    3c04:	89 2b       	or	r24, r25
    3c06:	49 f0       	breq	.+18     	; 0x3c1a <_ZNK6String9compareToERKS_+0x56>
    3c08:	80 81       	ld	r24, Z
    3c0a:	90 e0       	ldi	r25, 0x00	; 0
    3c0c:	08 c0       	rjmp	.+16     	; 0x3c1e <_ZNK6String9compareToERKS_+0x5a>
    3c0e:	bd 01       	movw	r22, r26
    3c10:	cf 01       	movw	r24, r30
    3c12:	df 91       	pop	r29
    3c14:	cf 91       	pop	r28
    3c16:	0c 94 c6 2a 	jmp	0x558c	; 0x558c <strcmp>
    3c1a:	80 e0       	ldi	r24, 0x00	; 0
    3c1c:	90 e0       	ldi	r25, 0x00	; 0
    3c1e:	df 91       	pop	r29
    3c20:	cf 91       	pop	r28
    3c22:	08 95       	ret

00003c24 <_ZNK6String6equalsERKS_>:
    3c24:	fc 01       	movw	r30, r24
    3c26:	44 81       	ldd	r20, Z+4	; 0x04
    3c28:	55 81       	ldd	r21, Z+5	; 0x05
    3c2a:	fb 01       	movw	r30, r22
    3c2c:	24 81       	ldd	r18, Z+4	; 0x04
    3c2e:	35 81       	ldd	r19, Z+5	; 0x05
    3c30:	42 17       	cp	r20, r18
    3c32:	53 07       	cpc	r21, r19
    3c34:	29 f4       	brne	.+10     	; 0x3c40 <_ZNK6String6equalsERKS_+0x1c>
    3c36:	0e 94 e2 1d 	call	0x3bc4	; 0x3bc4 <_ZNK6String9compareToERKS_>
    3c3a:	21 e0       	ldi	r18, 0x01	; 1
    3c3c:	89 2b       	or	r24, r25
    3c3e:	09 f0       	breq	.+2      	; 0x3c42 <_ZNK6String6equalsERKS_+0x1e>
    3c40:	20 e0       	ldi	r18, 0x00	; 0
    3c42:	82 2f       	mov	r24, r18
    3c44:	08 95       	ret

00003c46 <_ZNK6String6equalsEPKc>:
    3c46:	fc 01       	movw	r30, r24
    3c48:	24 81       	ldd	r18, Z+4	; 0x04
    3c4a:	35 81       	ldd	r19, Z+5	; 0x05
    3c4c:	23 2b       	or	r18, r19
    3c4e:	31 f4       	brne	.+12     	; 0x3c5c <_ZNK6String6equalsEPKc+0x16>
    3c50:	21 e0       	ldi	r18, 0x01	; 1
    3c52:	61 15       	cp	r22, r1
    3c54:	71 05       	cpc	r23, r1
    3c56:	a1 f0       	breq	.+40     	; 0x3c80 <_ZNK6String6equalsEPKc+0x3a>
    3c58:	fb 01       	movw	r30, r22
    3c5a:	08 c0       	rjmp	.+16     	; 0x3c6c <_ZNK6String6equalsEPKc+0x26>
    3c5c:	fc 01       	movw	r30, r24
    3c5e:	80 81       	ld	r24, Z
    3c60:	91 81       	ldd	r25, Z+1	; 0x01
    3c62:	61 15       	cp	r22, r1
    3c64:	71 05       	cpc	r23, r1
    3c66:	31 f4       	brne	.+12     	; 0x3c74 <_ZNK6String6equalsEPKc+0x2e>
    3c68:	21 e0       	ldi	r18, 0x01	; 1
    3c6a:	fc 01       	movw	r30, r24
    3c6c:	80 81       	ld	r24, Z
    3c6e:	88 23       	and	r24, r24
    3c70:	39 f0       	breq	.+14     	; 0x3c80 <_ZNK6String6equalsEPKc+0x3a>
    3c72:	05 c0       	rjmp	.+10     	; 0x3c7e <_ZNK6String6equalsEPKc+0x38>
    3c74:	0e 94 c6 2a 	call	0x558c	; 0x558c <strcmp>
    3c78:	21 e0       	ldi	r18, 0x01	; 1
    3c7a:	89 2b       	or	r24, r25
    3c7c:	09 f0       	breq	.+2      	; 0x3c80 <_ZNK6String6equalsEPKc+0x3a>
    3c7e:	20 e0       	ldi	r18, 0x00	; 0
    3c80:	82 2f       	mov	r24, r18
    3c82:	08 95       	ret

00003c84 <_ZNK6StringltERKS_>:
    3c84:	0e 94 e2 1d 	call	0x3bc4	; 0x3bc4 <_ZNK6String9compareToERKS_>
    3c88:	89 2f       	mov	r24, r25
    3c8a:	88 1f       	adc	r24, r24
    3c8c:	88 27       	eor	r24, r24
    3c8e:	88 1f       	adc	r24, r24
    3c90:	08 95       	ret

00003c92 <_ZNK6StringgtERKS_>:
    3c92:	0e 94 e2 1d 	call	0x3bc4	; 0x3bc4 <_ZNK6String9compareToERKS_>
    3c96:	21 e0       	ldi	r18, 0x01	; 1
    3c98:	18 16       	cp	r1, r24
    3c9a:	19 06       	cpc	r1, r25
    3c9c:	0c f0       	brlt	.+2      	; 0x3ca0 <_ZNK6StringgtERKS_+0xe>
    3c9e:	20 e0       	ldi	r18, 0x00	; 0
    3ca0:	82 2f       	mov	r24, r18
    3ca2:	08 95       	ret

00003ca4 <_ZNK6StringleERKS_>:
    3ca4:	0e 94 e2 1d 	call	0x3bc4	; 0x3bc4 <_ZNK6String9compareToERKS_>
    3ca8:	21 e0       	ldi	r18, 0x01	; 1
    3caa:	18 16       	cp	r1, r24
    3cac:	19 06       	cpc	r1, r25
    3cae:	0c f4       	brge	.+2      	; 0x3cb2 <_ZNK6StringleERKS_+0xe>
    3cb0:	20 e0       	ldi	r18, 0x00	; 0
    3cb2:	82 2f       	mov	r24, r18
    3cb4:	08 95       	ret

00003cb6 <_ZNK6StringgeERKS_>:
    3cb6:	0e 94 e2 1d 	call	0x3bc4	; 0x3bc4 <_ZNK6String9compareToERKS_>
    3cba:	89 2f       	mov	r24, r25
    3cbc:	80 95       	com	r24
    3cbe:	88 1f       	adc	r24, r24
    3cc0:	88 27       	eor	r24, r24
    3cc2:	88 1f       	adc	r24, r24
    3cc4:	08 95       	ret

00003cc6 <_ZNK6String16equalsIgnoreCaseERKS_>:
    3cc6:	ef 92       	push	r14
    3cc8:	ff 92       	push	r15
    3cca:	0f 93       	push	r16
    3ccc:	1f 93       	push	r17
    3cce:	cf 93       	push	r28
    3cd0:	df 93       	push	r29
    3cd2:	86 17       	cp	r24, r22
    3cd4:	97 07       	cpc	r25, r23
    3cd6:	31 f1       	breq	.+76     	; 0x3d24 <_ZNK6String16equalsIgnoreCaseERKS_+0x5e>
    3cd8:	fc 01       	movw	r30, r24
    3cda:	24 81       	ldd	r18, Z+4	; 0x04
    3cdc:	35 81       	ldd	r19, Z+5	; 0x05
    3cde:	fb 01       	movw	r30, r22
    3ce0:	44 81       	ldd	r20, Z+4	; 0x04
    3ce2:	55 81       	ldd	r21, Z+5	; 0x05
    3ce4:	24 17       	cp	r18, r20
    3ce6:	35 07       	cpc	r19, r21
    3ce8:	d9 f4       	brne	.+54     	; 0x3d20 <_ZNK6String16equalsIgnoreCaseERKS_+0x5a>
    3cea:	23 2b       	or	r18, r19
    3cec:	d9 f0       	breq	.+54     	; 0x3d24 <_ZNK6String16equalsIgnoreCaseERKS_+0x5e>
    3cee:	dc 01       	movw	r26, r24
    3cf0:	0d 91       	ld	r16, X+
    3cf2:	1c 91       	ld	r17, X
    3cf4:	c0 81       	ld	r28, Z
    3cf6:	d1 81       	ldd	r29, Z+1	; 0x01
    3cf8:	f8 01       	movw	r30, r16
    3cfa:	81 91       	ld	r24, Z+
    3cfc:	8f 01       	movw	r16, r30
    3cfe:	88 23       	and	r24, r24
    3d00:	89 f0       	breq	.+34     	; 0x3d24 <_ZNK6String16equalsIgnoreCaseERKS_+0x5e>
    3d02:	08 2e       	mov	r0, r24
    3d04:	00 0c       	add	r0, r0
    3d06:	99 0b       	sbc	r25, r25
    3d08:	0e 94 73 2a 	call	0x54e6	; 0x54e6 <tolower>
    3d0c:	7c 01       	movw	r14, r24
    3d0e:	89 91       	ld	r24, Y+
    3d10:	08 2e       	mov	r0, r24
    3d12:	00 0c       	add	r0, r0
    3d14:	99 0b       	sbc	r25, r25
    3d16:	0e 94 73 2a 	call	0x54e6	; 0x54e6 <tolower>
    3d1a:	e8 16       	cp	r14, r24
    3d1c:	f9 06       	cpc	r15, r25
    3d1e:	61 f3       	breq	.-40     	; 0x3cf8 <_ZNK6String16equalsIgnoreCaseERKS_+0x32>
    3d20:	80 e0       	ldi	r24, 0x00	; 0
    3d22:	01 c0       	rjmp	.+2      	; 0x3d26 <_ZNK6String16equalsIgnoreCaseERKS_+0x60>
    3d24:	81 e0       	ldi	r24, 0x01	; 1
    3d26:	df 91       	pop	r29
    3d28:	cf 91       	pop	r28
    3d2a:	1f 91       	pop	r17
    3d2c:	0f 91       	pop	r16
    3d2e:	ff 90       	pop	r15
    3d30:	ef 90       	pop	r14
    3d32:	08 95       	ret

00003d34 <_ZNK6String10startsWithERKS_j>:
    3d34:	db 01       	movw	r26, r22
    3d36:	14 96       	adiw	r26, 0x04	; 4
    3d38:	ed 91       	ld	r30, X+
    3d3a:	fc 91       	ld	r31, X
    3d3c:	15 97       	sbiw	r26, 0x05	; 5
    3d3e:	dc 01       	movw	r26, r24
    3d40:	14 96       	adiw	r26, 0x04	; 4
    3d42:	2d 91       	ld	r18, X+
    3d44:	3c 91       	ld	r19, X
    3d46:	15 97       	sbiw	r26, 0x05	; 5
    3d48:	2e 1b       	sub	r18, r30
    3d4a:	3f 0b       	sbc	r19, r31
    3d4c:	24 17       	cp	r18, r20
    3d4e:	35 07       	cpc	r19, r21
    3d50:	a0 f0       	brcs	.+40     	; 0x3d7a <_ZNK6String10startsWithERKS_j+0x46>
    3d52:	2d 91       	ld	r18, X+
    3d54:	3c 91       	ld	r19, X
    3d56:	21 15       	cp	r18, r1
    3d58:	31 05       	cpc	r19, r1
    3d5a:	79 f0       	breq	.+30     	; 0x3d7a <_ZNK6String10startsWithERKS_j+0x46>
    3d5c:	db 01       	movw	r26, r22
    3d5e:	6d 91       	ld	r22, X+
    3d60:	7c 91       	ld	r23, X
    3d62:	61 15       	cp	r22, r1
    3d64:	71 05       	cpc	r23, r1
    3d66:	49 f0       	breq	.+18     	; 0x3d7a <_ZNK6String10startsWithERKS_j+0x46>
    3d68:	ca 01       	movw	r24, r20
    3d6a:	af 01       	movw	r20, r30
    3d6c:	82 0f       	add	r24, r18
    3d6e:	93 1f       	adc	r25, r19
    3d70:	0e 94 d6 2a 	call	0x55ac	; 0x55ac <strncmp>
    3d74:	21 e0       	ldi	r18, 0x01	; 1
    3d76:	89 2b       	or	r24, r25
    3d78:	09 f0       	breq	.+2      	; 0x3d7c <_ZNK6String10startsWithERKS_j+0x48>
    3d7a:	20 e0       	ldi	r18, 0x00	; 0
    3d7c:	82 2f       	mov	r24, r18
    3d7e:	08 95       	ret

00003d80 <_ZNK6String10startsWithERKS_>:
    3d80:	fc 01       	movw	r30, r24
    3d82:	44 81       	ldd	r20, Z+4	; 0x04
    3d84:	55 81       	ldd	r21, Z+5	; 0x05
    3d86:	fb 01       	movw	r30, r22
    3d88:	24 81       	ldd	r18, Z+4	; 0x04
    3d8a:	35 81       	ldd	r19, Z+5	; 0x05
    3d8c:	42 17       	cp	r20, r18
    3d8e:	53 07       	cpc	r21, r19
    3d90:	20 f0       	brcs	.+8      	; 0x3d9a <_ZNK6String10startsWithERKS_+0x1a>
    3d92:	40 e0       	ldi	r20, 0x00	; 0
    3d94:	50 e0       	ldi	r21, 0x00	; 0
    3d96:	0c 94 9a 1e 	jmp	0x3d34	; 0x3d34 <_ZNK6String10startsWithERKS_j>
    3d9a:	80 e0       	ldi	r24, 0x00	; 0
    3d9c:	08 95       	ret

00003d9e <_ZNK6String8endsWithERKS_>:
    3d9e:	fc 01       	movw	r30, r24
    3da0:	24 81       	ldd	r18, Z+4	; 0x04
    3da2:	35 81       	ldd	r19, Z+5	; 0x05
    3da4:	fb 01       	movw	r30, r22
    3da6:	44 81       	ldd	r20, Z+4	; 0x04
    3da8:	55 81       	ldd	r21, Z+5	; 0x05
    3daa:	24 17       	cp	r18, r20
    3dac:	35 07       	cpc	r19, r21
    3dae:	a0 f0       	brcs	.+40     	; 0x3dd8 <_ZNK6String8endsWithERKS_+0x3a>
    3db0:	fc 01       	movw	r30, r24
    3db2:	80 81       	ld	r24, Z
    3db4:	91 81       	ldd	r25, Z+1	; 0x01
    3db6:	00 97       	sbiw	r24, 0x00	; 0
    3db8:	79 f0       	breq	.+30     	; 0x3dd8 <_ZNK6String8endsWithERKS_+0x3a>
    3dba:	fb 01       	movw	r30, r22
    3dbc:	60 81       	ld	r22, Z
    3dbe:	71 81       	ldd	r23, Z+1	; 0x01
    3dc0:	61 15       	cp	r22, r1
    3dc2:	71 05       	cpc	r23, r1
    3dc4:	49 f0       	breq	.+18     	; 0x3dd8 <_ZNK6String8endsWithERKS_+0x3a>
    3dc6:	24 1b       	sub	r18, r20
    3dc8:	35 0b       	sbc	r19, r21
    3dca:	82 0f       	add	r24, r18
    3dcc:	93 1f       	adc	r25, r19
    3dce:	0e 94 c6 2a 	call	0x558c	; 0x558c <strcmp>
    3dd2:	21 e0       	ldi	r18, 0x01	; 1
    3dd4:	89 2b       	or	r24, r25
    3dd6:	09 f0       	breq	.+2      	; 0x3dda <_ZNK6String8endsWithERKS_+0x3c>
    3dd8:	20 e0       	ldi	r18, 0x00	; 0
    3dda:	82 2f       	mov	r24, r18
    3ddc:	08 95       	ret

00003dde <_ZN6String9setCharAtEjc>:
    3dde:	fc 01       	movw	r30, r24
    3de0:	24 81       	ldd	r18, Z+4	; 0x04
    3de2:	35 81       	ldd	r19, Z+5	; 0x05
    3de4:	62 17       	cp	r22, r18
    3de6:	73 07       	cpc	r23, r19
    3de8:	30 f4       	brcc	.+12     	; 0x3df6 <_ZN6String9setCharAtEjc+0x18>
    3dea:	80 81       	ld	r24, Z
    3dec:	91 81       	ldd	r25, Z+1	; 0x01
    3dee:	fc 01       	movw	r30, r24
    3df0:	e6 0f       	add	r30, r22
    3df2:	f7 1f       	adc	r31, r23
    3df4:	40 83       	st	Z, r20
    3df6:	08 95       	ret

00003df8 <_ZN6StringixEj>:
    3df8:	fc 01       	movw	r30, r24
    3dfa:	24 81       	ldd	r18, Z+4	; 0x04
    3dfc:	35 81       	ldd	r19, Z+5	; 0x05
    3dfe:	62 17       	cp	r22, r18
    3e00:	73 07       	cpc	r23, r19
    3e02:	20 f4       	brcc	.+8      	; 0x3e0c <_ZN6StringixEj+0x14>
    3e04:	80 81       	ld	r24, Z
    3e06:	91 81       	ldd	r25, Z+1	; 0x01
    3e08:	00 97       	sbiw	r24, 0x00	; 0
    3e0a:	29 f4       	brne	.+10     	; 0x3e16 <_ZN6StringixEj+0x1e>
    3e0c:	10 92 bd 05 	sts	0x05BD, r1	; 0x8005bd <_ZZN6StringixEjE19dummy_writable_char>
    3e10:	8d eb       	ldi	r24, 0xBD	; 189
    3e12:	95 e0       	ldi	r25, 0x05	; 5
    3e14:	08 95       	ret
    3e16:	86 0f       	add	r24, r22
    3e18:	97 1f       	adc	r25, r23
    3e1a:	08 95       	ret

00003e1c <_ZNK6StringixEj>:
    3e1c:	fc 01       	movw	r30, r24
    3e1e:	24 81       	ldd	r18, Z+4	; 0x04
    3e20:	35 81       	ldd	r19, Z+5	; 0x05
    3e22:	62 17       	cp	r22, r18
    3e24:	73 07       	cpc	r23, r19
    3e26:	48 f4       	brcc	.+18     	; 0x3e3a <_ZNK6StringixEj+0x1e>
    3e28:	80 81       	ld	r24, Z
    3e2a:	91 81       	ldd	r25, Z+1	; 0x01
    3e2c:	00 97       	sbiw	r24, 0x00	; 0
    3e2e:	29 f0       	breq	.+10     	; 0x3e3a <_ZNK6StringixEj+0x1e>
    3e30:	fc 01       	movw	r30, r24
    3e32:	e6 0f       	add	r30, r22
    3e34:	f7 1f       	adc	r31, r23
    3e36:	80 81       	ld	r24, Z
    3e38:	08 95       	ret
    3e3a:	80 e0       	ldi	r24, 0x00	; 0
    3e3c:	08 95       	ret

00003e3e <_ZNK6String6charAtEj>:
    3e3e:	0c 94 0e 1f 	jmp	0x3e1c	; 0x3e1c <_ZNK6StringixEj>

00003e42 <_ZNK6String8getBytesEPhjj>:
    3e42:	0f 93       	push	r16
    3e44:	1f 93       	push	r17
    3e46:	cf 93       	push	r28
    3e48:	df 93       	push	r29
    3e4a:	41 15       	cp	r20, r1
    3e4c:	51 05       	cpc	r21, r1
    3e4e:	19 f1       	breq	.+70     	; 0x3e96 <_ZNK6String8getBytesEPhjj+0x54>
    3e50:	61 15       	cp	r22, r1
    3e52:	71 05       	cpc	r23, r1
    3e54:	01 f1       	breq	.+64     	; 0x3e96 <_ZNK6String8getBytesEPhjj+0x54>
    3e56:	dc 01       	movw	r26, r24
    3e58:	14 96       	adiw	r26, 0x04	; 4
    3e5a:	ed 91       	ld	r30, X+
    3e5c:	fc 91       	ld	r31, X
    3e5e:	15 97       	sbiw	r26, 0x05	; 5
    3e60:	2e 17       	cp	r18, r30
    3e62:	3f 07       	cpc	r19, r31
    3e64:	18 f0       	brcs	.+6      	; 0x3e6c <_ZNK6String8getBytesEPhjj+0x2a>
    3e66:	fb 01       	movw	r30, r22
    3e68:	10 82       	st	Z, r1
    3e6a:	15 c0       	rjmp	.+42     	; 0x3e96 <_ZNK6String8getBytesEPhjj+0x54>
    3e6c:	e2 1b       	sub	r30, r18
    3e6e:	f3 0b       	sbc	r31, r19
    3e70:	ea 01       	movw	r28, r20
    3e72:	21 97       	sbiw	r28, 0x01	; 1
    3e74:	ec 17       	cp	r30, r28
    3e76:	fd 07       	cpc	r31, r29
    3e78:	08 f4       	brcc	.+2      	; 0x3e7c <_ZNK6String8getBytesEPhjj+0x3a>
    3e7a:	ef 01       	movw	r28, r30
    3e7c:	8b 01       	movw	r16, r22
    3e7e:	fc 01       	movw	r30, r24
    3e80:	60 81       	ld	r22, Z
    3e82:	71 81       	ldd	r23, Z+1	; 0x01
    3e84:	62 0f       	add	r22, r18
    3e86:	73 1f       	adc	r23, r19
    3e88:	ae 01       	movw	r20, r28
    3e8a:	c8 01       	movw	r24, r16
    3e8c:	0e 94 e4 2a 	call	0x55c8	; 0x55c8 <strncpy>
    3e90:	c0 0f       	add	r28, r16
    3e92:	d1 1f       	adc	r29, r17
    3e94:	18 82       	st	Y, r1
    3e96:	df 91       	pop	r29
    3e98:	cf 91       	pop	r28
    3e9a:	1f 91       	pop	r17
    3e9c:	0f 91       	pop	r16
    3e9e:	08 95       	ret

00003ea0 <_ZNK6String7indexOfEcj>:
    3ea0:	cf 93       	push	r28
    3ea2:	df 93       	push	r29
    3ea4:	fc 01       	movw	r30, r24
    3ea6:	24 81       	ldd	r18, Z+4	; 0x04
    3ea8:	35 81       	ldd	r19, Z+5	; 0x05
    3eaa:	42 17       	cp	r20, r18
    3eac:	53 07       	cpc	r21, r19
    3eae:	78 f4       	brcc	.+30     	; 0x3ece <_ZNK6String7indexOfEcj+0x2e>
    3eb0:	c0 81       	ld	r28, Z
    3eb2:	d1 81       	ldd	r29, Z+1	; 0x01
    3eb4:	06 2e       	mov	r0, r22
    3eb6:	00 0c       	add	r0, r0
    3eb8:	77 0b       	sbc	r23, r23
    3eba:	ce 01       	movw	r24, r28
    3ebc:	84 0f       	add	r24, r20
    3ebe:	95 1f       	adc	r25, r21
    3ec0:	0e 94 bb 2a 	call	0x5576	; 0x5576 <strchr>
    3ec4:	00 97       	sbiw	r24, 0x00	; 0
    3ec6:	19 f0       	breq	.+6      	; 0x3ece <_ZNK6String7indexOfEcj+0x2e>
    3ec8:	8c 1b       	sub	r24, r28
    3eca:	9d 0b       	sbc	r25, r29
    3ecc:	02 c0       	rjmp	.+4      	; 0x3ed2 <_ZNK6String7indexOfEcj+0x32>
    3ece:	8f ef       	ldi	r24, 0xFF	; 255
    3ed0:	9f ef       	ldi	r25, 0xFF	; 255
    3ed2:	df 91       	pop	r29
    3ed4:	cf 91       	pop	r28
    3ed6:	08 95       	ret

00003ed8 <_ZNK6String7indexOfEc>:
    3ed8:	40 e0       	ldi	r20, 0x00	; 0
    3eda:	50 e0       	ldi	r21, 0x00	; 0
    3edc:	0c 94 50 1f 	jmp	0x3ea0	; 0x3ea0 <_ZNK6String7indexOfEcj>

00003ee0 <_ZNK6String7indexOfERKS_j>:
    3ee0:	cf 93       	push	r28
    3ee2:	df 93       	push	r29
    3ee4:	fc 01       	movw	r30, r24
    3ee6:	24 81       	ldd	r18, Z+4	; 0x04
    3ee8:	35 81       	ldd	r19, Z+5	; 0x05
    3eea:	42 17       	cp	r20, r18
    3eec:	53 07       	cpc	r21, r19
    3eee:	80 f4       	brcc	.+32     	; 0x3f10 <_ZNK6String7indexOfERKS_j+0x30>
    3ef0:	fb 01       	movw	r30, r22
    3ef2:	dc 01       	movw	r26, r24
    3ef4:	cd 91       	ld	r28, X+
    3ef6:	dc 91       	ld	r29, X
    3ef8:	60 81       	ld	r22, Z
    3efa:	71 81       	ldd	r23, Z+1	; 0x01
    3efc:	ce 01       	movw	r24, r28
    3efe:	84 0f       	add	r24, r20
    3f00:	95 1f       	adc	r25, r21
    3f02:	0e 94 fe 2a 	call	0x55fc	; 0x55fc <strstr>
    3f06:	00 97       	sbiw	r24, 0x00	; 0
    3f08:	19 f0       	breq	.+6      	; 0x3f10 <_ZNK6String7indexOfERKS_j+0x30>
    3f0a:	8c 1b       	sub	r24, r28
    3f0c:	9d 0b       	sbc	r25, r29
    3f0e:	02 c0       	rjmp	.+4      	; 0x3f14 <_ZNK6String7indexOfERKS_j+0x34>
    3f10:	8f ef       	ldi	r24, 0xFF	; 255
    3f12:	9f ef       	ldi	r25, 0xFF	; 255
    3f14:	df 91       	pop	r29
    3f16:	cf 91       	pop	r28
    3f18:	08 95       	ret

00003f1a <_ZNK6String7indexOfERKS_>:
    3f1a:	40 e0       	ldi	r20, 0x00	; 0
    3f1c:	50 e0       	ldi	r21, 0x00	; 0
    3f1e:	0c 94 70 1f 	jmp	0x3ee0	; 0x3ee0 <_ZNK6String7indexOfERKS_j>

00003f22 <_ZNK6String11lastIndexOfEcj>:
    3f22:	df 92       	push	r13
    3f24:	ef 92       	push	r14
    3f26:	ff 92       	push	r15
    3f28:	0f 93       	push	r16
    3f2a:	1f 93       	push	r17
    3f2c:	cf 93       	push	r28
    3f2e:	df 93       	push	r29
    3f30:	dc 01       	movw	r26, r24
    3f32:	14 96       	adiw	r26, 0x04	; 4
    3f34:	2d 91       	ld	r18, X+
    3f36:	3c 91       	ld	r19, X
    3f38:	15 97       	sbiw	r26, 0x05	; 5
    3f3a:	42 17       	cp	r20, r18
    3f3c:	53 07       	cpc	r21, r19
    3f3e:	18 f0       	brcs	.+6      	; 0x3f46 <_ZNK6String11lastIndexOfEcj+0x24>
    3f40:	8f ef       	ldi	r24, 0xFF	; 255
    3f42:	9f ef       	ldi	r25, 0xFF	; 255
    3f44:	1d c0       	rjmp	.+58     	; 0x3f80 <_ZNK6String11lastIndexOfEcj+0x5e>
    3f46:	8c 01       	movw	r16, r24
    3f48:	ea 01       	movw	r28, r20
    3f4a:	21 96       	adiw	r28, 0x01	; 1
    3f4c:	dc 01       	movw	r26, r24
    3f4e:	ed 91       	ld	r30, X+
    3f50:	fc 91       	ld	r31, X
    3f52:	11 97       	sbiw	r26, 0x01	; 1
    3f54:	ec 0f       	add	r30, r28
    3f56:	fd 1f       	adc	r31, r29
    3f58:	d0 80       	ld	r13, Z
    3f5a:	10 82       	st	Z, r1
    3f5c:	ed 90       	ld	r14, X+
    3f5e:	fc 90       	ld	r15, X
    3f60:	06 2e       	mov	r0, r22
    3f62:	00 0c       	add	r0, r0
    3f64:	77 0b       	sbc	r23, r23
    3f66:	c7 01       	movw	r24, r14
    3f68:	0e 94 f3 2a 	call	0x55e6	; 0x55e6 <strrchr>
    3f6c:	ce 0d       	add	r28, r14
    3f6e:	df 1d       	adc	r29, r15
    3f70:	d8 82       	st	Y, r13
    3f72:	00 97       	sbiw	r24, 0x00	; 0
    3f74:	29 f3       	breq	.-54     	; 0x3f40 <_ZNK6String11lastIndexOfEcj+0x1e>
    3f76:	f8 01       	movw	r30, r16
    3f78:	20 81       	ld	r18, Z
    3f7a:	31 81       	ldd	r19, Z+1	; 0x01
    3f7c:	82 1b       	sub	r24, r18
    3f7e:	93 0b       	sbc	r25, r19
    3f80:	df 91       	pop	r29
    3f82:	cf 91       	pop	r28
    3f84:	1f 91       	pop	r17
    3f86:	0f 91       	pop	r16
    3f88:	ff 90       	pop	r15
    3f8a:	ef 90       	pop	r14
    3f8c:	df 90       	pop	r13
    3f8e:	08 95       	ret

00003f90 <_ZNK6String11lastIndexOfEc>:
    3f90:	fc 01       	movw	r30, r24
    3f92:	44 81       	ldd	r20, Z+4	; 0x04
    3f94:	55 81       	ldd	r21, Z+5	; 0x05
    3f96:	41 50       	subi	r20, 0x01	; 1
    3f98:	51 09       	sbc	r21, r1
    3f9a:	0c 94 91 1f 	jmp	0x3f22	; 0x3f22 <_ZNK6String11lastIndexOfEcj>

00003f9e <_ZNK6String11lastIndexOfERKS_j>:
    3f9e:	af 92       	push	r10
    3fa0:	bf 92       	push	r11
    3fa2:	cf 92       	push	r12
    3fa4:	df 92       	push	r13
    3fa6:	ef 92       	push	r14
    3fa8:	ff 92       	push	r15
    3faa:	0f 93       	push	r16
    3fac:	1f 93       	push	r17
    3fae:	cf 93       	push	r28
    3fb0:	df 93       	push	r29
    3fb2:	7b 01       	movw	r14, r22
    3fb4:	8a 01       	movw	r16, r20
    3fb6:	fb 01       	movw	r30, r22
    3fb8:	44 81       	ldd	r20, Z+4	; 0x04
    3fba:	55 81       	ldd	r21, Z+5	; 0x05
    3fbc:	41 15       	cp	r20, r1
    3fbe:	51 05       	cpc	r21, r1
    3fc0:	61 f1       	breq	.+88     	; 0x401a <_ZNK6String11lastIndexOfERKS_j+0x7c>
    3fc2:	fc 01       	movw	r30, r24
    3fc4:	24 81       	ldd	r18, Z+4	; 0x04
    3fc6:	35 81       	ldd	r19, Z+5	; 0x05
    3fc8:	21 15       	cp	r18, r1
    3fca:	31 05       	cpc	r19, r1
    3fcc:	31 f1       	breq	.+76     	; 0x401a <_ZNK6String11lastIndexOfERKS_j+0x7c>
    3fce:	24 17       	cp	r18, r20
    3fd0:	35 07       	cpc	r19, r21
    3fd2:	18 f1       	brcs	.+70     	; 0x401a <_ZNK6String11lastIndexOfERKS_j+0x7c>
    3fd4:	02 17       	cp	r16, r18
    3fd6:	13 07       	cpc	r17, r19
    3fd8:	18 f0       	brcs	.+6      	; 0x3fe0 <_ZNK6String11lastIndexOfERKS_j+0x42>
    3fda:	89 01       	movw	r16, r18
    3fdc:	01 50       	subi	r16, 0x01	; 1
    3fde:	11 09       	sbc	r17, r1
    3fe0:	fc 01       	movw	r30, r24
    3fe2:	a0 80       	ld	r10, Z
    3fe4:	b1 80       	ldd	r11, Z+1	; 0x01
    3fe6:	c5 01       	movw	r24, r10
    3fe8:	df ef       	ldi	r29, 0xFF	; 255
    3fea:	cf ef       	ldi	r28, 0xFF	; 255
    3fec:	65 01       	movw	r12, r10
    3fee:	c0 0e       	add	r12, r16
    3ff0:	d1 1e       	adc	r13, r17
    3ff2:	c8 16       	cp	r12, r24
    3ff4:	d9 06       	cpc	r13, r25
    3ff6:	a0 f0       	brcs	.+40     	; 0x4020 <_ZNK6String11lastIndexOfERKS_j+0x82>
    3ff8:	f7 01       	movw	r30, r14
    3ffa:	60 81       	ld	r22, Z
    3ffc:	71 81       	ldd	r23, Z+1	; 0x01
    3ffe:	0e 94 fe 2a 	call	0x55fc	; 0x55fc <strstr>
    4002:	00 97       	sbiw	r24, 0x00	; 0
    4004:	69 f0       	breq	.+26     	; 0x4020 <_ZNK6String11lastIndexOfERKS_j+0x82>
    4006:	9c 01       	movw	r18, r24
    4008:	2a 19       	sub	r18, r10
    400a:	3b 09       	sbc	r19, r11
    400c:	02 17       	cp	r16, r18
    400e:	13 07       	cpc	r17, r19
    4010:	10 f0       	brcs	.+4      	; 0x4016 <_ZNK6String11lastIndexOfERKS_j+0x78>
    4012:	d2 2f       	mov	r29, r18
    4014:	c3 2f       	mov	r28, r19
    4016:	01 96       	adiw	r24, 0x01	; 1
    4018:	ec cf       	rjmp	.-40     	; 0x3ff2 <_ZNK6String11lastIndexOfERKS_j+0x54>
    401a:	8f ef       	ldi	r24, 0xFF	; 255
    401c:	9f ef       	ldi	r25, 0xFF	; 255
    401e:	02 c0       	rjmp	.+4      	; 0x4024 <_ZNK6String11lastIndexOfERKS_j+0x86>
    4020:	8d 2f       	mov	r24, r29
    4022:	9c 2f       	mov	r25, r28
    4024:	df 91       	pop	r29
    4026:	cf 91       	pop	r28
    4028:	1f 91       	pop	r17
    402a:	0f 91       	pop	r16
    402c:	ff 90       	pop	r15
    402e:	ef 90       	pop	r14
    4030:	df 90       	pop	r13
    4032:	cf 90       	pop	r12
    4034:	bf 90       	pop	r11
    4036:	af 90       	pop	r10
    4038:	08 95       	ret

0000403a <_ZNK6String11lastIndexOfERKS_>:
    403a:	fc 01       	movw	r30, r24
    403c:	44 81       	ldd	r20, Z+4	; 0x04
    403e:	55 81       	ldd	r21, Z+5	; 0x05
    4040:	fb 01       	movw	r30, r22
    4042:	24 81       	ldd	r18, Z+4	; 0x04
    4044:	35 81       	ldd	r19, Z+5	; 0x05
    4046:	42 1b       	sub	r20, r18
    4048:	53 0b       	sbc	r21, r19
    404a:	0c 94 cf 1f 	jmp	0x3f9e	; 0x3f9e <_ZNK6String11lastIndexOfERKS_j>

0000404e <_ZNK6String9substringEjj>:
    404e:	bf 92       	push	r11
    4050:	cf 92       	push	r12
    4052:	df 92       	push	r13
    4054:	ef 92       	push	r14
    4056:	ff 92       	push	r15
    4058:	0f 93       	push	r16
    405a:	1f 93       	push	r17
    405c:	cf 93       	push	r28
    405e:	df 93       	push	r29
    4060:	7c 01       	movw	r14, r24
    4062:	6b 01       	movw	r12, r22
    4064:	8a 01       	movw	r16, r20
    4066:	e9 01       	movw	r28, r18
    4068:	24 17       	cp	r18, r20
    406a:	35 07       	cpc	r19, r21
    406c:	20 f4       	brcc	.+8      	; 0x4076 <_ZNK6String9substringEjj+0x28>
    406e:	81 2f       	mov	r24, r17
    4070:	89 01       	movw	r16, r18
    4072:	c4 2f       	mov	r28, r20
    4074:	d8 2f       	mov	r29, r24
    4076:	65 e7       	ldi	r22, 0x75	; 117
    4078:	72 e0       	ldi	r23, 0x02	; 2
    407a:	c7 01       	movw	r24, r14
    407c:	0e 94 74 19 	call	0x32e8	; 0x32e8 <_ZN6StringC1EPKc>
    4080:	d6 01       	movw	r26, r12
    4082:	14 96       	adiw	r26, 0x04	; 4
    4084:	8d 91       	ld	r24, X+
    4086:	9c 91       	ld	r25, X
    4088:	15 97       	sbiw	r26, 0x05	; 5
    408a:	08 17       	cp	r16, r24
    408c:	19 07       	cpc	r17, r25
    408e:	c8 f4       	brcc	.+50     	; 0x40c2 <_ZNK6String9substringEjj+0x74>
    4090:	8c 17       	cp	r24, r28
    4092:	9d 07       	cpc	r25, r29
    4094:	08 f4       	brcc	.+2      	; 0x4098 <_ZNK6String9substringEjj+0x4a>
    4096:	ec 01       	movw	r28, r24
    4098:	d6 01       	movw	r26, r12
    409a:	ed 91       	ld	r30, X+
    409c:	fc 91       	ld	r31, X
    409e:	11 97       	sbiw	r26, 0x01	; 1
    40a0:	ec 0f       	add	r30, r28
    40a2:	fd 1f       	adc	r31, r29
    40a4:	b0 80       	ld	r11, Z
    40a6:	10 82       	st	Z, r1
    40a8:	6d 91       	ld	r22, X+
    40aa:	7c 91       	ld	r23, X
    40ac:	60 0f       	add	r22, r16
    40ae:	71 1f       	adc	r23, r17
    40b0:	c7 01       	movw	r24, r14
    40b2:	0e 94 ca 19 	call	0x3394	; 0x3394 <_ZN6StringaSEPKc>
    40b6:	d6 01       	movw	r26, r12
    40b8:	ed 91       	ld	r30, X+
    40ba:	fc 91       	ld	r31, X
    40bc:	ec 0f       	add	r30, r28
    40be:	fd 1f       	adc	r31, r29
    40c0:	b0 82       	st	Z, r11
    40c2:	c7 01       	movw	r24, r14
    40c4:	df 91       	pop	r29
    40c6:	cf 91       	pop	r28
    40c8:	1f 91       	pop	r17
    40ca:	0f 91       	pop	r16
    40cc:	ff 90       	pop	r15
    40ce:	ef 90       	pop	r14
    40d0:	df 90       	pop	r13
    40d2:	cf 90       	pop	r12
    40d4:	bf 90       	pop	r11
    40d6:	08 95       	ret

000040d8 <_ZN6String7replaceEcc>:
    40d8:	dc 01       	movw	r26, r24
    40da:	ed 91       	ld	r30, X+
    40dc:	fc 91       	ld	r31, X
    40de:	30 97       	sbiw	r30, 0x00	; 0
    40e0:	41 f0       	breq	.+16     	; 0x40f2 <_ZN6String7replaceEcc+0x1a>
    40e2:	80 81       	ld	r24, Z
    40e4:	88 23       	and	r24, r24
    40e6:	29 f0       	breq	.+10     	; 0x40f2 <_ZN6String7replaceEcc+0x1a>
    40e8:	86 13       	cpse	r24, r22
    40ea:	01 c0       	rjmp	.+2      	; 0x40ee <_ZN6String7replaceEcc+0x16>
    40ec:	40 83       	st	Z, r20
    40ee:	31 96       	adiw	r30, 0x01	; 1
    40f0:	f8 cf       	rjmp	.-16     	; 0x40e2 <_ZN6String7replaceEcc+0xa>
    40f2:	08 95       	ret

000040f4 <_ZN6String7replaceERKS_S1_>:
    40f4:	2f 92       	push	r2
    40f6:	3f 92       	push	r3
    40f8:	4f 92       	push	r4
    40fa:	5f 92       	push	r5
    40fc:	6f 92       	push	r6
    40fe:	7f 92       	push	r7
    4100:	8f 92       	push	r8
    4102:	9f 92       	push	r9
    4104:	af 92       	push	r10
    4106:	bf 92       	push	r11
    4108:	cf 92       	push	r12
    410a:	df 92       	push	r13
    410c:	ef 92       	push	r14
    410e:	ff 92       	push	r15
    4110:	0f 93       	push	r16
    4112:	1f 93       	push	r17
    4114:	cf 93       	push	r28
    4116:	df 93       	push	r29
    4118:	fc 01       	movw	r30, r24
    411a:	44 80       	ldd	r4, Z+4	; 0x04
    411c:	55 80       	ldd	r5, Z+5	; 0x05
    411e:	41 14       	cp	r4, r1
    4120:	51 04       	cpc	r5, r1
    4122:	09 f4       	brne	.+2      	; 0x4126 <_ZN6String7replaceERKS_S1_+0x32>
    4124:	ce c0       	rjmp	.+412    	; 0x42c2 <_ZN6String7replaceERKS_S1_+0x1ce>
    4126:	fb 01       	movw	r30, r22
    4128:	84 80       	ldd	r8, Z+4	; 0x04
    412a:	95 80       	ldd	r9, Z+5	; 0x05
    412c:	81 14       	cp	r8, r1
    412e:	91 04       	cpc	r9, r1
    4130:	09 f4       	brne	.+2      	; 0x4134 <_ZN6String7replaceERKS_S1_+0x40>
    4132:	c7 c0       	rjmp	.+398    	; 0x42c2 <_ZN6String7replaceERKS_S1_+0x1ce>
    4134:	7a 01       	movw	r14, r20
    4136:	6b 01       	movw	r12, r22
    4138:	8c 01       	movw	r16, r24
    413a:	fa 01       	movw	r30, r20
    413c:	64 80       	ldd	r6, Z+4	; 0x04
    413e:	75 80       	ldd	r7, Z+5	; 0x05
    4140:	68 18       	sub	r6, r8
    4142:	79 08       	sbc	r7, r9
    4144:	fc 01       	movw	r30, r24
    4146:	c0 81       	ld	r28, Z
    4148:	d1 81       	ldd	r29, Z+1	; 0x01
    414a:	61 14       	cp	r6, r1
    414c:	71 04       	cpc	r7, r1
    414e:	b9 f4       	brne	.+46     	; 0x417e <_ZN6String7replaceERKS_S1_+0x8a>
    4150:	f6 01       	movw	r30, r12
    4152:	60 81       	ld	r22, Z
    4154:	71 81       	ldd	r23, Z+1	; 0x01
    4156:	ce 01       	movw	r24, r28
    4158:	0e 94 fe 2a 	call	0x55fc	; 0x55fc <strstr>
    415c:	ec 01       	movw	r28, r24
    415e:	00 97       	sbiw	r24, 0x00	; 0
    4160:	09 f4       	brne	.+2      	; 0x4164 <_ZN6String7replaceERKS_S1_+0x70>
    4162:	af c0       	rjmp	.+350    	; 0x42c2 <_ZN6String7replaceERKS_S1_+0x1ce>
    4164:	f7 01       	movw	r30, r14
    4166:	60 81       	ld	r22, Z
    4168:	71 81       	ldd	r23, Z+1	; 0x01
    416a:	44 81       	ldd	r20, Z+4	; 0x04
    416c:	55 81       	ldd	r21, Z+5	; 0x05
    416e:	0e 94 a0 2a 	call	0x5540	; 0x5540 <memcpy>
    4172:	f7 01       	movw	r30, r14
    4174:	84 81       	ldd	r24, Z+4	; 0x04
    4176:	95 81       	ldd	r25, Z+5	; 0x05
    4178:	c8 0f       	add	r28, r24
    417a:	d9 1f       	adc	r29, r25
    417c:	e9 cf       	rjmp	.-46     	; 0x4150 <_ZN6String7replaceERKS_S1_+0x5c>
    417e:	77 fe       	sbrs	r7, 7
    4180:	44 c0       	rjmp	.+136    	; 0x420a <_ZN6String7replaceERKS_S1_+0x116>
    4182:	5e 01       	movw	r10, r28
    4184:	f6 01       	movw	r30, r12
    4186:	60 81       	ld	r22, Z
    4188:	71 81       	ldd	r23, Z+1	; 0x01
    418a:	c5 01       	movw	r24, r10
    418c:	0e 94 fe 2a 	call	0x55fc	; 0x55fc <strstr>
    4190:	2c 01       	movw	r4, r24
    4192:	00 97       	sbiw	r24, 0x00	; 0
    4194:	21 f1       	breq	.+72     	; 0x41de <_ZN6String7replaceERKS_S1_+0xea>
    4196:	4c 01       	movw	r8, r24
    4198:	8a 18       	sub	r8, r10
    419a:	9b 08       	sbc	r9, r11
    419c:	a4 01       	movw	r20, r8
    419e:	b5 01       	movw	r22, r10
    41a0:	ce 01       	movw	r24, r28
    41a2:	0e 94 a0 2a 	call	0x5540	; 0x5540 <memcpy>
    41a6:	c8 0d       	add	r28, r8
    41a8:	d9 1d       	adc	r29, r9
    41aa:	f7 01       	movw	r30, r14
    41ac:	60 81       	ld	r22, Z
    41ae:	71 81       	ldd	r23, Z+1	; 0x01
    41b0:	44 81       	ldd	r20, Z+4	; 0x04
    41b2:	55 81       	ldd	r21, Z+5	; 0x05
    41b4:	ce 01       	movw	r24, r28
    41b6:	0e 94 a0 2a 	call	0x5540	; 0x5540 <memcpy>
    41ba:	f7 01       	movw	r30, r14
    41bc:	84 81       	ldd	r24, Z+4	; 0x04
    41be:	95 81       	ldd	r25, Z+5	; 0x05
    41c0:	c8 0f       	add	r28, r24
    41c2:	d9 1f       	adc	r29, r25
    41c4:	f6 01       	movw	r30, r12
    41c6:	a4 80       	ldd	r10, Z+4	; 0x04
    41c8:	b5 80       	ldd	r11, Z+5	; 0x05
    41ca:	a4 0c       	add	r10, r4
    41cc:	b5 1c       	adc	r11, r5
    41ce:	f8 01       	movw	r30, r16
    41d0:	84 81       	ldd	r24, Z+4	; 0x04
    41d2:	95 81       	ldd	r25, Z+5	; 0x05
    41d4:	86 0d       	add	r24, r6
    41d6:	97 1d       	adc	r25, r7
    41d8:	95 83       	std	Z+5, r25	; 0x05
    41da:	84 83       	std	Z+4, r24	; 0x04
    41dc:	d3 cf       	rjmp	.-90     	; 0x4184 <_ZN6String7replaceERKS_S1_+0x90>
    41de:	b5 01       	movw	r22, r10
    41e0:	ce 01       	movw	r24, r28
    41e2:	df 91       	pop	r29
    41e4:	cf 91       	pop	r28
    41e6:	1f 91       	pop	r17
    41e8:	0f 91       	pop	r16
    41ea:	ff 90       	pop	r15
    41ec:	ef 90       	pop	r14
    41ee:	df 90       	pop	r13
    41f0:	cf 90       	pop	r12
    41f2:	bf 90       	pop	r11
    41f4:	af 90       	pop	r10
    41f6:	9f 90       	pop	r9
    41f8:	8f 90       	pop	r8
    41fa:	7f 90       	pop	r7
    41fc:	6f 90       	pop	r6
    41fe:	5f 90       	pop	r5
    4200:	4f 90       	pop	r4
    4202:	3f 90       	pop	r3
    4204:	2f 90       	pop	r2
    4206:	0c 94 cf 2a 	jmp	0x559e	; 0x559e <strcpy>
    420a:	fb 01       	movw	r30, r22
    420c:	20 80       	ld	r2, Z
    420e:	31 80       	ldd	r3, Z+1	; 0x01
    4210:	52 01       	movw	r10, r4
    4212:	b1 01       	movw	r22, r2
    4214:	ce 01       	movw	r24, r28
    4216:	0e 94 fe 2a 	call	0x55fc	; 0x55fc <strstr>
    421a:	00 97       	sbiw	r24, 0x00	; 0
    421c:	31 f0       	breq	.+12     	; 0x422a <_ZN6String7replaceERKS_S1_+0x136>
    421e:	ec 01       	movw	r28, r24
    4220:	c8 0d       	add	r28, r8
    4222:	d9 1d       	adc	r29, r9
    4224:	a6 0c       	add	r10, r6
    4226:	b7 1c       	adc	r11, r7
    4228:	f4 cf       	rjmp	.-24     	; 0x4212 <_ZN6String7replaceERKS_S1_+0x11e>
    422a:	a4 14       	cp	r10, r4
    422c:	b5 04       	cpc	r11, r5
    422e:	09 f4       	brne	.+2      	; 0x4232 <_ZN6String7replaceERKS_S1_+0x13e>
    4230:	48 c0       	rjmp	.+144    	; 0x42c2 <_ZN6String7replaceERKS_S1_+0x1ce>
    4232:	f8 01       	movw	r30, r16
    4234:	82 81       	ldd	r24, Z+2	; 0x02
    4236:	93 81       	ldd	r25, Z+3	; 0x03
    4238:	8a 15       	cp	r24, r10
    423a:	9b 05       	cpc	r25, r11
    423c:	30 f4       	brcc	.+12     	; 0x424a <_ZN6String7replaceERKS_S1_+0x156>
    423e:	b5 01       	movw	r22, r10
    4240:	c8 01       	movw	r24, r16
    4242:	0e 94 1d 19 	call	0x323a	; 0x323a <_ZN6String12changeBufferEj>
    4246:	88 23       	and	r24, r24
    4248:	e1 f1       	breq	.+120    	; 0x42c2 <_ZN6String7replaceERKS_S1_+0x1ce>
    424a:	f8 01       	movw	r30, r16
    424c:	44 81       	ldd	r20, Z+4	; 0x04
    424e:	55 81       	ldd	r21, Z+5	; 0x05
    4250:	41 50       	subi	r20, 0x01	; 1
    4252:	51 09       	sbc	r21, r1
    4254:	57 fd       	sbrc	r21, 7
    4256:	35 c0       	rjmp	.+106    	; 0x42c2 <_ZN6String7replaceERKS_S1_+0x1ce>
    4258:	b6 01       	movw	r22, r12
    425a:	c8 01       	movw	r24, r16
    425c:	0e 94 cf 1f 	call	0x3f9e	; 0x3f9e <_ZNK6String11lastIndexOfERKS_j>
    4260:	ec 01       	movw	r28, r24
    4262:	97 fd       	sbrc	r25, 7
    4264:	2e c0       	rjmp	.+92     	; 0x42c2 <_ZN6String7replaceERKS_S1_+0x1ce>
    4266:	f6 01       	movw	r30, r12
    4268:	24 81       	ldd	r18, Z+4	; 0x04
    426a:	35 81       	ldd	r19, Z+5	; 0x05
    426c:	28 0f       	add	r18, r24
    426e:	39 1f       	adc	r19, r25
    4270:	f8 01       	movw	r30, r16
    4272:	80 81       	ld	r24, Z
    4274:	91 81       	ldd	r25, Z+1	; 0x01
    4276:	82 0f       	add	r24, r18
    4278:	93 1f       	adc	r25, r19
    427a:	44 81       	ldd	r20, Z+4	; 0x04
    427c:	55 81       	ldd	r21, Z+5	; 0x05
    427e:	42 1b       	sub	r20, r18
    4280:	53 0b       	sbc	r21, r19
    4282:	bc 01       	movw	r22, r24
    4284:	86 0d       	add	r24, r6
    4286:	97 1d       	adc	r25, r7
    4288:	0e 94 a9 2a 	call	0x5552	; 0x5552 <memmove>
    428c:	f8 01       	movw	r30, r16
    428e:	84 81       	ldd	r24, Z+4	; 0x04
    4290:	95 81       	ldd	r25, Z+5	; 0x05
    4292:	86 0d       	add	r24, r6
    4294:	97 1d       	adc	r25, r7
    4296:	95 83       	std	Z+5, r25	; 0x05
    4298:	84 83       	std	Z+4, r24	; 0x04
    429a:	20 81       	ld	r18, Z
    429c:	31 81       	ldd	r19, Z+1	; 0x01
    429e:	f9 01       	movw	r30, r18
    42a0:	e8 0f       	add	r30, r24
    42a2:	f9 1f       	adc	r31, r25
    42a4:	10 82       	st	Z, r1
    42a6:	f8 01       	movw	r30, r16
    42a8:	80 81       	ld	r24, Z
    42aa:	91 81       	ldd	r25, Z+1	; 0x01
    42ac:	f7 01       	movw	r30, r14
    42ae:	60 81       	ld	r22, Z
    42b0:	71 81       	ldd	r23, Z+1	; 0x01
    42b2:	44 81       	ldd	r20, Z+4	; 0x04
    42b4:	55 81       	ldd	r21, Z+5	; 0x05
    42b6:	8c 0f       	add	r24, r28
    42b8:	9d 1f       	adc	r25, r29
    42ba:	0e 94 a0 2a 	call	0x5540	; 0x5540 <memcpy>
    42be:	ae 01       	movw	r20, r28
    42c0:	c7 cf       	rjmp	.-114    	; 0x4250 <_ZN6String7replaceERKS_S1_+0x15c>
    42c2:	df 91       	pop	r29
    42c4:	cf 91       	pop	r28
    42c6:	1f 91       	pop	r17
    42c8:	0f 91       	pop	r16
    42ca:	ff 90       	pop	r15
    42cc:	ef 90       	pop	r14
    42ce:	df 90       	pop	r13
    42d0:	cf 90       	pop	r12
    42d2:	bf 90       	pop	r11
    42d4:	af 90       	pop	r10
    42d6:	9f 90       	pop	r9
    42d8:	8f 90       	pop	r8
    42da:	7f 90       	pop	r7
    42dc:	6f 90       	pop	r6
    42de:	5f 90       	pop	r5
    42e0:	4f 90       	pop	r4
    42e2:	3f 90       	pop	r3
    42e4:	2f 90       	pop	r2
    42e6:	08 95       	ret

000042e8 <_ZN6String6removeEjj>:
    42e8:	cf 93       	push	r28
    42ea:	df 93       	push	r29
    42ec:	dc 01       	movw	r26, r24
    42ee:	14 96       	adiw	r26, 0x04	; 4
    42f0:	ed 91       	ld	r30, X+
    42f2:	fc 91       	ld	r31, X
    42f4:	15 97       	sbiw	r26, 0x05	; 5
    42f6:	6e 17       	cp	r22, r30
    42f8:	7f 07       	cpc	r23, r31
    42fa:	30 f5       	brcc	.+76     	; 0x4348 <_ZN6String6removeEjj+0x60>
    42fc:	41 15       	cp	r20, r1
    42fe:	51 05       	cpc	r21, r1
    4300:	19 f1       	breq	.+70     	; 0x4348 <_ZN6String6removeEjj+0x60>
    4302:	df 01       	movw	r26, r30
    4304:	a6 1b       	sub	r26, r22
    4306:	b7 0b       	sbc	r27, r23
    4308:	9a 01       	movw	r18, r20
    430a:	a4 17       	cp	r26, r20
    430c:	b5 07       	cpc	r27, r21
    430e:	08 f4       	brcc	.+2      	; 0x4312 <_ZN6String6removeEjj+0x2a>
    4310:	9d 01       	movw	r18, r26
    4312:	db 01       	movw	r26, r22
    4314:	ec 01       	movw	r28, r24
    4316:	88 81       	ld	r24, Y
    4318:	99 81       	ldd	r25, Y+1	; 0x01
    431a:	e2 1b       	sub	r30, r18
    431c:	f3 0b       	sbc	r31, r19
    431e:	fd 83       	std	Y+5, r31	; 0x05
    4320:	ec 83       	std	Y+4, r30	; 0x04
    4322:	af 01       	movw	r20, r30
    4324:	46 1b       	sub	r20, r22
    4326:	57 0b       	sbc	r21, r23
    4328:	26 0f       	add	r18, r22
    432a:	37 1f       	adc	r19, r23
    432c:	bc 01       	movw	r22, r24
    432e:	62 0f       	add	r22, r18
    4330:	73 1f       	adc	r23, r19
    4332:	8a 0f       	add	r24, r26
    4334:	9b 1f       	adc	r25, r27
    4336:	0e 94 e4 2a 	call	0x55c8	; 0x55c8 <strncpy>
    433a:	e8 81       	ld	r30, Y
    433c:	f9 81       	ldd	r31, Y+1	; 0x01
    433e:	8c 81       	ldd	r24, Y+4	; 0x04
    4340:	9d 81       	ldd	r25, Y+5	; 0x05
    4342:	e8 0f       	add	r30, r24
    4344:	f9 1f       	adc	r31, r25
    4346:	10 82       	st	Z, r1
    4348:	df 91       	pop	r29
    434a:	cf 91       	pop	r28
    434c:	08 95       	ret

0000434e <_ZN6String6removeEj>:
    434e:	4f ef       	ldi	r20, 0xFF	; 255
    4350:	5f ef       	ldi	r21, 0xFF	; 255
    4352:	0c 94 74 21 	jmp	0x42e8	; 0x42e8 <_ZN6String6removeEjj>

00004356 <_ZN6String11toLowerCaseEv>:
    4356:	cf 93       	push	r28
    4358:	df 93       	push	r29
    435a:	fc 01       	movw	r30, r24
    435c:	c0 81       	ld	r28, Z
    435e:	d1 81       	ldd	r29, Z+1	; 0x01
    4360:	20 97       	sbiw	r28, 0x00	; 0
    4362:	51 f0       	breq	.+20     	; 0x4378 <_ZN6String11toLowerCaseEv+0x22>
    4364:	88 81       	ld	r24, Y
    4366:	88 23       	and	r24, r24
    4368:	39 f0       	breq	.+14     	; 0x4378 <_ZN6String11toLowerCaseEv+0x22>
    436a:	08 2e       	mov	r0, r24
    436c:	00 0c       	add	r0, r0
    436e:	99 0b       	sbc	r25, r25
    4370:	0e 94 73 2a 	call	0x54e6	; 0x54e6 <tolower>
    4374:	89 93       	st	Y+, r24
    4376:	f6 cf       	rjmp	.-20     	; 0x4364 <_ZN6String11toLowerCaseEv+0xe>
    4378:	df 91       	pop	r29
    437a:	cf 91       	pop	r28
    437c:	08 95       	ret

0000437e <_ZN6String11toUpperCaseEv>:
    437e:	cf 93       	push	r28
    4380:	df 93       	push	r29
    4382:	fc 01       	movw	r30, r24
    4384:	c0 81       	ld	r28, Z
    4386:	d1 81       	ldd	r29, Z+1	; 0x01
    4388:	20 97       	sbiw	r28, 0x00	; 0
    438a:	51 f0       	breq	.+20     	; 0x43a0 <_ZN6String11toUpperCaseEv+0x22>
    438c:	88 81       	ld	r24, Y
    438e:	88 23       	and	r24, r24
    4390:	39 f0       	breq	.+14     	; 0x43a0 <_ZN6String11toUpperCaseEv+0x22>
    4392:	08 2e       	mov	r0, r24
    4394:	00 0c       	add	r0, r0
    4396:	99 0b       	sbc	r25, r25
    4398:	0e 94 7b 2a 	call	0x54f6	; 0x54f6 <toupper>
    439c:	89 93       	st	Y+, r24
    439e:	f6 cf       	rjmp	.-20     	; 0x438c <_ZN6String11toUpperCaseEv+0xe>
    43a0:	df 91       	pop	r29
    43a2:	cf 91       	pop	r28
    43a4:	08 95       	ret

000043a6 <_ZN6String4trimEv>:
    43a6:	af 92       	push	r10
    43a8:	bf 92       	push	r11
    43aa:	cf 92       	push	r12
    43ac:	df 92       	push	r13
    43ae:	ef 92       	push	r14
    43b0:	ff 92       	push	r15
    43b2:	0f 93       	push	r16
    43b4:	1f 93       	push	r17
    43b6:	cf 93       	push	r28
    43b8:	df 93       	push	r29
    43ba:	dc 01       	movw	r26, r24
    43bc:	cd 90       	ld	r12, X+
    43be:	dc 90       	ld	r13, X
    43c0:	11 97       	sbiw	r26, 0x01	; 1
    43c2:	c1 14       	cp	r12, r1
    43c4:	d1 04       	cpc	r13, r1
    43c6:	09 f4       	brne	.+2      	; 0x43ca <_ZN6String4trimEv+0x24>
    43c8:	43 c0       	rjmp	.+134    	; 0x4450 <_ZN6String4trimEv+0xaa>
    43ca:	14 96       	adiw	r26, 0x04	; 4
    43cc:	cd 91       	ld	r28, X+
    43ce:	dc 91       	ld	r29, X
    43d0:	15 97       	sbiw	r26, 0x05	; 5
    43d2:	20 97       	sbiw	r28, 0x00	; 0
    43d4:	e9 f1       	breq	.+122    	; 0x4450 <_ZN6String4trimEv+0xaa>
    43d6:	8c 01       	movw	r16, r24
    43d8:	76 01       	movw	r14, r12
    43da:	57 01       	movw	r10, r14
    43dc:	bf ef       	ldi	r27, 0xFF	; 255
    43de:	ab 1a       	sub	r10, r27
    43e0:	bb 0a       	sbc	r11, r27
    43e2:	f7 01       	movw	r30, r14
    43e4:	80 81       	ld	r24, Z
    43e6:	08 2e       	mov	r0, r24
    43e8:	00 0c       	add	r0, r0
    43ea:	99 0b       	sbc	r25, r25
    43ec:	0e 94 6a 2a 	call	0x54d4	; 0x54d4 <isspace>
    43f0:	89 2b       	or	r24, r25
    43f2:	11 f0       	breq	.+4      	; 0x43f8 <_ZN6String4trimEv+0x52>
    43f4:	75 01       	movw	r14, r10
    43f6:	f1 cf       	rjmp	.-30     	; 0x43da <_ZN6String4trimEv+0x34>
    43f8:	21 97       	sbiw	r28, 0x01	; 1
    43fa:	cc 0d       	add	r28, r12
    43fc:	dd 1d       	adc	r29, r13
    43fe:	88 81       	ld	r24, Y
    4400:	08 2e       	mov	r0, r24
    4402:	00 0c       	add	r0, r0
    4404:	99 0b       	sbc	r25, r25
    4406:	0e 94 6a 2a 	call	0x54d4	; 0x54d4 <isspace>
    440a:	89 2b       	or	r24, r25
    440c:	29 f0       	breq	.+10     	; 0x4418 <_ZN6String4trimEv+0x72>
    440e:	ce 15       	cp	r28, r14
    4410:	df 05       	cpc	r29, r15
    4412:	10 f0       	brcs	.+4      	; 0x4418 <_ZN6String4trimEv+0x72>
    4414:	21 97       	sbiw	r28, 0x01	; 1
    4416:	f3 cf       	rjmp	.-26     	; 0x43fe <_ZN6String4trimEv+0x58>
    4418:	ae 01       	movw	r20, r28
    441a:	4f 5f       	subi	r20, 0xFF	; 255
    441c:	5f 4f       	sbci	r21, 0xFF	; 255
    441e:	4e 19       	sub	r20, r14
    4420:	5f 09       	sbc	r21, r15
    4422:	d8 01       	movw	r26, r16
    4424:	15 96       	adiw	r26, 0x05	; 5
    4426:	5c 93       	st	X, r21
    4428:	4e 93       	st	-X, r20
    442a:	14 97       	sbiw	r26, 0x04	; 4
    442c:	ce 14       	cp	r12, r14
    442e:	df 04       	cpc	r13, r15
    4430:	20 f4       	brcc	.+8      	; 0x443a <_ZN6String4trimEv+0x94>
    4432:	b7 01       	movw	r22, r14
    4434:	c6 01       	movw	r24, r12
    4436:	0e 94 a0 2a 	call	0x5540	; 0x5540 <memcpy>
    443a:	d8 01       	movw	r26, r16
    443c:	ed 91       	ld	r30, X+
    443e:	fc 91       	ld	r31, X
    4440:	11 97       	sbiw	r26, 0x01	; 1
    4442:	14 96       	adiw	r26, 0x04	; 4
    4444:	8d 91       	ld	r24, X+
    4446:	9c 91       	ld	r25, X
    4448:	15 97       	sbiw	r26, 0x05	; 5
    444a:	e8 0f       	add	r30, r24
    444c:	f9 1f       	adc	r31, r25
    444e:	10 82       	st	Z, r1
    4450:	df 91       	pop	r29
    4452:	cf 91       	pop	r28
    4454:	1f 91       	pop	r17
    4456:	0f 91       	pop	r16
    4458:	ff 90       	pop	r15
    445a:	ef 90       	pop	r14
    445c:	df 90       	pop	r13
    445e:	cf 90       	pop	r12
    4460:	bf 90       	pop	r11
    4462:	af 90       	pop	r10
    4464:	08 95       	ret

00004466 <_ZNK6String5toIntEv>:
    4466:	fc 01       	movw	r30, r24
    4468:	80 81       	ld	r24, Z
    446a:	91 81       	ldd	r25, Z+1	; 0x01
    446c:	00 97       	sbiw	r24, 0x00	; 0
    446e:	11 f0       	breq	.+4      	; 0x4474 <_ZNK6String5toIntEv+0xe>
    4470:	0c 94 43 2a 	jmp	0x5486	; 0x5486 <atol>
    4474:	60 e0       	ldi	r22, 0x00	; 0
    4476:	70 e0       	ldi	r23, 0x00	; 0
    4478:	cb 01       	movw	r24, r22
    447a:	08 95       	ret

0000447c <_ZNK6String8toDoubleEv>:
    447c:	fc 01       	movw	r30, r24
    447e:	80 81       	ld	r24, Z
    4480:	91 81       	ldd	r25, Z+1	; 0x01
    4482:	00 97       	sbiw	r24, 0x00	; 0
    4484:	11 f0       	breq	.+4      	; 0x448a <_ZNK6String8toDoubleEv+0xe>
    4486:	0c 94 3f 2a 	jmp	0x547e	; 0x547e <atof>
    448a:	60 e0       	ldi	r22, 0x00	; 0
    448c:	70 e0       	ldi	r23, 0x00	; 0
    448e:	cb 01       	movw	r24, r22
    4490:	08 95       	ret

00004492 <_ZNK6String7toFloatEv>:
    4492:	0c 94 3e 22 	jmp	0x447c	; 0x447c <_ZNK6String8toDoubleEv>

00004496 <_Z11ComfortInitv>:
    4496:	8f e4       	ldi	r24, 0x4F	; 79
    4498:	92 e0       	ldi	r25, 0x02	; 2
    449a:	0c 94 da 22 	jmp	0x45b4	; 0x45b4 <_Z7HWPrintPc>

0000449e <_Z19ComfortMainFunctionv>:
    449e:	cf 93       	push	r28
    44a0:	df 93       	push	r29
    44a2:	cd b7       	in	r28, 0x3d	; 61
    44a4:	de b7       	in	r29, 0x3e	; 62
    44a6:	28 97       	sbiw	r28, 0x08	; 8
    44a8:	0f b6       	in	r0, 0x3f	; 63
    44aa:	f8 94       	cli
    44ac:	de bf       	out	0x3e, r29	; 62
    44ae:	0f be       	out	0x3f, r0	; 63
    44b0:	cd bf       	out	0x3d, r28	; 61
    44b2:	be 01       	movw	r22, r28
    44b4:	6f 5f       	subi	r22, 0xFF	; 255
    44b6:	7f 4f       	sbci	r23, 0xFF	; 255
    44b8:	ce 01       	movw	r24, r28
    44ba:	05 96       	adiw	r24, 0x05	; 5
    44bc:	0e 94 b2 22 	call	0x4564	; 0x4564 <_Z9HWReadDHTPdS_>
    44c0:	86 e7       	ldi	r24, 0x76	; 118
    44c2:	92 e0       	ldi	r25, 0x02	; 2
    44c4:	0e 94 da 22 	call	0x45b4	; 0x45b4 <_Z7HWPrintPc>
    44c8:	89 e8       	ldi	r24, 0x89	; 137
    44ca:	92 e0       	ldi	r25, 0x02	; 2
    44cc:	0e 94 da 22 	call	0x45b4	; 0x45b4 <_Z7HWPrintPc>
    44d0:	69 81       	ldd	r22, Y+1	; 0x01
    44d2:	7a 81       	ldd	r23, Y+2	; 0x02
    44d4:	8b 81       	ldd	r24, Y+3	; 0x03
    44d6:	9c 81       	ldd	r25, Y+4	; 0x04
    44d8:	0e 94 df 22 	call	0x45be	; 0x45be <_Z8HWDPrintd>
    44dc:	84 e9       	ldi	r24, 0x94	; 148
    44de:	92 e0       	ldi	r25, 0x02	; 2
    44e0:	0e 94 da 22 	call	0x45b4	; 0x45b4 <_Z7HWPrintPc>
    44e4:	89 e9       	ldi	r24, 0x99	; 153
    44e6:	92 e0       	ldi	r25, 0x02	; 2
    44e8:	0e 94 da 22 	call	0x45b4	; 0x45b4 <_Z7HWPrintPc>
    44ec:	6d 81       	ldd	r22, Y+5	; 0x05
    44ee:	7e 81       	ldd	r23, Y+6	; 0x06
    44f0:	8f 81       	ldd	r24, Y+7	; 0x07
    44f2:	98 85       	ldd	r25, Y+8	; 0x08
    44f4:	0e 94 df 22 	call	0x45be	; 0x45be <_Z8HWDPrintd>
    44f8:	87 ea       	ldi	r24, 0xA7	; 167
    44fa:	92 e0       	ldi	r25, 0x02	; 2
    44fc:	0e 94 da 22 	call	0x45b4	; 0x45b4 <_Z7HWPrintPc>
    4500:	68 eb       	ldi	r22, 0xB8	; 184
    4502:	7b e0       	ldi	r23, 0x0B	; 11
    4504:	80 e0       	ldi	r24, 0x00	; 0
    4506:	90 e0       	ldi	r25, 0x00	; 0
    4508:	0e 94 92 14 	call	0x2924	; 0x2924 <delay>
    450c:	28 96       	adiw	r28, 0x08	; 8
    450e:	0f b6       	in	r0, 0x3f	; 63
    4510:	f8 94       	cli
    4512:	de bf       	out	0x3e, r29	; 62
    4514:	0f be       	out	0x3f, r0	; 63
    4516:	cd bf       	out	0x3d, r28	; 61
    4518:	df 91       	pop	r29
    451a:	cf 91       	pop	r28
    451c:	08 95       	ret

0000451e <_Z12HWReadInputsPh>:
    451e:	fc 01       	movw	r30, r24
    4520:	90 81       	ld	r25, Z
    4522:	90 95       	com	r25
    4524:	90 83       	st	Z, r25
    4526:	08 95       	ret

00004528 <_Z13HWDigitalReadh>:
    4528:	cf 93       	push	r28
    452a:	df 93       	push	r29
    452c:	d8 2f       	mov	r29, r24
    452e:	0e 94 ed 16 	call	0x2dda	; 0x2dda <digitalRead>
    4532:	c8 2f       	mov	r28, r24
    4534:	4a e0       	ldi	r20, 0x0A	; 10
    4536:	50 e0       	ldi	r21, 0x00	; 0
    4538:	6d 2f       	mov	r22, r29
    453a:	86 e1       	ldi	r24, 0x16	; 22
    453c:	93 e0       	ldi	r25, 0x03	; 3
    453e:	0e 94 f8 08 	call	0x11f0	; 0x11f0 <_ZN5Print7printlnEhi>
    4542:	4a e0       	ldi	r20, 0x0A	; 10
    4544:	50 e0       	ldi	r21, 0x00	; 0
    4546:	6c 2f       	mov	r22, r28
    4548:	86 e1       	ldi	r24, 0x16	; 22
    454a:	93 e0       	ldi	r25, 0x03	; 3
    454c:	0e 94 f8 08 	call	0x11f0	; 0x11f0 <_ZN5Print7printlnEhi>
    4550:	6c ea       	ldi	r22, 0xAC	; 172
    4552:	72 e0       	ldi	r23, 0x02	; 2
    4554:	86 e1       	ldi	r24, 0x16	; 22
    4556:	93 e0       	ldi	r25, 0x03	; 3
    4558:	0e 94 65 08 	call	0x10ca	; 0x10ca <_ZN5Print7printlnEPKc>
    455c:	8c 2f       	mov	r24, r28
    455e:	df 91       	pop	r29
    4560:	cf 91       	pop	r28
    4562:	08 95       	ret

00004564 <_Z9HWReadDHTPdS_>:
    4564:	ef 92       	push	r14
    4566:	ff 92       	push	r15
    4568:	0f 93       	push	r16
    456a:	1f 93       	push	r17
    456c:	cf 93       	push	r28
    456e:	df 93       	push	r29
    4570:	8c 01       	movw	r16, r24
    4572:	7b 01       	movw	r14, r22
    4574:	66 e3       	ldi	r22, 0x36	; 54
    4576:	8e eb       	ldi	r24, 0xBE	; 190
    4578:	95 e0       	ldi	r25, 0x05	; 5
    457a:	0e 94 40 03 	call	0x680	; 0x680 <_ZN3dht6read11Eh>
    457e:	ee eb       	ldi	r30, 0xBE	; 190
    4580:	f5 e0       	ldi	r31, 0x05	; 5
    4582:	84 81       	ldd	r24, Z+4	; 0x04
    4584:	95 81       	ldd	r25, Z+5	; 0x05
    4586:	a6 81       	ldd	r26, Z+6	; 0x06
    4588:	b7 81       	ldd	r27, Z+7	; 0x07
    458a:	e8 01       	movw	r28, r16
    458c:	88 83       	st	Y, r24
    458e:	99 83       	std	Y+1, r25	; 0x01
    4590:	aa 83       	std	Y+2, r26	; 0x02
    4592:	bb 83       	std	Y+3, r27	; 0x03
    4594:	80 81       	ld	r24, Z
    4596:	91 81       	ldd	r25, Z+1	; 0x01
    4598:	a2 81       	ldd	r26, Z+2	; 0x02
    459a:	b3 81       	ldd	r27, Z+3	; 0x03
    459c:	f7 01       	movw	r30, r14
    459e:	80 83       	st	Z, r24
    45a0:	91 83       	std	Z+1, r25	; 0x01
    45a2:	a2 83       	std	Z+2, r26	; 0x02
    45a4:	b3 83       	std	Z+3, r27	; 0x03
    45a6:	df 91       	pop	r29
    45a8:	cf 91       	pop	r28
    45aa:	1f 91       	pop	r17
    45ac:	0f 91       	pop	r16
    45ae:	ff 90       	pop	r15
    45b0:	ef 90       	pop	r14
    45b2:	08 95       	ret

000045b4 <_Z7HWPrintPc>:
    45b4:	bc 01       	movw	r22, r24
    45b6:	86 e1       	ldi	r24, 0x16	; 22
    45b8:	93 e0       	ldi	r25, 0x03	; 3
    45ba:	0c 94 65 08 	jmp	0x10ca	; 0x10ca <_ZN5Print7printlnEPKc>

000045be <_Z8HWDPrintd>:
    45be:	ab 01       	movw	r20, r22
    45c0:	bc 01       	movw	r22, r24
    45c2:	22 e0       	ldi	r18, 0x02	; 2
    45c4:	30 e0       	ldi	r19, 0x00	; 0
    45c6:	86 e1       	ldi	r24, 0x16	; 22
    45c8:	93 e0       	ldi	r25, 0x03	; 3
    45ca:	0c 94 84 0a 	jmp	0x1508	; 0x1508 <_ZN5Print7printlnEdi>

000045ce <_Z14HWWriteOutputsPh>:
    45ce:	4a e0       	ldi	r20, 0x0A	; 10
    45d0:	50 e0       	ldi	r21, 0x00	; 0
    45d2:	fc 01       	movw	r30, r24
    45d4:	60 81       	ld	r22, Z
    45d6:	86 e1       	ldi	r24, 0x16	; 22
    45d8:	93 e0       	ldi	r25, 0x03	; 3
    45da:	0c 94 f8 08 	jmp	0x11f0	; 0x11f0 <_ZN5Print7printlnEhi>

000045de <_Z13HWDigitalModehh>:
    45de:	0c 94 82 16 	jmp	0x2d04	; 0x2d04 <pinMode>

000045e2 <_Z14HWDigitalWritehh>:
    45e2:	0c 94 be 16 	jmp	0x2d7c	; 0x2d7c <digitalWrite>

000045e6 <_Z10LightsInitv>:
    45e6:	cf 93       	push	r28
    45e8:	df 93       	push	r29
    45ea:	c8 ef       	ldi	r28, 0xF8	; 248
    45ec:	d5 e0       	ldi	r29, 0x05	; 5
    45ee:	91 e0       	ldi	r25, 0x01	; 1
    45f0:	98 83       	st	Y, r25
    45f2:	86 e1       	ldi	r24, 0x16	; 22
    45f4:	89 83       	std	Y+1, r24	; 0x01
    45f6:	1a 82       	std	Y+2, r1	; 0x02
    45f8:	1b 82       	std	Y+3, r1	; 0x03
    45fa:	82 e0       	ldi	r24, 0x02	; 2
    45fc:	8d 83       	std	Y+5, r24	; 0x05
    45fe:	eb ec       	ldi	r30, 0xCB	; 203
    4600:	f5 e0       	ldi	r31, 0x05	; 5
    4602:	ff 83       	std	Y+7, r31	; 0x07
    4604:	ee 83       	std	Y+6, r30	; 0x06
    4606:	84 e6       	ldi	r24, 0x64	; 100
    4608:	88 87       	std	Y+8, r24	; 0x08
    460a:	28 e0       	ldi	r18, 0x08	; 8
    460c:	20 83       	st	Z, r18
    460e:	29 e0       	ldi	r18, 0x09	; 9
    4610:	23 83       	std	Z+3, r18	; 0x03
    4612:	99 87       	std	Y+9, r25	; 0x09
    4614:	9e e0       	ldi	r25, 0x0E	; 14
    4616:	9a 87       	std	Y+10, r25	; 0x0a
    4618:	1b 86       	std	Y+11, r1	; 0x0b
    461a:	1c 86       	std	Y+12, r1	; 0x0c
    461c:	93 e0       	ldi	r25, 0x03	; 3
    461e:	9e 87       	std	Y+14, r25	; 0x0e
    4620:	21 ed       	ldi	r18, 0xD1	; 209
    4622:	35 e0       	ldi	r19, 0x05	; 5
    4624:	38 8b       	std	Y+16, r19	; 0x10
    4626:	2f 87       	std	Y+15, r18	; 0x0f
    4628:	89 8b       	std	Y+17, r24	; 0x11
    462a:	8a e0       	ldi	r24, 0x0A	; 10
    462c:	86 83       	std	Z+6, r24	; 0x06
    462e:	8b e0       	ldi	r24, 0x0B	; 11
    4630:	81 87       	std	Z+9, r24	; 0x09
    4632:	61 e0       	ldi	r22, 0x01	; 1
    4634:	86 e1       	ldi	r24, 0x16	; 22
    4636:	0e 94 ef 22 	call	0x45de	; 0x45de <_Z13HWDigitalModehh>
    463a:	61 e0       	ldi	r22, 0x01	; 1
    463c:	8a 85       	ldd	r24, Y+10	; 0x0a
    463e:	df 91       	pop	r29
    4640:	cf 91       	pop	r28
    4642:	0c 94 ef 22 	jmp	0x45de	; 0x45de <_Z13HWDigitalModehh>

00004646 <_Z18LightsMainFunctionv>:
    4646:	ef 92       	push	r14
    4648:	ff 92       	push	r15
    464a:	0f 93       	push	r16
    464c:	1f 93       	push	r17
    464e:	cf 93       	push	r28
    4650:	df 93       	push	r29
    4652:	c8 ef       	ldi	r28, 0xF8	; 248
    4654:	d5 e0       	ldi	r29, 0x05	; 5
    4656:	86 e0       	ldi	r24, 0x06	; 6
    4658:	ca 30       	cpi	r28, 0x0A	; 10
    465a:	d8 07       	cpc	r29, r24
    465c:	e9 f0       	breq	.+58     	; 0x4698 <_Z18LightsMainFunctionv+0x52>
    465e:	00 e0       	ldi	r16, 0x00	; 0
    4660:	10 e0       	ldi	r17, 0x00	; 0
    4662:	e1 2c       	mov	r14, r1
    4664:	f1 2c       	mov	r15, r1
    4666:	8d 81       	ldd	r24, Y+5	; 0x05
    4668:	90 e0       	ldi	r25, 0x00	; 0
    466a:	e8 16       	cp	r14, r24
    466c:	f9 06       	cpc	r15, r25
    466e:	74 f4       	brge	.+28     	; 0x468c <_Z18LightsMainFunctionv+0x46>
    4670:	ee 81       	ldd	r30, Y+6	; 0x06
    4672:	ff 81       	ldd	r31, Y+7	; 0x07
    4674:	e0 0f       	add	r30, r16
    4676:	f1 1f       	adc	r31, r17
    4678:	80 81       	ld	r24, Z
    467a:	0e 94 94 22 	call	0x4528	; 0x4528 <_Z13HWDigitalReadh>
    467e:	8a 83       	std	Y+2, r24	; 0x02
    4680:	8f ef       	ldi	r24, 0xFF	; 255
    4682:	e8 1a       	sub	r14, r24
    4684:	f8 0a       	sbc	r15, r24
    4686:	0d 5f       	subi	r16, 0xFD	; 253
    4688:	1f 4f       	sbci	r17, 0xFF	; 255
    468a:	ed cf       	rjmp	.-38     	; 0x4666 <_Z18LightsMainFunctionv+0x20>
    468c:	6a 81       	ldd	r22, Y+2	; 0x02
    468e:	89 81       	ldd	r24, Y+1	; 0x01
    4690:	0e 94 f1 22 	call	0x45e2	; 0x45e2 <_Z14HWDigitalWritehh>
    4694:	29 96       	adiw	r28, 0x09	; 9
    4696:	df cf       	rjmp	.-66     	; 0x4656 <_Z18LightsMainFunctionv+0x10>
    4698:	df 91       	pop	r29
    469a:	cf 91       	pop	r28
    469c:	1f 91       	pop	r17
    469e:	0f 91       	pop	r16
    46a0:	ff 90       	pop	r15
    46a2:	ef 90       	pop	r14
    46a4:	08 95       	ret

000046a6 <_Z12MainFunctionv>:
    46a6:	0e 94 23 23 	call	0x4646	; 0x4646 <_Z18LightsMainFunctionv>
    46aa:	0c 94 4f 22 	jmp	0x449e	; 0x449e <_Z19ComfortMainFunctionv>

000046ae <setup>:
    46ae:	26 e0       	ldi	r18, 0x06	; 6
    46b0:	40 e8       	ldi	r20, 0x80	; 128
    46b2:	55 e2       	ldi	r21, 0x25	; 37
    46b4:	60 e0       	ldi	r22, 0x00	; 0
    46b6:	70 e0       	ldi	r23, 0x00	; 0
    46b8:	86 e1       	ldi	r24, 0x16	; 22
    46ba:	93 e0       	ldi	r25, 0x03	; 3
    46bc:	0e 94 d2 04 	call	0x9a4	; 0x9a4 <_ZN14HardwareSerial5beginEmh>
    46c0:	0e 94 f3 22 	call	0x45e6	; 0x45e6 <_Z10LightsInitv>
    46c4:	0c 94 4b 22 	jmp	0x4496	; 0x4496 <_Z11ComfortInitv>

000046c8 <loop>:
    46c8:	0e 94 53 23 	call	0x46a6	; 0x46a6 <_Z12MainFunctionv>
    46cc:	64 ef       	ldi	r22, 0xF4	; 244
    46ce:	71 e0       	ldi	r23, 0x01	; 1
    46d0:	80 e0       	ldi	r24, 0x00	; 0
    46d2:	90 e0       	ldi	r25, 0x00	; 0
    46d4:	0c 94 92 14 	jmp	0x2924	; 0x2924 <delay>

000046d8 <SWReadInputs>:
    46d8:	fc 01       	movw	r30, r24
    46da:	90 81       	ld	r25, Z
    46dc:	90 95       	com	r25
    46de:	90 83       	st	Z, r25
    46e0:	08 95       	ret

000046e2 <SWDigitalRead>:
    46e2:	1f 92       	push	r1
    46e4:	1f 92       	push	r1
    46e6:	1f 92       	push	r1
    46e8:	8f 93       	push	r24
    46ea:	80 eb       	ldi	r24, 0xB0	; 176
    46ec:	92 e0       	ldi	r25, 0x02	; 2
    46ee:	9f 93       	push	r25
    46f0:	8f 93       	push	r24
    46f2:	0e 94 af 2b 	call	0x575e	; 0x575e <printf>
    46f6:	0f 90       	pop	r0
    46f8:	0f 90       	pop	r0
    46fa:	0f 90       	pop	r0
    46fc:	0f 90       	pop	r0
    46fe:	0f 90       	pop	r0
    4700:	0f 90       	pop	r0
    4702:	80 e0       	ldi	r24, 0x00	; 0
    4704:	08 95       	ret

00004706 <SWReadDHT>:
    4706:	0f 93       	push	r16
    4708:	1f 93       	push	r17
    470a:	00 e0       	ldi	r16, 0x00	; 0
    470c:	10 e0       	ldi	r17, 0x00	; 0
    470e:	28 ec       	ldi	r18, 0xC8	; 200
    4710:	31 e4       	ldi	r19, 0x41	; 65
    4712:	fc 01       	movw	r30, r24
    4714:	00 83       	st	Z, r16
    4716:	11 83       	std	Z+1, r17	; 0x01
    4718:	22 83       	std	Z+2, r18	; 0x02
    471a:	33 83       	std	Z+3, r19	; 0x03
    471c:	80 e0       	ldi	r24, 0x00	; 0
    471e:	90 e0       	ldi	r25, 0x00	; 0
    4720:	a8 e4       	ldi	r26, 0x48	; 72
    4722:	b2 e4       	ldi	r27, 0x42	; 66
    4724:	fb 01       	movw	r30, r22
    4726:	80 83       	st	Z, r24
    4728:	91 83       	std	Z+1, r25	; 0x01
    472a:	a2 83       	std	Z+2, r26	; 0x02
    472c:	b3 83       	std	Z+3, r27	; 0x03
    472e:	1f 91       	pop	r17
    4730:	0f 91       	pop	r16
    4732:	08 95       	ret

00004734 <SWPrint>:
    4734:	0c 94 c3 2b 	jmp	0x5786	; 0x5786 <puts>

00004738 <SWDPrint>:
    4738:	9f 93       	push	r25
    473a:	8f 93       	push	r24
    473c:	7f 93       	push	r23
    473e:	6f 93       	push	r22
    4740:	81 ed       	ldi	r24, 0xD1	; 209
    4742:	92 e0       	ldi	r25, 0x02	; 2
    4744:	9f 93       	push	r25
    4746:	8f 93       	push	r24
    4748:	0e 94 af 2b 	call	0x575e	; 0x575e <printf>
    474c:	0f 90       	pop	r0
    474e:	0f 90       	pop	r0
    4750:	0f 90       	pop	r0
    4752:	0f 90       	pop	r0
    4754:	0f 90       	pop	r0
    4756:	0f 90       	pop	r0
    4758:	08 95       	ret

0000475a <SWDigitalWrite>:
    475a:	1f 92       	push	r1
    475c:	6f 93       	push	r22
    475e:	1f 92       	push	r1
    4760:	8f 93       	push	r24
    4762:	85 ed       	ldi	r24, 0xD5	; 213
    4764:	92 e0       	ldi	r25, 0x02	; 2
    4766:	9f 93       	push	r25
    4768:	8f 93       	push	r24
    476a:	0e 94 af 2b 	call	0x575e	; 0x575e <printf>
    476e:	0f 90       	pop	r0
    4770:	0f 90       	pop	r0
    4772:	0f 90       	pop	r0
    4774:	0f 90       	pop	r0
    4776:	0f 90       	pop	r0
    4778:	0f 90       	pop	r0
    477a:	08 95       	ret

0000477c <SWDigitalMode>:
    477c:	1f 92       	push	r1
    477e:	6f 93       	push	r22
    4780:	1f 92       	push	r1
    4782:	8f 93       	push	r24
    4784:	87 ef       	ldi	r24, 0xF7	; 247
    4786:	92 e0       	ldi	r25, 0x02	; 2
    4788:	9f 93       	push	r25
    478a:	8f 93       	push	r24
    478c:	0e 94 af 2b 	call	0x575e	; 0x575e <printf>
    4790:	0f 90       	pop	r0
    4792:	0f 90       	pop	r0
    4794:	0f 90       	pop	r0
    4796:	0f 90       	pop	r0
    4798:	0f 90       	pop	r0
    479a:	0f 90       	pop	r0
    479c:	08 95       	ret

0000479e <SWWriteOutputs>:
    479e:	fc 01       	movw	r30, r24
    47a0:	80 81       	ld	r24, Z
    47a2:	1f 92       	push	r1
    47a4:	8f 93       	push	r24
    47a6:	82 e1       	ldi	r24, 0x12	; 18
    47a8:	93 e0       	ldi	r25, 0x03	; 3
    47aa:	9f 93       	push	r25
    47ac:	8f 93       	push	r24
    47ae:	0e 94 af 2b 	call	0x575e	; 0x575e <printf>
    47b2:	0f 90       	pop	r0
    47b4:	0f 90       	pop	r0
    47b6:	0f 90       	pop	r0
    47b8:	0f 90       	pop	r0
    47ba:	08 95       	ret

000047bc <_ZN5Print17availableForWriteEv>:
    47bc:	80 e0       	ldi	r24, 0x00	; 0
    47be:	90 e0       	ldi	r25, 0x00	; 0
    47c0:	08 95       	ret

000047c2 <_ZN5Print5flushEv>:
    47c2:	08 95       	ret

000047c4 <_GLOBAL__sub_I___vector_25>:
    47c4:	e6 e1       	ldi	r30, 0x16	; 22
    47c6:	f3 e0       	ldi	r31, 0x03	; 3
    47c8:	13 82       	std	Z+3, r1	; 0x03
    47ca:	12 82       	std	Z+2, r1	; 0x02
    47cc:	88 ee       	ldi	r24, 0xE8	; 232
    47ce:	93 e0       	ldi	r25, 0x03	; 3
    47d0:	a0 e0       	ldi	r26, 0x00	; 0
    47d2:	b0 e0       	ldi	r27, 0x00	; 0
    47d4:	84 83       	std	Z+4, r24	; 0x04
    47d6:	95 83       	std	Z+5, r25	; 0x05
    47d8:	a6 83       	std	Z+6, r26	; 0x06
    47da:	b7 83       	std	Z+7, r27	; 0x07
    47dc:	80 e2       	ldi	r24, 0x20	; 32
    47de:	92 e0       	ldi	r25, 0x02	; 2
    47e0:	91 83       	std	Z+1, r25	; 0x01
    47e2:	80 83       	st	Z, r24
    47e4:	85 ec       	ldi	r24, 0xC5	; 197
    47e6:	90 e0       	ldi	r25, 0x00	; 0
    47e8:	95 87       	std	Z+13, r25	; 0x0d
    47ea:	84 87       	std	Z+12, r24	; 0x0c
    47ec:	84 ec       	ldi	r24, 0xC4	; 196
    47ee:	90 e0       	ldi	r25, 0x00	; 0
    47f0:	97 87       	std	Z+15, r25	; 0x0f
    47f2:	86 87       	std	Z+14, r24	; 0x0e
    47f4:	80 ec       	ldi	r24, 0xC0	; 192
    47f6:	90 e0       	ldi	r25, 0x00	; 0
    47f8:	91 8b       	std	Z+17, r25	; 0x11
    47fa:	80 8b       	std	Z+16, r24	; 0x10
    47fc:	81 ec       	ldi	r24, 0xC1	; 193
    47fe:	90 e0       	ldi	r25, 0x00	; 0
    4800:	93 8b       	std	Z+19, r25	; 0x13
    4802:	82 8b       	std	Z+18, r24	; 0x12
    4804:	82 ec       	ldi	r24, 0xC2	; 194
    4806:	90 e0       	ldi	r25, 0x00	; 0
    4808:	95 8b       	std	Z+21, r25	; 0x15
    480a:	84 8b       	std	Z+20, r24	; 0x14
    480c:	86 ec       	ldi	r24, 0xC6	; 198
    480e:	90 e0       	ldi	r25, 0x00	; 0
    4810:	97 8b       	std	Z+23, r25	; 0x17
    4812:	86 8b       	std	Z+22, r24	; 0x16
    4814:	11 8e       	std	Z+25, r1	; 0x19
    4816:	12 8e       	std	Z+26, r1	; 0x1a
    4818:	13 8e       	std	Z+27, r1	; 0x1b
    481a:	14 8e       	std	Z+28, r1	; 0x1c
    481c:	08 95       	ret

0000481e <_GLOBAL__sub_I___vector_36>:
    481e:	e3 eb       	ldi	r30, 0xB3	; 179
    4820:	f3 e0       	ldi	r31, 0x03	; 3
    4822:	13 82       	std	Z+3, r1	; 0x03
    4824:	12 82       	std	Z+2, r1	; 0x02
    4826:	88 ee       	ldi	r24, 0xE8	; 232
    4828:	93 e0       	ldi	r25, 0x03	; 3
    482a:	a0 e0       	ldi	r26, 0x00	; 0
    482c:	b0 e0       	ldi	r27, 0x00	; 0
    482e:	84 83       	std	Z+4, r24	; 0x04
    4830:	95 83       	std	Z+5, r25	; 0x05
    4832:	a6 83       	std	Z+6, r26	; 0x06
    4834:	b7 83       	std	Z+7, r27	; 0x07
    4836:	80 e2       	ldi	r24, 0x20	; 32
    4838:	92 e0       	ldi	r25, 0x02	; 2
    483a:	91 83       	std	Z+1, r25	; 0x01
    483c:	80 83       	st	Z, r24
    483e:	8d ec       	ldi	r24, 0xCD	; 205
    4840:	90 e0       	ldi	r25, 0x00	; 0
    4842:	95 87       	std	Z+13, r25	; 0x0d
    4844:	84 87       	std	Z+12, r24	; 0x0c
    4846:	8c ec       	ldi	r24, 0xCC	; 204
    4848:	90 e0       	ldi	r25, 0x00	; 0
    484a:	97 87       	std	Z+15, r25	; 0x0f
    484c:	86 87       	std	Z+14, r24	; 0x0e
    484e:	88 ec       	ldi	r24, 0xC8	; 200
    4850:	90 e0       	ldi	r25, 0x00	; 0
    4852:	91 8b       	std	Z+17, r25	; 0x11
    4854:	80 8b       	std	Z+16, r24	; 0x10
    4856:	89 ec       	ldi	r24, 0xC9	; 201
    4858:	90 e0       	ldi	r25, 0x00	; 0
    485a:	93 8b       	std	Z+19, r25	; 0x13
    485c:	82 8b       	std	Z+18, r24	; 0x12
    485e:	8a ec       	ldi	r24, 0xCA	; 202
    4860:	90 e0       	ldi	r25, 0x00	; 0
    4862:	95 8b       	std	Z+21, r25	; 0x15
    4864:	84 8b       	std	Z+20, r24	; 0x14
    4866:	8e ec       	ldi	r24, 0xCE	; 206
    4868:	90 e0       	ldi	r25, 0x00	; 0
    486a:	97 8b       	std	Z+23, r25	; 0x17
    486c:	86 8b       	std	Z+22, r24	; 0x16
    486e:	11 8e       	std	Z+25, r1	; 0x19
    4870:	12 8e       	std	Z+26, r1	; 0x1a
    4872:	13 8e       	std	Z+27, r1	; 0x1b
    4874:	14 8e       	std	Z+28, r1	; 0x1c
    4876:	08 95       	ret

00004878 <_GLOBAL__sub_I___vector_51>:
    4878:	e0 e5       	ldi	r30, 0x50	; 80
    487a:	f4 e0       	ldi	r31, 0x04	; 4
    487c:	13 82       	std	Z+3, r1	; 0x03
    487e:	12 82       	std	Z+2, r1	; 0x02
    4880:	88 ee       	ldi	r24, 0xE8	; 232
    4882:	93 e0       	ldi	r25, 0x03	; 3
    4884:	a0 e0       	ldi	r26, 0x00	; 0
    4886:	b0 e0       	ldi	r27, 0x00	; 0
    4888:	84 83       	std	Z+4, r24	; 0x04
    488a:	95 83       	std	Z+5, r25	; 0x05
    488c:	a6 83       	std	Z+6, r26	; 0x06
    488e:	b7 83       	std	Z+7, r27	; 0x07
    4890:	80 e2       	ldi	r24, 0x20	; 32
    4892:	92 e0       	ldi	r25, 0x02	; 2
    4894:	91 83       	std	Z+1, r25	; 0x01
    4896:	80 83       	st	Z, r24
    4898:	85 ed       	ldi	r24, 0xD5	; 213
    489a:	90 e0       	ldi	r25, 0x00	; 0
    489c:	95 87       	std	Z+13, r25	; 0x0d
    489e:	84 87       	std	Z+12, r24	; 0x0c
    48a0:	84 ed       	ldi	r24, 0xD4	; 212
    48a2:	90 e0       	ldi	r25, 0x00	; 0
    48a4:	97 87       	std	Z+15, r25	; 0x0f
    48a6:	86 87       	std	Z+14, r24	; 0x0e
    48a8:	80 ed       	ldi	r24, 0xD0	; 208
    48aa:	90 e0       	ldi	r25, 0x00	; 0
    48ac:	91 8b       	std	Z+17, r25	; 0x11
    48ae:	80 8b       	std	Z+16, r24	; 0x10
    48b0:	81 ed       	ldi	r24, 0xD1	; 209
    48b2:	90 e0       	ldi	r25, 0x00	; 0
    48b4:	93 8b       	std	Z+19, r25	; 0x13
    48b6:	82 8b       	std	Z+18, r24	; 0x12
    48b8:	82 ed       	ldi	r24, 0xD2	; 210
    48ba:	90 e0       	ldi	r25, 0x00	; 0
    48bc:	95 8b       	std	Z+21, r25	; 0x15
    48be:	84 8b       	std	Z+20, r24	; 0x14
    48c0:	86 ed       	ldi	r24, 0xD6	; 214
    48c2:	90 e0       	ldi	r25, 0x00	; 0
    48c4:	97 8b       	std	Z+23, r25	; 0x17
    48c6:	86 8b       	std	Z+22, r24	; 0x16
    48c8:	11 8e       	std	Z+25, r1	; 0x19
    48ca:	12 8e       	std	Z+26, r1	; 0x1a
    48cc:	13 8e       	std	Z+27, r1	; 0x1b
    48ce:	14 8e       	std	Z+28, r1	; 0x1c
    48d0:	08 95       	ret

000048d2 <_GLOBAL__sub_I___vector_54>:
    48d2:	ed ee       	ldi	r30, 0xED	; 237
    48d4:	f4 e0       	ldi	r31, 0x04	; 4
    48d6:	13 82       	std	Z+3, r1	; 0x03
    48d8:	12 82       	std	Z+2, r1	; 0x02
    48da:	88 ee       	ldi	r24, 0xE8	; 232
    48dc:	93 e0       	ldi	r25, 0x03	; 3
    48de:	a0 e0       	ldi	r26, 0x00	; 0
    48e0:	b0 e0       	ldi	r27, 0x00	; 0
    48e2:	84 83       	std	Z+4, r24	; 0x04
    48e4:	95 83       	std	Z+5, r25	; 0x05
    48e6:	a6 83       	std	Z+6, r26	; 0x06
    48e8:	b7 83       	std	Z+7, r27	; 0x07
    48ea:	80 e2       	ldi	r24, 0x20	; 32
    48ec:	92 e0       	ldi	r25, 0x02	; 2
    48ee:	91 83       	std	Z+1, r25	; 0x01
    48f0:	80 83       	st	Z, r24
    48f2:	85 e3       	ldi	r24, 0x35	; 53
    48f4:	91 e0       	ldi	r25, 0x01	; 1
    48f6:	95 87       	std	Z+13, r25	; 0x0d
    48f8:	84 87       	std	Z+12, r24	; 0x0c
    48fa:	84 e3       	ldi	r24, 0x34	; 52
    48fc:	91 e0       	ldi	r25, 0x01	; 1
    48fe:	97 87       	std	Z+15, r25	; 0x0f
    4900:	86 87       	std	Z+14, r24	; 0x0e
    4902:	80 e3       	ldi	r24, 0x30	; 48
    4904:	91 e0       	ldi	r25, 0x01	; 1
    4906:	91 8b       	std	Z+17, r25	; 0x11
    4908:	80 8b       	std	Z+16, r24	; 0x10
    490a:	81 e3       	ldi	r24, 0x31	; 49
    490c:	91 e0       	ldi	r25, 0x01	; 1
    490e:	93 8b       	std	Z+19, r25	; 0x13
    4910:	82 8b       	std	Z+18, r24	; 0x12
    4912:	82 e3       	ldi	r24, 0x32	; 50
    4914:	91 e0       	ldi	r25, 0x01	; 1
    4916:	95 8b       	std	Z+21, r25	; 0x15
    4918:	84 8b       	std	Z+20, r24	; 0x14
    491a:	86 e3       	ldi	r24, 0x36	; 54
    491c:	91 e0       	ldi	r25, 0x01	; 1
    491e:	97 8b       	std	Z+23, r25	; 0x17
    4920:	86 8b       	std	Z+22, r24	; 0x16
    4922:	11 8e       	std	Z+25, r1	; 0x19
    4924:	12 8e       	std	Z+26, r1	; 0x1a
    4926:	13 8e       	std	Z+27, r1	; 0x1b
    4928:	14 8e       	std	Z+28, r1	; 0x1c
    492a:	08 95       	ret

0000492c <_GLOBAL__sub_I__ZN9IPAddressC2Ev>:
    492c:	08 95       	ret

0000492e <main>:
    492e:	0e 94 d9 14 	call	0x29b2	; 0x29b2 <init>
    4932:	0e 94 c4 07 	call	0xf88	; 0xf88 <initVariant>
    4936:	0e 94 57 23 	call	0x46ae	; 0x46ae <setup>
    493a:	c4 e0       	ldi	r28, 0x04	; 4
    493c:	d4 e0       	ldi	r29, 0x04	; 4
    493e:	0e 94 64 23 	call	0x46c8	; 0x46c8 <loop>
    4942:	20 97       	sbiw	r28, 0x00	; 0
    4944:	e1 f3       	breq	.-8      	; 0x493e <main+0x10>
    4946:	0e 94 04 04 	call	0x808	; 0x808 <_Z14serialEventRunv>
    494a:	f9 cf       	rjmp	.-14     	; 0x493e <main+0x10>

0000494c <_ZN5Print5writeEPKc>:
    494c:	61 15       	cp	r22, r1
    494e:	71 05       	cpc	r23, r1
    4950:	79 f0       	breq	.+30     	; 0x4970 <_ZN5Print5writeEPKc+0x24>
    4952:	fb 01       	movw	r30, r22
    4954:	01 90       	ld	r0, Z+
    4956:	00 20       	and	r0, r0
    4958:	e9 f7       	brne	.-6      	; 0x4954 <_ZN5Print5writeEPKc+0x8>
    495a:	31 97       	sbiw	r30, 0x01	; 1
    495c:	af 01       	movw	r20, r30
    495e:	46 1b       	sub	r20, r22
    4960:	57 0b       	sbc	r21, r23
    4962:	dc 01       	movw	r26, r24
    4964:	ed 91       	ld	r30, X+
    4966:	fc 91       	ld	r31, X
    4968:	02 80       	ldd	r0, Z+2	; 0x02
    496a:	f3 81       	ldd	r31, Z+3	; 0x03
    496c:	e0 2d       	mov	r30, r0
    496e:	19 94       	eijmp
    4970:	80 e0       	ldi	r24, 0x00	; 0
    4972:	90 e0       	ldi	r25, 0x00	; 0
    4974:	08 95       	ret
    4976:	0c 94 18 2b 	jmp	0x5630	; 0x5630 <itoa>
    497a:	0c 94 2e 2b 	jmp	0x565c	; 0x565c <ltoa>
    497e:	0c 94 8a 2b 	jmp	0x5714	; 0x5714 <utoa>
    4982:	0c 94 5d 2b 	jmp	0x56ba	; 0x56ba <ultoa>

00004986 <__mulsi3>:
    4986:	db 01       	movw	r26, r22
    4988:	8f 93       	push	r24
    498a:	9f 93       	push	r25
    498c:	0e 94 1c 25 	call	0x4a38	; 0x4a38 <__muluhisi3>
    4990:	bf 91       	pop	r27
    4992:	af 91       	pop	r26
    4994:	a2 9f       	mul	r26, r18
    4996:	80 0d       	add	r24, r0
    4998:	91 1d       	adc	r25, r1
    499a:	a3 9f       	mul	r26, r19
    499c:	90 0d       	add	r25, r0
    499e:	b2 9f       	mul	r27, r18
    49a0:	90 0d       	add	r25, r0
    49a2:	11 24       	eor	r1, r1
    49a4:	08 95       	ret

000049a6 <__udivmodsi4>:
    49a6:	a1 e2       	ldi	r26, 0x21	; 33
    49a8:	1a 2e       	mov	r1, r26
    49aa:	aa 1b       	sub	r26, r26
    49ac:	bb 1b       	sub	r27, r27
    49ae:	fd 01       	movw	r30, r26
    49b0:	0d c0       	rjmp	.+26     	; 0x49cc <__udivmodsi4_ep>

000049b2 <__udivmodsi4_loop>:
    49b2:	aa 1f       	adc	r26, r26
    49b4:	bb 1f       	adc	r27, r27
    49b6:	ee 1f       	adc	r30, r30
    49b8:	ff 1f       	adc	r31, r31
    49ba:	a2 17       	cp	r26, r18
    49bc:	b3 07       	cpc	r27, r19
    49be:	e4 07       	cpc	r30, r20
    49c0:	f5 07       	cpc	r31, r21
    49c2:	20 f0       	brcs	.+8      	; 0x49cc <__udivmodsi4_ep>
    49c4:	a2 1b       	sub	r26, r18
    49c6:	b3 0b       	sbc	r27, r19
    49c8:	e4 0b       	sbc	r30, r20
    49ca:	f5 0b       	sbc	r31, r21

000049cc <__udivmodsi4_ep>:
    49cc:	66 1f       	adc	r22, r22
    49ce:	77 1f       	adc	r23, r23
    49d0:	88 1f       	adc	r24, r24
    49d2:	99 1f       	adc	r25, r25
    49d4:	1a 94       	dec	r1
    49d6:	69 f7       	brne	.-38     	; 0x49b2 <__udivmodsi4_loop>
    49d8:	60 95       	com	r22
    49da:	70 95       	com	r23
    49dc:	80 95       	com	r24
    49de:	90 95       	com	r25
    49e0:	9b 01       	movw	r18, r22
    49e2:	ac 01       	movw	r20, r24
    49e4:	bd 01       	movw	r22, r26
    49e6:	cf 01       	movw	r24, r30
    49e8:	08 95       	ret

000049ea <__divmodsi4>:
    49ea:	05 2e       	mov	r0, r21
    49ec:	97 fb       	bst	r25, 7
    49ee:	1e f4       	brtc	.+6      	; 0x49f6 <__divmodsi4+0xc>
    49f0:	00 94       	com	r0
    49f2:	0e 94 0c 25 	call	0x4a18	; 0x4a18 <__negsi2>
    49f6:	57 fd       	sbrc	r21, 7
    49f8:	07 d0       	rcall	.+14     	; 0x4a08 <__divmodsi4_neg2>
    49fa:	0e 94 d3 24 	call	0x49a6	; 0x49a6 <__udivmodsi4>
    49fe:	07 fc       	sbrc	r0, 7
    4a00:	03 d0       	rcall	.+6      	; 0x4a08 <__divmodsi4_neg2>
    4a02:	4e f4       	brtc	.+18     	; 0x4a16 <__divmodsi4_exit>
    4a04:	0c 94 0c 25 	jmp	0x4a18	; 0x4a18 <__negsi2>

00004a08 <__divmodsi4_neg2>:
    4a08:	50 95       	com	r21
    4a0a:	40 95       	com	r20
    4a0c:	30 95       	com	r19
    4a0e:	21 95       	neg	r18
    4a10:	3f 4f       	sbci	r19, 0xFF	; 255
    4a12:	4f 4f       	sbci	r20, 0xFF	; 255
    4a14:	5f 4f       	sbci	r21, 0xFF	; 255

00004a16 <__divmodsi4_exit>:
    4a16:	08 95       	ret

00004a18 <__negsi2>:
    4a18:	90 95       	com	r25
    4a1a:	80 95       	com	r24
    4a1c:	70 95       	com	r23
    4a1e:	61 95       	neg	r22
    4a20:	7f 4f       	sbci	r23, 0xFF	; 255
    4a22:	8f 4f       	sbci	r24, 0xFF	; 255
    4a24:	9f 4f       	sbci	r25, 0xFF	; 255
    4a26:	08 95       	ret

00004a28 <__tablejump2__>:
    4a28:	ee 0f       	add	r30, r30
    4a2a:	ff 1f       	adc	r31, r31
    4a2c:	88 1f       	adc	r24, r24
    4a2e:	8b bf       	out	0x3b, r24	; 59
    4a30:	07 90       	elpm	r0, Z+
    4a32:	f6 91       	elpm	r31, Z
    4a34:	e0 2d       	mov	r30, r0
    4a36:	19 94       	eijmp

00004a38 <__muluhisi3>:
    4a38:	0e 94 27 25 	call	0x4a4e	; 0x4a4e <__umulhisi3>
    4a3c:	a5 9f       	mul	r26, r21
    4a3e:	90 0d       	add	r25, r0
    4a40:	b4 9f       	mul	r27, r20
    4a42:	90 0d       	add	r25, r0
    4a44:	a4 9f       	mul	r26, r20
    4a46:	80 0d       	add	r24, r0
    4a48:	91 1d       	adc	r25, r1
    4a4a:	11 24       	eor	r1, r1
    4a4c:	08 95       	ret

00004a4e <__umulhisi3>:
    4a4e:	a2 9f       	mul	r26, r18
    4a50:	b0 01       	movw	r22, r0
    4a52:	b3 9f       	mul	r27, r19
    4a54:	c0 01       	movw	r24, r0
    4a56:	a3 9f       	mul	r26, r19
    4a58:	70 0d       	add	r23, r0
    4a5a:	81 1d       	adc	r24, r1
    4a5c:	11 24       	eor	r1, r1
    4a5e:	91 1d       	adc	r25, r1
    4a60:	b2 9f       	mul	r27, r18
    4a62:	70 0d       	add	r23, r0
    4a64:	81 1d       	adc	r24, r1
    4a66:	11 24       	eor	r1, r1
    4a68:	91 1d       	adc	r25, r1
    4a6a:	08 95       	ret

00004a6c <__subsf3>:
    4a6c:	50 58       	subi	r21, 0x80	; 128

00004a6e <__addsf3>:
    4a6e:	bb 27       	eor	r27, r27
    4a70:	aa 27       	eor	r26, r26
    4a72:	0e 94 4e 25 	call	0x4a9c	; 0x4a9c <__addsf3x>
    4a76:	0c 94 c1 26 	jmp	0x4d82	; 0x4d82 <__fp_round>
    4a7a:	0e 94 b3 26 	call	0x4d66	; 0x4d66 <__fp_pscA>
    4a7e:	38 f0       	brcs	.+14     	; 0x4a8e <__addsf3+0x20>
    4a80:	0e 94 ba 26 	call	0x4d74	; 0x4d74 <__fp_pscB>
    4a84:	20 f0       	brcs	.+8      	; 0x4a8e <__addsf3+0x20>
    4a86:	39 f4       	brne	.+14     	; 0x4a96 <__addsf3+0x28>
    4a88:	9f 3f       	cpi	r25, 0xFF	; 255
    4a8a:	19 f4       	brne	.+6      	; 0x4a92 <__addsf3+0x24>
    4a8c:	26 f4       	brtc	.+8      	; 0x4a96 <__addsf3+0x28>
    4a8e:	0c 94 b0 26 	jmp	0x4d60	; 0x4d60 <__fp_nan>
    4a92:	0e f4       	brtc	.+2      	; 0x4a96 <__addsf3+0x28>
    4a94:	e0 95       	com	r30
    4a96:	e7 fb       	bst	r30, 7
    4a98:	0c 94 aa 26 	jmp	0x4d54	; 0x4d54 <__fp_inf>

00004a9c <__addsf3x>:
    4a9c:	e9 2f       	mov	r30, r25
    4a9e:	0e 94 d2 26 	call	0x4da4	; 0x4da4 <__fp_split3>
    4aa2:	58 f3       	brcs	.-42     	; 0x4a7a <__addsf3+0xc>
    4aa4:	ba 17       	cp	r27, r26
    4aa6:	62 07       	cpc	r22, r18
    4aa8:	73 07       	cpc	r23, r19
    4aaa:	84 07       	cpc	r24, r20
    4aac:	95 07       	cpc	r25, r21
    4aae:	20 f0       	brcs	.+8      	; 0x4ab8 <__addsf3x+0x1c>
    4ab0:	79 f4       	brne	.+30     	; 0x4ad0 <__addsf3x+0x34>
    4ab2:	a6 f5       	brtc	.+104    	; 0x4b1c <__addsf3x+0x80>
    4ab4:	0c 94 f4 26 	jmp	0x4de8	; 0x4de8 <__fp_zero>
    4ab8:	0e f4       	brtc	.+2      	; 0x4abc <__addsf3x+0x20>
    4aba:	e0 95       	com	r30
    4abc:	0b 2e       	mov	r0, r27
    4abe:	ba 2f       	mov	r27, r26
    4ac0:	a0 2d       	mov	r26, r0
    4ac2:	0b 01       	movw	r0, r22
    4ac4:	b9 01       	movw	r22, r18
    4ac6:	90 01       	movw	r18, r0
    4ac8:	0c 01       	movw	r0, r24
    4aca:	ca 01       	movw	r24, r20
    4acc:	a0 01       	movw	r20, r0
    4ace:	11 24       	eor	r1, r1
    4ad0:	ff 27       	eor	r31, r31
    4ad2:	59 1b       	sub	r21, r25
    4ad4:	99 f0       	breq	.+38     	; 0x4afc <__addsf3x+0x60>
    4ad6:	59 3f       	cpi	r21, 0xF9	; 249
    4ad8:	50 f4       	brcc	.+20     	; 0x4aee <__addsf3x+0x52>
    4ada:	50 3e       	cpi	r21, 0xE0	; 224
    4adc:	68 f1       	brcs	.+90     	; 0x4b38 <__addsf3x+0x9c>
    4ade:	1a 16       	cp	r1, r26
    4ae0:	f0 40       	sbci	r31, 0x00	; 0
    4ae2:	a2 2f       	mov	r26, r18
    4ae4:	23 2f       	mov	r18, r19
    4ae6:	34 2f       	mov	r19, r20
    4ae8:	44 27       	eor	r20, r20
    4aea:	58 5f       	subi	r21, 0xF8	; 248
    4aec:	f3 cf       	rjmp	.-26     	; 0x4ad4 <__addsf3x+0x38>
    4aee:	46 95       	lsr	r20
    4af0:	37 95       	ror	r19
    4af2:	27 95       	ror	r18
    4af4:	a7 95       	ror	r26
    4af6:	f0 40       	sbci	r31, 0x00	; 0
    4af8:	53 95       	inc	r21
    4afa:	c9 f7       	brne	.-14     	; 0x4aee <__addsf3x+0x52>
    4afc:	7e f4       	brtc	.+30     	; 0x4b1c <__addsf3x+0x80>
    4afe:	1f 16       	cp	r1, r31
    4b00:	ba 0b       	sbc	r27, r26
    4b02:	62 0b       	sbc	r22, r18
    4b04:	73 0b       	sbc	r23, r19
    4b06:	84 0b       	sbc	r24, r20
    4b08:	ba f0       	brmi	.+46     	; 0x4b38 <__addsf3x+0x9c>
    4b0a:	91 50       	subi	r25, 0x01	; 1
    4b0c:	a1 f0       	breq	.+40     	; 0x4b36 <__addsf3x+0x9a>
    4b0e:	ff 0f       	add	r31, r31
    4b10:	bb 1f       	adc	r27, r27
    4b12:	66 1f       	adc	r22, r22
    4b14:	77 1f       	adc	r23, r23
    4b16:	88 1f       	adc	r24, r24
    4b18:	c2 f7       	brpl	.-16     	; 0x4b0a <__addsf3x+0x6e>
    4b1a:	0e c0       	rjmp	.+28     	; 0x4b38 <__addsf3x+0x9c>
    4b1c:	ba 0f       	add	r27, r26
    4b1e:	62 1f       	adc	r22, r18
    4b20:	73 1f       	adc	r23, r19
    4b22:	84 1f       	adc	r24, r20
    4b24:	48 f4       	brcc	.+18     	; 0x4b38 <__addsf3x+0x9c>
    4b26:	87 95       	ror	r24
    4b28:	77 95       	ror	r23
    4b2a:	67 95       	ror	r22
    4b2c:	b7 95       	ror	r27
    4b2e:	f7 95       	ror	r31
    4b30:	9e 3f       	cpi	r25, 0xFE	; 254
    4b32:	08 f0       	brcs	.+2      	; 0x4b36 <__addsf3x+0x9a>
    4b34:	b0 cf       	rjmp	.-160    	; 0x4a96 <__addsf3+0x28>
    4b36:	93 95       	inc	r25
    4b38:	88 0f       	add	r24, r24
    4b3a:	08 f0       	brcs	.+2      	; 0x4b3e <__addsf3x+0xa2>
    4b3c:	99 27       	eor	r25, r25
    4b3e:	ee 0f       	add	r30, r30
    4b40:	97 95       	ror	r25
    4b42:	87 95       	ror	r24
    4b44:	08 95       	ret

00004b46 <__cmpsf2>:
    4b46:	0e 94 86 26 	call	0x4d0c	; 0x4d0c <__fp_cmp>
    4b4a:	08 f4       	brcc	.+2      	; 0x4b4e <__cmpsf2+0x8>
    4b4c:	81 e0       	ldi	r24, 0x01	; 1
    4b4e:	08 95       	ret

00004b50 <__divsf3>:
    4b50:	0e 94 bc 25 	call	0x4b78	; 0x4b78 <__divsf3x>
    4b54:	0c 94 c1 26 	jmp	0x4d82	; 0x4d82 <__fp_round>
    4b58:	0e 94 ba 26 	call	0x4d74	; 0x4d74 <__fp_pscB>
    4b5c:	58 f0       	brcs	.+22     	; 0x4b74 <__divsf3+0x24>
    4b5e:	0e 94 b3 26 	call	0x4d66	; 0x4d66 <__fp_pscA>
    4b62:	40 f0       	brcs	.+16     	; 0x4b74 <__divsf3+0x24>
    4b64:	29 f4       	brne	.+10     	; 0x4b70 <__divsf3+0x20>
    4b66:	5f 3f       	cpi	r21, 0xFF	; 255
    4b68:	29 f0       	breq	.+10     	; 0x4b74 <__divsf3+0x24>
    4b6a:	0c 94 aa 26 	jmp	0x4d54	; 0x4d54 <__fp_inf>
    4b6e:	51 11       	cpse	r21, r1
    4b70:	0c 94 f5 26 	jmp	0x4dea	; 0x4dea <__fp_szero>
    4b74:	0c 94 b0 26 	jmp	0x4d60	; 0x4d60 <__fp_nan>

00004b78 <__divsf3x>:
    4b78:	0e 94 d2 26 	call	0x4da4	; 0x4da4 <__fp_split3>
    4b7c:	68 f3       	brcs	.-38     	; 0x4b58 <__divsf3+0x8>

00004b7e <__divsf3_pse>:
    4b7e:	99 23       	and	r25, r25
    4b80:	b1 f3       	breq	.-20     	; 0x4b6e <__divsf3+0x1e>
    4b82:	55 23       	and	r21, r21
    4b84:	91 f3       	breq	.-28     	; 0x4b6a <__divsf3+0x1a>
    4b86:	95 1b       	sub	r25, r21
    4b88:	55 0b       	sbc	r21, r21
    4b8a:	bb 27       	eor	r27, r27
    4b8c:	aa 27       	eor	r26, r26
    4b8e:	62 17       	cp	r22, r18
    4b90:	73 07       	cpc	r23, r19
    4b92:	84 07       	cpc	r24, r20
    4b94:	38 f0       	brcs	.+14     	; 0x4ba4 <__divsf3_pse+0x26>
    4b96:	9f 5f       	subi	r25, 0xFF	; 255
    4b98:	5f 4f       	sbci	r21, 0xFF	; 255
    4b9a:	22 0f       	add	r18, r18
    4b9c:	33 1f       	adc	r19, r19
    4b9e:	44 1f       	adc	r20, r20
    4ba0:	aa 1f       	adc	r26, r26
    4ba2:	a9 f3       	breq	.-22     	; 0x4b8e <__divsf3_pse+0x10>
    4ba4:	35 d0       	rcall	.+106    	; 0x4c10 <__divsf3_pse+0x92>
    4ba6:	0e 2e       	mov	r0, r30
    4ba8:	3a f0       	brmi	.+14     	; 0x4bb8 <__divsf3_pse+0x3a>
    4baa:	e0 e8       	ldi	r30, 0x80	; 128
    4bac:	32 d0       	rcall	.+100    	; 0x4c12 <__divsf3_pse+0x94>
    4bae:	91 50       	subi	r25, 0x01	; 1
    4bb0:	50 40       	sbci	r21, 0x00	; 0
    4bb2:	e6 95       	lsr	r30
    4bb4:	00 1c       	adc	r0, r0
    4bb6:	ca f7       	brpl	.-14     	; 0x4baa <__divsf3_pse+0x2c>
    4bb8:	2b d0       	rcall	.+86     	; 0x4c10 <__divsf3_pse+0x92>
    4bba:	fe 2f       	mov	r31, r30
    4bbc:	29 d0       	rcall	.+82     	; 0x4c10 <__divsf3_pse+0x92>
    4bbe:	66 0f       	add	r22, r22
    4bc0:	77 1f       	adc	r23, r23
    4bc2:	88 1f       	adc	r24, r24
    4bc4:	bb 1f       	adc	r27, r27
    4bc6:	26 17       	cp	r18, r22
    4bc8:	37 07       	cpc	r19, r23
    4bca:	48 07       	cpc	r20, r24
    4bcc:	ab 07       	cpc	r26, r27
    4bce:	b0 e8       	ldi	r27, 0x80	; 128
    4bd0:	09 f0       	breq	.+2      	; 0x4bd4 <__divsf3_pse+0x56>
    4bd2:	bb 0b       	sbc	r27, r27
    4bd4:	80 2d       	mov	r24, r0
    4bd6:	bf 01       	movw	r22, r30
    4bd8:	ff 27       	eor	r31, r31
    4bda:	93 58       	subi	r25, 0x83	; 131
    4bdc:	5f 4f       	sbci	r21, 0xFF	; 255
    4bde:	3a f0       	brmi	.+14     	; 0x4bee <__divsf3_pse+0x70>
    4be0:	9e 3f       	cpi	r25, 0xFE	; 254
    4be2:	51 05       	cpc	r21, r1
    4be4:	78 f0       	brcs	.+30     	; 0x4c04 <__divsf3_pse+0x86>
    4be6:	0c 94 aa 26 	jmp	0x4d54	; 0x4d54 <__fp_inf>
    4bea:	0c 94 f5 26 	jmp	0x4dea	; 0x4dea <__fp_szero>
    4bee:	5f 3f       	cpi	r21, 0xFF	; 255
    4bf0:	e4 f3       	brlt	.-8      	; 0x4bea <__divsf3_pse+0x6c>
    4bf2:	98 3e       	cpi	r25, 0xE8	; 232
    4bf4:	d4 f3       	brlt	.-12     	; 0x4bea <__divsf3_pse+0x6c>
    4bf6:	86 95       	lsr	r24
    4bf8:	77 95       	ror	r23
    4bfa:	67 95       	ror	r22
    4bfc:	b7 95       	ror	r27
    4bfe:	f7 95       	ror	r31
    4c00:	9f 5f       	subi	r25, 0xFF	; 255
    4c02:	c9 f7       	brne	.-14     	; 0x4bf6 <__divsf3_pse+0x78>
    4c04:	88 0f       	add	r24, r24
    4c06:	91 1d       	adc	r25, r1
    4c08:	96 95       	lsr	r25
    4c0a:	87 95       	ror	r24
    4c0c:	97 f9       	bld	r25, 7
    4c0e:	08 95       	ret
    4c10:	e1 e0       	ldi	r30, 0x01	; 1
    4c12:	66 0f       	add	r22, r22
    4c14:	77 1f       	adc	r23, r23
    4c16:	88 1f       	adc	r24, r24
    4c18:	bb 1f       	adc	r27, r27
    4c1a:	62 17       	cp	r22, r18
    4c1c:	73 07       	cpc	r23, r19
    4c1e:	84 07       	cpc	r24, r20
    4c20:	ba 07       	cpc	r27, r26
    4c22:	20 f0       	brcs	.+8      	; 0x4c2c <__divsf3_pse+0xae>
    4c24:	62 1b       	sub	r22, r18
    4c26:	73 0b       	sbc	r23, r19
    4c28:	84 0b       	sbc	r24, r20
    4c2a:	ba 0b       	sbc	r27, r26
    4c2c:	ee 1f       	adc	r30, r30
    4c2e:	88 f7       	brcc	.-30     	; 0x4c12 <__divsf3_pse+0x94>
    4c30:	e0 95       	com	r30
    4c32:	08 95       	ret

00004c34 <__fixunssfsi>:
    4c34:	0e 94 da 26 	call	0x4db4	; 0x4db4 <__fp_splitA>
    4c38:	88 f0       	brcs	.+34     	; 0x4c5c <__fixunssfsi+0x28>
    4c3a:	9f 57       	subi	r25, 0x7F	; 127
    4c3c:	98 f0       	brcs	.+38     	; 0x4c64 <__fixunssfsi+0x30>
    4c3e:	b9 2f       	mov	r27, r25
    4c40:	99 27       	eor	r25, r25
    4c42:	b7 51       	subi	r27, 0x17	; 23
    4c44:	b0 f0       	brcs	.+44     	; 0x4c72 <__fixunssfsi+0x3e>
    4c46:	e1 f0       	breq	.+56     	; 0x4c80 <__fixunssfsi+0x4c>
    4c48:	66 0f       	add	r22, r22
    4c4a:	77 1f       	adc	r23, r23
    4c4c:	88 1f       	adc	r24, r24
    4c4e:	99 1f       	adc	r25, r25
    4c50:	1a f0       	brmi	.+6      	; 0x4c58 <__fixunssfsi+0x24>
    4c52:	ba 95       	dec	r27
    4c54:	c9 f7       	brne	.-14     	; 0x4c48 <__fixunssfsi+0x14>
    4c56:	14 c0       	rjmp	.+40     	; 0x4c80 <__fixunssfsi+0x4c>
    4c58:	b1 30       	cpi	r27, 0x01	; 1
    4c5a:	91 f0       	breq	.+36     	; 0x4c80 <__fixunssfsi+0x4c>
    4c5c:	0e 94 f4 26 	call	0x4de8	; 0x4de8 <__fp_zero>
    4c60:	b1 e0       	ldi	r27, 0x01	; 1
    4c62:	08 95       	ret
    4c64:	0c 94 f4 26 	jmp	0x4de8	; 0x4de8 <__fp_zero>
    4c68:	67 2f       	mov	r22, r23
    4c6a:	78 2f       	mov	r23, r24
    4c6c:	88 27       	eor	r24, r24
    4c6e:	b8 5f       	subi	r27, 0xF8	; 248
    4c70:	39 f0       	breq	.+14     	; 0x4c80 <__fixunssfsi+0x4c>
    4c72:	b9 3f       	cpi	r27, 0xF9	; 249
    4c74:	cc f3       	brlt	.-14     	; 0x4c68 <__fixunssfsi+0x34>
    4c76:	86 95       	lsr	r24
    4c78:	77 95       	ror	r23
    4c7a:	67 95       	ror	r22
    4c7c:	b3 95       	inc	r27
    4c7e:	d9 f7       	brne	.-10     	; 0x4c76 <__fixunssfsi+0x42>
    4c80:	3e f4       	brtc	.+14     	; 0x4c90 <__fixunssfsi+0x5c>
    4c82:	90 95       	com	r25
    4c84:	80 95       	com	r24
    4c86:	70 95       	com	r23
    4c88:	61 95       	neg	r22
    4c8a:	7f 4f       	sbci	r23, 0xFF	; 255
    4c8c:	8f 4f       	sbci	r24, 0xFF	; 255
    4c8e:	9f 4f       	sbci	r25, 0xFF	; 255
    4c90:	08 95       	ret

00004c92 <__floatunsisf>:
    4c92:	e8 94       	clt
    4c94:	09 c0       	rjmp	.+18     	; 0x4ca8 <__floatsisf+0x12>

00004c96 <__floatsisf>:
    4c96:	97 fb       	bst	r25, 7
    4c98:	3e f4       	brtc	.+14     	; 0x4ca8 <__floatsisf+0x12>
    4c9a:	90 95       	com	r25
    4c9c:	80 95       	com	r24
    4c9e:	70 95       	com	r23
    4ca0:	61 95       	neg	r22
    4ca2:	7f 4f       	sbci	r23, 0xFF	; 255
    4ca4:	8f 4f       	sbci	r24, 0xFF	; 255
    4ca6:	9f 4f       	sbci	r25, 0xFF	; 255
    4ca8:	99 23       	and	r25, r25
    4caa:	a9 f0       	breq	.+42     	; 0x4cd6 <__floatsisf+0x40>
    4cac:	f9 2f       	mov	r31, r25
    4cae:	96 e9       	ldi	r25, 0x96	; 150
    4cb0:	bb 27       	eor	r27, r27
    4cb2:	93 95       	inc	r25
    4cb4:	f6 95       	lsr	r31
    4cb6:	87 95       	ror	r24
    4cb8:	77 95       	ror	r23
    4cba:	67 95       	ror	r22
    4cbc:	b7 95       	ror	r27
    4cbe:	f1 11       	cpse	r31, r1
    4cc0:	f8 cf       	rjmp	.-16     	; 0x4cb2 <__floatsisf+0x1c>
    4cc2:	fa f4       	brpl	.+62     	; 0x4d02 <__floatsisf+0x6c>
    4cc4:	bb 0f       	add	r27, r27
    4cc6:	11 f4       	brne	.+4      	; 0x4ccc <__floatsisf+0x36>
    4cc8:	60 ff       	sbrs	r22, 0
    4cca:	1b c0       	rjmp	.+54     	; 0x4d02 <__floatsisf+0x6c>
    4ccc:	6f 5f       	subi	r22, 0xFF	; 255
    4cce:	7f 4f       	sbci	r23, 0xFF	; 255
    4cd0:	8f 4f       	sbci	r24, 0xFF	; 255
    4cd2:	9f 4f       	sbci	r25, 0xFF	; 255
    4cd4:	16 c0       	rjmp	.+44     	; 0x4d02 <__floatsisf+0x6c>
    4cd6:	88 23       	and	r24, r24
    4cd8:	11 f0       	breq	.+4      	; 0x4cde <__floatsisf+0x48>
    4cda:	96 e9       	ldi	r25, 0x96	; 150
    4cdc:	11 c0       	rjmp	.+34     	; 0x4d00 <__floatsisf+0x6a>
    4cde:	77 23       	and	r23, r23
    4ce0:	21 f0       	breq	.+8      	; 0x4cea <__floatsisf+0x54>
    4ce2:	9e e8       	ldi	r25, 0x8E	; 142
    4ce4:	87 2f       	mov	r24, r23
    4ce6:	76 2f       	mov	r23, r22
    4ce8:	05 c0       	rjmp	.+10     	; 0x4cf4 <__floatsisf+0x5e>
    4cea:	66 23       	and	r22, r22
    4cec:	71 f0       	breq	.+28     	; 0x4d0a <__floatsisf+0x74>
    4cee:	96 e8       	ldi	r25, 0x86	; 134
    4cf0:	86 2f       	mov	r24, r22
    4cf2:	70 e0       	ldi	r23, 0x00	; 0
    4cf4:	60 e0       	ldi	r22, 0x00	; 0
    4cf6:	2a f0       	brmi	.+10     	; 0x4d02 <__floatsisf+0x6c>
    4cf8:	9a 95       	dec	r25
    4cfa:	66 0f       	add	r22, r22
    4cfc:	77 1f       	adc	r23, r23
    4cfe:	88 1f       	adc	r24, r24
    4d00:	da f7       	brpl	.-10     	; 0x4cf8 <__floatsisf+0x62>
    4d02:	88 0f       	add	r24, r24
    4d04:	96 95       	lsr	r25
    4d06:	87 95       	ror	r24
    4d08:	97 f9       	bld	r25, 7
    4d0a:	08 95       	ret

00004d0c <__fp_cmp>:
    4d0c:	99 0f       	add	r25, r25
    4d0e:	00 08       	sbc	r0, r0
    4d10:	55 0f       	add	r21, r21
    4d12:	aa 0b       	sbc	r26, r26
    4d14:	e0 e8       	ldi	r30, 0x80	; 128
    4d16:	fe ef       	ldi	r31, 0xFE	; 254
    4d18:	16 16       	cp	r1, r22
    4d1a:	17 06       	cpc	r1, r23
    4d1c:	e8 07       	cpc	r30, r24
    4d1e:	f9 07       	cpc	r31, r25
    4d20:	c0 f0       	brcs	.+48     	; 0x4d52 <__fp_cmp+0x46>
    4d22:	12 16       	cp	r1, r18
    4d24:	13 06       	cpc	r1, r19
    4d26:	e4 07       	cpc	r30, r20
    4d28:	f5 07       	cpc	r31, r21
    4d2a:	98 f0       	brcs	.+38     	; 0x4d52 <__fp_cmp+0x46>
    4d2c:	62 1b       	sub	r22, r18
    4d2e:	73 0b       	sbc	r23, r19
    4d30:	84 0b       	sbc	r24, r20
    4d32:	95 0b       	sbc	r25, r21
    4d34:	39 f4       	brne	.+14     	; 0x4d44 <__fp_cmp+0x38>
    4d36:	0a 26       	eor	r0, r26
    4d38:	61 f0       	breq	.+24     	; 0x4d52 <__fp_cmp+0x46>
    4d3a:	23 2b       	or	r18, r19
    4d3c:	24 2b       	or	r18, r20
    4d3e:	25 2b       	or	r18, r21
    4d40:	21 f4       	brne	.+8      	; 0x4d4a <__fp_cmp+0x3e>
    4d42:	08 95       	ret
    4d44:	0a 26       	eor	r0, r26
    4d46:	09 f4       	brne	.+2      	; 0x4d4a <__fp_cmp+0x3e>
    4d48:	a1 40       	sbci	r26, 0x01	; 1
    4d4a:	a6 95       	lsr	r26
    4d4c:	8f ef       	ldi	r24, 0xFF	; 255
    4d4e:	81 1d       	adc	r24, r1
    4d50:	81 1d       	adc	r24, r1
    4d52:	08 95       	ret

00004d54 <__fp_inf>:
    4d54:	97 f9       	bld	r25, 7
    4d56:	9f 67       	ori	r25, 0x7F	; 127
    4d58:	80 e8       	ldi	r24, 0x80	; 128
    4d5a:	70 e0       	ldi	r23, 0x00	; 0
    4d5c:	60 e0       	ldi	r22, 0x00	; 0
    4d5e:	08 95       	ret

00004d60 <__fp_nan>:
    4d60:	9f ef       	ldi	r25, 0xFF	; 255
    4d62:	80 ec       	ldi	r24, 0xC0	; 192
    4d64:	08 95       	ret

00004d66 <__fp_pscA>:
    4d66:	00 24       	eor	r0, r0
    4d68:	0a 94       	dec	r0
    4d6a:	16 16       	cp	r1, r22
    4d6c:	17 06       	cpc	r1, r23
    4d6e:	18 06       	cpc	r1, r24
    4d70:	09 06       	cpc	r0, r25
    4d72:	08 95       	ret

00004d74 <__fp_pscB>:
    4d74:	00 24       	eor	r0, r0
    4d76:	0a 94       	dec	r0
    4d78:	12 16       	cp	r1, r18
    4d7a:	13 06       	cpc	r1, r19
    4d7c:	14 06       	cpc	r1, r20
    4d7e:	05 06       	cpc	r0, r21
    4d80:	08 95       	ret

00004d82 <__fp_round>:
    4d82:	09 2e       	mov	r0, r25
    4d84:	03 94       	inc	r0
    4d86:	00 0c       	add	r0, r0
    4d88:	11 f4       	brne	.+4      	; 0x4d8e <__fp_round+0xc>
    4d8a:	88 23       	and	r24, r24
    4d8c:	52 f0       	brmi	.+20     	; 0x4da2 <__fp_round+0x20>
    4d8e:	bb 0f       	add	r27, r27
    4d90:	40 f4       	brcc	.+16     	; 0x4da2 <__fp_round+0x20>
    4d92:	bf 2b       	or	r27, r31
    4d94:	11 f4       	brne	.+4      	; 0x4d9a <__fp_round+0x18>
    4d96:	60 ff       	sbrs	r22, 0
    4d98:	04 c0       	rjmp	.+8      	; 0x4da2 <__fp_round+0x20>
    4d9a:	6f 5f       	subi	r22, 0xFF	; 255
    4d9c:	7f 4f       	sbci	r23, 0xFF	; 255
    4d9e:	8f 4f       	sbci	r24, 0xFF	; 255
    4da0:	9f 4f       	sbci	r25, 0xFF	; 255
    4da2:	08 95       	ret

00004da4 <__fp_split3>:
    4da4:	57 fd       	sbrc	r21, 7
    4da6:	90 58       	subi	r25, 0x80	; 128
    4da8:	44 0f       	add	r20, r20
    4daa:	55 1f       	adc	r21, r21
    4dac:	59 f0       	breq	.+22     	; 0x4dc4 <__fp_splitA+0x10>
    4dae:	5f 3f       	cpi	r21, 0xFF	; 255
    4db0:	71 f0       	breq	.+28     	; 0x4dce <__fp_splitA+0x1a>
    4db2:	47 95       	ror	r20

00004db4 <__fp_splitA>:
    4db4:	88 0f       	add	r24, r24
    4db6:	97 fb       	bst	r25, 7
    4db8:	99 1f       	adc	r25, r25
    4dba:	61 f0       	breq	.+24     	; 0x4dd4 <__fp_splitA+0x20>
    4dbc:	9f 3f       	cpi	r25, 0xFF	; 255
    4dbe:	79 f0       	breq	.+30     	; 0x4dde <__fp_splitA+0x2a>
    4dc0:	87 95       	ror	r24
    4dc2:	08 95       	ret
    4dc4:	12 16       	cp	r1, r18
    4dc6:	13 06       	cpc	r1, r19
    4dc8:	14 06       	cpc	r1, r20
    4dca:	55 1f       	adc	r21, r21
    4dcc:	f2 cf       	rjmp	.-28     	; 0x4db2 <__fp_split3+0xe>
    4dce:	46 95       	lsr	r20
    4dd0:	f1 df       	rcall	.-30     	; 0x4db4 <__fp_splitA>
    4dd2:	08 c0       	rjmp	.+16     	; 0x4de4 <__fp_splitA+0x30>
    4dd4:	16 16       	cp	r1, r22
    4dd6:	17 06       	cpc	r1, r23
    4dd8:	18 06       	cpc	r1, r24
    4dda:	99 1f       	adc	r25, r25
    4ddc:	f1 cf       	rjmp	.-30     	; 0x4dc0 <__fp_splitA+0xc>
    4dde:	86 95       	lsr	r24
    4de0:	71 05       	cpc	r23, r1
    4de2:	61 05       	cpc	r22, r1
    4de4:	08 94       	sec
    4de6:	08 95       	ret

00004de8 <__fp_zero>:
    4de8:	e8 94       	clt

00004dea <__fp_szero>:
    4dea:	bb 27       	eor	r27, r27
    4dec:	66 27       	eor	r22, r22
    4dee:	77 27       	eor	r23, r23
    4df0:	cb 01       	movw	r24, r22
    4df2:	97 f9       	bld	r25, 7
    4df4:	08 95       	ret

00004df6 <__gesf2>:
    4df6:	0e 94 86 26 	call	0x4d0c	; 0x4d0c <__fp_cmp>
    4dfa:	08 f4       	brcc	.+2      	; 0x4dfe <__gesf2+0x8>
    4dfc:	8f ef       	ldi	r24, 0xFF	; 255
    4dfe:	08 95       	ret

00004e00 <__mulsf3>:
    4e00:	0e 94 13 27 	call	0x4e26	; 0x4e26 <__mulsf3x>
    4e04:	0c 94 c1 26 	jmp	0x4d82	; 0x4d82 <__fp_round>
    4e08:	0e 94 b3 26 	call	0x4d66	; 0x4d66 <__fp_pscA>
    4e0c:	38 f0       	brcs	.+14     	; 0x4e1c <__mulsf3+0x1c>
    4e0e:	0e 94 ba 26 	call	0x4d74	; 0x4d74 <__fp_pscB>
    4e12:	20 f0       	brcs	.+8      	; 0x4e1c <__mulsf3+0x1c>
    4e14:	95 23       	and	r25, r21
    4e16:	11 f0       	breq	.+4      	; 0x4e1c <__mulsf3+0x1c>
    4e18:	0c 94 aa 26 	jmp	0x4d54	; 0x4d54 <__fp_inf>
    4e1c:	0c 94 b0 26 	jmp	0x4d60	; 0x4d60 <__fp_nan>
    4e20:	11 24       	eor	r1, r1
    4e22:	0c 94 f5 26 	jmp	0x4dea	; 0x4dea <__fp_szero>

00004e26 <__mulsf3x>:
    4e26:	0e 94 d2 26 	call	0x4da4	; 0x4da4 <__fp_split3>
    4e2a:	70 f3       	brcs	.-36     	; 0x4e08 <__mulsf3+0x8>

00004e2c <__mulsf3_pse>:
    4e2c:	95 9f       	mul	r25, r21
    4e2e:	c1 f3       	breq	.-16     	; 0x4e20 <__mulsf3+0x20>
    4e30:	95 0f       	add	r25, r21
    4e32:	50 e0       	ldi	r21, 0x00	; 0
    4e34:	55 1f       	adc	r21, r21
    4e36:	62 9f       	mul	r22, r18
    4e38:	f0 01       	movw	r30, r0
    4e3a:	72 9f       	mul	r23, r18
    4e3c:	bb 27       	eor	r27, r27
    4e3e:	f0 0d       	add	r31, r0
    4e40:	b1 1d       	adc	r27, r1
    4e42:	63 9f       	mul	r22, r19
    4e44:	aa 27       	eor	r26, r26
    4e46:	f0 0d       	add	r31, r0
    4e48:	b1 1d       	adc	r27, r1
    4e4a:	aa 1f       	adc	r26, r26
    4e4c:	64 9f       	mul	r22, r20
    4e4e:	66 27       	eor	r22, r22
    4e50:	b0 0d       	add	r27, r0
    4e52:	a1 1d       	adc	r26, r1
    4e54:	66 1f       	adc	r22, r22
    4e56:	82 9f       	mul	r24, r18
    4e58:	22 27       	eor	r18, r18
    4e5a:	b0 0d       	add	r27, r0
    4e5c:	a1 1d       	adc	r26, r1
    4e5e:	62 1f       	adc	r22, r18
    4e60:	73 9f       	mul	r23, r19
    4e62:	b0 0d       	add	r27, r0
    4e64:	a1 1d       	adc	r26, r1
    4e66:	62 1f       	adc	r22, r18
    4e68:	83 9f       	mul	r24, r19
    4e6a:	a0 0d       	add	r26, r0
    4e6c:	61 1d       	adc	r22, r1
    4e6e:	22 1f       	adc	r18, r18
    4e70:	74 9f       	mul	r23, r20
    4e72:	33 27       	eor	r19, r19
    4e74:	a0 0d       	add	r26, r0
    4e76:	61 1d       	adc	r22, r1
    4e78:	23 1f       	adc	r18, r19
    4e7a:	84 9f       	mul	r24, r20
    4e7c:	60 0d       	add	r22, r0
    4e7e:	21 1d       	adc	r18, r1
    4e80:	82 2f       	mov	r24, r18
    4e82:	76 2f       	mov	r23, r22
    4e84:	6a 2f       	mov	r22, r26
    4e86:	11 24       	eor	r1, r1
    4e88:	9f 57       	subi	r25, 0x7F	; 127
    4e8a:	50 40       	sbci	r21, 0x00	; 0
    4e8c:	9a f0       	brmi	.+38     	; 0x4eb4 <__mulsf3_pse+0x88>
    4e8e:	f1 f0       	breq	.+60     	; 0x4ecc <__mulsf3_pse+0xa0>
    4e90:	88 23       	and	r24, r24
    4e92:	4a f0       	brmi	.+18     	; 0x4ea6 <__mulsf3_pse+0x7a>
    4e94:	ee 0f       	add	r30, r30
    4e96:	ff 1f       	adc	r31, r31
    4e98:	bb 1f       	adc	r27, r27
    4e9a:	66 1f       	adc	r22, r22
    4e9c:	77 1f       	adc	r23, r23
    4e9e:	88 1f       	adc	r24, r24
    4ea0:	91 50       	subi	r25, 0x01	; 1
    4ea2:	50 40       	sbci	r21, 0x00	; 0
    4ea4:	a9 f7       	brne	.-22     	; 0x4e90 <__mulsf3_pse+0x64>
    4ea6:	9e 3f       	cpi	r25, 0xFE	; 254
    4ea8:	51 05       	cpc	r21, r1
    4eaa:	80 f0       	brcs	.+32     	; 0x4ecc <__mulsf3_pse+0xa0>
    4eac:	0c 94 aa 26 	jmp	0x4d54	; 0x4d54 <__fp_inf>
    4eb0:	0c 94 f5 26 	jmp	0x4dea	; 0x4dea <__fp_szero>
    4eb4:	5f 3f       	cpi	r21, 0xFF	; 255
    4eb6:	e4 f3       	brlt	.-8      	; 0x4eb0 <__mulsf3_pse+0x84>
    4eb8:	98 3e       	cpi	r25, 0xE8	; 232
    4eba:	d4 f3       	brlt	.-12     	; 0x4eb0 <__mulsf3_pse+0x84>
    4ebc:	86 95       	lsr	r24
    4ebe:	77 95       	ror	r23
    4ec0:	67 95       	ror	r22
    4ec2:	b7 95       	ror	r27
    4ec4:	f7 95       	ror	r31
    4ec6:	e7 95       	ror	r30
    4ec8:	9f 5f       	subi	r25, 0xFF	; 255
    4eca:	c1 f7       	brne	.-16     	; 0x4ebc <__mulsf3_pse+0x90>
    4ecc:	fe 2b       	or	r31, r30
    4ece:	88 0f       	add	r24, r24
    4ed0:	91 1d       	adc	r25, r1
    4ed2:	96 95       	lsr	r25
    4ed4:	87 95       	ror	r24
    4ed6:	97 f9       	bld	r25, 7
    4ed8:	08 95       	ret

00004eda <__unordsf2>:
    4eda:	0e 94 86 26 	call	0x4d0c	; 0x4d0c <__fp_cmp>
    4ede:	88 0b       	sbc	r24, r24
    4ee0:	99 0b       	sbc	r25, r25
    4ee2:	08 95       	ret

00004ee4 <dtostrf>:
    4ee4:	ef 92       	push	r14
    4ee6:	0f 93       	push	r16
    4ee8:	1f 93       	push	r17
    4eea:	cf 93       	push	r28
    4eec:	df 93       	push	r29
    4eee:	e8 01       	movw	r28, r16
    4ef0:	47 fd       	sbrc	r20, 7
    4ef2:	02 c0       	rjmp	.+4      	; 0x4ef8 <dtostrf+0x14>
    4ef4:	34 e0       	ldi	r19, 0x04	; 4
    4ef6:	01 c0       	rjmp	.+2      	; 0x4efa <dtostrf+0x16>
    4ef8:	34 e1       	ldi	r19, 0x14	; 20
    4efa:	04 2e       	mov	r0, r20
    4efc:	00 0c       	add	r0, r0
    4efe:	55 0b       	sbc	r21, r21
    4f00:	57 ff       	sbrs	r21, 7
    4f02:	03 c0       	rjmp	.+6      	; 0x4f0a <dtostrf+0x26>
    4f04:	51 95       	neg	r21
    4f06:	41 95       	neg	r20
    4f08:	51 09       	sbc	r21, r1
    4f0a:	e3 2e       	mov	r14, r19
    4f0c:	02 2f       	mov	r16, r18
    4f0e:	24 2f       	mov	r18, r20
    4f10:	ae 01       	movw	r20, r28
    4f12:	0e 94 fd 2d 	call	0x5bfa	; 0x5bfa <dtoa_prf>
    4f16:	ce 01       	movw	r24, r28
    4f18:	df 91       	pop	r29
    4f1a:	cf 91       	pop	r28
    4f1c:	1f 91       	pop	r17
    4f1e:	0f 91       	pop	r16
    4f20:	ef 90       	pop	r14
    4f22:	08 95       	ret

00004f24 <malloc>:
    4f24:	0f 93       	push	r16
    4f26:	1f 93       	push	r17
    4f28:	cf 93       	push	r28
    4f2a:	df 93       	push	r29
    4f2c:	82 30       	cpi	r24, 0x02	; 2
    4f2e:	91 05       	cpc	r25, r1
    4f30:	10 f4       	brcc	.+4      	; 0x4f36 <malloc+0x12>
    4f32:	82 e0       	ldi	r24, 0x02	; 2
    4f34:	90 e0       	ldi	r25, 0x00	; 0
    4f36:	e0 91 0c 06 	lds	r30, 0x060C	; 0x80060c <__flp>
    4f3a:	f0 91 0d 06 	lds	r31, 0x060D	; 0x80060d <__flp+0x1>
    4f3e:	20 e0       	ldi	r18, 0x00	; 0
    4f40:	30 e0       	ldi	r19, 0x00	; 0
    4f42:	a0 e0       	ldi	r26, 0x00	; 0
    4f44:	b0 e0       	ldi	r27, 0x00	; 0
    4f46:	30 97       	sbiw	r30, 0x00	; 0
    4f48:	19 f1       	breq	.+70     	; 0x4f90 <malloc+0x6c>
    4f4a:	40 81       	ld	r20, Z
    4f4c:	51 81       	ldd	r21, Z+1	; 0x01
    4f4e:	02 81       	ldd	r16, Z+2	; 0x02
    4f50:	13 81       	ldd	r17, Z+3	; 0x03
    4f52:	48 17       	cp	r20, r24
    4f54:	59 07       	cpc	r21, r25
    4f56:	c8 f0       	brcs	.+50     	; 0x4f8a <malloc+0x66>
    4f58:	84 17       	cp	r24, r20
    4f5a:	95 07       	cpc	r25, r21
    4f5c:	69 f4       	brne	.+26     	; 0x4f78 <malloc+0x54>
    4f5e:	10 97       	sbiw	r26, 0x00	; 0
    4f60:	31 f0       	breq	.+12     	; 0x4f6e <malloc+0x4a>
    4f62:	12 96       	adiw	r26, 0x02	; 2
    4f64:	0c 93       	st	X, r16
    4f66:	12 97       	sbiw	r26, 0x02	; 2
    4f68:	13 96       	adiw	r26, 0x03	; 3
    4f6a:	1c 93       	st	X, r17
    4f6c:	27 c0       	rjmp	.+78     	; 0x4fbc <malloc+0x98>
    4f6e:	00 93 0c 06 	sts	0x060C, r16	; 0x80060c <__flp>
    4f72:	10 93 0d 06 	sts	0x060D, r17	; 0x80060d <__flp+0x1>
    4f76:	22 c0       	rjmp	.+68     	; 0x4fbc <malloc+0x98>
    4f78:	21 15       	cp	r18, r1
    4f7a:	31 05       	cpc	r19, r1
    4f7c:	19 f0       	breq	.+6      	; 0x4f84 <malloc+0x60>
    4f7e:	42 17       	cp	r20, r18
    4f80:	53 07       	cpc	r21, r19
    4f82:	18 f4       	brcc	.+6      	; 0x4f8a <malloc+0x66>
    4f84:	9a 01       	movw	r18, r20
    4f86:	bd 01       	movw	r22, r26
    4f88:	ef 01       	movw	r28, r30
    4f8a:	df 01       	movw	r26, r30
    4f8c:	f8 01       	movw	r30, r16
    4f8e:	db cf       	rjmp	.-74     	; 0x4f46 <malloc+0x22>
    4f90:	21 15       	cp	r18, r1
    4f92:	31 05       	cpc	r19, r1
    4f94:	f9 f0       	breq	.+62     	; 0x4fd4 <malloc+0xb0>
    4f96:	28 1b       	sub	r18, r24
    4f98:	39 0b       	sbc	r19, r25
    4f9a:	24 30       	cpi	r18, 0x04	; 4
    4f9c:	31 05       	cpc	r19, r1
    4f9e:	80 f4       	brcc	.+32     	; 0x4fc0 <malloc+0x9c>
    4fa0:	8a 81       	ldd	r24, Y+2	; 0x02
    4fa2:	9b 81       	ldd	r25, Y+3	; 0x03
    4fa4:	61 15       	cp	r22, r1
    4fa6:	71 05       	cpc	r23, r1
    4fa8:	21 f0       	breq	.+8      	; 0x4fb2 <malloc+0x8e>
    4faa:	fb 01       	movw	r30, r22
    4fac:	93 83       	std	Z+3, r25	; 0x03
    4fae:	82 83       	std	Z+2, r24	; 0x02
    4fb0:	04 c0       	rjmp	.+8      	; 0x4fba <malloc+0x96>
    4fb2:	90 93 0d 06 	sts	0x060D, r25	; 0x80060d <__flp+0x1>
    4fb6:	80 93 0c 06 	sts	0x060C, r24	; 0x80060c <__flp>
    4fba:	fe 01       	movw	r30, r28
    4fbc:	32 96       	adiw	r30, 0x02	; 2
    4fbe:	44 c0       	rjmp	.+136    	; 0x5048 <malloc+0x124>
    4fc0:	fe 01       	movw	r30, r28
    4fc2:	e2 0f       	add	r30, r18
    4fc4:	f3 1f       	adc	r31, r19
    4fc6:	81 93       	st	Z+, r24
    4fc8:	91 93       	st	Z+, r25
    4fca:	22 50       	subi	r18, 0x02	; 2
    4fcc:	31 09       	sbc	r19, r1
    4fce:	39 83       	std	Y+1, r19	; 0x01
    4fd0:	28 83       	st	Y, r18
    4fd2:	3a c0       	rjmp	.+116    	; 0x5048 <malloc+0x124>
    4fd4:	20 91 0a 06 	lds	r18, 0x060A	; 0x80060a <__brkval>
    4fd8:	30 91 0b 06 	lds	r19, 0x060B	; 0x80060b <__brkval+0x1>
    4fdc:	23 2b       	or	r18, r19
    4fde:	41 f4       	brne	.+16     	; 0x4ff0 <malloc+0xcc>
    4fe0:	20 91 14 02 	lds	r18, 0x0214	; 0x800214 <__malloc_heap_start>
    4fe4:	30 91 15 02 	lds	r19, 0x0215	; 0x800215 <__malloc_heap_start+0x1>
    4fe8:	30 93 0b 06 	sts	0x060B, r19	; 0x80060b <__brkval+0x1>
    4fec:	20 93 0a 06 	sts	0x060A, r18	; 0x80060a <__brkval>
    4ff0:	20 91 12 02 	lds	r18, 0x0212	; 0x800212 <__malloc_heap_end>
    4ff4:	30 91 13 02 	lds	r19, 0x0213	; 0x800213 <__malloc_heap_end+0x1>
    4ff8:	21 15       	cp	r18, r1
    4ffa:	31 05       	cpc	r19, r1
    4ffc:	41 f4       	brne	.+16     	; 0x500e <malloc+0xea>
    4ffe:	2d b7       	in	r18, 0x3d	; 61
    5000:	3e b7       	in	r19, 0x3e	; 62
    5002:	40 91 16 02 	lds	r20, 0x0216	; 0x800216 <__malloc_margin>
    5006:	50 91 17 02 	lds	r21, 0x0217	; 0x800217 <__malloc_margin+0x1>
    500a:	24 1b       	sub	r18, r20
    500c:	35 0b       	sbc	r19, r21
    500e:	e0 91 0a 06 	lds	r30, 0x060A	; 0x80060a <__brkval>
    5012:	f0 91 0b 06 	lds	r31, 0x060B	; 0x80060b <__brkval+0x1>
    5016:	e2 17       	cp	r30, r18
    5018:	f3 07       	cpc	r31, r19
    501a:	a0 f4       	brcc	.+40     	; 0x5044 <malloc+0x120>
    501c:	2e 1b       	sub	r18, r30
    501e:	3f 0b       	sbc	r19, r31
    5020:	28 17       	cp	r18, r24
    5022:	39 07       	cpc	r19, r25
    5024:	78 f0       	brcs	.+30     	; 0x5044 <malloc+0x120>
    5026:	ac 01       	movw	r20, r24
    5028:	4e 5f       	subi	r20, 0xFE	; 254
    502a:	5f 4f       	sbci	r21, 0xFF	; 255
    502c:	24 17       	cp	r18, r20
    502e:	35 07       	cpc	r19, r21
    5030:	48 f0       	brcs	.+18     	; 0x5044 <malloc+0x120>
    5032:	4e 0f       	add	r20, r30
    5034:	5f 1f       	adc	r21, r31
    5036:	50 93 0b 06 	sts	0x060B, r21	; 0x80060b <__brkval+0x1>
    503a:	40 93 0a 06 	sts	0x060A, r20	; 0x80060a <__brkval>
    503e:	81 93       	st	Z+, r24
    5040:	91 93       	st	Z+, r25
    5042:	02 c0       	rjmp	.+4      	; 0x5048 <malloc+0x124>
    5044:	e0 e0       	ldi	r30, 0x00	; 0
    5046:	f0 e0       	ldi	r31, 0x00	; 0
    5048:	cf 01       	movw	r24, r30
    504a:	df 91       	pop	r29
    504c:	cf 91       	pop	r28
    504e:	1f 91       	pop	r17
    5050:	0f 91       	pop	r16
    5052:	08 95       	ret

00005054 <free>:
    5054:	cf 93       	push	r28
    5056:	df 93       	push	r29
    5058:	00 97       	sbiw	r24, 0x00	; 0
    505a:	09 f4       	brne	.+2      	; 0x505e <free+0xa>
    505c:	81 c0       	rjmp	.+258    	; 0x5160 <free+0x10c>
    505e:	fc 01       	movw	r30, r24
    5060:	32 97       	sbiw	r30, 0x02	; 2
    5062:	13 82       	std	Z+3, r1	; 0x03
    5064:	12 82       	std	Z+2, r1	; 0x02
    5066:	a0 91 0c 06 	lds	r26, 0x060C	; 0x80060c <__flp>
    506a:	b0 91 0d 06 	lds	r27, 0x060D	; 0x80060d <__flp+0x1>
    506e:	10 97       	sbiw	r26, 0x00	; 0
    5070:	81 f4       	brne	.+32     	; 0x5092 <free+0x3e>
    5072:	20 81       	ld	r18, Z
    5074:	31 81       	ldd	r19, Z+1	; 0x01
    5076:	82 0f       	add	r24, r18
    5078:	93 1f       	adc	r25, r19
    507a:	20 91 0a 06 	lds	r18, 0x060A	; 0x80060a <__brkval>
    507e:	30 91 0b 06 	lds	r19, 0x060B	; 0x80060b <__brkval+0x1>
    5082:	28 17       	cp	r18, r24
    5084:	39 07       	cpc	r19, r25
    5086:	51 f5       	brne	.+84     	; 0x50dc <free+0x88>
    5088:	f0 93 0b 06 	sts	0x060B, r31	; 0x80060b <__brkval+0x1>
    508c:	e0 93 0a 06 	sts	0x060A, r30	; 0x80060a <__brkval>
    5090:	67 c0       	rjmp	.+206    	; 0x5160 <free+0x10c>
    5092:	ed 01       	movw	r28, r26
    5094:	20 e0       	ldi	r18, 0x00	; 0
    5096:	30 e0       	ldi	r19, 0x00	; 0
    5098:	ce 17       	cp	r28, r30
    509a:	df 07       	cpc	r29, r31
    509c:	40 f4       	brcc	.+16     	; 0x50ae <free+0x5a>
    509e:	4a 81       	ldd	r20, Y+2	; 0x02
    50a0:	5b 81       	ldd	r21, Y+3	; 0x03
    50a2:	9e 01       	movw	r18, r28
    50a4:	41 15       	cp	r20, r1
    50a6:	51 05       	cpc	r21, r1
    50a8:	f1 f0       	breq	.+60     	; 0x50e6 <free+0x92>
    50aa:	ea 01       	movw	r28, r20
    50ac:	f5 cf       	rjmp	.-22     	; 0x5098 <free+0x44>
    50ae:	d3 83       	std	Z+3, r29	; 0x03
    50b0:	c2 83       	std	Z+2, r28	; 0x02
    50b2:	40 81       	ld	r20, Z
    50b4:	51 81       	ldd	r21, Z+1	; 0x01
    50b6:	84 0f       	add	r24, r20
    50b8:	95 1f       	adc	r25, r21
    50ba:	c8 17       	cp	r28, r24
    50bc:	d9 07       	cpc	r29, r25
    50be:	59 f4       	brne	.+22     	; 0x50d6 <free+0x82>
    50c0:	88 81       	ld	r24, Y
    50c2:	99 81       	ldd	r25, Y+1	; 0x01
    50c4:	84 0f       	add	r24, r20
    50c6:	95 1f       	adc	r25, r21
    50c8:	02 96       	adiw	r24, 0x02	; 2
    50ca:	91 83       	std	Z+1, r25	; 0x01
    50cc:	80 83       	st	Z, r24
    50ce:	8a 81       	ldd	r24, Y+2	; 0x02
    50d0:	9b 81       	ldd	r25, Y+3	; 0x03
    50d2:	93 83       	std	Z+3, r25	; 0x03
    50d4:	82 83       	std	Z+2, r24	; 0x02
    50d6:	21 15       	cp	r18, r1
    50d8:	31 05       	cpc	r19, r1
    50da:	29 f4       	brne	.+10     	; 0x50e6 <free+0x92>
    50dc:	f0 93 0d 06 	sts	0x060D, r31	; 0x80060d <__flp+0x1>
    50e0:	e0 93 0c 06 	sts	0x060C, r30	; 0x80060c <__flp>
    50e4:	3d c0       	rjmp	.+122    	; 0x5160 <free+0x10c>
    50e6:	e9 01       	movw	r28, r18
    50e8:	fb 83       	std	Y+3, r31	; 0x03
    50ea:	ea 83       	std	Y+2, r30	; 0x02
    50ec:	49 91       	ld	r20, Y+
    50ee:	59 91       	ld	r21, Y+
    50f0:	c4 0f       	add	r28, r20
    50f2:	d5 1f       	adc	r29, r21
    50f4:	ec 17       	cp	r30, r28
    50f6:	fd 07       	cpc	r31, r29
    50f8:	61 f4       	brne	.+24     	; 0x5112 <free+0xbe>
    50fa:	80 81       	ld	r24, Z
    50fc:	91 81       	ldd	r25, Z+1	; 0x01
    50fe:	84 0f       	add	r24, r20
    5100:	95 1f       	adc	r25, r21
    5102:	02 96       	adiw	r24, 0x02	; 2
    5104:	e9 01       	movw	r28, r18
    5106:	99 83       	std	Y+1, r25	; 0x01
    5108:	88 83       	st	Y, r24
    510a:	82 81       	ldd	r24, Z+2	; 0x02
    510c:	93 81       	ldd	r25, Z+3	; 0x03
    510e:	9b 83       	std	Y+3, r25	; 0x03
    5110:	8a 83       	std	Y+2, r24	; 0x02
    5112:	e0 e0       	ldi	r30, 0x00	; 0
    5114:	f0 e0       	ldi	r31, 0x00	; 0
    5116:	12 96       	adiw	r26, 0x02	; 2
    5118:	8d 91       	ld	r24, X+
    511a:	9c 91       	ld	r25, X
    511c:	13 97       	sbiw	r26, 0x03	; 3
    511e:	00 97       	sbiw	r24, 0x00	; 0
    5120:	19 f0       	breq	.+6      	; 0x5128 <free+0xd4>
    5122:	fd 01       	movw	r30, r26
    5124:	dc 01       	movw	r26, r24
    5126:	f7 cf       	rjmp	.-18     	; 0x5116 <free+0xc2>
    5128:	8d 91       	ld	r24, X+
    512a:	9c 91       	ld	r25, X
    512c:	11 97       	sbiw	r26, 0x01	; 1
    512e:	9d 01       	movw	r18, r26
    5130:	2e 5f       	subi	r18, 0xFE	; 254
    5132:	3f 4f       	sbci	r19, 0xFF	; 255
    5134:	82 0f       	add	r24, r18
    5136:	93 1f       	adc	r25, r19
    5138:	20 91 0a 06 	lds	r18, 0x060A	; 0x80060a <__brkval>
    513c:	30 91 0b 06 	lds	r19, 0x060B	; 0x80060b <__brkval+0x1>
    5140:	28 17       	cp	r18, r24
    5142:	39 07       	cpc	r19, r25
    5144:	69 f4       	brne	.+26     	; 0x5160 <free+0x10c>
    5146:	30 97       	sbiw	r30, 0x00	; 0
    5148:	29 f4       	brne	.+10     	; 0x5154 <free+0x100>
    514a:	10 92 0d 06 	sts	0x060D, r1	; 0x80060d <__flp+0x1>
    514e:	10 92 0c 06 	sts	0x060C, r1	; 0x80060c <__flp>
    5152:	02 c0       	rjmp	.+4      	; 0x5158 <free+0x104>
    5154:	13 82       	std	Z+3, r1	; 0x03
    5156:	12 82       	std	Z+2, r1	; 0x02
    5158:	b0 93 0b 06 	sts	0x060B, r27	; 0x80060b <__brkval+0x1>
    515c:	a0 93 0a 06 	sts	0x060A, r26	; 0x80060a <__brkval>
    5160:	df 91       	pop	r29
    5162:	cf 91       	pop	r28
    5164:	08 95       	ret

00005166 <random_r>:
    5166:	8f 92       	push	r8
    5168:	9f 92       	push	r9
    516a:	af 92       	push	r10
    516c:	bf 92       	push	r11
    516e:	cf 92       	push	r12
    5170:	df 92       	push	r13
    5172:	ef 92       	push	r14
    5174:	ff 92       	push	r15
    5176:	cf 93       	push	r28
    5178:	df 93       	push	r29
    517a:	ec 01       	movw	r28, r24
    517c:	68 81       	ld	r22, Y
    517e:	79 81       	ldd	r23, Y+1	; 0x01
    5180:	8a 81       	ldd	r24, Y+2	; 0x02
    5182:	9b 81       	ldd	r25, Y+3	; 0x03
    5184:	61 15       	cp	r22, r1
    5186:	71 05       	cpc	r23, r1
    5188:	81 05       	cpc	r24, r1
    518a:	91 05       	cpc	r25, r1
    518c:	21 f4       	brne	.+8      	; 0x5196 <random_r+0x30>
    518e:	64 e2       	ldi	r22, 0x24	; 36
    5190:	79 ed       	ldi	r23, 0xD9	; 217
    5192:	8b e5       	ldi	r24, 0x5B	; 91
    5194:	97 e0       	ldi	r25, 0x07	; 7
    5196:	2d e1       	ldi	r18, 0x1D	; 29
    5198:	33 ef       	ldi	r19, 0xF3	; 243
    519a:	41 e0       	ldi	r20, 0x01	; 1
    519c:	50 e0       	ldi	r21, 0x00	; 0
    519e:	0e 94 f5 24 	call	0x49ea	; 0x49ea <__divmodsi4>
    51a2:	49 01       	movw	r8, r18
    51a4:	5a 01       	movw	r10, r20
    51a6:	9b 01       	movw	r18, r22
    51a8:	ac 01       	movw	r20, r24
    51aa:	a7 ea       	ldi	r26, 0xA7	; 167
    51ac:	b1 e4       	ldi	r27, 0x41	; 65
    51ae:	0e 94 1c 25 	call	0x4a38	; 0x4a38 <__muluhisi3>
    51b2:	6b 01       	movw	r12, r22
    51b4:	7c 01       	movw	r14, r24
    51b6:	ac ee       	ldi	r26, 0xEC	; 236
    51b8:	b4 ef       	ldi	r27, 0xF4	; 244
    51ba:	a5 01       	movw	r20, r10
    51bc:	94 01       	movw	r18, r8
    51be:	0e 94 86 32 	call	0x650c	; 0x650c <__mulohisi3>
    51c2:	dc 01       	movw	r26, r24
    51c4:	cb 01       	movw	r24, r22
    51c6:	8c 0d       	add	r24, r12
    51c8:	9d 1d       	adc	r25, r13
    51ca:	ae 1d       	adc	r26, r14
    51cc:	bf 1d       	adc	r27, r15
    51ce:	b7 ff       	sbrs	r27, 7
    51d0:	03 c0       	rjmp	.+6      	; 0x51d8 <random_r+0x72>
    51d2:	01 97       	sbiw	r24, 0x01	; 1
    51d4:	a1 09       	sbc	r26, r1
    51d6:	b0 48       	sbci	r27, 0x80	; 128
    51d8:	88 83       	st	Y, r24
    51da:	99 83       	std	Y+1, r25	; 0x01
    51dc:	aa 83       	std	Y+2, r26	; 0x02
    51de:	bb 83       	std	Y+3, r27	; 0x03
    51e0:	bc 01       	movw	r22, r24
    51e2:	cd 01       	movw	r24, r26
    51e4:	9f 77       	andi	r25, 0x7F	; 127
    51e6:	df 91       	pop	r29
    51e8:	cf 91       	pop	r28
    51ea:	ff 90       	pop	r15
    51ec:	ef 90       	pop	r14
    51ee:	df 90       	pop	r13
    51f0:	cf 90       	pop	r12
    51f2:	bf 90       	pop	r11
    51f4:	af 90       	pop	r10
    51f6:	9f 90       	pop	r9
    51f8:	8f 90       	pop	r8
    51fa:	08 95       	ret

000051fc <random>:
    51fc:	8f 92       	push	r8
    51fe:	9f 92       	push	r9
    5200:	af 92       	push	r10
    5202:	bf 92       	push	r11
    5204:	cf 92       	push	r12
    5206:	df 92       	push	r13
    5208:	ef 92       	push	r14
    520a:	ff 92       	push	r15
    520c:	60 91 18 02 	lds	r22, 0x0218	; 0x800218 <next>
    5210:	70 91 19 02 	lds	r23, 0x0219	; 0x800219 <next+0x1>
    5214:	80 91 1a 02 	lds	r24, 0x021A	; 0x80021a <next+0x2>
    5218:	90 91 1b 02 	lds	r25, 0x021B	; 0x80021b <next+0x3>
    521c:	61 15       	cp	r22, r1
    521e:	71 05       	cpc	r23, r1
    5220:	81 05       	cpc	r24, r1
    5222:	91 05       	cpc	r25, r1
    5224:	21 f4       	brne	.+8      	; 0x522e <random+0x32>
    5226:	64 e2       	ldi	r22, 0x24	; 36
    5228:	79 ed       	ldi	r23, 0xD9	; 217
    522a:	8b e5       	ldi	r24, 0x5B	; 91
    522c:	97 e0       	ldi	r25, 0x07	; 7
    522e:	2d e1       	ldi	r18, 0x1D	; 29
    5230:	33 ef       	ldi	r19, 0xF3	; 243
    5232:	41 e0       	ldi	r20, 0x01	; 1
    5234:	50 e0       	ldi	r21, 0x00	; 0
    5236:	0e 94 f5 24 	call	0x49ea	; 0x49ea <__divmodsi4>
    523a:	49 01       	movw	r8, r18
    523c:	5a 01       	movw	r10, r20
    523e:	9b 01       	movw	r18, r22
    5240:	ac 01       	movw	r20, r24
    5242:	a7 ea       	ldi	r26, 0xA7	; 167
    5244:	b1 e4       	ldi	r27, 0x41	; 65
    5246:	0e 94 1c 25 	call	0x4a38	; 0x4a38 <__muluhisi3>
    524a:	6b 01       	movw	r12, r22
    524c:	7c 01       	movw	r14, r24
    524e:	ac ee       	ldi	r26, 0xEC	; 236
    5250:	b4 ef       	ldi	r27, 0xF4	; 244
    5252:	a5 01       	movw	r20, r10
    5254:	94 01       	movw	r18, r8
    5256:	0e 94 86 32 	call	0x650c	; 0x650c <__mulohisi3>
    525a:	dc 01       	movw	r26, r24
    525c:	cb 01       	movw	r24, r22
    525e:	8c 0d       	add	r24, r12
    5260:	9d 1d       	adc	r25, r13
    5262:	ae 1d       	adc	r26, r14
    5264:	bf 1d       	adc	r27, r15
    5266:	b7 ff       	sbrs	r27, 7
    5268:	03 c0       	rjmp	.+6      	; 0x5270 <random+0x74>
    526a:	01 97       	sbiw	r24, 0x01	; 1
    526c:	a1 09       	sbc	r26, r1
    526e:	b0 48       	sbci	r27, 0x80	; 128
    5270:	80 93 18 02 	sts	0x0218, r24	; 0x800218 <next>
    5274:	90 93 19 02 	sts	0x0219, r25	; 0x800219 <next+0x1>
    5278:	a0 93 1a 02 	sts	0x021A, r26	; 0x80021a <next+0x2>
    527c:	b0 93 1b 02 	sts	0x021B, r27	; 0x80021b <next+0x3>
    5280:	bc 01       	movw	r22, r24
    5282:	cd 01       	movw	r24, r26
    5284:	9f 77       	andi	r25, 0x7F	; 127
    5286:	ff 90       	pop	r15
    5288:	ef 90       	pop	r14
    528a:	df 90       	pop	r13
    528c:	cf 90       	pop	r12
    528e:	bf 90       	pop	r11
    5290:	af 90       	pop	r10
    5292:	9f 90       	pop	r9
    5294:	8f 90       	pop	r8
    5296:	08 95       	ret

00005298 <srandom>:
    5298:	60 93 18 02 	sts	0x0218, r22	; 0x800218 <next>
    529c:	70 93 19 02 	sts	0x0219, r23	; 0x800219 <next+0x1>
    52a0:	80 93 1a 02 	sts	0x021A, r24	; 0x80021a <next+0x2>
    52a4:	90 93 1b 02 	sts	0x021B, r25	; 0x80021b <next+0x3>
    52a8:	08 95       	ret

000052aa <realloc>:
    52aa:	6f 92       	push	r6
    52ac:	7f 92       	push	r7
    52ae:	8f 92       	push	r8
    52b0:	9f 92       	push	r9
    52b2:	af 92       	push	r10
    52b4:	bf 92       	push	r11
    52b6:	cf 92       	push	r12
    52b8:	df 92       	push	r13
    52ba:	ef 92       	push	r14
    52bc:	ff 92       	push	r15
    52be:	0f 93       	push	r16
    52c0:	1f 93       	push	r17
    52c2:	cf 93       	push	r28
    52c4:	df 93       	push	r29
    52c6:	00 97       	sbiw	r24, 0x00	; 0
    52c8:	89 f4       	brne	.+34     	; 0x52ec <realloc+0x42>
    52ca:	cb 01       	movw	r24, r22
    52cc:	df 91       	pop	r29
    52ce:	cf 91       	pop	r28
    52d0:	1f 91       	pop	r17
    52d2:	0f 91       	pop	r16
    52d4:	ff 90       	pop	r15
    52d6:	ef 90       	pop	r14
    52d8:	df 90       	pop	r13
    52da:	cf 90       	pop	r12
    52dc:	bf 90       	pop	r11
    52de:	af 90       	pop	r10
    52e0:	9f 90       	pop	r9
    52e2:	8f 90       	pop	r8
    52e4:	7f 90       	pop	r7
    52e6:	6f 90       	pop	r6
    52e8:	0c 94 92 27 	jmp	0x4f24	; 0x4f24 <malloc>
    52ec:	fc 01       	movw	r30, r24
    52ee:	e6 0f       	add	r30, r22
    52f0:	f7 1f       	adc	r31, r23
    52f2:	9c 01       	movw	r18, r24
    52f4:	22 50       	subi	r18, 0x02	; 2
    52f6:	31 09       	sbc	r19, r1
    52f8:	e2 17       	cp	r30, r18
    52fa:	f3 07       	cpc	r31, r19
    52fc:	08 f4       	brcc	.+2      	; 0x5300 <realloc+0x56>
    52fe:	a9 c0       	rjmp	.+338    	; 0x5452 <realloc+0x1a8>
    5300:	ec 01       	movw	r28, r24
    5302:	d9 01       	movw	r26, r18
    5304:	0d 91       	ld	r16, X+
    5306:	1c 91       	ld	r17, X
    5308:	11 97       	sbiw	r26, 0x01	; 1
    530a:	06 17       	cp	r16, r22
    530c:	17 07       	cpc	r17, r23
    530e:	b0 f0       	brcs	.+44     	; 0x533c <realloc+0x92>
    5310:	05 30       	cpi	r16, 0x05	; 5
    5312:	11 05       	cpc	r17, r1
    5314:	08 f4       	brcc	.+2      	; 0x5318 <realloc+0x6e>
    5316:	9b c0       	rjmp	.+310    	; 0x544e <realloc+0x1a4>
    5318:	c8 01       	movw	r24, r16
    531a:	04 97       	sbiw	r24, 0x04	; 4
    531c:	86 17       	cp	r24, r22
    531e:	97 07       	cpc	r25, r23
    5320:	08 f4       	brcc	.+2      	; 0x5324 <realloc+0x7a>
    5322:	95 c0       	rjmp	.+298    	; 0x544e <realloc+0x1a4>
    5324:	02 50       	subi	r16, 0x02	; 2
    5326:	11 09       	sbc	r17, r1
    5328:	06 1b       	sub	r16, r22
    532a:	17 0b       	sbc	r17, r23
    532c:	01 93       	st	Z+, r16
    532e:	11 93       	st	Z+, r17
    5330:	6d 93       	st	X+, r22
    5332:	7c 93       	st	X, r23
    5334:	cf 01       	movw	r24, r30
    5336:	0e 94 2a 28 	call	0x5054	; 0x5054 <free>
    533a:	89 c0       	rjmp	.+274    	; 0x544e <realloc+0x1a4>
    533c:	5b 01       	movw	r10, r22
    533e:	a0 1a       	sub	r10, r16
    5340:	b1 0a       	sbc	r11, r17
    5342:	4c 01       	movw	r8, r24
    5344:	80 0e       	add	r8, r16
    5346:	91 1e       	adc	r9, r17
    5348:	a0 91 0c 06 	lds	r26, 0x060C	; 0x80060c <__flp>
    534c:	b0 91 0d 06 	lds	r27, 0x060D	; 0x80060d <__flp+0x1>
    5350:	61 2c       	mov	r6, r1
    5352:	71 2c       	mov	r7, r1
    5354:	e1 2c       	mov	r14, r1
    5356:	f1 2c       	mov	r15, r1
    5358:	10 97       	sbiw	r26, 0x00	; 0
    535a:	09 f4       	brne	.+2      	; 0x535e <realloc+0xb4>
    535c:	46 c0       	rjmp	.+140    	; 0x53ea <realloc+0x140>
    535e:	8d 91       	ld	r24, X+
    5360:	9c 91       	ld	r25, X
    5362:	11 97       	sbiw	r26, 0x01	; 1
    5364:	a8 15       	cp	r26, r8
    5366:	b9 05       	cpc	r27, r9
    5368:	b1 f5       	brne	.+108    	; 0x53d6 <realloc+0x12c>
    536a:	6c 01       	movw	r12, r24
    536c:	42 e0       	ldi	r20, 0x02	; 2
    536e:	c4 0e       	add	r12, r20
    5370:	d1 1c       	adc	r13, r1
    5372:	ca 14       	cp	r12, r10
    5374:	db 04       	cpc	r13, r11
    5376:	78 f1       	brcs	.+94     	; 0x53d6 <realloc+0x12c>
    5378:	4c 01       	movw	r8, r24
    537a:	8a 18       	sub	r8, r10
    537c:	9b 08       	sbc	r9, r11
    537e:	64 01       	movw	r12, r8
    5380:	42 e0       	ldi	r20, 0x02	; 2
    5382:	c4 0e       	add	r12, r20
    5384:	d1 1c       	adc	r13, r1
    5386:	12 96       	adiw	r26, 0x02	; 2
    5388:	bc 90       	ld	r11, X
    538a:	12 97       	sbiw	r26, 0x02	; 2
    538c:	13 96       	adiw	r26, 0x03	; 3
    538e:	ac 91       	ld	r26, X
    5390:	b5 e0       	ldi	r27, 0x05	; 5
    5392:	cb 16       	cp	r12, r27
    5394:	d1 04       	cpc	r13, r1
    5396:	40 f0       	brcs	.+16     	; 0x53a8 <realloc+0xfe>
    5398:	b2 82       	std	Z+2, r11	; 0x02
    539a:	a3 83       	std	Z+3, r26	; 0x03
    539c:	91 82       	std	Z+1, r9	; 0x01
    539e:	80 82       	st	Z, r8
    53a0:	d9 01       	movw	r26, r18
    53a2:	6d 93       	st	X+, r22
    53a4:	7c 93       	st	X, r23
    53a6:	09 c0       	rjmp	.+18     	; 0x53ba <realloc+0x110>
    53a8:	0e 5f       	subi	r16, 0xFE	; 254
    53aa:	1f 4f       	sbci	r17, 0xFF	; 255
    53ac:	80 0f       	add	r24, r16
    53ae:	91 1f       	adc	r25, r17
    53b0:	f9 01       	movw	r30, r18
    53b2:	91 83       	std	Z+1, r25	; 0x01
    53b4:	80 83       	st	Z, r24
    53b6:	eb 2d       	mov	r30, r11
    53b8:	fa 2f       	mov	r31, r26
    53ba:	e1 14       	cp	r14, r1
    53bc:	f1 04       	cpc	r15, r1
    53be:	31 f0       	breq	.+12     	; 0x53cc <realloc+0x122>
    53c0:	d7 01       	movw	r26, r14
    53c2:	13 96       	adiw	r26, 0x03	; 3
    53c4:	fc 93       	st	X, r31
    53c6:	ee 93       	st	-X, r30
    53c8:	12 97       	sbiw	r26, 0x02	; 2
    53ca:	41 c0       	rjmp	.+130    	; 0x544e <realloc+0x1a4>
    53cc:	f0 93 0d 06 	sts	0x060D, r31	; 0x80060d <__flp+0x1>
    53d0:	e0 93 0c 06 	sts	0x060C, r30	; 0x80060c <__flp>
    53d4:	3c c0       	rjmp	.+120    	; 0x544e <realloc+0x1a4>
    53d6:	68 16       	cp	r6, r24
    53d8:	79 06       	cpc	r7, r25
    53da:	08 f4       	brcc	.+2      	; 0x53de <realloc+0x134>
    53dc:	3c 01       	movw	r6, r24
    53de:	7d 01       	movw	r14, r26
    53e0:	12 96       	adiw	r26, 0x02	; 2
    53e2:	0d 90       	ld	r0, X+
    53e4:	bc 91       	ld	r27, X
    53e6:	a0 2d       	mov	r26, r0
    53e8:	b7 cf       	rjmp	.-146    	; 0x5358 <realloc+0xae>
    53ea:	80 91 0a 06 	lds	r24, 0x060A	; 0x80060a <__brkval>
    53ee:	90 91 0b 06 	lds	r25, 0x060B	; 0x80060b <__brkval+0x1>
    53f2:	88 16       	cp	r8, r24
    53f4:	99 06       	cpc	r9, r25
    53f6:	e1 f4       	brne	.+56     	; 0x5430 <realloc+0x186>
    53f8:	66 16       	cp	r6, r22
    53fa:	77 06       	cpc	r7, r23
    53fc:	c8 f4       	brcc	.+50     	; 0x5430 <realloc+0x186>
    53fe:	80 91 12 02 	lds	r24, 0x0212	; 0x800212 <__malloc_heap_end>
    5402:	90 91 13 02 	lds	r25, 0x0213	; 0x800213 <__malloc_heap_end+0x1>
    5406:	00 97       	sbiw	r24, 0x00	; 0
    5408:	41 f4       	brne	.+16     	; 0x541a <realloc+0x170>
    540a:	8d b7       	in	r24, 0x3d	; 61
    540c:	9e b7       	in	r25, 0x3e	; 62
    540e:	40 91 16 02 	lds	r20, 0x0216	; 0x800216 <__malloc_margin>
    5412:	50 91 17 02 	lds	r21, 0x0217	; 0x800217 <__malloc_margin+0x1>
    5416:	84 1b       	sub	r24, r20
    5418:	95 0b       	sbc	r25, r21
    541a:	e8 17       	cp	r30, r24
    541c:	f9 07       	cpc	r31, r25
    541e:	c8 f4       	brcc	.+50     	; 0x5452 <realloc+0x1a8>
    5420:	f0 93 0b 06 	sts	0x060B, r31	; 0x80060b <__brkval+0x1>
    5424:	e0 93 0a 06 	sts	0x060A, r30	; 0x80060a <__brkval>
    5428:	f9 01       	movw	r30, r18
    542a:	71 83       	std	Z+1, r23	; 0x01
    542c:	60 83       	st	Z, r22
    542e:	0f c0       	rjmp	.+30     	; 0x544e <realloc+0x1a4>
    5430:	cb 01       	movw	r24, r22
    5432:	0e 94 92 27 	call	0x4f24	; 0x4f24 <malloc>
    5436:	7c 01       	movw	r14, r24
    5438:	00 97       	sbiw	r24, 0x00	; 0
    543a:	59 f0       	breq	.+22     	; 0x5452 <realloc+0x1a8>
    543c:	a8 01       	movw	r20, r16
    543e:	be 01       	movw	r22, r28
    5440:	0e 94 a0 2a 	call	0x5540	; 0x5540 <memcpy>
    5444:	ce 01       	movw	r24, r28
    5446:	0e 94 2a 28 	call	0x5054	; 0x5054 <free>
    544a:	c7 01       	movw	r24, r14
    544c:	04 c0       	rjmp	.+8      	; 0x5456 <realloc+0x1ac>
    544e:	ce 01       	movw	r24, r28
    5450:	02 c0       	rjmp	.+4      	; 0x5456 <realloc+0x1ac>
    5452:	80 e0       	ldi	r24, 0x00	; 0
    5454:	90 e0       	ldi	r25, 0x00	; 0
    5456:	df 91       	pop	r29
    5458:	cf 91       	pop	r28
    545a:	1f 91       	pop	r17
    545c:	0f 91       	pop	r16
    545e:	ff 90       	pop	r15
    5460:	ef 90       	pop	r14
    5462:	df 90       	pop	r13
    5464:	cf 90       	pop	r12
    5466:	bf 90       	pop	r11
    5468:	af 90       	pop	r10
    546a:	9f 90       	pop	r9
    546c:	8f 90       	pop	r8
    546e:	7f 90       	pop	r7
    5470:	6f 90       	pop	r6
    5472:	08 95       	ret

00005474 <abort>:
    5474:	81 e0       	ldi	r24, 0x01	; 1
    5476:	90 e0       	ldi	r25, 0x00	; 0
    5478:	f8 94       	cli
    547a:	0c 94 8b 32 	jmp	0x6516	; 0x6516 <_exit>

0000547e <atof>:
    547e:	66 27       	eor	r22, r22
    5480:	77 27       	eor	r23, r23
    5482:	0c 94 74 2f 	jmp	0x5ee8	; 0x5ee8 <strtod>

00005486 <atol>:
    5486:	1f 93       	push	r17
    5488:	fc 01       	movw	r30, r24
    548a:	99 27       	eor	r25, r25
    548c:	88 27       	eor	r24, r24
    548e:	bc 01       	movw	r22, r24
    5490:	e8 94       	clt
    5492:	11 91       	ld	r17, Z+
    5494:	10 32       	cpi	r17, 0x20	; 32
    5496:	e9 f3       	breq	.-6      	; 0x5492 <atol+0xc>
    5498:	19 30       	cpi	r17, 0x09	; 9
    549a:	10 f0       	brcs	.+4      	; 0x54a0 <atol+0x1a>
    549c:	1e 30       	cpi	r17, 0x0E	; 14
    549e:	c8 f3       	brcs	.-14     	; 0x5492 <atol+0xc>
    54a0:	1b 32       	cpi	r17, 0x2B	; 43
    54a2:	51 f0       	breq	.+20     	; 0x54b8 <atol+0x32>
    54a4:	1d 32       	cpi	r17, 0x2D	; 45
    54a6:	49 f4       	brne	.+18     	; 0x54ba <atol+0x34>
    54a8:	68 94       	set
    54aa:	06 c0       	rjmp	.+12     	; 0x54b8 <atol+0x32>
    54ac:	0e 94 48 2b 	call	0x5690	; 0x5690 <__mulsi_const_10>
    54b0:	61 0f       	add	r22, r17
    54b2:	71 1d       	adc	r23, r1
    54b4:	81 1d       	adc	r24, r1
    54b6:	91 1d       	adc	r25, r1
    54b8:	11 91       	ld	r17, Z+
    54ba:	10 53       	subi	r17, 0x30	; 48
    54bc:	1a 30       	cpi	r17, 0x0A	; 10
    54be:	b0 f3       	brcs	.-20     	; 0x54ac <atol+0x26>
    54c0:	3e f4       	brtc	.+14     	; 0x54d0 <atol+0x4a>
    54c2:	90 95       	com	r25
    54c4:	80 95       	com	r24
    54c6:	70 95       	com	r23
    54c8:	61 95       	neg	r22
    54ca:	7f 4f       	sbci	r23, 0xFF	; 255
    54cc:	8f 4f       	sbci	r24, 0xFF	; 255
    54ce:	9f 4f       	sbci	r25, 0xFF	; 255
    54d0:	1f 91       	pop	r17
    54d2:	08 95       	ret

000054d4 <isspace>:
    54d4:	91 11       	cpse	r25, r1
    54d6:	0c 94 a8 31 	jmp	0x6350	; 0x6350 <__ctype_isfalse>
    54da:	80 32       	cpi	r24, 0x20	; 32
    54dc:	19 f0       	breq	.+6      	; 0x54e4 <isspace+0x10>
    54de:	89 50       	subi	r24, 0x09	; 9
    54e0:	85 50       	subi	r24, 0x05	; 5
    54e2:	c8 f7       	brcc	.-14     	; 0x54d6 <isspace+0x2>
    54e4:	08 95       	ret

000054e6 <tolower>:
    54e6:	91 11       	cpse	r25, r1
    54e8:	08 95       	ret
    54ea:	81 54       	subi	r24, 0x41	; 65
    54ec:	8a 51       	subi	r24, 0x1A	; 26
    54ee:	08 f4       	brcc	.+2      	; 0x54f2 <tolower+0xc>
    54f0:	80 5e       	subi	r24, 0xE0	; 224
    54f2:	85 5a       	subi	r24, 0xA5	; 165
    54f4:	08 95       	ret

000054f6 <toupper>:
    54f6:	91 11       	cpse	r25, r1
    54f8:	08 95       	ret
    54fa:	81 56       	subi	r24, 0x61	; 97
    54fc:	8a 51       	subi	r24, 0x1A	; 26
    54fe:	08 f4       	brcc	.+2      	; 0x5502 <toupper+0xc>
    5500:	80 52       	subi	r24, 0x20	; 32
    5502:	85 58       	subi	r24, 0x85	; 133
    5504:	08 95       	ret

00005506 <strcpy_P>:
    5506:	fb 01       	movw	r30, r22
    5508:	dc 01       	movw	r26, r24
    550a:	05 90       	lpm	r0, Z+
    550c:	0d 92       	st	X+, r0
    550e:	00 20       	and	r0, r0
    5510:	e1 f7       	brne	.-8      	; 0x550a <strcpy_P+0x4>
    5512:	08 95       	ret

00005514 <__strlen_P>:
    5514:	fc 01       	movw	r30, r24
    5516:	05 90       	lpm	r0, Z+
    5518:	00 20       	and	r0, r0
    551a:	e9 f7       	brne	.-6      	; 0x5516 <__strlen_P+0x2>
    551c:	80 95       	com	r24
    551e:	90 95       	com	r25
    5520:	8e 0f       	add	r24, r30
    5522:	9f 1f       	adc	r25, r31
    5524:	08 95       	ret

00005526 <memcmp>:
    5526:	fb 01       	movw	r30, r22
    5528:	dc 01       	movw	r26, r24
    552a:	04 c0       	rjmp	.+8      	; 0x5534 <memcmp+0xe>
    552c:	8d 91       	ld	r24, X+
    552e:	01 90       	ld	r0, Z+
    5530:	80 19       	sub	r24, r0
    5532:	21 f4       	brne	.+8      	; 0x553c <memcmp+0x16>
    5534:	41 50       	subi	r20, 0x01	; 1
    5536:	50 40       	sbci	r21, 0x00	; 0
    5538:	c8 f7       	brcc	.-14     	; 0x552c <memcmp+0x6>
    553a:	88 1b       	sub	r24, r24
    553c:	99 0b       	sbc	r25, r25
    553e:	08 95       	ret

00005540 <memcpy>:
    5540:	fb 01       	movw	r30, r22
    5542:	dc 01       	movw	r26, r24
    5544:	02 c0       	rjmp	.+4      	; 0x554a <memcpy+0xa>
    5546:	01 90       	ld	r0, Z+
    5548:	0d 92       	st	X+, r0
    554a:	41 50       	subi	r20, 0x01	; 1
    554c:	50 40       	sbci	r21, 0x00	; 0
    554e:	d8 f7       	brcc	.-10     	; 0x5546 <memcpy+0x6>
    5550:	08 95       	ret

00005552 <memmove>:
    5552:	68 17       	cp	r22, r24
    5554:	79 07       	cpc	r23, r25
    5556:	68 f4       	brcc	.+26     	; 0x5572 <memmove+0x20>
    5558:	fb 01       	movw	r30, r22
    555a:	dc 01       	movw	r26, r24
    555c:	e4 0f       	add	r30, r20
    555e:	f5 1f       	adc	r31, r21
    5560:	a4 0f       	add	r26, r20
    5562:	b5 1f       	adc	r27, r21
    5564:	02 c0       	rjmp	.+4      	; 0x556a <memmove+0x18>
    5566:	02 90       	ld	r0, -Z
    5568:	0e 92       	st	-X, r0
    556a:	41 50       	subi	r20, 0x01	; 1
    556c:	50 40       	sbci	r21, 0x00	; 0
    556e:	d8 f7       	brcc	.-10     	; 0x5566 <memmove+0x14>
    5570:	08 95       	ret
    5572:	0c 94 a0 2a 	jmp	0x5540	; 0x5540 <memcpy>

00005576 <strchr>:
    5576:	fc 01       	movw	r30, r24
    5578:	81 91       	ld	r24, Z+
    557a:	86 17       	cp	r24, r22
    557c:	21 f0       	breq	.+8      	; 0x5586 <strchr+0x10>
    557e:	88 23       	and	r24, r24
    5580:	d9 f7       	brne	.-10     	; 0x5578 <strchr+0x2>
    5582:	99 27       	eor	r25, r25
    5584:	08 95       	ret
    5586:	31 97       	sbiw	r30, 0x01	; 1
    5588:	cf 01       	movw	r24, r30
    558a:	08 95       	ret

0000558c <strcmp>:
    558c:	fb 01       	movw	r30, r22
    558e:	dc 01       	movw	r26, r24
    5590:	8d 91       	ld	r24, X+
    5592:	01 90       	ld	r0, Z+
    5594:	80 19       	sub	r24, r0
    5596:	01 10       	cpse	r0, r1
    5598:	d9 f3       	breq	.-10     	; 0x5590 <strcmp+0x4>
    559a:	99 0b       	sbc	r25, r25
    559c:	08 95       	ret

0000559e <strcpy>:
    559e:	fb 01       	movw	r30, r22
    55a0:	dc 01       	movw	r26, r24
    55a2:	01 90       	ld	r0, Z+
    55a4:	0d 92       	st	X+, r0
    55a6:	00 20       	and	r0, r0
    55a8:	e1 f7       	brne	.-8      	; 0x55a2 <strcpy+0x4>
    55aa:	08 95       	ret

000055ac <strncmp>:
    55ac:	fb 01       	movw	r30, r22
    55ae:	dc 01       	movw	r26, r24
    55b0:	41 50       	subi	r20, 0x01	; 1
    55b2:	50 40       	sbci	r21, 0x00	; 0
    55b4:	30 f0       	brcs	.+12     	; 0x55c2 <strncmp+0x16>
    55b6:	8d 91       	ld	r24, X+
    55b8:	01 90       	ld	r0, Z+
    55ba:	80 19       	sub	r24, r0
    55bc:	19 f4       	brne	.+6      	; 0x55c4 <strncmp+0x18>
    55be:	00 20       	and	r0, r0
    55c0:	b9 f7       	brne	.-18     	; 0x55b0 <strncmp+0x4>
    55c2:	88 1b       	sub	r24, r24
    55c4:	99 0b       	sbc	r25, r25
    55c6:	08 95       	ret

000055c8 <strncpy>:
    55c8:	fb 01       	movw	r30, r22
    55ca:	dc 01       	movw	r26, r24
    55cc:	41 50       	subi	r20, 0x01	; 1
    55ce:	50 40       	sbci	r21, 0x00	; 0
    55d0:	48 f0       	brcs	.+18     	; 0x55e4 <strncpy+0x1c>
    55d2:	01 90       	ld	r0, Z+
    55d4:	0d 92       	st	X+, r0
    55d6:	00 20       	and	r0, r0
    55d8:	c9 f7       	brne	.-14     	; 0x55cc <strncpy+0x4>
    55da:	01 c0       	rjmp	.+2      	; 0x55de <strncpy+0x16>
    55dc:	1d 92       	st	X+, r1
    55de:	41 50       	subi	r20, 0x01	; 1
    55e0:	50 40       	sbci	r21, 0x00	; 0
    55e2:	e0 f7       	brcc	.-8      	; 0x55dc <strncpy+0x14>
    55e4:	08 95       	ret

000055e6 <strrchr>:
    55e6:	fc 01       	movw	r30, r24
    55e8:	81 e0       	ldi	r24, 0x01	; 1
    55ea:	90 e0       	ldi	r25, 0x00	; 0
    55ec:	01 90       	ld	r0, Z+
    55ee:	06 16       	cp	r0, r22
    55f0:	09 f4       	brne	.+2      	; 0x55f4 <strrchr+0xe>
    55f2:	cf 01       	movw	r24, r30
    55f4:	00 20       	and	r0, r0
    55f6:	d1 f7       	brne	.-12     	; 0x55ec <strrchr+0x6>
    55f8:	01 97       	sbiw	r24, 0x01	; 1
    55fa:	08 95       	ret

000055fc <strstr>:
    55fc:	fb 01       	movw	r30, r22
    55fe:	51 91       	ld	r21, Z+
    5600:	55 23       	and	r21, r21
    5602:	a9 f0       	breq	.+42     	; 0x562e <strstr+0x32>
    5604:	bf 01       	movw	r22, r30
    5606:	dc 01       	movw	r26, r24
    5608:	4d 91       	ld	r20, X+
    560a:	45 17       	cp	r20, r21
    560c:	41 11       	cpse	r20, r1
    560e:	e1 f7       	brne	.-8      	; 0x5608 <strstr+0xc>
    5610:	59 f4       	brne	.+22     	; 0x5628 <strstr+0x2c>
    5612:	cd 01       	movw	r24, r26
    5614:	01 90       	ld	r0, Z+
    5616:	00 20       	and	r0, r0
    5618:	49 f0       	breq	.+18     	; 0x562c <strstr+0x30>
    561a:	4d 91       	ld	r20, X+
    561c:	40 15       	cp	r20, r0
    561e:	41 11       	cpse	r20, r1
    5620:	c9 f3       	breq	.-14     	; 0x5614 <strstr+0x18>
    5622:	fb 01       	movw	r30, r22
    5624:	41 11       	cpse	r20, r1
    5626:	ef cf       	rjmp	.-34     	; 0x5606 <strstr+0xa>
    5628:	81 e0       	ldi	r24, 0x01	; 1
    562a:	90 e0       	ldi	r25, 0x00	; 0
    562c:	01 97       	sbiw	r24, 0x01	; 1
    562e:	08 95       	ret

00005630 <itoa>:
    5630:	45 32       	cpi	r20, 0x25	; 37
    5632:	51 05       	cpc	r21, r1
    5634:	20 f4       	brcc	.+8      	; 0x563e <itoa+0xe>
    5636:	42 30       	cpi	r20, 0x02	; 2
    5638:	10 f0       	brcs	.+4      	; 0x563e <itoa+0xe>
    563a:	0c 94 23 2b 	jmp	0x5646	; 0x5646 <__itoa_ncheck>
    563e:	fb 01       	movw	r30, r22
    5640:	10 82       	st	Z, r1
    5642:	cb 01       	movw	r24, r22
    5644:	08 95       	ret

00005646 <__itoa_ncheck>:
    5646:	bb 27       	eor	r27, r27
    5648:	4a 30       	cpi	r20, 0x0A	; 10
    564a:	31 f4       	brne	.+12     	; 0x5658 <__itoa_ncheck+0x12>
    564c:	99 23       	and	r25, r25
    564e:	22 f4       	brpl	.+8      	; 0x5658 <__itoa_ncheck+0x12>
    5650:	bd e2       	ldi	r27, 0x2D	; 45
    5652:	90 95       	com	r25
    5654:	81 95       	neg	r24
    5656:	9f 4f       	sbci	r25, 0xFF	; 255
    5658:	0c 94 96 2b 	jmp	0x572c	; 0x572c <__utoa_common>

0000565c <ltoa>:
    565c:	25 32       	cpi	r18, 0x25	; 37
    565e:	31 05       	cpc	r19, r1
    5660:	20 f4       	brcc	.+8      	; 0x566a <ltoa+0xe>
    5662:	22 30       	cpi	r18, 0x02	; 2
    5664:	10 f0       	brcs	.+4      	; 0x566a <ltoa+0xe>
    5666:	0c 94 39 2b 	jmp	0x5672	; 0x5672 <__ltoa_ncheck>
    566a:	fa 01       	movw	r30, r20
    566c:	10 82       	st	Z, r1
    566e:	ca 01       	movw	r24, r20
    5670:	08 95       	ret

00005672 <__ltoa_ncheck>:
    5672:	bb 27       	eor	r27, r27
    5674:	2a 30       	cpi	r18, 0x0A	; 10
    5676:	51 f4       	brne	.+20     	; 0x568c <__ltoa_ncheck+0x1a>
    5678:	99 23       	and	r25, r25
    567a:	42 f4       	brpl	.+16     	; 0x568c <__ltoa_ncheck+0x1a>
    567c:	bd e2       	ldi	r27, 0x2D	; 45
    567e:	90 95       	com	r25
    5680:	80 95       	com	r24
    5682:	70 95       	com	r23
    5684:	61 95       	neg	r22
    5686:	7f 4f       	sbci	r23, 0xFF	; 255
    5688:	8f 4f       	sbci	r24, 0xFF	; 255
    568a:	9f 4f       	sbci	r25, 0xFF	; 255
    568c:	0c 94 69 2b 	jmp	0x56d2	; 0x56d2 <__ultoa_common>

00005690 <__mulsi_const_10>:
    5690:	59 2f       	mov	r21, r25
    5692:	48 2f       	mov	r20, r24
    5694:	37 2f       	mov	r19, r23
    5696:	26 2f       	mov	r18, r22
    5698:	66 0f       	add	r22, r22
    569a:	77 1f       	adc	r23, r23
    569c:	88 1f       	adc	r24, r24
    569e:	99 1f       	adc	r25, r25
    56a0:	66 0f       	add	r22, r22
    56a2:	77 1f       	adc	r23, r23
    56a4:	88 1f       	adc	r24, r24
    56a6:	99 1f       	adc	r25, r25
    56a8:	62 0f       	add	r22, r18
    56aa:	73 1f       	adc	r23, r19
    56ac:	84 1f       	adc	r24, r20
    56ae:	95 1f       	adc	r25, r21
    56b0:	66 0f       	add	r22, r22
    56b2:	77 1f       	adc	r23, r23
    56b4:	88 1f       	adc	r24, r24
    56b6:	99 1f       	adc	r25, r25
    56b8:	08 95       	ret

000056ba <ultoa>:
    56ba:	25 32       	cpi	r18, 0x25	; 37
    56bc:	31 05       	cpc	r19, r1
    56be:	20 f4       	brcc	.+8      	; 0x56c8 <ultoa+0xe>
    56c0:	22 30       	cpi	r18, 0x02	; 2
    56c2:	10 f0       	brcs	.+4      	; 0x56c8 <ultoa+0xe>
    56c4:	0c 94 68 2b 	jmp	0x56d0	; 0x56d0 <__ultoa_ncheck>
    56c8:	fa 01       	movw	r30, r20
    56ca:	10 82       	st	Z, r1
    56cc:	ca 01       	movw	r24, r20
    56ce:	08 95       	ret

000056d0 <__ultoa_ncheck>:
    56d0:	bb 27       	eor	r27, r27

000056d2 <__ultoa_common>:
    56d2:	fa 01       	movw	r30, r20
    56d4:	a6 2f       	mov	r26, r22
    56d6:	62 17       	cp	r22, r18
    56d8:	71 05       	cpc	r23, r1
    56da:	81 05       	cpc	r24, r1
    56dc:	91 05       	cpc	r25, r1
    56de:	33 0b       	sbc	r19, r19
    56e0:	30 fb       	bst	r19, 0
    56e2:	66 f0       	brts	.+24     	; 0x56fc <__ultoa_common+0x2a>
    56e4:	aa 27       	eor	r26, r26
    56e6:	66 0f       	add	r22, r22
    56e8:	77 1f       	adc	r23, r23
    56ea:	88 1f       	adc	r24, r24
    56ec:	99 1f       	adc	r25, r25
    56ee:	aa 1f       	adc	r26, r26
    56f0:	a2 17       	cp	r26, r18
    56f2:	10 f0       	brcs	.+4      	; 0x56f8 <__ultoa_common+0x26>
    56f4:	a2 1b       	sub	r26, r18
    56f6:	63 95       	inc	r22
    56f8:	38 50       	subi	r19, 0x08	; 8
    56fa:	a9 f7       	brne	.-22     	; 0x56e6 <__ultoa_common+0x14>
    56fc:	a0 5d       	subi	r26, 0xD0	; 208
    56fe:	aa 33       	cpi	r26, 0x3A	; 58
    5700:	08 f0       	brcs	.+2      	; 0x5704 <__ultoa_common+0x32>
    5702:	a9 5d       	subi	r26, 0xD9	; 217
    5704:	a1 93       	st	Z+, r26
    5706:	36 f7       	brtc	.-52     	; 0x56d4 <__ultoa_common+0x2>
    5708:	b1 11       	cpse	r27, r1
    570a:	b1 93       	st	Z+, r27
    570c:	10 82       	st	Z, r1
    570e:	ca 01       	movw	r24, r20
    5710:	0c 94 d9 31 	jmp	0x63b2	; 0x63b2 <strrev>

00005714 <utoa>:
    5714:	45 32       	cpi	r20, 0x25	; 37
    5716:	51 05       	cpc	r21, r1
    5718:	20 f4       	brcc	.+8      	; 0x5722 <utoa+0xe>
    571a:	42 30       	cpi	r20, 0x02	; 2
    571c:	10 f0       	brcs	.+4      	; 0x5722 <utoa+0xe>
    571e:	0c 94 95 2b 	jmp	0x572a	; 0x572a <__utoa_ncheck>
    5722:	fb 01       	movw	r30, r22
    5724:	10 82       	st	Z, r1
    5726:	cb 01       	movw	r24, r22
    5728:	08 95       	ret

0000572a <__utoa_ncheck>:
    572a:	bb 27       	eor	r27, r27

0000572c <__utoa_common>:
    572c:	fb 01       	movw	r30, r22
    572e:	55 27       	eor	r21, r21
    5730:	aa 27       	eor	r26, r26
    5732:	88 0f       	add	r24, r24
    5734:	99 1f       	adc	r25, r25
    5736:	aa 1f       	adc	r26, r26
    5738:	a4 17       	cp	r26, r20
    573a:	10 f0       	brcs	.+4      	; 0x5740 <__utoa_common+0x14>
    573c:	a4 1b       	sub	r26, r20
    573e:	83 95       	inc	r24
    5740:	50 51       	subi	r21, 0x10	; 16
    5742:	b9 f7       	brne	.-18     	; 0x5732 <__utoa_common+0x6>
    5744:	a0 5d       	subi	r26, 0xD0	; 208
    5746:	aa 33       	cpi	r26, 0x3A	; 58
    5748:	08 f0       	brcs	.+2      	; 0x574c <__utoa_common+0x20>
    574a:	a9 5d       	subi	r26, 0xD9	; 217
    574c:	a1 93       	st	Z+, r26
    574e:	00 97       	sbiw	r24, 0x00	; 0
    5750:	79 f7       	brne	.-34     	; 0x5730 <__utoa_common+0x4>
    5752:	b1 11       	cpse	r27, r1
    5754:	b1 93       	st	Z+, r27
    5756:	11 92       	st	Z+, r1
    5758:	cb 01       	movw	r24, r22
    575a:	0c 94 d9 31 	jmp	0x63b2	; 0x63b2 <strrev>

0000575e <printf>:
    575e:	cf 93       	push	r28
    5760:	df 93       	push	r29
    5762:	cd b7       	in	r28, 0x3d	; 61
    5764:	de b7       	in	r29, 0x3e	; 62
    5766:	ae 01       	movw	r20, r28
    5768:	4a 5f       	subi	r20, 0xFA	; 250
    576a:	5f 4f       	sbci	r21, 0xFF	; 255
    576c:	fa 01       	movw	r30, r20
    576e:	61 91       	ld	r22, Z+
    5770:	71 91       	ld	r23, Z+
    5772:	af 01       	movw	r20, r30
    5774:	80 91 10 06 	lds	r24, 0x0610	; 0x800610 <__iob+0x2>
    5778:	90 91 11 06 	lds	r25, 0x0611	; 0x800611 <__iob+0x3>
    577c:	0e 94 f3 2b 	call	0x57e6	; 0x57e6 <vfprintf>
    5780:	df 91       	pop	r29
    5782:	cf 91       	pop	r28
    5784:	08 95       	ret

00005786 <puts>:
    5786:	0f 93       	push	r16
    5788:	1f 93       	push	r17
    578a:	cf 93       	push	r28
    578c:	df 93       	push	r29
    578e:	e0 91 10 06 	lds	r30, 0x0610	; 0x800610 <__iob+0x2>
    5792:	f0 91 11 06 	lds	r31, 0x0611	; 0x800611 <__iob+0x3>
    5796:	23 81       	ldd	r18, Z+3	; 0x03
    5798:	21 ff       	sbrs	r18, 1
    579a:	1b c0       	rjmp	.+54     	; 0x57d2 <puts+0x4c>
    579c:	8c 01       	movw	r16, r24
    579e:	d0 e0       	ldi	r29, 0x00	; 0
    57a0:	c0 e0       	ldi	r28, 0x00	; 0
    57a2:	f8 01       	movw	r30, r16
    57a4:	81 91       	ld	r24, Z+
    57a6:	8f 01       	movw	r16, r30
    57a8:	60 91 10 06 	lds	r22, 0x0610	; 0x800610 <__iob+0x2>
    57ac:	70 91 11 06 	lds	r23, 0x0611	; 0x800611 <__iob+0x3>
    57b0:	db 01       	movw	r26, r22
    57b2:	18 96       	adiw	r26, 0x08	; 8
    57b4:	ed 91       	ld	r30, X+
    57b6:	fc 91       	ld	r31, X
    57b8:	19 97       	sbiw	r26, 0x09	; 9
    57ba:	88 23       	and	r24, r24
    57bc:	31 f0       	breq	.+12     	; 0x57ca <puts+0x44>
    57be:	19 95       	eicall
    57c0:	89 2b       	or	r24, r25
    57c2:	79 f3       	breq	.-34     	; 0x57a2 <puts+0x1c>
    57c4:	df ef       	ldi	r29, 0xFF	; 255
    57c6:	cf ef       	ldi	r28, 0xFF	; 255
    57c8:	ec cf       	rjmp	.-40     	; 0x57a2 <puts+0x1c>
    57ca:	8a e0       	ldi	r24, 0x0A	; 10
    57cc:	19 95       	eicall
    57ce:	89 2b       	or	r24, r25
    57d0:	19 f0       	breq	.+6      	; 0x57d8 <puts+0x52>
    57d2:	8f ef       	ldi	r24, 0xFF	; 255
    57d4:	9f ef       	ldi	r25, 0xFF	; 255
    57d6:	02 c0       	rjmp	.+4      	; 0x57dc <puts+0x56>
    57d8:	8d 2f       	mov	r24, r29
    57da:	9c 2f       	mov	r25, r28
    57dc:	df 91       	pop	r29
    57de:	cf 91       	pop	r28
    57e0:	1f 91       	pop	r17
    57e2:	0f 91       	pop	r16
    57e4:	08 95       	ret

000057e6 <vfprintf>:
    57e6:	2f 92       	push	r2
    57e8:	3f 92       	push	r3
    57ea:	4f 92       	push	r4
    57ec:	5f 92       	push	r5
    57ee:	6f 92       	push	r6
    57f0:	7f 92       	push	r7
    57f2:	8f 92       	push	r8
    57f4:	9f 92       	push	r9
    57f6:	af 92       	push	r10
    57f8:	bf 92       	push	r11
    57fa:	cf 92       	push	r12
    57fc:	df 92       	push	r13
    57fe:	ef 92       	push	r14
    5800:	ff 92       	push	r15
    5802:	0f 93       	push	r16
    5804:	1f 93       	push	r17
    5806:	cf 93       	push	r28
    5808:	df 93       	push	r29
    580a:	cd b7       	in	r28, 0x3d	; 61
    580c:	de b7       	in	r29, 0x3e	; 62
    580e:	2b 97       	sbiw	r28, 0x0b	; 11
    5810:	0f b6       	in	r0, 0x3f	; 63
    5812:	f8 94       	cli
    5814:	de bf       	out	0x3e, r29	; 62
    5816:	0f be       	out	0x3f, r0	; 63
    5818:	cd bf       	out	0x3d, r28	; 61
    581a:	6c 01       	movw	r12, r24
    581c:	7b 01       	movw	r14, r22
    581e:	8a 01       	movw	r16, r20
    5820:	fc 01       	movw	r30, r24
    5822:	17 82       	std	Z+7, r1	; 0x07
    5824:	16 82       	std	Z+6, r1	; 0x06
    5826:	83 81       	ldd	r24, Z+3	; 0x03
    5828:	81 ff       	sbrs	r24, 1
    582a:	cc c1       	rjmp	.+920    	; 0x5bc4 <vfprintf+0x3de>
    582c:	ce 01       	movw	r24, r28
    582e:	01 96       	adiw	r24, 0x01	; 1
    5830:	3c 01       	movw	r6, r24
    5832:	f6 01       	movw	r30, r12
    5834:	93 81       	ldd	r25, Z+3	; 0x03
    5836:	f7 01       	movw	r30, r14
    5838:	93 fd       	sbrc	r25, 3
    583a:	85 91       	lpm	r24, Z+
    583c:	93 ff       	sbrs	r25, 3
    583e:	81 91       	ld	r24, Z+
    5840:	7f 01       	movw	r14, r30
    5842:	88 23       	and	r24, r24
    5844:	09 f4       	brne	.+2      	; 0x5848 <vfprintf+0x62>
    5846:	ba c1       	rjmp	.+884    	; 0x5bbc <vfprintf+0x3d6>
    5848:	85 32       	cpi	r24, 0x25	; 37
    584a:	39 f4       	brne	.+14     	; 0x585a <vfprintf+0x74>
    584c:	93 fd       	sbrc	r25, 3
    584e:	85 91       	lpm	r24, Z+
    5850:	93 ff       	sbrs	r25, 3
    5852:	81 91       	ld	r24, Z+
    5854:	7f 01       	movw	r14, r30
    5856:	85 32       	cpi	r24, 0x25	; 37
    5858:	29 f4       	brne	.+10     	; 0x5864 <vfprintf+0x7e>
    585a:	b6 01       	movw	r22, r12
    585c:	90 e0       	ldi	r25, 0x00	; 0
    585e:	0e 94 e9 31 	call	0x63d2	; 0x63d2 <fputc>
    5862:	e7 cf       	rjmp	.-50     	; 0x5832 <vfprintf+0x4c>
    5864:	91 2c       	mov	r9, r1
    5866:	21 2c       	mov	r2, r1
    5868:	31 2c       	mov	r3, r1
    586a:	ff e1       	ldi	r31, 0x1F	; 31
    586c:	f3 15       	cp	r31, r3
    586e:	d8 f0       	brcs	.+54     	; 0x58a6 <vfprintf+0xc0>
    5870:	8b 32       	cpi	r24, 0x2B	; 43
    5872:	79 f0       	breq	.+30     	; 0x5892 <vfprintf+0xac>
    5874:	38 f4       	brcc	.+14     	; 0x5884 <vfprintf+0x9e>
    5876:	80 32       	cpi	r24, 0x20	; 32
    5878:	79 f0       	breq	.+30     	; 0x5898 <vfprintf+0xb2>
    587a:	83 32       	cpi	r24, 0x23	; 35
    587c:	a1 f4       	brne	.+40     	; 0x58a6 <vfprintf+0xc0>
    587e:	23 2d       	mov	r18, r3
    5880:	20 61       	ori	r18, 0x10	; 16
    5882:	1d c0       	rjmp	.+58     	; 0x58be <vfprintf+0xd8>
    5884:	8d 32       	cpi	r24, 0x2D	; 45
    5886:	61 f0       	breq	.+24     	; 0x58a0 <vfprintf+0xba>
    5888:	80 33       	cpi	r24, 0x30	; 48
    588a:	69 f4       	brne	.+26     	; 0x58a6 <vfprintf+0xc0>
    588c:	23 2d       	mov	r18, r3
    588e:	21 60       	ori	r18, 0x01	; 1
    5890:	16 c0       	rjmp	.+44     	; 0x58be <vfprintf+0xd8>
    5892:	83 2d       	mov	r24, r3
    5894:	82 60       	ori	r24, 0x02	; 2
    5896:	38 2e       	mov	r3, r24
    5898:	e3 2d       	mov	r30, r3
    589a:	e4 60       	ori	r30, 0x04	; 4
    589c:	3e 2e       	mov	r3, r30
    589e:	2a c0       	rjmp	.+84     	; 0x58f4 <vfprintf+0x10e>
    58a0:	f3 2d       	mov	r31, r3
    58a2:	f8 60       	ori	r31, 0x08	; 8
    58a4:	1d c0       	rjmp	.+58     	; 0x58e0 <vfprintf+0xfa>
    58a6:	37 fc       	sbrc	r3, 7
    58a8:	2d c0       	rjmp	.+90     	; 0x5904 <vfprintf+0x11e>
    58aa:	20 ed       	ldi	r18, 0xD0	; 208
    58ac:	28 0f       	add	r18, r24
    58ae:	2a 30       	cpi	r18, 0x0A	; 10
    58b0:	40 f0       	brcs	.+16     	; 0x58c2 <vfprintf+0xdc>
    58b2:	8e 32       	cpi	r24, 0x2E	; 46
    58b4:	b9 f4       	brne	.+46     	; 0x58e4 <vfprintf+0xfe>
    58b6:	36 fc       	sbrc	r3, 6
    58b8:	81 c1       	rjmp	.+770    	; 0x5bbc <vfprintf+0x3d6>
    58ba:	23 2d       	mov	r18, r3
    58bc:	20 64       	ori	r18, 0x40	; 64
    58be:	32 2e       	mov	r3, r18
    58c0:	19 c0       	rjmp	.+50     	; 0x58f4 <vfprintf+0x10e>
    58c2:	36 fe       	sbrs	r3, 6
    58c4:	06 c0       	rjmp	.+12     	; 0x58d2 <vfprintf+0xec>
    58c6:	8a e0       	ldi	r24, 0x0A	; 10
    58c8:	98 9e       	mul	r9, r24
    58ca:	20 0d       	add	r18, r0
    58cc:	11 24       	eor	r1, r1
    58ce:	92 2e       	mov	r9, r18
    58d0:	11 c0       	rjmp	.+34     	; 0x58f4 <vfprintf+0x10e>
    58d2:	ea e0       	ldi	r30, 0x0A	; 10
    58d4:	2e 9e       	mul	r2, r30
    58d6:	20 0d       	add	r18, r0
    58d8:	11 24       	eor	r1, r1
    58da:	22 2e       	mov	r2, r18
    58dc:	f3 2d       	mov	r31, r3
    58de:	f0 62       	ori	r31, 0x20	; 32
    58e0:	3f 2e       	mov	r3, r31
    58e2:	08 c0       	rjmp	.+16     	; 0x58f4 <vfprintf+0x10e>
    58e4:	8c 36       	cpi	r24, 0x6C	; 108
    58e6:	21 f4       	brne	.+8      	; 0x58f0 <vfprintf+0x10a>
    58e8:	83 2d       	mov	r24, r3
    58ea:	80 68       	ori	r24, 0x80	; 128
    58ec:	38 2e       	mov	r3, r24
    58ee:	02 c0       	rjmp	.+4      	; 0x58f4 <vfprintf+0x10e>
    58f0:	88 36       	cpi	r24, 0x68	; 104
    58f2:	41 f4       	brne	.+16     	; 0x5904 <vfprintf+0x11e>
    58f4:	f7 01       	movw	r30, r14
    58f6:	93 fd       	sbrc	r25, 3
    58f8:	85 91       	lpm	r24, Z+
    58fa:	93 ff       	sbrs	r25, 3
    58fc:	81 91       	ld	r24, Z+
    58fe:	7f 01       	movw	r14, r30
    5900:	81 11       	cpse	r24, r1
    5902:	b3 cf       	rjmp	.-154    	; 0x586a <vfprintf+0x84>
    5904:	98 2f       	mov	r25, r24
    5906:	9f 7d       	andi	r25, 0xDF	; 223
    5908:	95 54       	subi	r25, 0x45	; 69
    590a:	93 30       	cpi	r25, 0x03	; 3
    590c:	28 f4       	brcc	.+10     	; 0x5918 <vfprintf+0x132>
    590e:	0c 5f       	subi	r16, 0xFC	; 252
    5910:	1f 4f       	sbci	r17, 0xFF	; 255
    5912:	9f e3       	ldi	r25, 0x3F	; 63
    5914:	99 83       	std	Y+1, r25	; 0x01
    5916:	0d c0       	rjmp	.+26     	; 0x5932 <vfprintf+0x14c>
    5918:	83 36       	cpi	r24, 0x63	; 99
    591a:	31 f0       	breq	.+12     	; 0x5928 <vfprintf+0x142>
    591c:	83 37       	cpi	r24, 0x73	; 115
    591e:	71 f0       	breq	.+28     	; 0x593c <vfprintf+0x156>
    5920:	83 35       	cpi	r24, 0x53	; 83
    5922:	09 f0       	breq	.+2      	; 0x5926 <vfprintf+0x140>
    5924:	59 c0       	rjmp	.+178    	; 0x59d8 <vfprintf+0x1f2>
    5926:	21 c0       	rjmp	.+66     	; 0x596a <vfprintf+0x184>
    5928:	f8 01       	movw	r30, r16
    592a:	80 81       	ld	r24, Z
    592c:	89 83       	std	Y+1, r24	; 0x01
    592e:	0e 5f       	subi	r16, 0xFE	; 254
    5930:	1f 4f       	sbci	r17, 0xFF	; 255
    5932:	88 24       	eor	r8, r8
    5934:	83 94       	inc	r8
    5936:	91 2c       	mov	r9, r1
    5938:	53 01       	movw	r10, r6
    593a:	13 c0       	rjmp	.+38     	; 0x5962 <vfprintf+0x17c>
    593c:	28 01       	movw	r4, r16
    593e:	f2 e0       	ldi	r31, 0x02	; 2
    5940:	4f 0e       	add	r4, r31
    5942:	51 1c       	adc	r5, r1
    5944:	f8 01       	movw	r30, r16
    5946:	a0 80       	ld	r10, Z
    5948:	b1 80       	ldd	r11, Z+1	; 0x01
    594a:	36 fe       	sbrs	r3, 6
    594c:	03 c0       	rjmp	.+6      	; 0x5954 <vfprintf+0x16e>
    594e:	69 2d       	mov	r22, r9
    5950:	70 e0       	ldi	r23, 0x00	; 0
    5952:	02 c0       	rjmp	.+4      	; 0x5958 <vfprintf+0x172>
    5954:	6f ef       	ldi	r22, 0xFF	; 255
    5956:	7f ef       	ldi	r23, 0xFF	; 255
    5958:	c5 01       	movw	r24, r10
    595a:	0e 94 ce 31 	call	0x639c	; 0x639c <strnlen>
    595e:	4c 01       	movw	r8, r24
    5960:	82 01       	movw	r16, r4
    5962:	f3 2d       	mov	r31, r3
    5964:	ff 77       	andi	r31, 0x7F	; 127
    5966:	3f 2e       	mov	r3, r31
    5968:	16 c0       	rjmp	.+44     	; 0x5996 <vfprintf+0x1b0>
    596a:	28 01       	movw	r4, r16
    596c:	22 e0       	ldi	r18, 0x02	; 2
    596e:	42 0e       	add	r4, r18
    5970:	51 1c       	adc	r5, r1
    5972:	f8 01       	movw	r30, r16
    5974:	a0 80       	ld	r10, Z
    5976:	b1 80       	ldd	r11, Z+1	; 0x01
    5978:	36 fe       	sbrs	r3, 6
    597a:	03 c0       	rjmp	.+6      	; 0x5982 <vfprintf+0x19c>
    597c:	69 2d       	mov	r22, r9
    597e:	70 e0       	ldi	r23, 0x00	; 0
    5980:	02 c0       	rjmp	.+4      	; 0x5986 <vfprintf+0x1a0>
    5982:	6f ef       	ldi	r22, 0xFF	; 255
    5984:	7f ef       	ldi	r23, 0xFF	; 255
    5986:	c5 01       	movw	r24, r10
    5988:	0e 94 c3 31 	call	0x6386	; 0x6386 <strnlen_P>
    598c:	4c 01       	movw	r8, r24
    598e:	f3 2d       	mov	r31, r3
    5990:	f0 68       	ori	r31, 0x80	; 128
    5992:	3f 2e       	mov	r3, r31
    5994:	82 01       	movw	r16, r4
    5996:	33 fc       	sbrc	r3, 3
    5998:	1b c0       	rjmp	.+54     	; 0x59d0 <vfprintf+0x1ea>
    599a:	82 2d       	mov	r24, r2
    599c:	90 e0       	ldi	r25, 0x00	; 0
    599e:	88 16       	cp	r8, r24
    59a0:	99 06       	cpc	r9, r25
    59a2:	b0 f4       	brcc	.+44     	; 0x59d0 <vfprintf+0x1ea>
    59a4:	b6 01       	movw	r22, r12
    59a6:	80 e2       	ldi	r24, 0x20	; 32
    59a8:	90 e0       	ldi	r25, 0x00	; 0
    59aa:	0e 94 e9 31 	call	0x63d2	; 0x63d2 <fputc>
    59ae:	2a 94       	dec	r2
    59b0:	f4 cf       	rjmp	.-24     	; 0x599a <vfprintf+0x1b4>
    59b2:	f5 01       	movw	r30, r10
    59b4:	37 fc       	sbrc	r3, 7
    59b6:	85 91       	lpm	r24, Z+
    59b8:	37 fe       	sbrs	r3, 7
    59ba:	81 91       	ld	r24, Z+
    59bc:	5f 01       	movw	r10, r30
    59be:	b6 01       	movw	r22, r12
    59c0:	90 e0       	ldi	r25, 0x00	; 0
    59c2:	0e 94 e9 31 	call	0x63d2	; 0x63d2 <fputc>
    59c6:	21 10       	cpse	r2, r1
    59c8:	2a 94       	dec	r2
    59ca:	21 e0       	ldi	r18, 0x01	; 1
    59cc:	82 1a       	sub	r8, r18
    59ce:	91 08       	sbc	r9, r1
    59d0:	81 14       	cp	r8, r1
    59d2:	91 04       	cpc	r9, r1
    59d4:	71 f7       	brne	.-36     	; 0x59b2 <vfprintf+0x1cc>
    59d6:	e8 c0       	rjmp	.+464    	; 0x5ba8 <vfprintf+0x3c2>
    59d8:	84 36       	cpi	r24, 0x64	; 100
    59da:	11 f0       	breq	.+4      	; 0x59e0 <vfprintf+0x1fa>
    59dc:	89 36       	cpi	r24, 0x69	; 105
    59de:	41 f5       	brne	.+80     	; 0x5a30 <vfprintf+0x24a>
    59e0:	f8 01       	movw	r30, r16
    59e2:	37 fe       	sbrs	r3, 7
    59e4:	07 c0       	rjmp	.+14     	; 0x59f4 <vfprintf+0x20e>
    59e6:	60 81       	ld	r22, Z
    59e8:	71 81       	ldd	r23, Z+1	; 0x01
    59ea:	82 81       	ldd	r24, Z+2	; 0x02
    59ec:	93 81       	ldd	r25, Z+3	; 0x03
    59ee:	0c 5f       	subi	r16, 0xFC	; 252
    59f0:	1f 4f       	sbci	r17, 0xFF	; 255
    59f2:	08 c0       	rjmp	.+16     	; 0x5a04 <vfprintf+0x21e>
    59f4:	60 81       	ld	r22, Z
    59f6:	71 81       	ldd	r23, Z+1	; 0x01
    59f8:	07 2e       	mov	r0, r23
    59fa:	00 0c       	add	r0, r0
    59fc:	88 0b       	sbc	r24, r24
    59fe:	99 0b       	sbc	r25, r25
    5a00:	0e 5f       	subi	r16, 0xFE	; 254
    5a02:	1f 4f       	sbci	r17, 0xFF	; 255
    5a04:	f3 2d       	mov	r31, r3
    5a06:	ff 76       	andi	r31, 0x6F	; 111
    5a08:	3f 2e       	mov	r3, r31
    5a0a:	97 ff       	sbrs	r25, 7
    5a0c:	09 c0       	rjmp	.+18     	; 0x5a20 <vfprintf+0x23a>
    5a0e:	90 95       	com	r25
    5a10:	80 95       	com	r24
    5a12:	70 95       	com	r23
    5a14:	61 95       	neg	r22
    5a16:	7f 4f       	sbci	r23, 0xFF	; 255
    5a18:	8f 4f       	sbci	r24, 0xFF	; 255
    5a1a:	9f 4f       	sbci	r25, 0xFF	; 255
    5a1c:	f0 68       	ori	r31, 0x80	; 128
    5a1e:	3f 2e       	mov	r3, r31
    5a20:	2a e0       	ldi	r18, 0x0A	; 10
    5a22:	30 e0       	ldi	r19, 0x00	; 0
    5a24:	a3 01       	movw	r20, r6
    5a26:	0e 94 25 32 	call	0x644a	; 0x644a <__ultoa_invert>
    5a2a:	88 2e       	mov	r8, r24
    5a2c:	86 18       	sub	r8, r6
    5a2e:	45 c0       	rjmp	.+138    	; 0x5aba <vfprintf+0x2d4>
    5a30:	85 37       	cpi	r24, 0x75	; 117
    5a32:	31 f4       	brne	.+12     	; 0x5a40 <vfprintf+0x25a>
    5a34:	23 2d       	mov	r18, r3
    5a36:	2f 7e       	andi	r18, 0xEF	; 239
    5a38:	b2 2e       	mov	r11, r18
    5a3a:	2a e0       	ldi	r18, 0x0A	; 10
    5a3c:	30 e0       	ldi	r19, 0x00	; 0
    5a3e:	25 c0       	rjmp	.+74     	; 0x5a8a <vfprintf+0x2a4>
    5a40:	93 2d       	mov	r25, r3
    5a42:	99 7f       	andi	r25, 0xF9	; 249
    5a44:	b9 2e       	mov	r11, r25
    5a46:	8f 36       	cpi	r24, 0x6F	; 111
    5a48:	c1 f0       	breq	.+48     	; 0x5a7a <vfprintf+0x294>
    5a4a:	18 f4       	brcc	.+6      	; 0x5a52 <vfprintf+0x26c>
    5a4c:	88 35       	cpi	r24, 0x58	; 88
    5a4e:	79 f0       	breq	.+30     	; 0x5a6e <vfprintf+0x288>
    5a50:	b5 c0       	rjmp	.+362    	; 0x5bbc <vfprintf+0x3d6>
    5a52:	80 37       	cpi	r24, 0x70	; 112
    5a54:	19 f0       	breq	.+6      	; 0x5a5c <vfprintf+0x276>
    5a56:	88 37       	cpi	r24, 0x78	; 120
    5a58:	21 f0       	breq	.+8      	; 0x5a62 <vfprintf+0x27c>
    5a5a:	b0 c0       	rjmp	.+352    	; 0x5bbc <vfprintf+0x3d6>
    5a5c:	e9 2f       	mov	r30, r25
    5a5e:	e0 61       	ori	r30, 0x10	; 16
    5a60:	be 2e       	mov	r11, r30
    5a62:	b4 fe       	sbrs	r11, 4
    5a64:	0d c0       	rjmp	.+26     	; 0x5a80 <vfprintf+0x29a>
    5a66:	fb 2d       	mov	r31, r11
    5a68:	f4 60       	ori	r31, 0x04	; 4
    5a6a:	bf 2e       	mov	r11, r31
    5a6c:	09 c0       	rjmp	.+18     	; 0x5a80 <vfprintf+0x29a>
    5a6e:	34 fe       	sbrs	r3, 4
    5a70:	0a c0       	rjmp	.+20     	; 0x5a86 <vfprintf+0x2a0>
    5a72:	29 2f       	mov	r18, r25
    5a74:	26 60       	ori	r18, 0x06	; 6
    5a76:	b2 2e       	mov	r11, r18
    5a78:	06 c0       	rjmp	.+12     	; 0x5a86 <vfprintf+0x2a0>
    5a7a:	28 e0       	ldi	r18, 0x08	; 8
    5a7c:	30 e0       	ldi	r19, 0x00	; 0
    5a7e:	05 c0       	rjmp	.+10     	; 0x5a8a <vfprintf+0x2a4>
    5a80:	20 e1       	ldi	r18, 0x10	; 16
    5a82:	30 e0       	ldi	r19, 0x00	; 0
    5a84:	02 c0       	rjmp	.+4      	; 0x5a8a <vfprintf+0x2a4>
    5a86:	20 e1       	ldi	r18, 0x10	; 16
    5a88:	32 e0       	ldi	r19, 0x02	; 2
    5a8a:	f8 01       	movw	r30, r16
    5a8c:	b7 fe       	sbrs	r11, 7
    5a8e:	07 c0       	rjmp	.+14     	; 0x5a9e <vfprintf+0x2b8>
    5a90:	60 81       	ld	r22, Z
    5a92:	71 81       	ldd	r23, Z+1	; 0x01
    5a94:	82 81       	ldd	r24, Z+2	; 0x02
    5a96:	93 81       	ldd	r25, Z+3	; 0x03
    5a98:	0c 5f       	subi	r16, 0xFC	; 252
    5a9a:	1f 4f       	sbci	r17, 0xFF	; 255
    5a9c:	06 c0       	rjmp	.+12     	; 0x5aaa <vfprintf+0x2c4>
    5a9e:	60 81       	ld	r22, Z
    5aa0:	71 81       	ldd	r23, Z+1	; 0x01
    5aa2:	80 e0       	ldi	r24, 0x00	; 0
    5aa4:	90 e0       	ldi	r25, 0x00	; 0
    5aa6:	0e 5f       	subi	r16, 0xFE	; 254
    5aa8:	1f 4f       	sbci	r17, 0xFF	; 255
    5aaa:	a3 01       	movw	r20, r6
    5aac:	0e 94 25 32 	call	0x644a	; 0x644a <__ultoa_invert>
    5ab0:	88 2e       	mov	r8, r24
    5ab2:	86 18       	sub	r8, r6
    5ab4:	fb 2d       	mov	r31, r11
    5ab6:	ff 77       	andi	r31, 0x7F	; 127
    5ab8:	3f 2e       	mov	r3, r31
    5aba:	36 fe       	sbrs	r3, 6
    5abc:	0d c0       	rjmp	.+26     	; 0x5ad8 <vfprintf+0x2f2>
    5abe:	23 2d       	mov	r18, r3
    5ac0:	2e 7f       	andi	r18, 0xFE	; 254
    5ac2:	a2 2e       	mov	r10, r18
    5ac4:	89 14       	cp	r8, r9
    5ac6:	58 f4       	brcc	.+22     	; 0x5ade <vfprintf+0x2f8>
    5ac8:	34 fe       	sbrs	r3, 4
    5aca:	0b c0       	rjmp	.+22     	; 0x5ae2 <vfprintf+0x2fc>
    5acc:	32 fc       	sbrc	r3, 2
    5ace:	09 c0       	rjmp	.+18     	; 0x5ae2 <vfprintf+0x2fc>
    5ad0:	83 2d       	mov	r24, r3
    5ad2:	8e 7e       	andi	r24, 0xEE	; 238
    5ad4:	a8 2e       	mov	r10, r24
    5ad6:	05 c0       	rjmp	.+10     	; 0x5ae2 <vfprintf+0x2fc>
    5ad8:	b8 2c       	mov	r11, r8
    5ada:	a3 2c       	mov	r10, r3
    5adc:	03 c0       	rjmp	.+6      	; 0x5ae4 <vfprintf+0x2fe>
    5ade:	b8 2c       	mov	r11, r8
    5ae0:	01 c0       	rjmp	.+2      	; 0x5ae4 <vfprintf+0x2fe>
    5ae2:	b9 2c       	mov	r11, r9
    5ae4:	a4 fe       	sbrs	r10, 4
    5ae6:	0f c0       	rjmp	.+30     	; 0x5b06 <vfprintf+0x320>
    5ae8:	fe 01       	movw	r30, r28
    5aea:	e8 0d       	add	r30, r8
    5aec:	f1 1d       	adc	r31, r1
    5aee:	80 81       	ld	r24, Z
    5af0:	80 33       	cpi	r24, 0x30	; 48
    5af2:	21 f4       	brne	.+8      	; 0x5afc <vfprintf+0x316>
    5af4:	9a 2d       	mov	r25, r10
    5af6:	99 7e       	andi	r25, 0xE9	; 233
    5af8:	a9 2e       	mov	r10, r25
    5afa:	09 c0       	rjmp	.+18     	; 0x5b0e <vfprintf+0x328>
    5afc:	a2 fe       	sbrs	r10, 2
    5afe:	06 c0       	rjmp	.+12     	; 0x5b0c <vfprintf+0x326>
    5b00:	b3 94       	inc	r11
    5b02:	b3 94       	inc	r11
    5b04:	04 c0       	rjmp	.+8      	; 0x5b0e <vfprintf+0x328>
    5b06:	8a 2d       	mov	r24, r10
    5b08:	86 78       	andi	r24, 0x86	; 134
    5b0a:	09 f0       	breq	.+2      	; 0x5b0e <vfprintf+0x328>
    5b0c:	b3 94       	inc	r11
    5b0e:	a3 fc       	sbrc	r10, 3
    5b10:	11 c0       	rjmp	.+34     	; 0x5b34 <vfprintf+0x34e>
    5b12:	a0 fe       	sbrs	r10, 0
    5b14:	06 c0       	rjmp	.+12     	; 0x5b22 <vfprintf+0x33c>
    5b16:	b2 14       	cp	r11, r2
    5b18:	88 f4       	brcc	.+34     	; 0x5b3c <vfprintf+0x356>
    5b1a:	28 0c       	add	r2, r8
    5b1c:	92 2c       	mov	r9, r2
    5b1e:	9b 18       	sub	r9, r11
    5b20:	0e c0       	rjmp	.+28     	; 0x5b3e <vfprintf+0x358>
    5b22:	b2 14       	cp	r11, r2
    5b24:	60 f4       	brcc	.+24     	; 0x5b3e <vfprintf+0x358>
    5b26:	b6 01       	movw	r22, r12
    5b28:	80 e2       	ldi	r24, 0x20	; 32
    5b2a:	90 e0       	ldi	r25, 0x00	; 0
    5b2c:	0e 94 e9 31 	call	0x63d2	; 0x63d2 <fputc>
    5b30:	b3 94       	inc	r11
    5b32:	f7 cf       	rjmp	.-18     	; 0x5b22 <vfprintf+0x33c>
    5b34:	b2 14       	cp	r11, r2
    5b36:	18 f4       	brcc	.+6      	; 0x5b3e <vfprintf+0x358>
    5b38:	2b 18       	sub	r2, r11
    5b3a:	02 c0       	rjmp	.+4      	; 0x5b40 <vfprintf+0x35a>
    5b3c:	98 2c       	mov	r9, r8
    5b3e:	21 2c       	mov	r2, r1
    5b40:	a4 fe       	sbrs	r10, 4
    5b42:	10 c0       	rjmp	.+32     	; 0x5b64 <vfprintf+0x37e>
    5b44:	b6 01       	movw	r22, r12
    5b46:	80 e3       	ldi	r24, 0x30	; 48
    5b48:	90 e0       	ldi	r25, 0x00	; 0
    5b4a:	0e 94 e9 31 	call	0x63d2	; 0x63d2 <fputc>
    5b4e:	a2 fe       	sbrs	r10, 2
    5b50:	17 c0       	rjmp	.+46     	; 0x5b80 <vfprintf+0x39a>
    5b52:	a1 fc       	sbrc	r10, 1
    5b54:	03 c0       	rjmp	.+6      	; 0x5b5c <vfprintf+0x376>
    5b56:	88 e7       	ldi	r24, 0x78	; 120
    5b58:	90 e0       	ldi	r25, 0x00	; 0
    5b5a:	02 c0       	rjmp	.+4      	; 0x5b60 <vfprintf+0x37a>
    5b5c:	88 e5       	ldi	r24, 0x58	; 88
    5b5e:	90 e0       	ldi	r25, 0x00	; 0
    5b60:	b6 01       	movw	r22, r12
    5b62:	0c c0       	rjmp	.+24     	; 0x5b7c <vfprintf+0x396>
    5b64:	8a 2d       	mov	r24, r10
    5b66:	86 78       	andi	r24, 0x86	; 134
    5b68:	59 f0       	breq	.+22     	; 0x5b80 <vfprintf+0x39a>
    5b6a:	a1 fe       	sbrs	r10, 1
    5b6c:	02 c0       	rjmp	.+4      	; 0x5b72 <vfprintf+0x38c>
    5b6e:	8b e2       	ldi	r24, 0x2B	; 43
    5b70:	01 c0       	rjmp	.+2      	; 0x5b74 <vfprintf+0x38e>
    5b72:	80 e2       	ldi	r24, 0x20	; 32
    5b74:	a7 fc       	sbrc	r10, 7
    5b76:	8d e2       	ldi	r24, 0x2D	; 45
    5b78:	b6 01       	movw	r22, r12
    5b7a:	90 e0       	ldi	r25, 0x00	; 0
    5b7c:	0e 94 e9 31 	call	0x63d2	; 0x63d2 <fputc>
    5b80:	89 14       	cp	r8, r9
    5b82:	38 f4       	brcc	.+14     	; 0x5b92 <vfprintf+0x3ac>
    5b84:	b6 01       	movw	r22, r12
    5b86:	80 e3       	ldi	r24, 0x30	; 48
    5b88:	90 e0       	ldi	r25, 0x00	; 0
    5b8a:	0e 94 e9 31 	call	0x63d2	; 0x63d2 <fputc>
    5b8e:	9a 94       	dec	r9
    5b90:	f7 cf       	rjmp	.-18     	; 0x5b80 <vfprintf+0x39a>
    5b92:	8a 94       	dec	r8
    5b94:	f3 01       	movw	r30, r6
    5b96:	e8 0d       	add	r30, r8
    5b98:	f1 1d       	adc	r31, r1
    5b9a:	80 81       	ld	r24, Z
    5b9c:	b6 01       	movw	r22, r12
    5b9e:	90 e0       	ldi	r25, 0x00	; 0
    5ba0:	0e 94 e9 31 	call	0x63d2	; 0x63d2 <fputc>
    5ba4:	81 10       	cpse	r8, r1
    5ba6:	f5 cf       	rjmp	.-22     	; 0x5b92 <vfprintf+0x3ac>
    5ba8:	22 20       	and	r2, r2
    5baa:	09 f4       	brne	.+2      	; 0x5bae <vfprintf+0x3c8>
    5bac:	42 ce       	rjmp	.-892    	; 0x5832 <vfprintf+0x4c>
    5bae:	b6 01       	movw	r22, r12
    5bb0:	80 e2       	ldi	r24, 0x20	; 32
    5bb2:	90 e0       	ldi	r25, 0x00	; 0
    5bb4:	0e 94 e9 31 	call	0x63d2	; 0x63d2 <fputc>
    5bb8:	2a 94       	dec	r2
    5bba:	f6 cf       	rjmp	.-20     	; 0x5ba8 <vfprintf+0x3c2>
    5bbc:	f6 01       	movw	r30, r12
    5bbe:	86 81       	ldd	r24, Z+6	; 0x06
    5bc0:	97 81       	ldd	r25, Z+7	; 0x07
    5bc2:	02 c0       	rjmp	.+4      	; 0x5bc8 <vfprintf+0x3e2>
    5bc4:	8f ef       	ldi	r24, 0xFF	; 255
    5bc6:	9f ef       	ldi	r25, 0xFF	; 255
    5bc8:	2b 96       	adiw	r28, 0x0b	; 11
    5bca:	0f b6       	in	r0, 0x3f	; 63
    5bcc:	f8 94       	cli
    5bce:	de bf       	out	0x3e, r29	; 62
    5bd0:	0f be       	out	0x3f, r0	; 63
    5bd2:	cd bf       	out	0x3d, r28	; 61
    5bd4:	df 91       	pop	r29
    5bd6:	cf 91       	pop	r28
    5bd8:	1f 91       	pop	r17
    5bda:	0f 91       	pop	r16
    5bdc:	ff 90       	pop	r15
    5bde:	ef 90       	pop	r14
    5be0:	df 90       	pop	r13
    5be2:	cf 90       	pop	r12
    5be4:	bf 90       	pop	r11
    5be6:	af 90       	pop	r10
    5be8:	9f 90       	pop	r9
    5bea:	8f 90       	pop	r8
    5bec:	7f 90       	pop	r7
    5bee:	6f 90       	pop	r6
    5bf0:	5f 90       	pop	r5
    5bf2:	4f 90       	pop	r4
    5bf4:	3f 90       	pop	r3
    5bf6:	2f 90       	pop	r2
    5bf8:	08 95       	ret

00005bfa <dtoa_prf>:
    5bfa:	8f 92       	push	r8
    5bfc:	9f 92       	push	r9
    5bfe:	af 92       	push	r10
    5c00:	bf 92       	push	r11
    5c02:	cf 92       	push	r12
    5c04:	df 92       	push	r13
    5c06:	ef 92       	push	r14
    5c08:	ff 92       	push	r15
    5c0a:	0f 93       	push	r16
    5c0c:	1f 93       	push	r17
    5c0e:	cf 93       	push	r28
    5c10:	df 93       	push	r29
    5c12:	cd b7       	in	r28, 0x3d	; 61
    5c14:	de b7       	in	r29, 0x3e	; 62
    5c16:	29 97       	sbiw	r28, 0x09	; 9
    5c18:	0f b6       	in	r0, 0x3f	; 63
    5c1a:	f8 94       	cli
    5c1c:	de bf       	out	0x3e, r29	; 62
    5c1e:	0f be       	out	0x3f, r0	; 63
    5c20:	cd bf       	out	0x3d, r28	; 61
    5c22:	6a 01       	movw	r12, r20
    5c24:	12 2f       	mov	r17, r18
    5c26:	b0 2e       	mov	r11, r16
    5c28:	2b e3       	ldi	r18, 0x3B	; 59
    5c2a:	20 17       	cp	r18, r16
    5c2c:	20 f0       	brcs	.+8      	; 0x5c36 <dtoa_prf+0x3c>
    5c2e:	ff 24       	eor	r15, r15
    5c30:	f3 94       	inc	r15
    5c32:	f0 0e       	add	r15, r16
    5c34:	02 c0       	rjmp	.+4      	; 0x5c3a <dtoa_prf+0x40>
    5c36:	2c e3       	ldi	r18, 0x3C	; 60
    5c38:	f2 2e       	mov	r15, r18
    5c3a:	0f 2d       	mov	r16, r15
    5c3c:	27 e0       	ldi	r18, 0x07	; 7
    5c3e:	ae 01       	movw	r20, r28
    5c40:	4f 5f       	subi	r20, 0xFF	; 255
    5c42:	5f 4f       	sbci	r21, 0xFF	; 255
    5c44:	0e 94 d0 30 	call	0x61a0	; 0x61a0 <__ftoa_engine>
    5c48:	bc 01       	movw	r22, r24
    5c4a:	49 81       	ldd	r20, Y+1	; 0x01
    5c4c:	84 2f       	mov	r24, r20
    5c4e:	89 70       	andi	r24, 0x09	; 9
    5c50:	81 30       	cpi	r24, 0x01	; 1
    5c52:	31 f0       	breq	.+12     	; 0x5c60 <dtoa_prf+0x66>
    5c54:	e1 fc       	sbrc	r14, 1
    5c56:	06 c0       	rjmp	.+12     	; 0x5c64 <dtoa_prf+0x6a>
    5c58:	e0 fe       	sbrs	r14, 0
    5c5a:	06 c0       	rjmp	.+12     	; 0x5c68 <dtoa_prf+0x6e>
    5c5c:	90 e2       	ldi	r25, 0x20	; 32
    5c5e:	05 c0       	rjmp	.+10     	; 0x5c6a <dtoa_prf+0x70>
    5c60:	9d e2       	ldi	r25, 0x2D	; 45
    5c62:	03 c0       	rjmp	.+6      	; 0x5c6a <dtoa_prf+0x70>
    5c64:	9b e2       	ldi	r25, 0x2B	; 43
    5c66:	01 c0       	rjmp	.+2      	; 0x5c6a <dtoa_prf+0x70>
    5c68:	90 e0       	ldi	r25, 0x00	; 0
    5c6a:	5e 2d       	mov	r21, r14
    5c6c:	50 71       	andi	r21, 0x10	; 16
    5c6e:	43 ff       	sbrs	r20, 3
    5c70:	3c c0       	rjmp	.+120    	; 0x5cea <dtoa_prf+0xf0>
    5c72:	91 11       	cpse	r25, r1
    5c74:	02 c0       	rjmp	.+4      	; 0x5c7a <dtoa_prf+0x80>
    5c76:	83 e0       	ldi	r24, 0x03	; 3
    5c78:	01 c0       	rjmp	.+2      	; 0x5c7c <dtoa_prf+0x82>
    5c7a:	84 e0       	ldi	r24, 0x04	; 4
    5c7c:	81 17       	cp	r24, r17
    5c7e:	18 f4       	brcc	.+6      	; 0x5c86 <dtoa_prf+0x8c>
    5c80:	21 2f       	mov	r18, r17
    5c82:	28 1b       	sub	r18, r24
    5c84:	01 c0       	rjmp	.+2      	; 0x5c88 <dtoa_prf+0x8e>
    5c86:	20 e0       	ldi	r18, 0x00	; 0
    5c88:	51 11       	cpse	r21, r1
    5c8a:	0b c0       	rjmp	.+22     	; 0x5ca2 <dtoa_prf+0xa8>
    5c8c:	f6 01       	movw	r30, r12
    5c8e:	82 2f       	mov	r24, r18
    5c90:	30 e2       	ldi	r19, 0x20	; 32
    5c92:	88 23       	and	r24, r24
    5c94:	19 f0       	breq	.+6      	; 0x5c9c <dtoa_prf+0xa2>
    5c96:	31 93       	st	Z+, r19
    5c98:	81 50       	subi	r24, 0x01	; 1
    5c9a:	fb cf       	rjmp	.-10     	; 0x5c92 <dtoa_prf+0x98>
    5c9c:	c2 0e       	add	r12, r18
    5c9e:	d1 1c       	adc	r13, r1
    5ca0:	20 e0       	ldi	r18, 0x00	; 0
    5ca2:	99 23       	and	r25, r25
    5ca4:	29 f0       	breq	.+10     	; 0x5cb0 <dtoa_prf+0xb6>
    5ca6:	d6 01       	movw	r26, r12
    5ca8:	9c 93       	st	X, r25
    5caa:	f6 01       	movw	r30, r12
    5cac:	31 96       	adiw	r30, 0x01	; 1
    5cae:	6f 01       	movw	r12, r30
    5cb0:	c6 01       	movw	r24, r12
    5cb2:	03 96       	adiw	r24, 0x03	; 3
    5cb4:	e2 fe       	sbrs	r14, 2
    5cb6:	0a c0       	rjmp	.+20     	; 0x5ccc <dtoa_prf+0xd2>
    5cb8:	3e e4       	ldi	r19, 0x4E	; 78
    5cba:	d6 01       	movw	r26, r12
    5cbc:	3c 93       	st	X, r19
    5cbe:	41 e4       	ldi	r20, 0x41	; 65
    5cc0:	11 96       	adiw	r26, 0x01	; 1
    5cc2:	4c 93       	st	X, r20
    5cc4:	11 97       	sbiw	r26, 0x01	; 1
    5cc6:	12 96       	adiw	r26, 0x02	; 2
    5cc8:	3c 93       	st	X, r19
    5cca:	06 c0       	rjmp	.+12     	; 0x5cd8 <dtoa_prf+0xde>
    5ccc:	3e e6       	ldi	r19, 0x6E	; 110
    5cce:	f6 01       	movw	r30, r12
    5cd0:	30 83       	st	Z, r19
    5cd2:	41 e6       	ldi	r20, 0x61	; 97
    5cd4:	41 83       	std	Z+1, r20	; 0x01
    5cd6:	32 83       	std	Z+2, r19	; 0x02
    5cd8:	fc 01       	movw	r30, r24
    5cda:	32 2f       	mov	r19, r18
    5cdc:	40 e2       	ldi	r20, 0x20	; 32
    5cde:	33 23       	and	r19, r19
    5ce0:	09 f4       	brne	.+2      	; 0x5ce4 <dtoa_prf+0xea>
    5ce2:	42 c0       	rjmp	.+132    	; 0x5d68 <dtoa_prf+0x16e>
    5ce4:	41 93       	st	Z+, r20
    5ce6:	31 50       	subi	r19, 0x01	; 1
    5ce8:	fa cf       	rjmp	.-12     	; 0x5cde <dtoa_prf+0xe4>
    5cea:	42 ff       	sbrs	r20, 2
    5cec:	44 c0       	rjmp	.+136    	; 0x5d76 <dtoa_prf+0x17c>
    5cee:	91 11       	cpse	r25, r1
    5cf0:	02 c0       	rjmp	.+4      	; 0x5cf6 <dtoa_prf+0xfc>
    5cf2:	83 e0       	ldi	r24, 0x03	; 3
    5cf4:	01 c0       	rjmp	.+2      	; 0x5cf8 <dtoa_prf+0xfe>
    5cf6:	84 e0       	ldi	r24, 0x04	; 4
    5cf8:	81 17       	cp	r24, r17
    5cfa:	18 f4       	brcc	.+6      	; 0x5d02 <dtoa_prf+0x108>
    5cfc:	21 2f       	mov	r18, r17
    5cfe:	28 1b       	sub	r18, r24
    5d00:	01 c0       	rjmp	.+2      	; 0x5d04 <dtoa_prf+0x10a>
    5d02:	20 e0       	ldi	r18, 0x00	; 0
    5d04:	51 11       	cpse	r21, r1
    5d06:	0b c0       	rjmp	.+22     	; 0x5d1e <dtoa_prf+0x124>
    5d08:	f6 01       	movw	r30, r12
    5d0a:	82 2f       	mov	r24, r18
    5d0c:	30 e2       	ldi	r19, 0x20	; 32
    5d0e:	88 23       	and	r24, r24
    5d10:	19 f0       	breq	.+6      	; 0x5d18 <dtoa_prf+0x11e>
    5d12:	31 93       	st	Z+, r19
    5d14:	81 50       	subi	r24, 0x01	; 1
    5d16:	fb cf       	rjmp	.-10     	; 0x5d0e <dtoa_prf+0x114>
    5d18:	c2 0e       	add	r12, r18
    5d1a:	d1 1c       	adc	r13, r1
    5d1c:	20 e0       	ldi	r18, 0x00	; 0
    5d1e:	99 23       	and	r25, r25
    5d20:	29 f0       	breq	.+10     	; 0x5d2c <dtoa_prf+0x132>
    5d22:	d6 01       	movw	r26, r12
    5d24:	9c 93       	st	X, r25
    5d26:	f6 01       	movw	r30, r12
    5d28:	31 96       	adiw	r30, 0x01	; 1
    5d2a:	6f 01       	movw	r12, r30
    5d2c:	c6 01       	movw	r24, r12
    5d2e:	03 96       	adiw	r24, 0x03	; 3
    5d30:	e2 fe       	sbrs	r14, 2
    5d32:	0b c0       	rjmp	.+22     	; 0x5d4a <dtoa_prf+0x150>
    5d34:	39 e4       	ldi	r19, 0x49	; 73
    5d36:	d6 01       	movw	r26, r12
    5d38:	3c 93       	st	X, r19
    5d3a:	3e e4       	ldi	r19, 0x4E	; 78
    5d3c:	11 96       	adiw	r26, 0x01	; 1
    5d3e:	3c 93       	st	X, r19
    5d40:	11 97       	sbiw	r26, 0x01	; 1
    5d42:	36 e4       	ldi	r19, 0x46	; 70
    5d44:	12 96       	adiw	r26, 0x02	; 2
    5d46:	3c 93       	st	X, r19
    5d48:	07 c0       	rjmp	.+14     	; 0x5d58 <dtoa_prf+0x15e>
    5d4a:	39 e6       	ldi	r19, 0x69	; 105
    5d4c:	f6 01       	movw	r30, r12
    5d4e:	30 83       	st	Z, r19
    5d50:	3e e6       	ldi	r19, 0x6E	; 110
    5d52:	31 83       	std	Z+1, r19	; 0x01
    5d54:	36 e6       	ldi	r19, 0x66	; 102
    5d56:	32 83       	std	Z+2, r19	; 0x02
    5d58:	fc 01       	movw	r30, r24
    5d5a:	32 2f       	mov	r19, r18
    5d5c:	40 e2       	ldi	r20, 0x20	; 32
    5d5e:	33 23       	and	r19, r19
    5d60:	19 f0       	breq	.+6      	; 0x5d68 <dtoa_prf+0x16e>
    5d62:	41 93       	st	Z+, r20
    5d64:	31 50       	subi	r19, 0x01	; 1
    5d66:	fb cf       	rjmp	.-10     	; 0x5d5e <dtoa_prf+0x164>
    5d68:	fc 01       	movw	r30, r24
    5d6a:	e2 0f       	add	r30, r18
    5d6c:	f1 1d       	adc	r31, r1
    5d6e:	10 82       	st	Z, r1
    5d70:	8e ef       	ldi	r24, 0xFE	; 254
    5d72:	9f ef       	ldi	r25, 0xFF	; 255
    5d74:	a6 c0       	rjmp	.+332    	; 0x5ec2 <dtoa_prf+0x2c8>
    5d76:	21 e0       	ldi	r18, 0x01	; 1
    5d78:	30 e0       	ldi	r19, 0x00	; 0
    5d7a:	91 11       	cpse	r25, r1
    5d7c:	02 c0       	rjmp	.+4      	; 0x5d82 <dtoa_prf+0x188>
    5d7e:	20 e0       	ldi	r18, 0x00	; 0
    5d80:	30 e0       	ldi	r19, 0x00	; 0
    5d82:	16 16       	cp	r1, r22
    5d84:	17 06       	cpc	r1, r23
    5d86:	1c f4       	brge	.+6      	; 0x5d8e <dtoa_prf+0x194>
    5d88:	fb 01       	movw	r30, r22
    5d8a:	31 96       	adiw	r30, 0x01	; 1
    5d8c:	02 c0       	rjmp	.+4      	; 0x5d92 <dtoa_prf+0x198>
    5d8e:	e1 e0       	ldi	r30, 0x01	; 1
    5d90:	f0 e0       	ldi	r31, 0x00	; 0
    5d92:	2e 0f       	add	r18, r30
    5d94:	3f 1f       	adc	r19, r31
    5d96:	bb 20       	and	r11, r11
    5d98:	21 f0       	breq	.+8      	; 0x5da2 <dtoa_prf+0x1a8>
    5d9a:	eb 2d       	mov	r30, r11
    5d9c:	f0 e0       	ldi	r31, 0x00	; 0
    5d9e:	31 96       	adiw	r30, 0x01	; 1
    5da0:	02 c0       	rjmp	.+4      	; 0x5da6 <dtoa_prf+0x1ac>
    5da2:	e0 e0       	ldi	r30, 0x00	; 0
    5da4:	f0 e0       	ldi	r31, 0x00	; 0
    5da6:	2e 0f       	add	r18, r30
    5da8:	3f 1f       	adc	r19, r31
    5daa:	e1 2f       	mov	r30, r17
    5dac:	f0 e0       	ldi	r31, 0x00	; 0
    5dae:	2e 17       	cp	r18, r30
    5db0:	3f 07       	cpc	r19, r31
    5db2:	1c f4       	brge	.+6      	; 0x5dba <dtoa_prf+0x1c0>
    5db4:	12 1b       	sub	r17, r18
    5db6:	21 2f       	mov	r18, r17
    5db8:	01 c0       	rjmp	.+2      	; 0x5dbc <dtoa_prf+0x1c2>
    5dba:	20 e0       	ldi	r18, 0x00	; 0
    5dbc:	8e 2d       	mov	r24, r14
    5dbe:	88 71       	andi	r24, 0x18	; 24
    5dc0:	59 f4       	brne	.+22     	; 0x5dd8 <dtoa_prf+0x1de>
    5dc2:	f6 01       	movw	r30, r12
    5dc4:	82 2f       	mov	r24, r18
    5dc6:	30 e2       	ldi	r19, 0x20	; 32
    5dc8:	88 23       	and	r24, r24
    5dca:	19 f0       	breq	.+6      	; 0x5dd2 <dtoa_prf+0x1d8>
    5dcc:	31 93       	st	Z+, r19
    5dce:	81 50       	subi	r24, 0x01	; 1
    5dd0:	fb cf       	rjmp	.-10     	; 0x5dc8 <dtoa_prf+0x1ce>
    5dd2:	c2 0e       	add	r12, r18
    5dd4:	d1 1c       	adc	r13, r1
    5dd6:	20 e0       	ldi	r18, 0x00	; 0
    5dd8:	99 23       	and	r25, r25
    5dda:	29 f0       	breq	.+10     	; 0x5de6 <dtoa_prf+0x1ec>
    5ddc:	d6 01       	movw	r26, r12
    5dde:	9c 93       	st	X, r25
    5de0:	f6 01       	movw	r30, r12
    5de2:	31 96       	adiw	r30, 0x01	; 1
    5de4:	6f 01       	movw	r12, r30
    5de6:	51 11       	cpse	r21, r1
    5de8:	0b c0       	rjmp	.+22     	; 0x5e00 <dtoa_prf+0x206>
    5dea:	f6 01       	movw	r30, r12
    5dec:	82 2f       	mov	r24, r18
    5dee:	90 e3       	ldi	r25, 0x30	; 48
    5df0:	88 23       	and	r24, r24
    5df2:	19 f0       	breq	.+6      	; 0x5dfa <dtoa_prf+0x200>
    5df4:	91 93       	st	Z+, r25
    5df6:	81 50       	subi	r24, 0x01	; 1
    5df8:	fb cf       	rjmp	.-10     	; 0x5df0 <dtoa_prf+0x1f6>
    5dfa:	c2 0e       	add	r12, r18
    5dfc:	d1 1c       	adc	r13, r1
    5dfe:	20 e0       	ldi	r18, 0x00	; 0
    5e00:	0f 2d       	mov	r16, r15
    5e02:	06 0f       	add	r16, r22
    5e04:	9a 81       	ldd	r25, Y+2	; 0x02
    5e06:	34 2f       	mov	r19, r20
    5e08:	30 71       	andi	r19, 0x10	; 16
    5e0a:	44 ff       	sbrs	r20, 4
    5e0c:	03 c0       	rjmp	.+6      	; 0x5e14 <dtoa_prf+0x21a>
    5e0e:	91 33       	cpi	r25, 0x31	; 49
    5e10:	09 f4       	brne	.+2      	; 0x5e14 <dtoa_prf+0x21a>
    5e12:	01 50       	subi	r16, 0x01	; 1
    5e14:	10 16       	cp	r1, r16
    5e16:	24 f4       	brge	.+8      	; 0x5e20 <dtoa_prf+0x226>
    5e18:	09 30       	cpi	r16, 0x09	; 9
    5e1a:	18 f0       	brcs	.+6      	; 0x5e22 <dtoa_prf+0x228>
    5e1c:	08 e0       	ldi	r16, 0x08	; 8
    5e1e:	01 c0       	rjmp	.+2      	; 0x5e22 <dtoa_prf+0x228>
    5e20:	01 e0       	ldi	r16, 0x01	; 1
    5e22:	ab 01       	movw	r20, r22
    5e24:	77 ff       	sbrs	r23, 7
    5e26:	02 c0       	rjmp	.+4      	; 0x5e2c <dtoa_prf+0x232>
    5e28:	40 e0       	ldi	r20, 0x00	; 0
    5e2a:	50 e0       	ldi	r21, 0x00	; 0
    5e2c:	fb 01       	movw	r30, r22
    5e2e:	e4 1b       	sub	r30, r20
    5e30:	f5 0b       	sbc	r31, r21
    5e32:	a1 e0       	ldi	r26, 0x01	; 1
    5e34:	b0 e0       	ldi	r27, 0x00	; 0
    5e36:	ac 0f       	add	r26, r28
    5e38:	bd 1f       	adc	r27, r29
    5e3a:	ea 0f       	add	r30, r26
    5e3c:	fb 1f       	adc	r31, r27
    5e3e:	8e e2       	ldi	r24, 0x2E	; 46
    5e40:	a8 2e       	mov	r10, r24
    5e42:	4b 01       	movw	r8, r22
    5e44:	80 1a       	sub	r8, r16
    5e46:	91 08       	sbc	r9, r1
    5e48:	0b 2d       	mov	r16, r11
    5e4a:	10 e0       	ldi	r17, 0x00	; 0
    5e4c:	11 95       	neg	r17
    5e4e:	01 95       	neg	r16
    5e50:	11 09       	sbc	r17, r1
    5e52:	4f 3f       	cpi	r20, 0xFF	; 255
    5e54:	bf ef       	ldi	r27, 0xFF	; 255
    5e56:	5b 07       	cpc	r21, r27
    5e58:	21 f4       	brne	.+8      	; 0x5e62 <dtoa_prf+0x268>
    5e5a:	d6 01       	movw	r26, r12
    5e5c:	ac 92       	st	X, r10
    5e5e:	11 96       	adiw	r26, 0x01	; 1
    5e60:	6d 01       	movw	r12, r26
    5e62:	64 17       	cp	r22, r20
    5e64:	75 07       	cpc	r23, r21
    5e66:	2c f0       	brlt	.+10     	; 0x5e72 <dtoa_prf+0x278>
    5e68:	84 16       	cp	r8, r20
    5e6a:	95 06       	cpc	r9, r21
    5e6c:	14 f4       	brge	.+4      	; 0x5e72 <dtoa_prf+0x278>
    5e6e:	81 81       	ldd	r24, Z+1	; 0x01
    5e70:	01 c0       	rjmp	.+2      	; 0x5e74 <dtoa_prf+0x27a>
    5e72:	80 e3       	ldi	r24, 0x30	; 48
    5e74:	41 50       	subi	r20, 0x01	; 1
    5e76:	51 09       	sbc	r21, r1
    5e78:	31 96       	adiw	r30, 0x01	; 1
    5e7a:	d6 01       	movw	r26, r12
    5e7c:	11 96       	adiw	r26, 0x01	; 1
    5e7e:	7d 01       	movw	r14, r26
    5e80:	40 17       	cp	r20, r16
    5e82:	51 07       	cpc	r21, r17
    5e84:	24 f0       	brlt	.+8      	; 0x5e8e <dtoa_prf+0x294>
    5e86:	d6 01       	movw	r26, r12
    5e88:	8c 93       	st	X, r24
    5e8a:	67 01       	movw	r12, r14
    5e8c:	e2 cf       	rjmp	.-60     	; 0x5e52 <dtoa_prf+0x258>
    5e8e:	64 17       	cp	r22, r20
    5e90:	75 07       	cpc	r23, r21
    5e92:	39 f4       	brne	.+14     	; 0x5ea2 <dtoa_prf+0x2a8>
    5e94:	96 33       	cpi	r25, 0x36	; 54
    5e96:	20 f4       	brcc	.+8      	; 0x5ea0 <dtoa_prf+0x2a6>
    5e98:	95 33       	cpi	r25, 0x35	; 53
    5e9a:	19 f4       	brne	.+6      	; 0x5ea2 <dtoa_prf+0x2a8>
    5e9c:	31 11       	cpse	r19, r1
    5e9e:	01 c0       	rjmp	.+2      	; 0x5ea2 <dtoa_prf+0x2a8>
    5ea0:	81 e3       	ldi	r24, 0x31	; 49
    5ea2:	f6 01       	movw	r30, r12
    5ea4:	80 83       	st	Z, r24
    5ea6:	f7 01       	movw	r30, r14
    5ea8:	82 2f       	mov	r24, r18
    5eaa:	90 e2       	ldi	r25, 0x20	; 32
    5eac:	88 23       	and	r24, r24
    5eae:	19 f0       	breq	.+6      	; 0x5eb6 <dtoa_prf+0x2bc>
    5eb0:	91 93       	st	Z+, r25
    5eb2:	81 50       	subi	r24, 0x01	; 1
    5eb4:	fb cf       	rjmp	.-10     	; 0x5eac <dtoa_prf+0x2b2>
    5eb6:	f7 01       	movw	r30, r14
    5eb8:	e2 0f       	add	r30, r18
    5eba:	f1 1d       	adc	r31, r1
    5ebc:	10 82       	st	Z, r1
    5ebe:	80 e0       	ldi	r24, 0x00	; 0
    5ec0:	90 e0       	ldi	r25, 0x00	; 0
    5ec2:	29 96       	adiw	r28, 0x09	; 9
    5ec4:	0f b6       	in	r0, 0x3f	; 63
    5ec6:	f8 94       	cli
    5ec8:	de bf       	out	0x3e, r29	; 62
    5eca:	0f be       	out	0x3f, r0	; 63
    5ecc:	cd bf       	out	0x3d, r28	; 61
    5ece:	df 91       	pop	r29
    5ed0:	cf 91       	pop	r28
    5ed2:	1f 91       	pop	r17
    5ed4:	0f 91       	pop	r16
    5ed6:	ff 90       	pop	r15
    5ed8:	ef 90       	pop	r14
    5eda:	df 90       	pop	r13
    5edc:	cf 90       	pop	r12
    5ede:	bf 90       	pop	r11
    5ee0:	af 90       	pop	r10
    5ee2:	9f 90       	pop	r9
    5ee4:	8f 90       	pop	r8
    5ee6:	08 95       	ret

00005ee8 <strtod>:
    5ee8:	8f 92       	push	r8
    5eea:	9f 92       	push	r9
    5eec:	af 92       	push	r10
    5eee:	bf 92       	push	r11
    5ef0:	cf 92       	push	r12
    5ef2:	df 92       	push	r13
    5ef4:	ef 92       	push	r14
    5ef6:	ff 92       	push	r15
    5ef8:	0f 93       	push	r16
    5efa:	1f 93       	push	r17
    5efc:	cf 93       	push	r28
    5efe:	df 93       	push	r29
    5f00:	ec 01       	movw	r28, r24
    5f02:	6b 01       	movw	r12, r22
    5f04:	61 15       	cp	r22, r1
    5f06:	71 05       	cpc	r23, r1
    5f08:	19 f0       	breq	.+6      	; 0x5f10 <strtod+0x28>
    5f0a:	fb 01       	movw	r30, r22
    5f0c:	91 83       	std	Z+1, r25	; 0x01
    5f0e:	80 83       	st	Z, r24
    5f10:	7e 01       	movw	r14, r28
    5f12:	ff ef       	ldi	r31, 0xFF	; 255
    5f14:	ef 1a       	sub	r14, r31
    5f16:	ff 0a       	sbc	r15, r31
    5f18:	08 81       	ld	r16, Y
    5f1a:	80 2f       	mov	r24, r16
    5f1c:	90 e0       	ldi	r25, 0x00	; 0
    5f1e:	0e 94 6a 2a 	call	0x54d4	; 0x54d4 <isspace>
    5f22:	89 2b       	or	r24, r25
    5f24:	11 f0       	breq	.+4      	; 0x5f2a <strtod+0x42>
    5f26:	e7 01       	movw	r28, r14
    5f28:	f3 cf       	rjmp	.-26     	; 0x5f10 <strtod+0x28>
    5f2a:	0d 32       	cpi	r16, 0x2D	; 45
    5f2c:	39 f4       	brne	.+14     	; 0x5f3c <strtod+0x54>
    5f2e:	7e 01       	movw	r14, r28
    5f30:	82 e0       	ldi	r24, 0x02	; 2
    5f32:	e8 0e       	add	r14, r24
    5f34:	f1 1c       	adc	r15, r1
    5f36:	09 81       	ldd	r16, Y+1	; 0x01
    5f38:	11 e0       	ldi	r17, 0x01	; 1
    5f3a:	08 c0       	rjmp	.+16     	; 0x5f4c <strtod+0x64>
    5f3c:	0b 32       	cpi	r16, 0x2B	; 43
    5f3e:	29 f4       	brne	.+10     	; 0x5f4a <strtod+0x62>
    5f40:	7e 01       	movw	r14, r28
    5f42:	92 e0       	ldi	r25, 0x02	; 2
    5f44:	e9 0e       	add	r14, r25
    5f46:	f1 1c       	adc	r15, r1
    5f48:	09 81       	ldd	r16, Y+1	; 0x01
    5f4a:	10 e0       	ldi	r17, 0x00	; 0
    5f4c:	e7 01       	movw	r28, r14
    5f4e:	21 97       	sbiw	r28, 0x01	; 1
    5f50:	43 e0       	ldi	r20, 0x03	; 3
    5f52:	50 e0       	ldi	r21, 0x00	; 0
    5f54:	64 e6       	ldi	r22, 0x64	; 100
    5f56:	72 e0       	ldi	r23, 0x02	; 2
    5f58:	ce 01       	movw	r24, r28
    5f5a:	0e 94 ab 31 	call	0x6356	; 0x6356 <strncasecmp_P>
    5f5e:	89 2b       	or	r24, r25
    5f60:	c1 f4       	brne	.+48     	; 0x5f92 <strtod+0xaa>
    5f62:	23 96       	adiw	r28, 0x03	; 3
    5f64:	45 e0       	ldi	r20, 0x05	; 5
    5f66:	50 e0       	ldi	r21, 0x00	; 0
    5f68:	6f e5       	ldi	r22, 0x5F	; 95
    5f6a:	72 e0       	ldi	r23, 0x02	; 2
    5f6c:	ce 01       	movw	r24, r28
    5f6e:	0e 94 ab 31 	call	0x6356	; 0x6356 <strncasecmp_P>
    5f72:	89 2b       	or	r24, r25
    5f74:	09 f4       	brne	.+2      	; 0x5f78 <strtod+0x90>
    5f76:	25 96       	adiw	r28, 0x05	; 5
    5f78:	c1 14       	cp	r12, r1
    5f7a:	d1 04       	cpc	r13, r1
    5f7c:	19 f0       	breq	.+6      	; 0x5f84 <strtod+0x9c>
    5f7e:	f6 01       	movw	r30, r12
    5f80:	d1 83       	std	Z+1, r29	; 0x01
    5f82:	c0 83       	st	Z, r28
    5f84:	11 11       	cpse	r17, r1
    5f86:	f6 c0       	rjmp	.+492    	; 0x6174 <strtod+0x28c>
    5f88:	60 e0       	ldi	r22, 0x00	; 0
    5f8a:	70 e0       	ldi	r23, 0x00	; 0
    5f8c:	80 e8       	ldi	r24, 0x80	; 128
    5f8e:	9f e7       	ldi	r25, 0x7F	; 127
    5f90:	fa c0       	rjmp	.+500    	; 0x6186 <strtod+0x29e>
    5f92:	43 e0       	ldi	r20, 0x03	; 3
    5f94:	50 e0       	ldi	r21, 0x00	; 0
    5f96:	6c e5       	ldi	r22, 0x5C	; 92
    5f98:	72 e0       	ldi	r23, 0x02	; 2
    5f9a:	ce 01       	movw	r24, r28
    5f9c:	0e 94 ab 31 	call	0x6356	; 0x6356 <strncasecmp_P>
    5fa0:	89 2b       	or	r24, r25
    5fa2:	59 f4       	brne	.+22     	; 0x5fba <strtod+0xd2>
    5fa4:	c1 14       	cp	r12, r1
    5fa6:	d1 04       	cpc	r13, r1
    5fa8:	09 f4       	brne	.+2      	; 0x5fac <strtod+0xc4>
    5faa:	e9 c0       	rjmp	.+466    	; 0x617e <strtod+0x296>
    5fac:	f2 e0       	ldi	r31, 0x02	; 2
    5fae:	ef 0e       	add	r14, r31
    5fb0:	f1 1c       	adc	r15, r1
    5fb2:	f6 01       	movw	r30, r12
    5fb4:	f1 82       	std	Z+1, r15	; 0x01
    5fb6:	e0 82       	st	Z, r14
    5fb8:	e2 c0       	rjmp	.+452    	; 0x617e <strtod+0x296>
    5fba:	20 e0       	ldi	r18, 0x00	; 0
    5fbc:	30 e0       	ldi	r19, 0x00	; 0
    5fbe:	a9 01       	movw	r20, r18
    5fc0:	c0 e0       	ldi	r28, 0x00	; 0
    5fc2:	d0 e0       	ldi	r29, 0x00	; 0
    5fc4:	f7 01       	movw	r30, r14
    5fc6:	60 ed       	ldi	r22, 0xD0	; 208
    5fc8:	a6 2e       	mov	r10, r22
    5fca:	a0 0e       	add	r10, r16
    5fcc:	89 e0       	ldi	r24, 0x09	; 9
    5fce:	8a 15       	cp	r24, r10
    5fd0:	30 f1       	brcs	.+76     	; 0x601e <strtod+0x136>
    5fd2:	91 2f       	mov	r25, r17
    5fd4:	92 60       	ori	r25, 0x02	; 2
    5fd6:	b9 2e       	mov	r11, r25
    5fd8:	81 2f       	mov	r24, r17
    5fda:	88 70       	andi	r24, 0x08	; 8
    5fdc:	12 ff       	sbrs	r17, 2
    5fde:	04 c0       	rjmp	.+8      	; 0x5fe8 <strtod+0x100>
    5fe0:	81 11       	cpse	r24, r1
    5fe2:	24 c0       	rjmp	.+72     	; 0x602c <strtod+0x144>
    5fe4:	21 96       	adiw	r28, 0x01	; 1
    5fe6:	22 c0       	rjmp	.+68     	; 0x602c <strtod+0x144>
    5fe8:	81 11       	cpse	r24, r1
    5fea:	21 97       	sbiw	r28, 0x01	; 1
    5fec:	a5 e0       	ldi	r26, 0x05	; 5
    5fee:	b0 e0       	ldi	r27, 0x00	; 0
    5ff0:	0e 94 1c 25 	call	0x4a38	; 0x4a38 <__muluhisi3>
    5ff4:	dc 01       	movw	r26, r24
    5ff6:	cb 01       	movw	r24, r22
    5ff8:	88 0f       	add	r24, r24
    5ffa:	99 1f       	adc	r25, r25
    5ffc:	aa 1f       	adc	r26, r26
    5ffe:	bb 1f       	adc	r27, r27
    6000:	9c 01       	movw	r18, r24
    6002:	ad 01       	movw	r20, r26
    6004:	2a 0d       	add	r18, r10
    6006:	31 1d       	adc	r19, r1
    6008:	41 1d       	adc	r20, r1
    600a:	51 1d       	adc	r21, r1
    600c:	28 39       	cpi	r18, 0x98	; 152
    600e:	89 e9       	ldi	r24, 0x99	; 153
    6010:	38 07       	cpc	r19, r24
    6012:	48 07       	cpc	r20, r24
    6014:	89 e1       	ldi	r24, 0x19	; 25
    6016:	58 07       	cpc	r21, r24
    6018:	48 f0       	brcs	.+18     	; 0x602c <strtod+0x144>
    601a:	16 60       	ori	r17, 0x06	; 6
    601c:	06 c0       	rjmp	.+12     	; 0x602a <strtod+0x142>
    601e:	9e ef       	ldi	r25, 0xFE	; 254
    6020:	a9 12       	cpse	r10, r25
    6022:	0a c0       	rjmp	.+20     	; 0x6038 <strtod+0x150>
    6024:	13 fd       	sbrc	r17, 3
    6026:	40 c0       	rjmp	.+128    	; 0x60a8 <strtod+0x1c0>
    6028:	18 60       	ori	r17, 0x08	; 8
    602a:	b1 2e       	mov	r11, r17
    602c:	8f ef       	ldi	r24, 0xFF	; 255
    602e:	e8 1a       	sub	r14, r24
    6030:	f8 0a       	sbc	r15, r24
    6032:	00 81       	ld	r16, Z
    6034:	1b 2d       	mov	r17, r11
    6036:	c6 cf       	rjmp	.-116    	; 0x5fc4 <strtod+0xdc>
    6038:	80 2f       	mov	r24, r16
    603a:	8f 7d       	andi	r24, 0xDF	; 223
    603c:	85 34       	cpi	r24, 0x45	; 69
    603e:	a1 f5       	brne	.+104    	; 0x60a8 <strtod+0x1c0>
    6040:	80 81       	ld	r24, Z
    6042:	8d 32       	cpi	r24, 0x2D	; 45
    6044:	11 f4       	brne	.+4      	; 0x604a <strtod+0x162>
    6046:	10 61       	ori	r17, 0x10	; 16
    6048:	06 c0       	rjmp	.+12     	; 0x6056 <strtod+0x16e>
    604a:	8b 32       	cpi	r24, 0x2B	; 43
    604c:	21 f0       	breq	.+8      	; 0x6056 <strtod+0x16e>
    604e:	31 96       	adiw	r30, 0x01	; 1
    6050:	61 e0       	ldi	r22, 0x01	; 1
    6052:	70 e0       	ldi	r23, 0x00	; 0
    6054:	04 c0       	rjmp	.+8      	; 0x605e <strtod+0x176>
    6056:	81 81       	ldd	r24, Z+1	; 0x01
    6058:	32 96       	adiw	r30, 0x02	; 2
    605a:	62 e0       	ldi	r22, 0x02	; 2
    605c:	70 e0       	ldi	r23, 0x00	; 0
    605e:	80 53       	subi	r24, 0x30	; 48
    6060:	8a 30       	cpi	r24, 0x0A	; 10
    6062:	18 f0       	brcs	.+6      	; 0x606a <strtod+0x182>
    6064:	e6 1b       	sub	r30, r22
    6066:	f7 0b       	sbc	r31, r23
    6068:	1f c0       	rjmp	.+62     	; 0x60a8 <strtod+0x1c0>
    606a:	60 e0       	ldi	r22, 0x00	; 0
    606c:	70 e0       	ldi	r23, 0x00	; 0
    606e:	60 38       	cpi	r22, 0x80	; 128
    6070:	9c e0       	ldi	r25, 0x0C	; 12
    6072:	79 07       	cpc	r23, r25
    6074:	5c f4       	brge	.+22     	; 0x608c <strtod+0x1a4>
    6076:	db 01       	movw	r26, r22
    6078:	aa 0f       	add	r26, r26
    607a:	bb 1f       	adc	r27, r27
    607c:	aa 0f       	add	r26, r26
    607e:	bb 1f       	adc	r27, r27
    6080:	6a 0f       	add	r22, r26
    6082:	7b 1f       	adc	r23, r27
    6084:	66 0f       	add	r22, r22
    6086:	77 1f       	adc	r23, r23
    6088:	68 0f       	add	r22, r24
    608a:	71 1d       	adc	r23, r1
    608c:	31 96       	adiw	r30, 0x01	; 1
    608e:	df 01       	movw	r26, r30
    6090:	11 97       	sbiw	r26, 0x01	; 1
    6092:	8c 91       	ld	r24, X
    6094:	80 53       	subi	r24, 0x30	; 48
    6096:	8a 30       	cpi	r24, 0x0A	; 10
    6098:	50 f3       	brcs	.-44     	; 0x606e <strtod+0x186>
    609a:	14 ff       	sbrs	r17, 4
    609c:	03 c0       	rjmp	.+6      	; 0x60a4 <strtod+0x1bc>
    609e:	71 95       	neg	r23
    60a0:	61 95       	neg	r22
    60a2:	71 09       	sbc	r23, r1
    60a4:	c6 0f       	add	r28, r22
    60a6:	d7 1f       	adc	r29, r23
    60a8:	11 ff       	sbrs	r17, 1
    60aa:	08 c0       	rjmp	.+16     	; 0x60bc <strtod+0x1d4>
    60ac:	c1 14       	cp	r12, r1
    60ae:	d1 04       	cpc	r13, r1
    60b0:	29 f0       	breq	.+10     	; 0x60bc <strtod+0x1d4>
    60b2:	cf 01       	movw	r24, r30
    60b4:	01 97       	sbiw	r24, 0x01	; 1
    60b6:	f6 01       	movw	r30, r12
    60b8:	91 83       	std	Z+1, r25	; 0x01
    60ba:	80 83       	st	Z, r24
    60bc:	ca 01       	movw	r24, r20
    60be:	b9 01       	movw	r22, r18
    60c0:	0e 94 49 26 	call	0x4c92	; 0x4c92 <__floatunsisf>
    60c4:	21 2f       	mov	r18, r17
    60c6:	23 70       	andi	r18, 0x03	; 3
    60c8:	23 30       	cpi	r18, 0x03	; 3
    60ca:	19 f0       	breq	.+6      	; 0x60d2 <strtod+0x1ea>
    60cc:	4b 01       	movw	r8, r22
    60ce:	5c 01       	movw	r10, r24
    60d0:	06 c0       	rjmp	.+12     	; 0x60de <strtod+0x1f6>
    60d2:	4b 01       	movw	r8, r22
    60d4:	5c 01       	movw	r10, r24
    60d6:	b7 fa       	bst	r11, 7
    60d8:	b0 94       	com	r11
    60da:	b7 f8       	bld	r11, 7
    60dc:	b0 94       	com	r11
    60de:	20 e0       	ldi	r18, 0x00	; 0
    60e0:	30 e0       	ldi	r19, 0x00	; 0
    60e2:	a9 01       	movw	r20, r18
    60e4:	c5 01       	movw	r24, r10
    60e6:	b4 01       	movw	r22, r8
    60e8:	0e 94 a3 25 	call	0x4b46	; 0x4b46 <__cmpsf2>
    60ec:	88 23       	and	r24, r24
    60ee:	09 f4       	brne	.+2      	; 0x60f2 <strtod+0x20a>
    60f0:	3e c0       	rjmp	.+124    	; 0x616e <strtod+0x286>
    60f2:	d7 ff       	sbrs	r29, 7
    60f4:	06 c0       	rjmp	.+12     	; 0x6102 <strtod+0x21a>
    60f6:	d1 95       	neg	r29
    60f8:	c1 95       	neg	r28
    60fa:	d1 09       	sbc	r29, r1
    60fc:	0b e7       	ldi	r16, 0x7B	; 123
    60fe:	12 e0       	ldi	r17, 0x02	; 2
    6100:	02 c0       	rjmp	.+4      	; 0x6106 <strtod+0x21e>
    6102:	03 e9       	ldi	r16, 0x93	; 147
    6104:	12 e0       	ldi	r17, 0x02	; 2
    6106:	68 01       	movw	r12, r16
    6108:	f8 e1       	ldi	r31, 0x18	; 24
    610a:	cf 1a       	sub	r12, r31
    610c:	d1 08       	sbc	r13, r1
    610e:	90 e2       	ldi	r25, 0x20	; 32
    6110:	e9 2e       	mov	r14, r25
    6112:	f1 2c       	mov	r15, r1
    6114:	ce 15       	cp	r28, r14
    6116:	df 05       	cpc	r29, r15
    6118:	74 f0       	brlt	.+28     	; 0x6136 <strtod+0x24e>
    611a:	f8 01       	movw	r30, r16
    611c:	25 91       	lpm	r18, Z+
    611e:	35 91       	lpm	r19, Z+
    6120:	45 91       	lpm	r20, Z+
    6122:	54 91       	lpm	r21, Z
    6124:	c5 01       	movw	r24, r10
    6126:	b4 01       	movw	r22, r8
    6128:	0e 94 00 27 	call	0x4e00	; 0x4e00 <__mulsf3>
    612c:	4b 01       	movw	r8, r22
    612e:	5c 01       	movw	r10, r24
    6130:	ce 19       	sub	r28, r14
    6132:	df 09       	sbc	r29, r15
    6134:	ef cf       	rjmp	.-34     	; 0x6114 <strtod+0x22c>
    6136:	04 50       	subi	r16, 0x04	; 4
    6138:	11 09       	sbc	r17, r1
    613a:	f5 94       	asr	r15
    613c:	e7 94       	ror	r14
    613e:	0c 15       	cp	r16, r12
    6140:	1d 05       	cpc	r17, r13
    6142:	41 f7       	brne	.-48     	; 0x6114 <strtod+0x22c>
    6144:	8a 2d       	mov	r24, r10
    6146:	88 0f       	add	r24, r24
    6148:	8b 2d       	mov	r24, r11
    614a:	88 1f       	adc	r24, r24
    614c:	8f 3f       	cpi	r24, 0xFF	; 255
    614e:	49 f0       	breq	.+18     	; 0x6162 <strtod+0x27a>
    6150:	20 e0       	ldi	r18, 0x00	; 0
    6152:	30 e0       	ldi	r19, 0x00	; 0
    6154:	a9 01       	movw	r20, r18
    6156:	c5 01       	movw	r24, r10
    6158:	b4 01       	movw	r22, r8
    615a:	0e 94 a3 25 	call	0x4b46	; 0x4b46 <__cmpsf2>
    615e:	81 11       	cpse	r24, r1
    6160:	06 c0       	rjmp	.+12     	; 0x616e <strtod+0x286>
    6162:	82 e2       	ldi	r24, 0x22	; 34
    6164:	90 e0       	ldi	r25, 0x00	; 0
    6166:	90 93 15 06 	sts	0x0615, r25	; 0x800615 <errno+0x1>
    616a:	80 93 14 06 	sts	0x0614, r24	; 0x800614 <errno>
    616e:	c5 01       	movw	r24, r10
    6170:	b4 01       	movw	r22, r8
    6172:	09 c0       	rjmp	.+18     	; 0x6186 <strtod+0x29e>
    6174:	60 e0       	ldi	r22, 0x00	; 0
    6176:	70 e0       	ldi	r23, 0x00	; 0
    6178:	80 e8       	ldi	r24, 0x80	; 128
    617a:	9f ef       	ldi	r25, 0xFF	; 255
    617c:	04 c0       	rjmp	.+8      	; 0x6186 <strtod+0x29e>
    617e:	60 e0       	ldi	r22, 0x00	; 0
    6180:	70 e0       	ldi	r23, 0x00	; 0
    6182:	80 ec       	ldi	r24, 0xC0	; 192
    6184:	9f e7       	ldi	r25, 0x7F	; 127
    6186:	df 91       	pop	r29
    6188:	cf 91       	pop	r28
    618a:	1f 91       	pop	r17
    618c:	0f 91       	pop	r16
    618e:	ff 90       	pop	r15
    6190:	ef 90       	pop	r14
    6192:	df 90       	pop	r13
    6194:	cf 90       	pop	r12
    6196:	bf 90       	pop	r11
    6198:	af 90       	pop	r10
    619a:	9f 90       	pop	r9
    619c:	8f 90       	pop	r8
    619e:	08 95       	ret

000061a0 <__ftoa_engine>:
    61a0:	28 30       	cpi	r18, 0x08	; 8
    61a2:	08 f0       	brcs	.+2      	; 0x61a6 <__ftoa_engine+0x6>
    61a4:	27 e0       	ldi	r18, 0x07	; 7
    61a6:	33 27       	eor	r19, r19
    61a8:	da 01       	movw	r26, r20
    61aa:	99 0f       	add	r25, r25
    61ac:	31 1d       	adc	r19, r1
    61ae:	87 fd       	sbrc	r24, 7
    61b0:	91 60       	ori	r25, 0x01	; 1
    61b2:	00 96       	adiw	r24, 0x00	; 0
    61b4:	61 05       	cpc	r22, r1
    61b6:	71 05       	cpc	r23, r1
    61b8:	39 f4       	brne	.+14     	; 0x61c8 <__ftoa_engine+0x28>
    61ba:	32 60       	ori	r19, 0x02	; 2
    61bc:	2e 5f       	subi	r18, 0xFE	; 254
    61be:	3d 93       	st	X+, r19
    61c0:	30 e3       	ldi	r19, 0x30	; 48
    61c2:	2a 95       	dec	r18
    61c4:	e1 f7       	brne	.-8      	; 0x61be <__ftoa_engine+0x1e>
    61c6:	08 95       	ret
    61c8:	9f 3f       	cpi	r25, 0xFF	; 255
    61ca:	30 f0       	brcs	.+12     	; 0x61d8 <__ftoa_engine+0x38>
    61cc:	80 38       	cpi	r24, 0x80	; 128
    61ce:	71 05       	cpc	r23, r1
    61d0:	61 05       	cpc	r22, r1
    61d2:	09 f0       	breq	.+2      	; 0x61d6 <__ftoa_engine+0x36>
    61d4:	3c 5f       	subi	r19, 0xFC	; 252
    61d6:	3c 5f       	subi	r19, 0xFC	; 252
    61d8:	3d 93       	st	X+, r19
    61da:	91 30       	cpi	r25, 0x01	; 1
    61dc:	08 f0       	brcs	.+2      	; 0x61e0 <__ftoa_engine+0x40>
    61de:	80 68       	ori	r24, 0x80	; 128
    61e0:	91 1d       	adc	r25, r1
    61e2:	df 93       	push	r29
    61e4:	cf 93       	push	r28
    61e6:	1f 93       	push	r17
    61e8:	0f 93       	push	r16
    61ea:	ff 92       	push	r15
    61ec:	ef 92       	push	r14
    61ee:	19 2f       	mov	r17, r25
    61f0:	98 7f       	andi	r25, 0xF8	; 248
    61f2:	96 95       	lsr	r25
    61f4:	e9 2f       	mov	r30, r25
    61f6:	96 95       	lsr	r25
    61f8:	96 95       	lsr	r25
    61fa:	e9 0f       	add	r30, r25
    61fc:	ff 27       	eor	r31, r31
    61fe:	ef 50       	subi	r30, 0x0F	; 15
    6200:	fd 4f       	sbci	r31, 0xFD	; 253
    6202:	99 27       	eor	r25, r25
    6204:	33 27       	eor	r19, r19
    6206:	ee 24       	eor	r14, r14
    6208:	ff 24       	eor	r15, r15
    620a:	a7 01       	movw	r20, r14
    620c:	e7 01       	movw	r28, r14
    620e:	05 90       	lpm	r0, Z+
    6210:	08 94       	sec
    6212:	07 94       	ror	r0
    6214:	28 f4       	brcc	.+10     	; 0x6220 <__ftoa_engine+0x80>
    6216:	36 0f       	add	r19, r22
    6218:	e7 1e       	adc	r14, r23
    621a:	f8 1e       	adc	r15, r24
    621c:	49 1f       	adc	r20, r25
    621e:	51 1d       	adc	r21, r1
    6220:	66 0f       	add	r22, r22
    6222:	77 1f       	adc	r23, r23
    6224:	88 1f       	adc	r24, r24
    6226:	99 1f       	adc	r25, r25
    6228:	06 94       	lsr	r0
    622a:	a1 f7       	brne	.-24     	; 0x6214 <__ftoa_engine+0x74>
    622c:	05 90       	lpm	r0, Z+
    622e:	07 94       	ror	r0
    6230:	28 f4       	brcc	.+10     	; 0x623c <__ftoa_engine+0x9c>
    6232:	e7 0e       	add	r14, r23
    6234:	f8 1e       	adc	r15, r24
    6236:	49 1f       	adc	r20, r25
    6238:	56 1f       	adc	r21, r22
    623a:	c1 1d       	adc	r28, r1
    623c:	77 0f       	add	r23, r23
    623e:	88 1f       	adc	r24, r24
    6240:	99 1f       	adc	r25, r25
    6242:	66 1f       	adc	r22, r22
    6244:	06 94       	lsr	r0
    6246:	a1 f7       	brne	.-24     	; 0x6230 <__ftoa_engine+0x90>
    6248:	05 90       	lpm	r0, Z+
    624a:	07 94       	ror	r0
    624c:	28 f4       	brcc	.+10     	; 0x6258 <__ftoa_engine+0xb8>
    624e:	f8 0e       	add	r15, r24
    6250:	49 1f       	adc	r20, r25
    6252:	56 1f       	adc	r21, r22
    6254:	c7 1f       	adc	r28, r23
    6256:	d1 1d       	adc	r29, r1
    6258:	88 0f       	add	r24, r24
    625a:	99 1f       	adc	r25, r25
    625c:	66 1f       	adc	r22, r22
    625e:	77 1f       	adc	r23, r23
    6260:	06 94       	lsr	r0
    6262:	a1 f7       	brne	.-24     	; 0x624c <__ftoa_engine+0xac>
    6264:	05 90       	lpm	r0, Z+
    6266:	07 94       	ror	r0
    6268:	20 f4       	brcc	.+8      	; 0x6272 <__ftoa_engine+0xd2>
    626a:	49 0f       	add	r20, r25
    626c:	56 1f       	adc	r21, r22
    626e:	c7 1f       	adc	r28, r23
    6270:	d8 1f       	adc	r29, r24
    6272:	99 0f       	add	r25, r25
    6274:	66 1f       	adc	r22, r22
    6276:	77 1f       	adc	r23, r23
    6278:	88 1f       	adc	r24, r24
    627a:	06 94       	lsr	r0
    627c:	a9 f7       	brne	.-22     	; 0x6268 <__ftoa_engine+0xc8>
    627e:	84 91       	lpm	r24, Z
    6280:	10 95       	com	r17
    6282:	17 70       	andi	r17, 0x07	; 7
    6284:	41 f0       	breq	.+16     	; 0x6296 <__ftoa_engine+0xf6>
    6286:	d6 95       	lsr	r29
    6288:	c7 95       	ror	r28
    628a:	57 95       	ror	r21
    628c:	47 95       	ror	r20
    628e:	f7 94       	ror	r15
    6290:	e7 94       	ror	r14
    6292:	1a 95       	dec	r17
    6294:	c1 f7       	brne	.-16     	; 0x6286 <__ftoa_engine+0xe6>
    6296:	e7 e9       	ldi	r30, 0x97	; 151
    6298:	f2 e0       	ldi	r31, 0x02	; 2
    629a:	68 94       	set
    629c:	15 90       	lpm	r1, Z+
    629e:	15 91       	lpm	r17, Z+
    62a0:	35 91       	lpm	r19, Z+
    62a2:	65 91       	lpm	r22, Z+
    62a4:	95 91       	lpm	r25, Z+
    62a6:	05 90       	lpm	r0, Z+
    62a8:	7f e2       	ldi	r23, 0x2F	; 47
    62aa:	73 95       	inc	r23
    62ac:	e1 18       	sub	r14, r1
    62ae:	f1 0a       	sbc	r15, r17
    62b0:	43 0b       	sbc	r20, r19
    62b2:	56 0b       	sbc	r21, r22
    62b4:	c9 0b       	sbc	r28, r25
    62b6:	d0 09       	sbc	r29, r0
    62b8:	c0 f7       	brcc	.-16     	; 0x62aa <__ftoa_engine+0x10a>
    62ba:	e1 0c       	add	r14, r1
    62bc:	f1 1e       	adc	r15, r17
    62be:	43 1f       	adc	r20, r19
    62c0:	56 1f       	adc	r21, r22
    62c2:	c9 1f       	adc	r28, r25
    62c4:	d0 1d       	adc	r29, r0
    62c6:	7e f4       	brtc	.+30     	; 0x62e6 <__ftoa_engine+0x146>
    62c8:	70 33       	cpi	r23, 0x30	; 48
    62ca:	11 f4       	brne	.+4      	; 0x62d0 <__ftoa_engine+0x130>
    62cc:	8a 95       	dec	r24
    62ce:	e6 cf       	rjmp	.-52     	; 0x629c <__ftoa_engine+0xfc>
    62d0:	e8 94       	clt
    62d2:	01 50       	subi	r16, 0x01	; 1
    62d4:	30 f0       	brcs	.+12     	; 0x62e2 <__ftoa_engine+0x142>
    62d6:	08 0f       	add	r16, r24
    62d8:	0a f4       	brpl	.+2      	; 0x62dc <__ftoa_engine+0x13c>
    62da:	00 27       	eor	r16, r16
    62dc:	02 17       	cp	r16, r18
    62de:	08 f4       	brcc	.+2      	; 0x62e2 <__ftoa_engine+0x142>
    62e0:	20 2f       	mov	r18, r16
    62e2:	23 95       	inc	r18
    62e4:	02 2f       	mov	r16, r18
    62e6:	7a 33       	cpi	r23, 0x3A	; 58
    62e8:	28 f0       	brcs	.+10     	; 0x62f4 <__ftoa_engine+0x154>
    62ea:	79 e3       	ldi	r23, 0x39	; 57
    62ec:	7d 93       	st	X+, r23
    62ee:	2a 95       	dec	r18
    62f0:	e9 f7       	brne	.-6      	; 0x62ec <__ftoa_engine+0x14c>
    62f2:	10 c0       	rjmp	.+32     	; 0x6314 <__ftoa_engine+0x174>
    62f4:	7d 93       	st	X+, r23
    62f6:	2a 95       	dec	r18
    62f8:	89 f6       	brne	.-94     	; 0x629c <__ftoa_engine+0xfc>
    62fa:	06 94       	lsr	r0
    62fc:	97 95       	ror	r25
    62fe:	67 95       	ror	r22
    6300:	37 95       	ror	r19
    6302:	17 95       	ror	r17
    6304:	17 94       	ror	r1
    6306:	e1 18       	sub	r14, r1
    6308:	f1 0a       	sbc	r15, r17
    630a:	43 0b       	sbc	r20, r19
    630c:	56 0b       	sbc	r21, r22
    630e:	c9 0b       	sbc	r28, r25
    6310:	d0 09       	sbc	r29, r0
    6312:	98 f0       	brcs	.+38     	; 0x633a <__ftoa_engine+0x19a>
    6314:	23 95       	inc	r18
    6316:	7e 91       	ld	r23, -X
    6318:	73 95       	inc	r23
    631a:	7a 33       	cpi	r23, 0x3A	; 58
    631c:	08 f0       	brcs	.+2      	; 0x6320 <__ftoa_engine+0x180>
    631e:	70 e3       	ldi	r23, 0x30	; 48
    6320:	7c 93       	st	X, r23
    6322:	20 13       	cpse	r18, r16
    6324:	b8 f7       	brcc	.-18     	; 0x6314 <__ftoa_engine+0x174>
    6326:	7e 91       	ld	r23, -X
    6328:	70 61       	ori	r23, 0x10	; 16
    632a:	7d 93       	st	X+, r23
    632c:	30 f0       	brcs	.+12     	; 0x633a <__ftoa_engine+0x19a>
    632e:	83 95       	inc	r24
    6330:	71 e3       	ldi	r23, 0x31	; 49
    6332:	7d 93       	st	X+, r23
    6334:	70 e3       	ldi	r23, 0x30	; 48
    6336:	2a 95       	dec	r18
    6338:	e1 f7       	brne	.-8      	; 0x6332 <__ftoa_engine+0x192>
    633a:	11 24       	eor	r1, r1
    633c:	ef 90       	pop	r14
    633e:	ff 90       	pop	r15
    6340:	0f 91       	pop	r16
    6342:	1f 91       	pop	r17
    6344:	cf 91       	pop	r28
    6346:	df 91       	pop	r29
    6348:	99 27       	eor	r25, r25
    634a:	87 fd       	sbrc	r24, 7
    634c:	90 95       	com	r25
    634e:	08 95       	ret

00006350 <__ctype_isfalse>:
    6350:	99 27       	eor	r25, r25
    6352:	88 27       	eor	r24, r24

00006354 <__ctype_istrue>:
    6354:	08 95       	ret

00006356 <strncasecmp_P>:
    6356:	fb 01       	movw	r30, r22
    6358:	dc 01       	movw	r26, r24
    635a:	41 50       	subi	r20, 0x01	; 1
    635c:	50 40       	sbci	r21, 0x00	; 0
    635e:	88 f0       	brcs	.+34     	; 0x6382 <strncasecmp_P+0x2c>
    6360:	8d 91       	ld	r24, X+
    6362:	81 34       	cpi	r24, 0x41	; 65
    6364:	1c f0       	brlt	.+6      	; 0x636c <strncasecmp_P+0x16>
    6366:	8b 35       	cpi	r24, 0x5B	; 91
    6368:	0c f4       	brge	.+2      	; 0x636c <strncasecmp_P+0x16>
    636a:	80 5e       	subi	r24, 0xE0	; 224
    636c:	65 91       	lpm	r22, Z+
    636e:	61 34       	cpi	r22, 0x41	; 65
    6370:	1c f0       	brlt	.+6      	; 0x6378 <strncasecmp_P+0x22>
    6372:	6b 35       	cpi	r22, 0x5B	; 91
    6374:	0c f4       	brge	.+2      	; 0x6378 <strncasecmp_P+0x22>
    6376:	60 5e       	subi	r22, 0xE0	; 224
    6378:	86 1b       	sub	r24, r22
    637a:	61 11       	cpse	r22, r1
    637c:	71 f3       	breq	.-36     	; 0x635a <strncasecmp_P+0x4>
    637e:	99 0b       	sbc	r25, r25
    6380:	08 95       	ret
    6382:	88 1b       	sub	r24, r24
    6384:	fc cf       	rjmp	.-8      	; 0x637e <strncasecmp_P+0x28>

00006386 <strnlen_P>:
    6386:	fc 01       	movw	r30, r24
    6388:	05 90       	lpm	r0, Z+
    638a:	61 50       	subi	r22, 0x01	; 1
    638c:	70 40       	sbci	r23, 0x00	; 0
    638e:	01 10       	cpse	r0, r1
    6390:	d8 f7       	brcc	.-10     	; 0x6388 <strnlen_P+0x2>
    6392:	80 95       	com	r24
    6394:	90 95       	com	r25
    6396:	8e 0f       	add	r24, r30
    6398:	9f 1f       	adc	r25, r31
    639a:	08 95       	ret

0000639c <strnlen>:
    639c:	fc 01       	movw	r30, r24
    639e:	61 50       	subi	r22, 0x01	; 1
    63a0:	70 40       	sbci	r23, 0x00	; 0
    63a2:	01 90       	ld	r0, Z+
    63a4:	01 10       	cpse	r0, r1
    63a6:	d8 f7       	brcc	.-10     	; 0x639e <strnlen+0x2>
    63a8:	80 95       	com	r24
    63aa:	90 95       	com	r25
    63ac:	8e 0f       	add	r24, r30
    63ae:	9f 1f       	adc	r25, r31
    63b0:	08 95       	ret

000063b2 <strrev>:
    63b2:	dc 01       	movw	r26, r24
    63b4:	fc 01       	movw	r30, r24
    63b6:	67 2f       	mov	r22, r23
    63b8:	71 91       	ld	r23, Z+
    63ba:	77 23       	and	r23, r23
    63bc:	e1 f7       	brne	.-8      	; 0x63b6 <strrev+0x4>
    63be:	32 97       	sbiw	r30, 0x02	; 2
    63c0:	04 c0       	rjmp	.+8      	; 0x63ca <strrev+0x18>
    63c2:	7c 91       	ld	r23, X
    63c4:	6d 93       	st	X+, r22
    63c6:	70 83       	st	Z, r23
    63c8:	62 91       	ld	r22, -Z
    63ca:	ae 17       	cp	r26, r30
    63cc:	bf 07       	cpc	r27, r31
    63ce:	c8 f3       	brcs	.-14     	; 0x63c2 <strrev+0x10>
    63d0:	08 95       	ret

000063d2 <fputc>:
    63d2:	0f 93       	push	r16
    63d4:	1f 93       	push	r17
    63d6:	cf 93       	push	r28
    63d8:	df 93       	push	r29
    63da:	fb 01       	movw	r30, r22
    63dc:	23 81       	ldd	r18, Z+3	; 0x03
    63de:	21 fd       	sbrc	r18, 1
    63e0:	03 c0       	rjmp	.+6      	; 0x63e8 <fputc+0x16>
    63e2:	8f ef       	ldi	r24, 0xFF	; 255
    63e4:	9f ef       	ldi	r25, 0xFF	; 255
    63e6:	2c c0       	rjmp	.+88     	; 0x6440 <fputc+0x6e>
    63e8:	22 ff       	sbrs	r18, 2
    63ea:	16 c0       	rjmp	.+44     	; 0x6418 <fputc+0x46>
    63ec:	46 81       	ldd	r20, Z+6	; 0x06
    63ee:	57 81       	ldd	r21, Z+7	; 0x07
    63f0:	24 81       	ldd	r18, Z+4	; 0x04
    63f2:	35 81       	ldd	r19, Z+5	; 0x05
    63f4:	42 17       	cp	r20, r18
    63f6:	53 07       	cpc	r21, r19
    63f8:	44 f4       	brge	.+16     	; 0x640a <fputc+0x38>
    63fa:	a0 81       	ld	r26, Z
    63fc:	b1 81       	ldd	r27, Z+1	; 0x01
    63fe:	9d 01       	movw	r18, r26
    6400:	2f 5f       	subi	r18, 0xFF	; 255
    6402:	3f 4f       	sbci	r19, 0xFF	; 255
    6404:	31 83       	std	Z+1, r19	; 0x01
    6406:	20 83       	st	Z, r18
    6408:	8c 93       	st	X, r24
    640a:	26 81       	ldd	r18, Z+6	; 0x06
    640c:	37 81       	ldd	r19, Z+7	; 0x07
    640e:	2f 5f       	subi	r18, 0xFF	; 255
    6410:	3f 4f       	sbci	r19, 0xFF	; 255
    6412:	37 83       	std	Z+7, r19	; 0x07
    6414:	26 83       	std	Z+6, r18	; 0x06
    6416:	14 c0       	rjmp	.+40     	; 0x6440 <fputc+0x6e>
    6418:	8b 01       	movw	r16, r22
    641a:	ec 01       	movw	r28, r24
    641c:	fb 01       	movw	r30, r22
    641e:	00 84       	ldd	r0, Z+8	; 0x08
    6420:	f1 85       	ldd	r31, Z+9	; 0x09
    6422:	e0 2d       	mov	r30, r0
    6424:	19 95       	eicall
    6426:	89 2b       	or	r24, r25
    6428:	e1 f6       	brne	.-72     	; 0x63e2 <fputc+0x10>
    642a:	d8 01       	movw	r26, r16
    642c:	16 96       	adiw	r26, 0x06	; 6
    642e:	8d 91       	ld	r24, X+
    6430:	9c 91       	ld	r25, X
    6432:	17 97       	sbiw	r26, 0x07	; 7
    6434:	01 96       	adiw	r24, 0x01	; 1
    6436:	17 96       	adiw	r26, 0x07	; 7
    6438:	9c 93       	st	X, r25
    643a:	8e 93       	st	-X, r24
    643c:	16 97       	sbiw	r26, 0x06	; 6
    643e:	ce 01       	movw	r24, r28
    6440:	df 91       	pop	r29
    6442:	cf 91       	pop	r28
    6444:	1f 91       	pop	r17
    6446:	0f 91       	pop	r16
    6448:	08 95       	ret

0000644a <__ultoa_invert>:
    644a:	fa 01       	movw	r30, r20
    644c:	aa 27       	eor	r26, r26
    644e:	28 30       	cpi	r18, 0x08	; 8
    6450:	51 f1       	breq	.+84     	; 0x64a6 <__ultoa_invert+0x5c>
    6452:	20 31       	cpi	r18, 0x10	; 16
    6454:	81 f1       	breq	.+96     	; 0x64b6 <__ultoa_invert+0x6c>
    6456:	e8 94       	clt
    6458:	6f 93       	push	r22
    645a:	6e 7f       	andi	r22, 0xFE	; 254
    645c:	6e 5f       	subi	r22, 0xFE	; 254
    645e:	7f 4f       	sbci	r23, 0xFF	; 255
    6460:	8f 4f       	sbci	r24, 0xFF	; 255
    6462:	9f 4f       	sbci	r25, 0xFF	; 255
    6464:	af 4f       	sbci	r26, 0xFF	; 255
    6466:	b1 e0       	ldi	r27, 0x01	; 1
    6468:	3e d0       	rcall	.+124    	; 0x64e6 <__ultoa_invert+0x9c>
    646a:	b4 e0       	ldi	r27, 0x04	; 4
    646c:	3c d0       	rcall	.+120    	; 0x64e6 <__ultoa_invert+0x9c>
    646e:	67 0f       	add	r22, r23
    6470:	78 1f       	adc	r23, r24
    6472:	89 1f       	adc	r24, r25
    6474:	9a 1f       	adc	r25, r26
    6476:	a1 1d       	adc	r26, r1
    6478:	68 0f       	add	r22, r24
    647a:	79 1f       	adc	r23, r25
    647c:	8a 1f       	adc	r24, r26
    647e:	91 1d       	adc	r25, r1
    6480:	a1 1d       	adc	r26, r1
    6482:	6a 0f       	add	r22, r26
    6484:	71 1d       	adc	r23, r1
    6486:	81 1d       	adc	r24, r1
    6488:	91 1d       	adc	r25, r1
    648a:	a1 1d       	adc	r26, r1
    648c:	20 d0       	rcall	.+64     	; 0x64ce <__ultoa_invert+0x84>
    648e:	09 f4       	brne	.+2      	; 0x6492 <__ultoa_invert+0x48>
    6490:	68 94       	set
    6492:	3f 91       	pop	r19
    6494:	2a e0       	ldi	r18, 0x0A	; 10
    6496:	26 9f       	mul	r18, r22
    6498:	11 24       	eor	r1, r1
    649a:	30 19       	sub	r19, r0
    649c:	30 5d       	subi	r19, 0xD0	; 208
    649e:	31 93       	st	Z+, r19
    64a0:	de f6       	brtc	.-74     	; 0x6458 <__ultoa_invert+0xe>
    64a2:	cf 01       	movw	r24, r30
    64a4:	08 95       	ret
    64a6:	46 2f       	mov	r20, r22
    64a8:	47 70       	andi	r20, 0x07	; 7
    64aa:	40 5d       	subi	r20, 0xD0	; 208
    64ac:	41 93       	st	Z+, r20
    64ae:	b3 e0       	ldi	r27, 0x03	; 3
    64b0:	0f d0       	rcall	.+30     	; 0x64d0 <__ultoa_invert+0x86>
    64b2:	c9 f7       	brne	.-14     	; 0x64a6 <__ultoa_invert+0x5c>
    64b4:	f6 cf       	rjmp	.-20     	; 0x64a2 <__ultoa_invert+0x58>
    64b6:	46 2f       	mov	r20, r22
    64b8:	4f 70       	andi	r20, 0x0F	; 15
    64ba:	40 5d       	subi	r20, 0xD0	; 208
    64bc:	4a 33       	cpi	r20, 0x3A	; 58
    64be:	18 f0       	brcs	.+6      	; 0x64c6 <__ultoa_invert+0x7c>
    64c0:	49 5d       	subi	r20, 0xD9	; 217
    64c2:	31 fd       	sbrc	r19, 1
    64c4:	40 52       	subi	r20, 0x20	; 32
    64c6:	41 93       	st	Z+, r20
    64c8:	02 d0       	rcall	.+4      	; 0x64ce <__ultoa_invert+0x84>
    64ca:	a9 f7       	brne	.-22     	; 0x64b6 <__ultoa_invert+0x6c>
    64cc:	ea cf       	rjmp	.-44     	; 0x64a2 <__ultoa_invert+0x58>
    64ce:	b4 e0       	ldi	r27, 0x04	; 4
    64d0:	a6 95       	lsr	r26
    64d2:	97 95       	ror	r25
    64d4:	87 95       	ror	r24
    64d6:	77 95       	ror	r23
    64d8:	67 95       	ror	r22
    64da:	ba 95       	dec	r27
    64dc:	c9 f7       	brne	.-14     	; 0x64d0 <__ultoa_invert+0x86>
    64de:	00 97       	sbiw	r24, 0x00	; 0
    64e0:	61 05       	cpc	r22, r1
    64e2:	71 05       	cpc	r23, r1
    64e4:	08 95       	ret
    64e6:	9b 01       	movw	r18, r22
    64e8:	ac 01       	movw	r20, r24
    64ea:	0a 2e       	mov	r0, r26
    64ec:	06 94       	lsr	r0
    64ee:	57 95       	ror	r21
    64f0:	47 95       	ror	r20
    64f2:	37 95       	ror	r19
    64f4:	27 95       	ror	r18
    64f6:	ba 95       	dec	r27
    64f8:	c9 f7       	brne	.-14     	; 0x64ec <__ultoa_invert+0xa2>
    64fa:	62 0f       	add	r22, r18
    64fc:	73 1f       	adc	r23, r19
    64fe:	84 1f       	adc	r24, r20
    6500:	95 1f       	adc	r25, r21
    6502:	a0 1d       	adc	r26, r0
    6504:	08 95       	ret

00006506 <__mulshisi3>:
    6506:	b7 ff       	sbrs	r27, 7
    6508:	0c 94 1c 25 	jmp	0x4a38	; 0x4a38 <__muluhisi3>

0000650c <__mulohisi3>:
    650c:	0e 94 1c 25 	call	0x4a38	; 0x4a38 <__muluhisi3>
    6510:	82 1b       	sub	r24, r18
    6512:	93 0b       	sbc	r25, r19
    6514:	08 95       	ret

00006516 <_exit>:
    6516:	f8 94       	cli

00006518 <__stop_program>:
    6518:	ff cf       	rjmp	.-2      	; 0x6518 <__stop_program>
