Archive member included to satisfy reference by file (symbol)

c:/program files (x86)/atmel/studio/7.0/toolchain/avr8/avr8-gnu-toolchain/bin/../lib/gcc/avr/5.4.0/avr6\libgcc.a(_mulsi3.o)
                              obj\Release\arduino\WMath.o (__mulsi3)
c:/program files (x86)/atmel/studio/7.0/toolchain/avr8/avr8-gnu-toolchain/bin/../lib/gcc/avr/5.4.0/avr6\libgcc.a(_udivmodqi4.o)
                              obj\Release\arduino\Servo.o (__udivmodqi4)
c:/program files (x86)/atmel/studio/7.0/toolchain/avr8/avr8-gnu-toolchain/bin/../lib/gcc/avr/5.4.0/avr6\libgcc.a(_udivmodsi4.o)
                              obj\Release\arduino\HardwareSerial.o (__udivmodsi4)
c:/program files (x86)/atmel/studio/7.0/toolchain/avr8/avr8-gnu-toolchain/bin/../lib/gcc/avr/5.4.0/avr6\libgcc.a(_divmodsi4.o)
                              obj\Release\arduino\WMath.o (__divmodsi4)
c:/program files (x86)/atmel/studio/7.0/toolchain/avr8/avr8-gnu-toolchain/bin/../lib/gcc/avr/5.4.0/avr6\libgcc.a(_negsi2.o)
                              c:/program files (x86)/atmel/studio/7.0/toolchain/avr8/avr8-gnu-toolchain/bin/../lib/gcc/avr/5.4.0/avr6\libgcc.a(_divmodsi4.o) (__negsi2)
c:/program files (x86)/atmel/studio/7.0/toolchain/avr8/avr8-gnu-toolchain/bin/../lib/gcc/avr/5.4.0/avr6\libgcc.a(_exit.o)
                              c:/program files (x86)/atmel/studio/7.0/toolchain/avr8/avr8-gnu-toolchain/bin/../lib/gcc/avr/5.4.0/../../../../avr/lib/avr6/crtatmega2560.o (exit)
c:/program files (x86)/atmel/studio/7.0/toolchain/avr8/avr8-gnu-toolchain/bin/../lib/gcc/avr/5.4.0/avr6\libgcc.a(_tablejump2.o)
                              obj\Release\arduino\WInterrupts.o (__tablejump2__)
c:/program files (x86)/atmel/studio/7.0/toolchain/avr8/avr8-gnu-toolchain/bin/../lib/gcc/avr/5.4.0/avr6\libgcc.a(_copy_data.o)
                              obj\Release\arduino\HardwareSerial.o (__do_copy_data)
c:/program files (x86)/atmel/studio/7.0/toolchain/avr8/avr8-gnu-toolchain/bin/../lib/gcc/avr/5.4.0/avr6\libgcc.a(_clear_bss.o)
                              obj\Release\arduino\HardwareSerial0.o (__do_clear_bss)
c:/program files (x86)/atmel/studio/7.0/toolchain/avr8/avr8-gnu-toolchain/bin/../lib/gcc/avr/5.4.0/avr6\libgcc.a(_ctors.o)
                              obj\Release\arduino\HardwareSerial0.o (__do_global_ctors)
c:/program files (x86)/atmel/studio/7.0/toolchain/avr8/avr8-gnu-toolchain/bin/../lib/gcc/avr/5.4.0/avr6\libgcc.a(_dtors.o)
                              obj\Release\WifiConn.o (__do_global_dtors)
c:/program files (x86)/atmel/studio/7.0/toolchain/avr8/avr8-gnu-toolchain/bin/../lib/gcc/avr/5.4.0/avr6\libgcc.a(_muluhisi3.o)
                              obj\Release\arduino\Stream.o (__muluhisi3)
c:/program files (x86)/atmel/studio/7.0/toolchain/avr8/avr8-gnu-toolchain/bin/../lib/gcc/avr/5.4.0/avr6\libgcc.a(_umulhisi3.o)
                              c:/program files (x86)/atmel/studio/7.0/toolchain/avr8/avr8-gnu-toolchain/bin/../lib/gcc/avr/5.4.0/avr6\libgcc.a(_muluhisi3.o) (__umulhisi3)
c:/program files (x86)/atmel/studio/7.0/toolchain/avr8/avr8-gnu-toolchain/bin/../lib/gcc/avr/5.4.0/../../../../avr/lib/avr6\libm.a(addsf3.o)
                              obj\Release\arduino\Print.o (__subsf3)
c:/program files (x86)/atmel/studio/7.0/toolchain/avr8/avr8-gnu-toolchain/bin/../lib/gcc/avr/5.4.0/../../../../avr/lib/avr6\libm.a(addsf3x.o)
                              c:/program files (x86)/atmel/studio/7.0/toolchain/avr8/avr8-gnu-toolchain/bin/../lib/gcc/avr/5.4.0/../../../../avr/lib/avr6\libm.a(addsf3.o) (__addsf3x)
c:/program files (x86)/atmel/studio/7.0/toolchain/avr8/avr8-gnu-toolchain/bin/../lib/gcc/avr/5.4.0/../../../../avr/lib/avr6\libm.a(cmpsf2.o)
                              obj\Release\arduino\Print.o (__ltsf2)
c:/program files (x86)/atmel/studio/7.0/toolchain/avr8/avr8-gnu-toolchain/bin/../lib/gcc/avr/5.4.0/../../../../avr/lib/avr6\libm.a(divsf3.o)
                              obj\Release\arduino\Print.o (__divsf3)
c:/program files (x86)/atmel/studio/7.0/toolchain/avr8/avr8-gnu-toolchain/bin/../lib/gcc/avr/5.4.0/../../../../avr/lib/avr6\libm.a(divsf3x.o)
                              c:/program files (x86)/atmel/studio/7.0/toolchain/avr8/avr8-gnu-toolchain/bin/../lib/gcc/avr/5.4.0/../../../../avr/lib/avr6\libm.a(divsf3.o) (__divsf3x)
c:/program files (x86)/atmel/studio/7.0/toolchain/avr8/avr8-gnu-toolchain/bin/../lib/gcc/avr/5.4.0/../../../../avr/lib/avr6\libm.a(fixsfsi.o)
                              obj\Release\Comfort.o (__fixsfsi)
c:/program files (x86)/atmel/studio/7.0/toolchain/avr8/avr8-gnu-toolchain/bin/../lib/gcc/avr/5.4.0/../../../../avr/lib/avr6\libm.a(fixunssfsi.o)
                              obj\Release\arduino\Print.o (__fixunssfsi)
c:/program files (x86)/atmel/studio/7.0/toolchain/avr8/avr8-gnu-toolchain/bin/../lib/gcc/avr/5.4.0/../../../../avr/lib/avr6\libm.a(floatsisf.o)
                              obj\Release\arduino\dht.o (__floatunsisf)
c:/program files (x86)/atmel/studio/7.0/toolchain/avr8/avr8-gnu-toolchain/bin/../lib/gcc/avr/5.4.0/../../../../avr/lib/avr6\libm.a(fp_cmp.o)
                              c:/program files (x86)/atmel/studio/7.0/toolchain/avr8/avr8-gnu-toolchain/bin/../lib/gcc/avr/5.4.0/../../../../avr/lib/avr6\libm.a(cmpsf2.o) (__fp_cmp)
c:/program files (x86)/atmel/studio/7.0/toolchain/avr8/avr8-gnu-toolchain/bin/../lib/gcc/avr/5.4.0/../../../../avr/lib/avr6\libm.a(fp_inf.o)
                              c:/program files (x86)/atmel/studio/7.0/toolchain/avr8/avr8-gnu-toolchain/bin/../lib/gcc/avr/5.4.0/../../../../avr/lib/avr6\libm.a(addsf3x.o) (__fp_inf)
c:/program files (x86)/atmel/studio/7.0/toolchain/avr8/avr8-gnu-toolchain/bin/../lib/gcc/avr/5.4.0/../../../../avr/lib/avr6\libm.a(fp_nan.o)
                              c:/program files (x86)/atmel/studio/7.0/toolchain/avr8/avr8-gnu-toolchain/bin/../lib/gcc/avr/5.4.0/../../../../avr/lib/avr6\libm.a(addsf3x.o) (__fp_nan)
c:/program files (x86)/atmel/studio/7.0/toolchain/avr8/avr8-gnu-toolchain/bin/../lib/gcc/avr/5.4.0/../../../../avr/lib/avr6\libm.a(fp_pscA.o)
                              c:/program files (x86)/atmel/studio/7.0/toolchain/avr8/avr8-gnu-toolchain/bin/../lib/gcc/avr/5.4.0/../../../../avr/lib/avr6\libm.a(addsf3x.o) (__fp_pscA)
c:/program files (x86)/atmel/studio/7.0/toolchain/avr8/avr8-gnu-toolchain/bin/../lib/gcc/avr/5.4.0/../../../../avr/lib/avr6\libm.a(fp_pscB.o)
                              c:/program files (x86)/atmel/studio/7.0/toolchain/avr8/avr8-gnu-toolchain/bin/../lib/gcc/avr/5.4.0/../../../../avr/lib/avr6\libm.a(addsf3x.o) (__fp_pscB)
c:/program files (x86)/atmel/studio/7.0/toolchain/avr8/avr8-gnu-toolchain/bin/../lib/gcc/avr/5.4.0/../../../../avr/lib/avr6\libm.a(fp_round.o)
                              c:/program files (x86)/atmel/studio/7.0/toolchain/avr8/avr8-gnu-toolchain/bin/../lib/gcc/avr/5.4.0/../../../../avr/lib/avr6\libm.a(addsf3.o) (__fp_round)
c:/program files (x86)/atmel/studio/7.0/toolchain/avr8/avr8-gnu-toolchain/bin/../lib/gcc/avr/5.4.0/../../../../avr/lib/avr6\libm.a(fp_split3.o)
                              c:/program files (x86)/atmel/studio/7.0/toolchain/avr8/avr8-gnu-toolchain/bin/../lib/gcc/avr/5.4.0/../../../../avr/lib/avr6\libm.a(addsf3x.o) (__fp_split3)
c:/program files (x86)/atmel/studio/7.0/toolchain/avr8/avr8-gnu-toolchain/bin/../lib/gcc/avr/5.4.0/../../../../avr/lib/avr6\libm.a(fp_zero.o)
                              c:/program files (x86)/atmel/studio/7.0/toolchain/avr8/avr8-gnu-toolchain/bin/../lib/gcc/avr/5.4.0/../../../../avr/lib/avr6\libm.a(addsf3x.o) (__fp_zero)
c:/program files (x86)/atmel/studio/7.0/toolchain/avr8/avr8-gnu-toolchain/bin/../lib/gcc/avr/5.4.0/../../../../avr/lib/avr6\libm.a(gesf2.o)
                              obj\Release\Comfort.o (__gesf2)
c:/program files (x86)/atmel/studio/7.0/toolchain/avr8/avr8-gnu-toolchain/bin/../lib/gcc/avr/5.4.0/../../../../avr/lib/avr6\libm.a(mulsf3.o)
                              obj\Release\arduino\dht.o (__mulsf3)
c:/program files (x86)/atmel/studio/7.0/toolchain/avr8/avr8-gnu-toolchain/bin/../lib/gcc/avr/5.4.0/../../../../avr/lib/avr6\libm.a(mulsf3x.o)
                              c:/program files (x86)/atmel/studio/7.0/toolchain/avr8/avr8-gnu-toolchain/bin/../lib/gcc/avr/5.4.0/../../../../avr/lib/avr6\libm.a(mulsf3.o) (__mulsf3x)
c:/program files (x86)/atmel/studio/7.0/toolchain/avr8/avr8-gnu-toolchain/bin/../lib/gcc/avr/5.4.0/../../../../avr/lib/avr6\libm.a(unordsf2.o)
                              obj\Release\arduino\Print.o (__unordsf2)
c:/program files (x86)/atmel/studio/7.0/toolchain/avr8/avr8-gnu-toolchain/bin/../lib/gcc/avr/5.4.0/../../../../avr/lib/avr6\libc.a(dtostrf.o)
                              obj\Release\arduino\WString.o (dtostrf)
c:/program files (x86)/atmel/studio/7.0/toolchain/avr8/avr8-gnu-toolchain/bin/../lib/gcc/avr/5.4.0/../../../../avr/lib/avr6\libc.a(malloc.o)
                              obj\Release\arduino\new.o (malloc)
c:/program files (x86)/atmel/studio/7.0/toolchain/avr8/avr8-gnu-toolchain/bin/../lib/gcc/avr/5.4.0/../../../../avr/lib/avr6\libc.a(random.o)
                              obj\Release\arduino\WMath.o (random)
c:/program files (x86)/atmel/studio/7.0/toolchain/avr8/avr8-gnu-toolchain/bin/../lib/gcc/avr/5.4.0/../../../../avr/lib/avr6\libc.a(realloc.o)
                              obj\Release\arduino\WString.o (realloc)
c:/program files (x86)/atmel/studio/7.0/toolchain/avr8/avr8-gnu-toolchain/bin/../lib/gcc/avr/5.4.0/../../../../avr/lib/avr6\libc.a(abort.o)
                              obj\Release\arduino\abi.o (abort)
c:/program files (x86)/atmel/studio/7.0/toolchain/avr8/avr8-gnu-toolchain/bin/../lib/gcc/avr/5.4.0/../../../../avr/lib/avr6\libc.a(atof.o)
                              obj\Release\arduino\WString.o (atof)
c:/program files (x86)/atmel/studio/7.0/toolchain/avr8/avr8-gnu-toolchain/bin/../lib/gcc/avr/5.4.0/../../../../avr/lib/avr6\libc.a(atol.o)
                              obj\Release\arduino\WString.o (atol)
c:/program files (x86)/atmel/studio/7.0/toolchain/avr8/avr8-gnu-toolchain/bin/../lib/gcc/avr/5.4.0/../../../../avr/lib/avr6\libc.a(isspace.o)
                              obj\Release\arduino\WString.o (isspace)
c:/program files (x86)/atmel/studio/7.0/toolchain/avr8/avr8-gnu-toolchain/bin/../lib/gcc/avr/5.4.0/../../../../avr/lib/avr6\libc.a(tolower.o)
                              obj\Release\arduino\WString.o (tolower)
c:/program files (x86)/atmel/studio/7.0/toolchain/avr8/avr8-gnu-toolchain/bin/../lib/gcc/avr/5.4.0/../../../../avr/lib/avr6\libc.a(toupper.o)
                              obj\Release\arduino\WString.o (toupper)
c:/program files (x86)/atmel/studio/7.0/toolchain/avr8/avr8-gnu-toolchain/bin/../lib/gcc/avr/5.4.0/../../../../avr/lib/avr6\libc.a(strcpy_P.o)
                              obj\Release\arduino\WString.o (strcpy_P)
c:/program files (x86)/atmel/studio/7.0/toolchain/avr8/avr8-gnu-toolchain/bin/../lib/gcc/avr/5.4.0/../../../../avr/lib/avr6\libc.a(strlen_P.o)
                              obj\Release\arduino\WString.o (__strlen_P)
c:/program files (x86)/atmel/studio/7.0/toolchain/avr8/avr8-gnu-toolchain/bin/../lib/gcc/avr/5.4.0/../../../../avr/lib/avr6\libc.a(memcmp.o)
                              obj\Release\arduino\IPAddress.o (memcmp)
c:/program files (x86)/atmel/studio/7.0/toolchain/avr8/avr8-gnu-toolchain/bin/../lib/gcc/avr/5.4.0/../../../../avr/lib/avr6\libc.a(memcpy.o)
                              obj\Release\arduino\WString.o (memcpy)
c:/program files (x86)/atmel/studio/7.0/toolchain/avr8/avr8-gnu-toolchain/bin/../lib/gcc/avr/5.4.0/../../../../avr/lib/avr6\libc.a(memmove.o)
                              obj\Release\arduino\WString.o (memmove)
c:/program files (x86)/atmel/studio/7.0/toolchain/avr8/avr8-gnu-toolchain/bin/../lib/gcc/avr/5.4.0/../../../../avr/lib/avr6\libc.a(strchr.o)
                              obj\Release\arduino\WString.o (strchr)
c:/program files (x86)/atmel/studio/7.0/toolchain/avr8/avr8-gnu-toolchain/bin/../lib/gcc/avr/5.4.0/../../../../avr/lib/avr6\libc.a(strcmp.o)
                              obj\Release\arduino\WString.o (strcmp)
c:/program files (x86)/atmel/studio/7.0/toolchain/avr8/avr8-gnu-toolchain/bin/../lib/gcc/avr/5.4.0/../../../../avr/lib/avr6\libc.a(strcpy.o)
                              obj\Release\arduino\WString.o (strcpy)
c:/program files (x86)/atmel/studio/7.0/toolchain/avr8/avr8-gnu-toolchain/bin/../lib/gcc/avr/5.4.0/../../../../avr/lib/avr6\libc.a(strncmp.o)
                              obj\Release\arduino\WString.o (strncmp)
c:/program files (x86)/atmel/studio/7.0/toolchain/avr8/avr8-gnu-toolchain/bin/../lib/gcc/avr/5.4.0/../../../../avr/lib/avr6\libc.a(strncpy.o)
                              obj\Release\arduino\WString.o (strncpy)
c:/program files (x86)/atmel/studio/7.0/toolchain/avr8/avr8-gnu-toolchain/bin/../lib/gcc/avr/5.4.0/../../../../avr/lib/avr6\libc.a(strrchr.o)
                              obj\Release\arduino\WString.o (strrchr)
c:/program files (x86)/atmel/studio/7.0/toolchain/avr8/avr8-gnu-toolchain/bin/../lib/gcc/avr/5.4.0/../../../../avr/lib/avr6\libc.a(strstr.o)
                              obj\Release\arduino\WString.o (strstr)
c:/program files (x86)/atmel/studio/7.0/toolchain/avr8/avr8-gnu-toolchain/bin/../lib/gcc/avr/5.4.0/../../../../avr/lib/avr6\libc.a(itoa.o)
                              obj\Release\arduino\WString.o (__itoa)
c:/program files (x86)/atmel/studio/7.0/toolchain/avr8/avr8-gnu-toolchain/bin/../lib/gcc/avr/5.4.0/../../../../avr/lib/avr6\libc.a(itoa_ncheck.o)
                              c:/program files (x86)/atmel/studio/7.0/toolchain/avr8/avr8-gnu-toolchain/bin/../lib/gcc/avr/5.4.0/../../../../avr/lib/avr6\libc.a(itoa.o) (__itoa_ncheck)
c:/program files (x86)/atmel/studio/7.0/toolchain/avr8/avr8-gnu-toolchain/bin/../lib/gcc/avr/5.4.0/../../../../avr/lib/avr6\libc.a(ltoa.o)
                              obj\Release\arduino\WString.o (__ltoa)
c:/program files (x86)/atmel/studio/7.0/toolchain/avr8/avr8-gnu-toolchain/bin/../lib/gcc/avr/5.4.0/../../../../avr/lib/avr6\libc.a(ltoa_ncheck.o)
                              c:/program files (x86)/atmel/studio/7.0/toolchain/avr8/avr8-gnu-toolchain/bin/../lib/gcc/avr/5.4.0/../../../../avr/lib/avr6\libc.a(ltoa.o) (__ltoa_ncheck)
c:/program files (x86)/atmel/studio/7.0/toolchain/avr8/avr8-gnu-toolchain/bin/../lib/gcc/avr/5.4.0/../../../../avr/lib/avr6\libc.a(mulsi10.o)
                              c:/program files (x86)/atmel/studio/7.0/toolchain/avr8/avr8-gnu-toolchain/bin/../lib/gcc/avr/5.4.0/../../../../avr/lib/avr6\libc.a(atol.o) (__mulsi_const_10)
c:/program files (x86)/atmel/studio/7.0/toolchain/avr8/avr8-gnu-toolchain/bin/../lib/gcc/avr/5.4.0/../../../../avr/lib/avr6\libc.a(ultoa.o)
                              obj\Release\arduino\WString.o (__ultoa)
c:/program files (x86)/atmel/studio/7.0/toolchain/avr8/avr8-gnu-toolchain/bin/../lib/gcc/avr/5.4.0/../../../../avr/lib/avr6\libc.a(ultoa_ncheck.o)
                              c:/program files (x86)/atmel/studio/7.0/toolchain/avr8/avr8-gnu-toolchain/bin/../lib/gcc/avr/5.4.0/../../../../avr/lib/avr6\libc.a(ultoa.o) (__ultoa_ncheck)
c:/program files (x86)/atmel/studio/7.0/toolchain/avr8/avr8-gnu-toolchain/bin/../lib/gcc/avr/5.4.0/../../../../avr/lib/avr6\libc.a(utoa.o)
                              obj\Release\arduino\WString.o (__utoa)
c:/program files (x86)/atmel/studio/7.0/toolchain/avr8/avr8-gnu-toolchain/bin/../lib/gcc/avr/5.4.0/../../../../avr/lib/avr6\libc.a(utoa_ncheck.o)
                              c:/program files (x86)/atmel/studio/7.0/toolchain/avr8/avr8-gnu-toolchain/bin/../lib/gcc/avr/5.4.0/../../../../avr/lib/avr6\libc.a(utoa.o) (__utoa_ncheck)
c:/program files (x86)/atmel/studio/7.0/toolchain/avr8/avr8-gnu-toolchain/bin/../lib/gcc/avr/5.4.0/../../../../avr/lib/avr6\libc.a(printf.o)
                              obj\Release\SWInputs.o (printf)
c:/program files (x86)/atmel/studio/7.0/toolchain/avr8/avr8-gnu-toolchain/bin/../lib/gcc/avr/5.4.0/../../../../avr/lib/avr6\libc.a(puts.o)
                              obj\Release\SWOutputs.o (puts)
c:/program files (x86)/atmel/studio/7.0/toolchain/avr8/avr8-gnu-toolchain/bin/../lib/gcc/avr/5.4.0/../../../../avr/lib/avr6\libc.a(vfprintf_std.o)
                              c:/program files (x86)/atmel/studio/7.0/toolchain/avr8/avr8-gnu-toolchain/bin/../lib/gcc/avr/5.4.0/../../../../avr/lib/avr6\libc.a(printf.o) (vfprintf)
c:/program files (x86)/atmel/studio/7.0/toolchain/avr8/avr8-gnu-toolchain/bin/../lib/gcc/avr/5.4.0/../../../../avr/lib/avr6\libc.a(dtoa_prf.o)
                              c:/program files (x86)/atmel/studio/7.0/toolchain/avr8/avr8-gnu-toolchain/bin/../lib/gcc/avr/5.4.0/../../../../avr/lib/avr6\libc.a(dtostrf.o) (dtoa_prf)
c:/program files (x86)/atmel/studio/7.0/toolchain/avr8/avr8-gnu-toolchain/bin/../lib/gcc/avr/5.4.0/../../../../avr/lib/avr6\libc.a(strtod.o)
                              c:/program files (x86)/atmel/studio/7.0/toolchain/avr8/avr8-gnu-toolchain/bin/../lib/gcc/avr/5.4.0/../../../../avr/lib/avr6\libc.a(atof.o) (strtod)
c:/program files (x86)/atmel/studio/7.0/toolchain/avr8/avr8-gnu-toolchain/bin/../lib/gcc/avr/5.4.0/../../../../avr/lib/avr6\libc.a(ftoa_engine.o)
                              c:/program files (x86)/atmel/studio/7.0/toolchain/avr8/avr8-gnu-toolchain/bin/../lib/gcc/avr/5.4.0/../../../../avr/lib/avr6\libc.a(dtoa_prf.o) (__ftoa_engine)
c:/program files (x86)/atmel/studio/7.0/toolchain/avr8/avr8-gnu-toolchain/bin/../lib/gcc/avr/5.4.0/../../../../avr/lib/avr6\libc.a(cty_isfalse.o)
                              c:/program files (x86)/atmel/studio/7.0/toolchain/avr8/avr8-gnu-toolchain/bin/../lib/gcc/avr/5.4.0/../../../../avr/lib/avr6\libc.a(isspace.o) (__ctype_isfalse)
c:/program files (x86)/atmel/studio/7.0/toolchain/avr8/avr8-gnu-toolchain/bin/../lib/gcc/avr/5.4.0/../../../../avr/lib/avr6\libc.a(strncasecmp_P.o)
                              c:/program files (x86)/atmel/studio/7.0/toolchain/avr8/avr8-gnu-toolchain/bin/../lib/gcc/avr/5.4.0/../../../../avr/lib/avr6\libc.a(strtod.o) (strncasecmp_P)
c:/program files (x86)/atmel/studio/7.0/toolchain/avr8/avr8-gnu-toolchain/bin/../lib/gcc/avr/5.4.0/../../../../avr/lib/avr6\libc.a(strnlen_P.o)
                              c:/program files (x86)/atmel/studio/7.0/toolchain/avr8/avr8-gnu-toolchain/bin/../lib/gcc/avr/5.4.0/../../../../avr/lib/avr6\libc.a(vfprintf_std.o) (strnlen_P)
c:/program files (x86)/atmel/studio/7.0/toolchain/avr8/avr8-gnu-toolchain/bin/../lib/gcc/avr/5.4.0/../../../../avr/lib/avr6\libc.a(strnlen.o)
                              c:/program files (x86)/atmel/studio/7.0/toolchain/avr8/avr8-gnu-toolchain/bin/../lib/gcc/avr/5.4.0/../../../../avr/lib/avr6\libc.a(vfprintf_std.o) (strnlen)
c:/program files (x86)/atmel/studio/7.0/toolchain/avr8/avr8-gnu-toolchain/bin/../lib/gcc/avr/5.4.0/../../../../avr/lib/avr6\libc.a(strrev.o)
                              c:/program files (x86)/atmel/studio/7.0/toolchain/avr8/avr8-gnu-toolchain/bin/../lib/gcc/avr/5.4.0/../../../../avr/lib/avr6\libc.a(ultoa_ncheck.o) (strrev)
c:/program files (x86)/atmel/studio/7.0/toolchain/avr8/avr8-gnu-toolchain/bin/../lib/gcc/avr/5.4.0/../../../../avr/lib/avr6\libc.a(fputc.o)
                              c:/program files (x86)/atmel/studio/7.0/toolchain/avr8/avr8-gnu-toolchain/bin/../lib/gcc/avr/5.4.0/../../../../avr/lib/avr6\libc.a(vfprintf_std.o) (fputc)
c:/program files (x86)/atmel/studio/7.0/toolchain/avr8/avr8-gnu-toolchain/bin/../lib/gcc/avr/5.4.0/../../../../avr/lib/avr6\libc.a(iob.o)
                              c:/program files (x86)/atmel/studio/7.0/toolchain/avr8/avr8-gnu-toolchain/bin/../lib/gcc/avr/5.4.0/../../../../avr/lib/avr6\libc.a(printf.o) (__iob)
c:/program files (x86)/atmel/studio/7.0/toolchain/avr8/avr8-gnu-toolchain/bin/../lib/gcc/avr/5.4.0/../../../../avr/lib/avr6\libc.a(ultoa_invert.o)
                              c:/program files (x86)/atmel/studio/7.0/toolchain/avr8/avr8-gnu-toolchain/bin/../lib/gcc/avr/5.4.0/../../../../avr/lib/avr6\libc.a(vfprintf_std.o) (__ultoa_invert)
c:/program files (x86)/atmel/studio/7.0/toolchain/avr8/avr8-gnu-toolchain/bin/../lib/gcc/avr/5.4.0/../../../../avr/lib/avr6\libc.a(errno.o)
                              c:/program files (x86)/atmel/studio/7.0/toolchain/avr8/avr8-gnu-toolchain/bin/../lib/gcc/avr/5.4.0/../../../../avr/lib/avr6\libc.a(strtod.o) (errno)
c:/program files (x86)/atmel/studio/7.0/toolchain/avr8/avr8-gnu-toolchain/bin/../lib/gcc/avr/5.4.0/avr6\libgcc.a(_mulshisi3.o)
                              c:/program files (x86)/atmel/studio/7.0/toolchain/avr8/avr8-gnu-toolchain/bin/../lib/gcc/avr/5.4.0/../../../../avr/lib/avr6\libc.a(random.o) (__mulohisi3)

Allocating common symbols
Common symbol       size              file

errno               0x2               c:/program files (x86)/atmel/studio/7.0/toolchain/avr8/avr8-gnu-toolchain/bin/../lib/gcc/avr/5.4.0/../../../../avr/lib/avr6\libc.a(errno.o)
__brkval            0x2               c:/program files (x86)/atmel/studio/7.0/toolchain/avr8/avr8-gnu-toolchain/bin/../lib/gcc/avr/5.4.0/../../../../avr/lib/avr6\libc.a(malloc.o)
__flp               0x2               c:/program files (x86)/atmel/studio/7.0/toolchain/avr8/avr8-gnu-toolchain/bin/../lib/gcc/avr/5.4.0/../../../../avr/lib/avr6\libc.a(malloc.o)
__iob               0x6               c:/program files (x86)/atmel/studio/7.0/toolchain/avr8/avr8-gnu-toolchain/bin/../lib/gcc/avr/5.4.0/../../../../avr/lib/avr6\libc.a(iob.o)

Discarded input sections

 .group         0x00000000        0x8 obj\Release\arduino\HardwareSerial.o
 .group         0x00000000        0x8 obj\Release\arduino\HardwareSerial0.o
 .group         0x00000000        0x8 obj\Release\arduino\HardwareSerial0.o
 .group         0x00000000        0x8 obj\Release\arduino\HardwareSerial1.o
 .group         0x00000000        0x8 obj\Release\arduino\HardwareSerial1.o
 .text._ZN5Print17availableForWriteEv
                0x00000000        0x6 obj\Release\arduino\HardwareSerial1.o
 .text._ZN5Print5flushEv
                0x00000000        0x2 obj\Release\arduino\HardwareSerial1.o
 .group         0x00000000        0x8 obj\Release\arduino\HardwareSerial2.o
 .group         0x00000000        0x8 obj\Release\arduino\HardwareSerial2.o
 .text._ZN5Print17availableForWriteEv
                0x00000000        0x6 obj\Release\arduino\HardwareSerial2.o
 .text._ZN5Print5flushEv
                0x00000000        0x2 obj\Release\arduino\HardwareSerial2.o
 .group         0x00000000        0x8 obj\Release\arduino\HardwareSerial3.o
 .group         0x00000000        0x8 obj\Release\arduino\HardwareSerial3.o
 .text._ZN5Print17availableForWriteEv
                0x00000000        0x6 obj\Release\arduino\HardwareSerial3.o
 .text._ZN5Print5flushEv
                0x00000000        0x2 obj\Release\arduino\HardwareSerial3.o
 .group         0x00000000        0x8 obj\Release\arduino\IPAddress.o
 .group         0x00000000        0x8 obj\Release\arduino\Keypad.o
 .group         0x00000000        0x8 obj\Release\arduino\Keypad.o
 .group         0x00000000        0x8 obj\Release\arduino\Keypad.o
 .group         0x00000000        0x8 obj\Release\arduino\Keypad.o
 .group         0x00000000        0x8 obj\Release\arduino\LiquidCrystal_I2C.o
 .group         0x00000000        0x8 obj\Release\arduino\LiquidCrystal_I2C.o
 .group         0x00000000        0x8 obj\Release\arduino\LiquidCrystal_I2C.o
 .group         0x00000000        0x8 obj\Release\arduino\LiquidCrystal_I2C.o
 .group         0x00000000        0x8 obj\Release\arduino\LiquidCrystal_I2C.o
 .text._ZN5Print17availableForWriteEv
                0x00000000        0x6 obj\Release\arduino\LiquidCrystal_I2C.o
 .text._ZN5Print5flushEv
                0x00000000        0x2 obj\Release\arduino\LiquidCrystal_I2C.o
 .group         0x00000000        0x8 obj\Release\arduino\Print.o
 .group         0x00000000        0x8 obj\Release\arduino\Print.o
 .group         0x00000000        0x8 obj\Release\arduino\Print.o
 .group         0x00000000        0x8 obj\Release\arduino\Print.o
 .text._ZN5Print17availableForWriteEv
                0x00000000        0x6 obj\Release\arduino\Print.o
 .text._ZN5Print5flushEv
                0x00000000        0x2 obj\Release\arduino\Print.o
 .group         0x00000000        0x8 obj\Release\arduino\Wire.o
 .group         0x00000000        0x8 obj\Release\arduino\Wire.o
 .group         0x00000000        0x8 obj\Release\arduino\Wire.o
 .text._ZN5Print17availableForWriteEv
                0x00000000        0x6 obj\Release\arduino\Wire.o
 .text._ZN5Print5flushEv
                0x00000000        0x2 obj\Release\arduino\Wire.o
 .group         0x00000000        0x8 obj\Release\arduino\WString.o
 .group         0x00000000        0x8 obj\Release\arduino\WString.o
 .group         0x00000000        0x8 obj\Release\arduino\WString.o
 .group         0x00000000        0x8 obj\Release\arduino\WString.o

Memory Configuration

Name             Origin             Length             Attributes
text             0x00000000         0x00040000         xr
data             0x00800200         0x00002000         rw !x
eeprom           0x00810000         0x00001000         rw !x
fuse             0x00820000         0x00000003         rw !x
lock             0x00830000         0x00000400         rw !x
signature        0x00840000         0x00000400         rw !x
user_signatures  0x00850000         0x00000400         rw !x
*default*        0x00000000         0xffffffff

Linker script and memory map

Address of section .data set to 0x800200
LOAD c:/program files (x86)/atmel/studio/7.0/toolchain/avr8/avr8-gnu-toolchain/bin/../lib/gcc/avr/5.4.0/../../../../avr/lib/avr6/crtatmega2560.o
LOAD obj\Release\arduino\abi.o
LOAD obj\Release\arduino\CDC.o
LOAD obj\Release\arduino\dht.o
LOAD obj\Release\arduino\HardwareSerial.o
LOAD obj\Release\arduino\HardwareSerial0.o
LOAD obj\Release\arduino\HardwareSerial1.o
LOAD obj\Release\arduino\HardwareSerial2.o
LOAD obj\Release\arduino\HardwareSerial3.o
LOAD obj\Release\arduino\hooks.o
LOAD obj\Release\arduino\IPAddress.o
LOAD obj\Release\arduino\Key.o
LOAD obj\Release\arduino\Keypad.o
LOAD obj\Release\arduino\LiquidCrystal_I2C.o
LOAD obj\Release\arduino\main.o
LOAD obj\Release\arduino\new.o
LOAD obj\Release\arduino\Password.o
LOAD obj\Release\arduino\PluggableUSB.o
LOAD obj\Release\arduino\Print.o
LOAD obj\Release\arduino\Servo.o
LOAD obj\Release\arduino\Stream.o
LOAD obj\Release\arduino\Tone.o
LOAD obj\Release\arduino\USBCore.o
LOAD obj\Release\arduino\utility\twi.o
LOAD obj\Release\arduino\WInterrupts.o
LOAD obj\Release\arduino\Wire.o
LOAD obj\Release\arduino\wiring.o
LOAD obj\Release\arduino\wiring_analog.o
LOAD obj\Release\arduino\wiring_digital.o
LOAD obj\Release\arduino\wiring_pulse.o
LOAD obj\Release\arduino\wiring_shift.o
LOAD obj\Release\arduino\WMath.o
LOAD obj\Release\arduino\WString.o
LOAD obj\Release\Comfort.o
LOAD obj\Release\Doorlock.o
LOAD obj\Release\HWInputs.o
LOAD obj\Release\HWOutputs.o
LOAD obj\Release\Lights.o
LOAD obj\Release\Logic.o
LOAD obj\Release\Security.o
LOAD obj\Release\SmartHome.o
LOAD obj\Release\SWInputs.o
LOAD obj\Release\SWOutputs.o
LOAD obj\Release\WifiConn.o
LOAD c:/program files (x86)/atmel/studio/7.0/toolchain/avr8/avr8-gnu-toolchain/bin/../lib/gcc/avr/5.4.0/avr6\libgcc.a
LOAD c:/program files (x86)/atmel/studio/7.0/toolchain/avr8/avr8-gnu-toolchain/bin/../lib/gcc/avr/5.4.0/../../../../avr/lib/avr6\libm.a
START GROUP
LOAD c:/program files (x86)/atmel/studio/7.0/toolchain/avr8/avr8-gnu-toolchain/bin/../lib/gcc/avr/5.4.0/avr6\libgcc.a
LOAD c:/program files (x86)/atmel/studio/7.0/toolchain/avr8/avr8-gnu-toolchain/bin/../lib/gcc/avr/5.4.0/../../../../avr/lib/avr6\libm.a
LOAD c:/program files (x86)/atmel/studio/7.0/toolchain/avr8/avr8-gnu-toolchain/bin/../lib/gcc/avr/5.4.0/../../../../avr/lib/avr6\libc.a
LOAD c:/program files (x86)/atmel/studio/7.0/toolchain/avr8/avr8-gnu-toolchain/bin/../lib/gcc/avr/5.4.0/../../../../avr/lib/avr6\libatmega2560.a
END GROUP
                0x00000000                __TEXT_REGION_ORIGIN__ = DEFINED (__TEXT_REGION_ORIGIN__)?__TEXT_REGION_ORIGIN__:0x0
                [0x00800200]                __DATA_REGION_ORIGIN__ = DEFINED (__DATA_REGION_ORIGIN__)?__DATA_REGION_ORIGIN__:0x800200
                [0x00040000]                __TEXT_REGION_LENGTH__ = DEFINED (__TEXT_REGION_LENGTH__)?__TEXT_REGION_LENGTH__:0x100000
                [0x00002000]                __DATA_REGION_LENGTH__ = DEFINED (__DATA_REGION_LENGTH__)?__DATA_REGION_LENGTH__:0xfe00
                [0x00001000]                __EEPROM_REGION_LENGTH__ = DEFINED (__EEPROM_REGION_LENGTH__)?__EEPROM_REGION_LENGTH__:0x10000
                [0x00000003]                __FUSE_REGION_LENGTH__ = DEFINED (__FUSE_REGION_LENGTH__)?__FUSE_REGION_LENGTH__:0x400
                0x00000400                __LOCK_REGION_LENGTH__ = DEFINED (__LOCK_REGION_LENGTH__)?__LOCK_REGION_LENGTH__:0x400
                0x00000400                __SIGNATURE_REGION_LENGTH__ = DEFINED (__SIGNATURE_REGION_LENGTH__)?__SIGNATURE_REGION_LENGTH__:0x400
                0x00000400                __USER_SIGNATURE_REGION_LENGTH__ = DEFINED (__USER_SIGNATURE_REGION_LENGTH__)?__USER_SIGNATURE_REGION_LENGTH__:0x400

.hash
 *(.hash)

.dynsym
 *(.dynsym)

.dynstr
 *(.dynstr)

.gnu.version
 *(.gnu.version)

.gnu.version_d
 *(.gnu.version_d)

.gnu.version_r
 *(.gnu.version_r)

.rel.init
 *(.rel.init)

.rela.init
 *(.rela.init)

.rel.text
 *(.rel.text)
 *(.rel.text.*)
 *(.rel.gnu.linkonce.t*)

.rela.text
 *(.rela.text)
 *(.rela.text.*)
 *(.rela.gnu.linkonce.t*)

.rel.fini
 *(.rel.fini)

.rela.fini
 *(.rela.fini)

.rel.rodata
 *(.rel.rodata)
 *(.rel.rodata.*)
 *(.rel.gnu.linkonce.r*)

.rela.rodata
 *(.rela.rodata)
 *(.rela.rodata.*)
 *(.rela.gnu.linkonce.r*)

.rel.data
 *(.rel.data)
 *(.rel.data.*)
 *(.rel.gnu.linkonce.d*)

.rela.data
 *(.rela.data)
 *(.rela.data.*)
 *(.rela.gnu.linkonce.d*)

.rel.ctors
 *(.rel.ctors)

.rela.ctors
 *(.rela.ctors)

.rel.dtors
 *(.rel.dtors)

.rela.dtors
 *(.rela.dtors)

.rel.got
 *(.rel.got)

.rela.got
 *(.rela.got)

.rel.bss
 *(.rel.bss)

.rela.bss
 *(.rela.bss)

.rel.plt
 *(.rel.plt)

.rela.plt
 *(.rela.plt)

.text           0x00000000     0x948c
 *(.vectors)
 .vectors       0x00000000       0xe4 c:/program files (x86)/atmel/studio/7.0/toolchain/avr8/avr8-gnu-toolchain/bin/../lib/gcc/avr/5.4.0/../../../../avr/lib/avr6/crtatmega2560.o
                0x00000000                __vector_default
                0x00000000                __vectors
 *(.vectors)
 *(.progmem.gcc*)
 .progmem.gcc_sw_table
                0x000000e4       0x1c obj\Release\arduino\WInterrupts.o
 .progmem.gcc_sw_table
                0x00000100       0x24 obj\Release\arduino\wiring_analog.o
 .progmem.gcc_sw_table
                0x00000124       0x24 obj\Release\arduino\wiring_digital.o
                0x00000148                . = ALIGN (0x2)
                0x00000148                __trampolines_start = .
 *(.trampolines)
 .trampolines   0x00000148      0x15c linker stubs
 *(.trampolines*)
                0x000002a4                __trampolines_end = .
 *libprintf_flt.a:*(.progmem.data)
 *libc.a:*(.progmem.data)
 .progmem.data  0x000002a4       0x3b c:/program files (x86)/atmel/studio/7.0/toolchain/avr8/avr8-gnu-toolchain/bin/../lib/gcc/avr/5.4.0/../../../../avr/lib/avr6\libc.a(strtod.o)
 .progmem.data  0x000002df       0xfa c:/program files (x86)/atmel/studio/7.0/toolchain/avr8/avr8-gnu-toolchain/bin/../lib/gcc/avr/5.4.0/../../../../avr/lib/avr6\libc.a(ftoa_engine.o)
 *(.progmem*)
 .progmem.data  0x000003d9        0x1 obj\Release\arduino\Tone.o
 .progmem.data  0x000003da      0x120 obj\Release\arduino\wiring_digital.o
                0x000003da                digital_pin_to_timer_PGM
                0x00000420                digital_pin_to_bit_mask_PGM
                0x00000466                digital_pin_to_port_PGM
                0x000004ac                port_to_input_PGM
                0x000004c6                port_to_output_PGM
                0x000004e0                port_to_mode_PGM
                0x000004fa                . = ALIGN (0x2)
 *(.jumptables)
 *(.jumptables*)
 *(.lowtext)
 *(.lowtext*)
                0x000004fa                __ctors_start = .
 *(.ctors)
 .ctors         0x000004fa        0x2 obj\Release\arduino\HardwareSerial0.o
 .ctors         0x000004fc        0x2 obj\Release\arduino\HardwareSerial1.o
 .ctors         0x000004fe        0x2 obj\Release\arduino\HardwareSerial2.o
 .ctors         0x00000500        0x2 obj\Release\arduino\HardwareSerial3.o
 .ctors         0x00000502        0x2 obj\Release\arduino\Wire.o
 .ctors         0x00000504        0x2 obj\Release\HWInputs.o
 .ctors         0x00000506        0x2 obj\Release\WifiConn.o
                0x00000508                __ctors_end = .
                0x00000508                __dtors_start = .
 *(.dtors)
 .dtors         0x00000508        0x2 obj\Release\WifiConn.o
                0x0000050a                __dtors_end = .
 SORT(*)(.ctors)
 SORT(*)(.dtors)
 *(.init0)
 .init0         0x0000050a        0x0 c:/program files (x86)/atmel/studio/7.0/toolchain/avr8/avr8-gnu-toolchain/bin/../lib/gcc/avr/5.4.0/../../../../avr/lib/avr6/crtatmega2560.o
                0x0000050a                __init
 *(.init0)
 *(.init1)
 *(.init1)
 *(.init2)
 .init2         0x0000050a       0x10 c:/program files (x86)/atmel/studio/7.0/toolchain/avr8/avr8-gnu-toolchain/bin/../lib/gcc/avr/5.4.0/../../../../avr/lib/avr6/crtatmega2560.o
 *(.init2)
 *(.init3)
 *(.init3)
 *(.init4)
 .init4         0x0000051a       0x1a c:/program files (x86)/atmel/studio/7.0/toolchain/avr8/avr8-gnu-toolchain/bin/../lib/gcc/avr/5.4.0/avr6\libgcc.a(_copy_data.o)
                0x0000051a                __do_copy_data
 .init4         0x00000534       0x10 c:/program files (x86)/atmel/studio/7.0/toolchain/avr8/avr8-gnu-toolchain/bin/../lib/gcc/avr/5.4.0/avr6\libgcc.a(_clear_bss.o)
                0x00000534                __do_clear_bss
 *(.init4)
 *(.init5)
 *(.init5)
 *(.init6)
 .init6         0x00000544       0x20 c:/program files (x86)/atmel/studio/7.0/toolchain/avr8/avr8-gnu-toolchain/bin/../lib/gcc/avr/5.4.0/avr6\libgcc.a(_ctors.o)
                0x00000544                __do_global_ctors
 *(.init6)
 *(.init7)
 *(.init7)
 *(.init8)
 *(.init8)
 *(.init9)
 .init9         0x00000564        0x8 c:/program files (x86)/atmel/studio/7.0/toolchain/avr8/avr8-gnu-toolchain/bin/../lib/gcc/avr/5.4.0/../../../../avr/lib/avr6/crtatmega2560.o
 *(.init9)
 *(.text)
 .text          0x0000056c        0x4 c:/program files (x86)/atmel/studio/7.0/toolchain/avr8/avr8-gnu-toolchain/bin/../lib/gcc/avr/5.4.0/../../../../avr/lib/avr6/crtatmega2560.o
                0x0000056c                __vector_38
                0x0000056c                __vector_22
                0x0000056c                __vector_28
                0x0000056c                __vector_34
                0x0000056c                __vector_24
                0x0000056c                __vector_12
                0x0000056c                __vector_46
                0x0000056c                __bad_interrupt
                0x0000056c                __vector_31
                0x0000056c                __vector_35
                0x0000056c                __vector_30
                0x0000056c                __vector_45
                0x0000056c                __vector_11
                0x0000056c                __vector_19
                0x0000056c                __vector_56
                0x0000056c                __vector_49
                0x0000056c                __vector_41
                0x0000056c                __vector_43
                0x0000056c                __vector_27
                0x0000056c                __vector_33
                0x0000056c                __vector_44
                0x0000056c                __vector_9
                0x0000056c                __vector_21
                0x0000056c                __vector_15
                0x0000056c                __vector_29
                0x0000056c                __vector_40
                0x0000056c                __vector_48
                0x0000056c                __vector_14
                0x0000056c                __vector_53
                0x0000056c                __vector_10
                0x0000056c                __vector_50
                0x0000056c                __vector_16
                0x0000056c                __vector_18
                0x0000056c                __vector_20
 .text          0x00000570        0x8 obj\Release\arduino\abi.o
                0x00000570                __cxa_pure_virtual
                0x00000574                __cxa_deleted_virtual
 .text          0x00000578        0x0 obj\Release\arduino\CDC.o
 .text          0x00000578      0x266 obj\Release\arduino\dht.o
                0x00000578                _ZN3dht4readEh
                0x000006d0                _ZN3dht6read11Eh
                0x0000072e                _ZN3dht6read22Eh
 .text          0x000007de      0x324 obj\Release\arduino\HardwareSerial.o
                0x000007de                _ZN14HardwareSerial9availableEv
                0x000007f6                _ZN14HardwareSerial4peekEv
                0x00000812                _ZN14HardwareSerial4readEv
                0x0000083a                _ZN14HardwareSerial17availableForWriteEv
                0x00000858                _Z14serialEventRunv
                0x000008d2                _ZN14HardwareSerial17_tx_udr_empty_irqEv
                0x00000916                _ZN14HardwareSerial5writeEh
                0x000009b0                _ZN14HardwareSerial5flushEv
                0x000009f4                _ZN14HardwareSerial5beginEmh
                0x00000abe                _ZN14HardwareSerial3endEv
 .text          0x00000b02       0xd4 obj\Release\arduino\HardwareSerial0.o
                0x00000b02                __vector_25
                0x00000b6e                __vector_26
                0x00000bc2                _Z17Serial0_availablev
 .text          0x00000bd6       0xd4 obj\Release\arduino\HardwareSerial1.o
                0x00000bd6                __vector_36
                0x00000c42                __vector_37
                0x00000c96                _Z17Serial1_availablev
 .text          0x00000caa       0xd4 obj\Release\arduino\HardwareSerial2.o
                0x00000caa                __vector_51
                0x00000d16                __vector_52
                0x00000d6a                _Z17Serial2_availablev
 .text          0x00000d7e       0xd4 obj\Release\arduino\HardwareSerial3.o
                0x00000d7e                __vector_54
                0x00000dea                __vector_55
                0x00000e3e                _Z17Serial3_availablev
 .text          0x00000e52        0x2 obj\Release\arduino\hooks.o
                0x00000e52                yield
 .text          0x00000e54      0x17e obj\Release\arduino\IPAddress.o
                0x00000e54                _ZNK9IPAddress7printToER5Print
                0x00000ed8                _ZN9IPAddressC2Ev
                0x00000ed8                _ZN9IPAddressC1Ev
                0x00000eec                _ZN9IPAddressC2Ehhhh
                0x00000eec                _ZN9IPAddressC1Ehhhh
                0x00000f04                _ZN9IPAddressC2Em
                0x00000f04                _ZN9IPAddressC1Em
                0x00000f18                _ZN9IPAddressC1EPKh
                0x00000f18                _ZN9IPAddressC2EPKh
                0x00000f30                _ZN9IPAddress10fromStringEPKc
                0x00000f96                _ZN9IPAddressaSEPKh
                0x00000fa8                _ZN9IPAddressaSEm
                0x00000fb4                _ZNK9IPAddresseqEPKh
 .text          0x00000fd2       0x2c obj\Release\arduino\Key.o
                0x00000fd2                _ZN3KeyC2Ev
                0x00000fd2                _ZN3KeyC1Ev
                0x00000fde                _ZN3KeyC1Ec
                0x00000fde                _ZN3KeyC2Ec
                0x00000ff2                _ZN3Key10key_updateEc8KeyStateb
 .text          0x00000ffe      0x6d4 obj\Release\arduino\Keypad.o
                0x00000ffe                _ZN6KeypadC2EPcPhS1_hh
                0x00000ffe                _ZN6KeypadC1EPcPhS1_hh
                0x000010b8                _ZN6Keypad5beginEPc
                0x000010c4                _ZN6Keypad8scanKeysEv
                0x000012b8                _ZN6Keypad9isPressedEc
                0x000012e0                _ZN6Keypad10findInListEc
                0x000012fc                _ZN6Keypad10findInListEi
                0x0000131c                _ZN6Keypad8getStateEv
                0x00001324                _ZN6Keypad15keyStateChangedEv
                0x0000132a                _ZN6Keypad7numKeysEv
                0x0000132e                _ZN6Keypad15setDebounceTimeEj
                0x0000134a                _ZN6Keypad11setHoldTimeEj
                0x00001356                _ZN6Keypad16addEventListenerEPFvcE
                0x00001362                _ZN6Keypad12transitionToEh8KeyState
                0x000013aa                _ZN6Keypad12nextKeyStateEhb
                0x00001476                _ZN6Keypad10updateListEv
                0x00001600                _ZN6Keypad7getKeysEv
                0x0000167a                _ZN6Keypad6getKeyEv
                0x000016bc                _ZN6Keypad10waitForKeyEv
 .text          0x000016d2      0x346 obj\Release\arduino\LiquidCrystal_I2C.o
                0x000016d2                _ZN17LiquidCrystal_I2CC2Ehhh
                0x000016d2                _ZN17LiquidCrystal_I2CC1Ehhh
                0x000016ea                _ZN17LiquidCrystal_I2C8printstrEPKc
                0x000016ee                _ZN17LiquidCrystal_I2C3offEv
                0x000016f0                _ZN17LiquidCrystal_I2C2onEv
                0x000016f2                _ZN17LiquidCrystal_I2C8setDelayEii
                0x000016f4                _ZN17LiquidCrystal_I2C6statusEv
                0x000016f8                _ZN17LiquidCrystal_I2C6keypadEv
                0x000016fc                _ZN17LiquidCrystal_I2C13init_bargraphEh
                0x00001700                _ZN17LiquidCrystal_I2C21draw_horizontal_graphEhhhh
                0x00001702                _ZN17LiquidCrystal_I2C19draw_vertical_graphEhhhh
                0x00001704                _ZN17LiquidCrystal_I2C11setContrastEh
                0x00001706                _ZN17LiquidCrystal_I2C13expanderWriteEh
                0x00001734                _ZN17LiquidCrystal_I2C11noBacklightEv
                0x0000173e                _ZN17LiquidCrystal_I2C9backlightEv
                0x0000174a                _ZN17LiquidCrystal_I2C12setBacklightEh
                0x00001754                _ZN17LiquidCrystal_I2C11pulseEnableEh
                0x00001784                _ZN17LiquidCrystal_I2C10write4bitsEh
                0x000017a0                _ZN17LiquidCrystal_I2C4sendEhh
                0x000017ce                _ZN17LiquidCrystal_I2C5clearEv
                0x000017dc                _ZN17LiquidCrystal_I2C4homeEv
                0x000017ea                _ZN17LiquidCrystal_I2C9setCursorEhh
                0x00001846                _ZN17LiquidCrystal_I2C9noDisplayEv
                0x00001854                _ZN17LiquidCrystal_I2C7displayEv
                0x00001864                _ZN17LiquidCrystal_I2C8noCursorEv
                0x00001872                _ZN17LiquidCrystal_I2C10cursor_offEv
                0x00001876                _ZN17LiquidCrystal_I2C6cursorEv
                0x00001886                _ZN17LiquidCrystal_I2C9cursor_onEv
                0x0000188a                _ZN17LiquidCrystal_I2C7noBlinkEv
                0x00001898                _ZN17LiquidCrystal_I2C9blink_offEv
                0x0000189c                _ZN17LiquidCrystal_I2C5blinkEv
                0x000018ac                _ZN17LiquidCrystal_I2C8blink_onEv
                0x000018b0                _ZN17LiquidCrystal_I2C17scrollDisplayLeftEv
                0x000018b6                _ZN17LiquidCrystal_I2C18scrollDisplayRightEv
                0x000018bc                _ZN17LiquidCrystal_I2C11leftToRightEv
                0x000018cc                _ZN17LiquidCrystal_I2C11rightToLeftEv
                0x000018da                _ZN17LiquidCrystal_I2C10autoscrollEv
                0x000018ea                _ZN17LiquidCrystal_I2C12noAutoscrollEv
                0x000018f8                _ZN17LiquidCrystal_I2C10createCharEhPh
                0x00001948                _ZN17LiquidCrystal_I2C21load_custom_characterEhPh
                0x0000194c                _ZN17LiquidCrystal_I2C5beginEhhh
                0x000019f4                _ZN17LiquidCrystal_I2C9init_privEv
                0x00001a14                _ZN17LiquidCrystal_I2C4initEv
 .text          0x00001a18        0xa obj\Release\arduino\main.o
                0x00001a18                atexit
                0x00001a1e                initVariant
                0x00001a20                _Z8setupUSBv
 .text          0x00001a22       0x10 obj\Release\arduino\new.o
                0x00001a22                _Znwj
                0x00001a26                _Znaj
                0x00001a2a                _ZdlPv
                0x00001a2e                _ZdaPv
 .text          0x00001a32       0xc4 obj\Release\arduino\Password.o
                0x00001a32                _ZN8PasswordC2EPc
                0x00001a32                _ZN8PasswordC1EPc
                0x00001a3e                _ZN8Password3setEPc
                0x00001a46                _ZN8Password6appendEc
                0x00001a6a                _ZN8Password5resetEv
                0x00001a72                _ZN8Password8evaluateEv
                0x00001aa2                _ZN8Password2isEPc
                0x00001ace                _ZN8PasswordaSEPc
                0x00001ad6                _ZN8PasswordeqEPc
                0x00001ada                _ZN8PasswordneEPc
                0x00001ae4                _ZN8PasswordlsEc
 .text          0x00001af6        0x0 obj\Release\arduino\PluggableUSB.o
 .text          0x00001af6      0x590 obj\Release\arduino\Print.o
                0x00001af6                _ZN5Print5writeEPKhj
                0x00001b4a                _ZN5Print5printEPK19__FlashStringHelper
                0x00001b92                _ZN5Print5printERK6String
                0x00001bae                _ZN5Print5printEPKc
                0x00001bb2                _ZN5Print5printEc
                0x00001bc0                _ZN5Print5printERK9Printable
                0x00001bd4                _ZN5Print7printlnEv
                0x00001bdc                _ZN5Print7printlnEPK19__FlashStringHelper
                0x00001c00                _ZN5Print7printlnERK6String
                0x00001c24                _ZN5Print7printlnEPKc
                0x00001c48                _ZN5Print7printlnEc
                0x00001c6c                _ZN5Print7printlnERK9Printable
                0x00001c90                _ZN5Print11printNumberEmh
                0x00001d22                _ZN5Print5printEmi
                0x00001d3c                _ZN5Print5printEhi
                0x00001d4a                _ZN5Print7printlnEhi
                0x00001d6e                _ZN5Print5printEji
                0x00001d7a                _ZN5Print7printlnEji
                0x00001d9e                _ZN5Print7printlnEmi
                0x00001dc2                _ZN5Print5printEli
                0x00001e52                _ZN5Print5printEii
                0x00001e60                _ZN5Print7printlnEii
                0x00001e84                _ZN5Print7printlnEli
                0x00001ea8                _ZN5Print10printFloatEdh
                0x0000205e                _ZN5Print5printEdi
                0x00002062                _ZN5Print7printlnEdi
 .text          0x00002086      0x724 obj\Release\arduino\Servo.o
                0x00002214                __vector_17
                0x00002270                __vector_32
                0x000022cc                __vector_42
                0x00002328                __vector_47
                0x00002384                _ZN5ServoC2Ev
                0x00002384                _ZN5ServoC1Ev
                0x000023bc                _ZN5Servo6attachEiii
                0x00002514                _ZN5Servo6attachEi
                0x00002520                _ZN5Servo6detachEv
                0x0000253c                _ZN5Servo17writeMicrosecondsEi
                0x000025cc                _ZN5Servo5writeEi
                0x00002684                _ZN5Servo16readMicrosecondsEv
                0x000026c0                _ZN5Servo4readEv
                0x0000278a                _ZN5Servo8attachedEv
 .text          0x000027aa      0x6c0 obj\Release\arduino\Stream.o
                0x000027aa                _ZN6Stream9timedReadEv
                0x0000280a                _ZN6Stream9timedPeekEv
                0x0000286a                _ZN6Stream13peekNextDigitE13LookaheadModeb
                0x000028ea                _ZN6Stream10setTimeoutEm
                0x000028f6                _ZN6Stream8parseIntE13LookaheadModec
                0x000029c6                _ZN6Stream10parseFloatE13LookaheadModec
                0x00002af4                _ZN6Stream9readBytesEPcj
                0x00002b3e                _ZN6Stream14readBytesUntilEcPcj
                0x00002ba8                _ZN6Stream10readStringEv
                0x00002bdc                _ZN6Stream15readStringUntilEc
                0x00002c2c                _ZN6Stream9findMultiEPNS_11MultiTargetEi
                0x00002dae                _ZN6Stream4findEPcj
                0x00002db2                _ZN6Stream4findEPc
                0x00002dc6                _ZN6Stream9findUntilEPcjS0_j
                0x00002e3a                _ZN6Stream9findUntilEPcS0_
 .text          0x00002e6a      0x854 obj\Release\arduino\Tone.o
                0x00002e6a                _Z4tonehjm
                0x00003560                _Z12disableTimerh
                0x000035d4                _Z6noToneh
                0x000035fe                __vector_13
 .text          0x000036be        0x0 obj\Release\arduino\USBCore.o
 .text          0x000036be      0x4b8 obj\Release\arduino\utility\twi.o
                0x000036be                twi_init
                0x000036fa                twi_disable
                0x00003714                twi_setAddress
                0x0000371c                twi_setFrequency
                0x00003744                twi_readFrom
                0x000037d4                twi_writeTo
                0x00003880                twi_transmit
                0x000038d0                twi_attachSlaveRxEvent
                0x000038da                twi_attachSlaveTxEvent
                0x000038e4                twi_reply
                0x000038f4                twi_stop
                0x00003908                twi_releaseBus
                0x00003914                __vector_39
 .text          0x00003b76      0x3ee obj\Release\arduino\WInterrupts.o
                0x00003b78                attachInterrupt
                0x00003c60                detachInterrupt
                0x00003cb4                __vector_1
                0x00003d0a                __vector_2
                0x00003d60                __vector_3
                0x00003db6                __vector_4
                0x00003e0c                __vector_5
                0x00003e62                __vector_6
                0x00003eb8                __vector_7
                0x00003f0e                __vector_8
 .text          0x00003f64      0x310 obj\Release\arduino\Wire.o
                0x00003f64                _ZN7TwoWire9availableEv
                0x00003f74                _ZN7TwoWire4readEv
                0x00003f9c                _ZN7TwoWire4peekEv
                0x00003fba                _ZN7TwoWire5flushEv
                0x00003fbc                _ZN7TwoWire16onReceiveServiceEPhi
                0x00004010                _ZN7TwoWire16onRequestServiceEv
                0x00004028                _ZN7TwoWire5writeEPKhj
                0x00004082                _ZN7TwoWire5writeEh
                0x000040e0                _ZN7TwoWireC2Ev
                0x000040e0                _ZN7TwoWireC1Ev
                0x00004100                _ZN7TwoWire5beginEv
                0x00004124                _ZN7TwoWire5beginEh
                0x00004134                _ZN7TwoWire5beginEi
                0x00004138                _ZN7TwoWire3endEv
                0x0000413c                _ZN7TwoWire8setClockEm
                0x00004144                _ZN7TwoWire17beginTransmissionEh
                0x00004158                _ZN7TwoWire17beginTransmissionEi
                0x0000415c                _ZN7TwoWire15endTransmissionEh
                0x00004182                _ZN7TwoWire11requestFromEhhmhh
                0x0000422a                _ZN7TwoWire11requestFromEhhh
                0x0000424a                _ZN7TwoWire11requestFromEhh
                0x00004250                _ZN7TwoWire11requestFromEii
                0x00004256                _ZN7TwoWire11requestFromEiii
                0x0000425a                _ZN7TwoWire15endTransmissionEv
                0x00004260                _ZN7TwoWire9onReceiveEPFviE
                0x0000426a                _ZN7TwoWire9onRequestEPFvvE
 .text          0x00004274      0x248 obj\Release\arduino\wiring.o
                0x00004274                __vector_23
                0x00004308                millis
                0x00004320                micros
                0x0000436a                delay
                0x000043e2                delayMicroseconds
                0x000043f8                init
 .text          0x000044bc      0x1e2 obj\Release\arduino\wiring_analog.o
                0x000044bc                analogReference
                0x000044c2                analogRead
                0x0000450c                analogWrite
 .text          0x0000469e      0x1d4 obj\Release\arduino\wiring_digital.o
                0x0000474a                pinMode
                0x000047c2                digitalWrite
                0x00004820                digitalRead
 .text          0x00004872      0x1e2 obj\Release\arduino\wiring_pulse.o
                0x00004872                pulseInLong
                0x0000497c                countPulseASM
                0x000049f0                pulseIn
 .text          0x00004a54       0xe8 obj\Release\arduino\wiring_shift.o
                0x00004a54                shiftIn
                0x00004aca                shiftOut
 .text          0x00004b3c      0x116 obj\Release\arduino\WMath.o
                0x00004b3c                _Z10randomSeedm
                0x00004b4c                _Z6randoml
                0x00004b80                _Z6randomll
                0x00004bc4                _Z3maplllll
                0x00004c46                _Z8makeWordj
                0x00004c48                _Z8makeWordhh
 .text          0x00004c52     0x128a obj\Release\arduino\WString.o
                0x00004c52                _ZN6StringD2Ev
                0x00004c52                _ZN6StringD1Ev
                0x00004c5c                _ZN6String10invalidateEv
                0x00004c80                _ZN6String12changeBufferEj
                0x00004cb4                _ZN6String7reserveEj
                0x00004cec                _ZN6String4copyEPKcj
                0x00004d2e                _ZN6StringC2EPKc
                0x00004d2e                _ZN6StringC1EPKc
                0x00004d58                _ZN6String4copyEPK19__FlashStringHelperj
                0x00004d9a                _ZN6StringaSERKS_
                0x00004dc8                _ZN6StringC2ERKS_
                0x00004dc8                _ZN6StringC1ERKS_
                0x00004dda                _ZN6StringaSEPKc
                0x00004e08                _ZN6StringC1Ec
                0x00004e08                _ZN6StringC2Ec
                0x00004e3a                _ZN6StringC1Ehh
                0x00004e3a                _ZN6StringC2Ehh
                0x00004e94                _ZN6StringC1Eih
                0x00004e94                _ZN6StringC2Eih
                0x00004eec                _ZN6StringC2Ejh
                0x00004eec                _ZN6StringC1Ejh
                0x00004f44                _ZN6StringC2Elh
                0x00004f44                _ZN6StringC1Elh
                0x00004f9e                _ZN6StringC1Emh
                0x00004f9e                _ZN6StringC2Emh
                0x00004ff8                _ZN6StringC2Efh
                0x00004ff8                _ZN6StringC1Efh
                0x00005058                _ZN6StringC1Edh
                0x00005058                _ZN6StringC2Edh
                0x000050b8                _ZN6StringaSEPK19__FlashStringHelper
                0x000050ec                _ZN6StringC1EPK19__FlashStringHelper
                0x000050ec                _ZN6StringC2EPK19__FlashStringHelper
                0x000050fe                _ZN6String6concatEPKcj
                0x0000515a                _ZN6String6concatERKS_
                0x00005168                _ZN6String6concatEPKc
                0x00005186                _ZN6String6concatEc
                0x000051ae                _ZN6String6concatEh
                0x00005206                _ZN6String6concatEi
                0x00005268                _ZN6String6concatEj
                0x000052ca                _ZN6String6concatEl
                0x0000532e                _ZN6String6concatEm
                0x00005392                _ZN6String6concatEf
                0x000053f4                _ZN6String6concatEd
                0x00005456                _ZN6String6concatEPK19__FlashStringHelper
                0x000054b6                _ZplRK15StringSumHelperRK6String
                0x000054dc                _ZplRK15StringSumHelperPKc
                0x0000550e                _ZplRK15StringSumHelperc
                0x0000552a                _ZplRK15StringSumHelperh
                0x00005546                _ZplRK15StringSumHelperi
                0x00005562                _ZplRK15StringSumHelperj
                0x0000557e                _ZplRK15StringSumHelperl
                0x0000559a                _ZplRK15StringSumHelperm
                0x000055b6                _ZplRK15StringSumHelperf
                0x000055d2                _ZplRK15StringSumHelperd
                0x000055ee                _ZplRK15StringSumHelperPK19__FlashStringHelper
                0x0000560a                _ZNK6String9compareToERKS_
                0x0000566a                _ZNK6String6equalsERKS_
                0x0000568c                _ZNK6String6equalsEPKc
                0x000056ca                _ZNK6StringltERKS_
                0x000056d8                _ZNK6StringgtERKS_
                0x000056ea                _ZNK6StringleERKS_
                0x000056fc                _ZNK6StringgeERKS_
                0x0000570c                _ZNK6String16equalsIgnoreCaseERKS_
                0x0000577a                _ZNK6String10startsWithERKS_j
                0x000057c6                _ZNK6String10startsWithERKS_
                0x000057e4                _ZNK6String8endsWithERKS_
                0x00005824                _ZN6String9setCharAtEjc
                0x0000583e                _ZN6StringixEj
                0x00005862                _ZNK6StringixEj
                0x00005884                _ZNK6String6charAtEj
                0x00005888                _ZNK6String8getBytesEPhjj
                0x000058e6                _ZNK6String7indexOfEcj
                0x0000591e                _ZNK6String7indexOfEc
                0x00005926                _ZNK6String7indexOfERKS_j
                0x00005960                _ZNK6String7indexOfERKS_
                0x00005968                _ZNK6String11lastIndexOfEcj
                0x000059d6                _ZNK6String11lastIndexOfEc
                0x000059e4                _ZNK6String11lastIndexOfERKS_j
                0x00005a80                _ZNK6String11lastIndexOfERKS_
                0x00005a94                _ZNK6String9substringEjj
                0x00005b1e                _ZN6String7replaceEcc
                0x00005b3a                _ZN6String7replaceERKS_S1_
                0x00005d2e                _ZN6String6removeEjj
                0x00005d94                _ZN6String6removeEj
                0x00005d9c                _ZN6String11toLowerCaseEv
                0x00005dc4                _ZN6String11toUpperCaseEv
                0x00005dec                _ZN6String4trimEv
                0x00005eac                _ZNK6String5toIntEv
                0x00005ec2                _ZNK6String8toDoubleEv
                0x00005ed8                _ZNK6String7toFloatEv
 .text          0x00005edc      0x4e2 obj\Release\Comfort.o
                0x00005edc                _Z11ComfortInitv
                0x000060b8                _Z19ComfortMainFunctionv
 .text          0x000063be       0xc2 obj\Release\Doorlock.o
                0x000063be                _Z12DoorlockInitv
                0x00006444                _Z20DoorlockMainFunctionv
 .text          0x00006480      0xb40 obj\Release\HWInputs.o
                0x00006480                _Z12HWReadInputsPh
                0x0000648a                _Z13HWDigitalReadh
                0x000064c6                _Z9HWReadDHTPdS_
                0x00006516                _Z10lcdRefreshv
                0x00006894                _Z16passwordevaluatePc
                0x000068ce                _Z13checkpasswordv
                0x00006a44                _Z15checkpassworddlv
                0x00006c34                _Z16open_all_thetimev
                0x00006c9c                _Z6closedv
                0x00006cf0                _Z17unlock_door_eventc
                0x00006e00                _Z16motion_detectionv
                0x00006e32                _Z8disarmedv
                0x00006e7a                _Z5armedv
                0x00006ec4                _Z11keypadEventc
 .text          0x00006fc0       0x32 obj\Release\HWOutputs.o
                0x00006fc0                _Z7HWPrintPc
                0x00006fca                _Z8HWDPrintd
                0x00006fda                _Z14HWWriteOutputsPh
                0x00006fea                _Z13HWDigitalModehh
                0x00006fee                _Z14HWDigitalWritehh
 .text          0x00006ff2       0xc0 obj\Release\Lights.o
                0x00006ff2                _Z10LightsInitv
                0x00007052                _Z18LightsMainFunctionv
 .text          0x000070b2        0xc obj\Release\Logic.o
                0x000070b2                _Z12MainFunctionv
 .text          0x000070be       0xc0 obj\Release\Security.o
                0x000070be                _Z12SecurityInitv
                0x0000712e                _Z20SecurityMainFunctionv
 .text          0x0000717e       0x2e obj\Release\SmartHome.o
                0x0000717e                setup
                0x0000719c                loop
 .text          0x000071ac       0x5c obj\Release\SWInputs.o
                0x000071ac                SWReadInputs
                0x000071b6                SWDigitalRead
                0x000071da                SWReadDHT
 .text          0x00007208       0x88 obj\Release\SWOutputs.o
                0x00007208                SWPrint
                0x0000720c                SWDPrint
                0x0000722e                SWDigitalWrite
                0x00007250                SWDigitalMode
                0x00007272                SWWriteOutputs
 .text          0x00007290      0x38a obj\Release\WifiConn.o
                0x00007290                _Z10uploadDatav
                0x00007338                _Z14infoPgSecurityv
                0x00007414                _Z12infoPgLightsv
                0x000074f0                _Z13infoPgConfortv
                0x000075cc                _Z10connToWifiv
 .text          0x0000761a        0x0 c:/program files (x86)/atmel/studio/7.0/toolchain/avr8/avr8-gnu-toolchain/bin/../lib/gcc/avr/5.4.0/avr6\libgcc.a(_mulsi3.o)
 .text          0x0000761a        0x0 c:/program files (x86)/atmel/studio/7.0/toolchain/avr8/avr8-gnu-toolchain/bin/../lib/gcc/avr/5.4.0/avr6\libgcc.a(_udivmodqi4.o)
 .text          0x0000761a        0x0 c:/program files (x86)/atmel/studio/7.0/toolchain/avr8/avr8-gnu-toolchain/bin/../lib/gcc/avr/5.4.0/avr6\libgcc.a(_udivmodsi4.o)
 .text          0x0000761a        0x0 c:/program files (x86)/atmel/studio/7.0/toolchain/avr8/avr8-gnu-toolchain/bin/../lib/gcc/avr/5.4.0/avr6\libgcc.a(_divmodsi4.o)
 .text          0x0000761a        0x0 c:/program files (x86)/atmel/studio/7.0/toolchain/avr8/avr8-gnu-toolchain/bin/../lib/gcc/avr/5.4.0/avr6\libgcc.a(_negsi2.o)
 .text          0x0000761a        0x0 c:/program files (x86)/atmel/studio/7.0/toolchain/avr8/avr8-gnu-toolchain/bin/../lib/gcc/avr/5.4.0/avr6\libgcc.a(_exit.o)
 .text          0x0000761a        0x0 c:/program files (x86)/atmel/studio/7.0/toolchain/avr8/avr8-gnu-toolchain/bin/../lib/gcc/avr/5.4.0/avr6\libgcc.a(_tablejump2.o)
 .text          0x0000761a        0x0 c:/program files (x86)/atmel/studio/7.0/toolchain/avr8/avr8-gnu-toolchain/bin/../lib/gcc/avr/5.4.0/avr6\libgcc.a(_copy_data.o)
 .text          0x0000761a        0x0 c:/program files (x86)/atmel/studio/7.0/toolchain/avr8/avr8-gnu-toolchain/bin/../lib/gcc/avr/5.4.0/avr6\libgcc.a(_clear_bss.o)
 .text          0x0000761a        0x0 c:/program files (x86)/atmel/studio/7.0/toolchain/avr8/avr8-gnu-toolchain/bin/../lib/gcc/avr/5.4.0/avr6\libgcc.a(_ctors.o)
 .text          0x0000761a        0x0 c:/program files (x86)/atmel/studio/7.0/toolchain/avr8/avr8-gnu-toolchain/bin/../lib/gcc/avr/5.4.0/avr6\libgcc.a(_dtors.o)
 .text          0x0000761a        0x0 c:/program files (x86)/atmel/studio/7.0/toolchain/avr8/avr8-gnu-toolchain/bin/../lib/gcc/avr/5.4.0/avr6\libgcc.a(_muluhisi3.o)
 .text          0x0000761a        0x0 c:/program files (x86)/atmel/studio/7.0/toolchain/avr8/avr8-gnu-toolchain/bin/../lib/gcc/avr/5.4.0/avr6\libgcc.a(_umulhisi3.o)
 .text          0x0000761a        0x0 c:/program files (x86)/atmel/studio/7.0/toolchain/avr8/avr8-gnu-toolchain/bin/../lib/gcc/avr/5.4.0/../../../../avr/lib/avr6\libm.a(addsf3.o)
 .text          0x0000761a        0x0 c:/program files (x86)/atmel/studio/7.0/toolchain/avr8/avr8-gnu-toolchain/bin/../lib/gcc/avr/5.4.0/../../../../avr/lib/avr6\libm.a(addsf3x.o)
 .text          0x0000761a        0x0 c:/program files (x86)/atmel/studio/7.0/toolchain/avr8/avr8-gnu-toolchain/bin/../lib/gcc/avr/5.4.0/../../../../avr/lib/avr6\libm.a(cmpsf2.o)
 .text          0x0000761a        0x0 c:/program files (x86)/atmel/studio/7.0/toolchain/avr8/avr8-gnu-toolchain/bin/../lib/gcc/avr/5.4.0/../../../../avr/lib/avr6\libm.a(divsf3.o)
 .text          0x0000761a        0x0 c:/program files (x86)/atmel/studio/7.0/toolchain/avr8/avr8-gnu-toolchain/bin/../lib/gcc/avr/5.4.0/../../../../avr/lib/avr6\libm.a(divsf3x.o)
 .text          0x0000761a        0x0 c:/program files (x86)/atmel/studio/7.0/toolchain/avr8/avr8-gnu-toolchain/bin/../lib/gcc/avr/5.4.0/../../../../avr/lib/avr6\libm.a(fixsfsi.o)
 .text          0x0000761a        0x0 c:/program files (x86)/atmel/studio/7.0/toolchain/avr8/avr8-gnu-toolchain/bin/../lib/gcc/avr/5.4.0/../../../../avr/lib/avr6\libm.a(fixunssfsi.o)
 .text          0x0000761a        0x0 c:/program files (x86)/atmel/studio/7.0/toolchain/avr8/avr8-gnu-toolchain/bin/../lib/gcc/avr/5.4.0/../../../../avr/lib/avr6\libm.a(floatsisf.o)
 .text          0x0000761a        0x0 c:/program files (x86)/atmel/studio/7.0/toolchain/avr8/avr8-gnu-toolchain/bin/../lib/gcc/avr/5.4.0/../../../../avr/lib/avr6\libm.a(fp_cmp.o)
 .text          0x0000761a        0x0 c:/program files (x86)/atmel/studio/7.0/toolchain/avr8/avr8-gnu-toolchain/bin/../lib/gcc/avr/5.4.0/../../../../avr/lib/avr6\libm.a(fp_inf.o)
 .text          0x0000761a        0x0 c:/program files (x86)/atmel/studio/7.0/toolchain/avr8/avr8-gnu-toolchain/bin/../lib/gcc/avr/5.4.0/../../../../avr/lib/avr6\libm.a(fp_nan.o)
 .text          0x0000761a        0x0 c:/program files (x86)/atmel/studio/7.0/toolchain/avr8/avr8-gnu-toolchain/bin/../lib/gcc/avr/5.4.0/../../../../avr/lib/avr6\libm.a(fp_pscA.o)
 .text          0x0000761a        0x0 c:/program files (x86)/atmel/studio/7.0/toolchain/avr8/avr8-gnu-toolchain/bin/../lib/gcc/avr/5.4.0/../../../../avr/lib/avr6\libm.a(fp_pscB.o)
 .text          0x0000761a        0x0 c:/program files (x86)/atmel/studio/7.0/toolchain/avr8/avr8-gnu-toolchain/bin/../lib/gcc/avr/5.4.0/../../../../avr/lib/avr6\libm.a(fp_round.o)
 .text          0x0000761a        0x0 c:/program files (x86)/atmel/studio/7.0/toolchain/avr8/avr8-gnu-toolchain/bin/../lib/gcc/avr/5.4.0/../../../../avr/lib/avr6\libm.a(fp_split3.o)
 .text          0x0000761a        0x0 c:/program files (x86)/atmel/studio/7.0/toolchain/avr8/avr8-gnu-toolchain/bin/../lib/gcc/avr/5.4.0/../../../../avr/lib/avr6\libm.a(fp_zero.o)
 .text          0x0000761a        0x0 c:/program files (x86)/atmel/studio/7.0/toolchain/avr8/avr8-gnu-toolchain/bin/../lib/gcc/avr/5.4.0/../../../../avr/lib/avr6\libm.a(gesf2.o)
 .text          0x0000761a        0x0 c:/program files (x86)/atmel/studio/7.0/toolchain/avr8/avr8-gnu-toolchain/bin/../lib/gcc/avr/5.4.0/../../../../avr/lib/avr6\libm.a(mulsf3.o)
 .text          0x0000761a        0x0 c:/program files (x86)/atmel/studio/7.0/toolchain/avr8/avr8-gnu-toolchain/bin/../lib/gcc/avr/5.4.0/../../../../avr/lib/avr6\libm.a(mulsf3x.o)
 .text          0x0000761a        0x0 c:/program files (x86)/atmel/studio/7.0/toolchain/avr8/avr8-gnu-toolchain/bin/../lib/gcc/avr/5.4.0/../../../../avr/lib/avr6\libm.a(unordsf2.o)
 .text          0x0000761a        0x0 c:/program files (x86)/atmel/studio/7.0/toolchain/avr8/avr8-gnu-toolchain/bin/../lib/gcc/avr/5.4.0/../../../../avr/lib/avr6\libc.a(dtostrf.o)
 .text          0x0000761a        0x0 c:/program files (x86)/atmel/studio/7.0/toolchain/avr8/avr8-gnu-toolchain/bin/../lib/gcc/avr/5.4.0/../../../../avr/lib/avr6\libc.a(malloc.o)
 .text          0x0000761a        0x0 c:/program files (x86)/atmel/studio/7.0/toolchain/avr8/avr8-gnu-toolchain/bin/../lib/gcc/avr/5.4.0/../../../../avr/lib/avr6\libc.a(random.o)
 .text          0x0000761a        0x0 c:/program files (x86)/atmel/studio/7.0/toolchain/avr8/avr8-gnu-toolchain/bin/../lib/gcc/avr/5.4.0/../../../../avr/lib/avr6\libc.a(realloc.o)
 .text          0x0000761a        0x0 c:/program files (x86)/atmel/studio/7.0/toolchain/avr8/avr8-gnu-toolchain/bin/../lib/gcc/avr/5.4.0/../../../../avr/lib/avr6\libc.a(abort.o)
 .text          0x0000761a        0x0 c:/program files (x86)/atmel/studio/7.0/toolchain/avr8/avr8-gnu-toolchain/bin/../lib/gcc/avr/5.4.0/../../../../avr/lib/avr6\libc.a(atof.o)
 .text          0x0000761a        0x0 c:/program files (x86)/atmel/studio/7.0/toolchain/avr8/avr8-gnu-toolchain/bin/../lib/gcc/avr/5.4.0/../../../../avr/lib/avr6\libc.a(atol.o)
 .text          0x0000761a        0x0 c:/program files (x86)/atmel/studio/7.0/toolchain/avr8/avr8-gnu-toolchain/bin/../lib/gcc/avr/5.4.0/../../../../avr/lib/avr6\libc.a(isspace.o)
 .text          0x0000761a        0x0 c:/program files (x86)/atmel/studio/7.0/toolchain/avr8/avr8-gnu-toolchain/bin/../lib/gcc/avr/5.4.0/../../../../avr/lib/avr6\libc.a(tolower.o)
 .text          0x0000761a        0x0 c:/program files (x86)/atmel/studio/7.0/toolchain/avr8/avr8-gnu-toolchain/bin/../lib/gcc/avr/5.4.0/../../../../avr/lib/avr6\libc.a(toupper.o)
 .text          0x0000761a        0x0 c:/program files (x86)/atmel/studio/7.0/toolchain/avr8/avr8-gnu-toolchain/bin/../lib/gcc/avr/5.4.0/../../../../avr/lib/avr6\libc.a(strcpy_P.o)
 .text          0x0000761a        0x0 c:/program files (x86)/atmel/studio/7.0/toolchain/avr8/avr8-gnu-toolchain/bin/../lib/gcc/avr/5.4.0/../../../../avr/lib/avr6\libc.a(strlen_P.o)
 .text          0x0000761a        0x0 c:/program files (x86)/atmel/studio/7.0/toolchain/avr8/avr8-gnu-toolchain/bin/../lib/gcc/avr/5.4.0/../../../../avr/lib/avr6\libc.a(memcmp.o)
 .text          0x0000761a        0x0 c:/program files (x86)/atmel/studio/7.0/toolchain/avr8/avr8-gnu-toolchain/bin/../lib/gcc/avr/5.4.0/../../../../avr/lib/avr6\libc.a(memcpy.o)
 .text          0x0000761a        0x0 c:/program files (x86)/atmel/studio/7.0/toolchain/avr8/avr8-gnu-toolchain/bin/../lib/gcc/avr/5.4.0/../../../../avr/lib/avr6\libc.a(memmove.o)
 .text          0x0000761a        0x0 c:/program files (x86)/atmel/studio/7.0/toolchain/avr8/avr8-gnu-toolchain/bin/../lib/gcc/avr/5.4.0/../../../../avr/lib/avr6\libc.a(strchr.o)
 .text          0x0000761a        0x0 c:/program files (x86)/atmel/studio/7.0/toolchain/avr8/avr8-gnu-toolchain/bin/../lib/gcc/avr/5.4.0/../../../../avr/lib/avr6\libc.a(strcmp.o)
 .text          0x0000761a        0x0 c:/program files (x86)/atmel/studio/7.0/toolchain/avr8/avr8-gnu-toolchain/bin/../lib/gcc/avr/5.4.0/../../../../avr/lib/avr6\libc.a(strcpy.o)
 .text          0x0000761a        0x0 c:/program files (x86)/atmel/studio/7.0/toolchain/avr8/avr8-gnu-toolchain/bin/../lib/gcc/avr/5.4.0/../../../../avr/lib/avr6\libc.a(strncmp.o)
 .text          0x0000761a        0x0 c:/program files (x86)/atmel/studio/7.0/toolchain/avr8/avr8-gnu-toolchain/bin/../lib/gcc/avr/5.4.0/../../../../avr/lib/avr6\libc.a(strncpy.o)
 .text          0x0000761a        0x0 c:/program files (x86)/atmel/studio/7.0/toolchain/avr8/avr8-gnu-toolchain/bin/../lib/gcc/avr/5.4.0/../../../../avr/lib/avr6\libc.a(strrchr.o)
 .text          0x0000761a        0x0 c:/program files (x86)/atmel/studio/7.0/toolchain/avr8/avr8-gnu-toolchain/bin/../lib/gcc/avr/5.4.0/../../../../avr/lib/avr6\libc.a(strstr.o)
 .text          0x0000761a        0x0 c:/program files (x86)/atmel/studio/7.0/toolchain/avr8/avr8-gnu-toolchain/bin/../lib/gcc/avr/5.4.0/../../../../avr/lib/avr6\libc.a(itoa.o)
 .text          0x0000761a        0x0 c:/program files (x86)/atmel/studio/7.0/toolchain/avr8/avr8-gnu-toolchain/bin/../lib/gcc/avr/5.4.0/../../../../avr/lib/avr6\libc.a(itoa_ncheck.o)
 .text          0x0000761a        0x0 c:/program files (x86)/atmel/studio/7.0/toolchain/avr8/avr8-gnu-toolchain/bin/../lib/gcc/avr/5.4.0/../../../../avr/lib/avr6\libc.a(ltoa.o)
 .text          0x0000761a        0x0 c:/program files (x86)/atmel/studio/7.0/toolchain/avr8/avr8-gnu-toolchain/bin/../lib/gcc/avr/5.4.0/../../../../avr/lib/avr6\libc.a(ltoa_ncheck.o)
 .text          0x0000761a        0x0 c:/program files (x86)/atmel/studio/7.0/toolchain/avr8/avr8-gnu-toolchain/bin/../lib/gcc/avr/5.4.0/../../../../avr/lib/avr6\libc.a(mulsi10.o)
 .text          0x0000761a        0x0 c:/program files (x86)/atmel/studio/7.0/toolchain/avr8/avr8-gnu-toolchain/bin/../lib/gcc/avr/5.4.0/../../../../avr/lib/avr6\libc.a(ultoa.o)
 .text          0x0000761a        0x0 c:/program files (x86)/atmel/studio/7.0/toolchain/avr8/avr8-gnu-toolchain/bin/../lib/gcc/avr/5.4.0/../../../../avr/lib/avr6\libc.a(ultoa_ncheck.o)
 .text          0x0000761a        0x0 c:/program files (x86)/atmel/studio/7.0/toolchain/avr8/avr8-gnu-toolchain/bin/../lib/gcc/avr/5.4.0/../../../../avr/lib/avr6\libc.a(utoa.o)
 .text          0x0000761a        0x0 c:/program files (x86)/atmel/studio/7.0/toolchain/avr8/avr8-gnu-toolchain/bin/../lib/gcc/avr/5.4.0/../../../../avr/lib/avr6\libc.a(utoa_ncheck.o)
 .text          0x0000761a        0x0 c:/program files (x86)/atmel/studio/7.0/toolchain/avr8/avr8-gnu-toolchain/bin/../lib/gcc/avr/5.4.0/../../../../avr/lib/avr6\libc.a(printf.o)
 .text          0x0000761a        0x0 c:/program files (x86)/atmel/studio/7.0/toolchain/avr8/avr8-gnu-toolchain/bin/../lib/gcc/avr/5.4.0/../../../../avr/lib/avr6\libc.a(puts.o)
 .text          0x0000761a        0x0 c:/program files (x86)/atmel/studio/7.0/toolchain/avr8/avr8-gnu-toolchain/bin/../lib/gcc/avr/5.4.0/../../../../avr/lib/avr6\libc.a(vfprintf_std.o)
 .text          0x0000761a        0x0 c:/program files (x86)/atmel/studio/7.0/toolchain/avr8/avr8-gnu-toolchain/bin/../lib/gcc/avr/5.4.0/../../../../avr/lib/avr6\libc.a(dtoa_prf.o)
 .text          0x0000761a        0x0 c:/program files (x86)/atmel/studio/7.0/toolchain/avr8/avr8-gnu-toolchain/bin/../lib/gcc/avr/5.4.0/../../../../avr/lib/avr6\libc.a(strtod.o)
 .text          0x0000761a        0x0 c:/program files (x86)/atmel/studio/7.0/toolchain/avr8/avr8-gnu-toolchain/bin/../lib/gcc/avr/5.4.0/../../../../avr/lib/avr6\libc.a(ftoa_engine.o)
 .text          0x0000761a        0x0 c:/program files (x86)/atmel/studio/7.0/toolchain/avr8/avr8-gnu-toolchain/bin/../lib/gcc/avr/5.4.0/../../../../avr/lib/avr6\libc.a(cty_isfalse.o)
 .text          0x0000761a        0x0 c:/program files (x86)/atmel/studio/7.0/toolchain/avr8/avr8-gnu-toolchain/bin/../lib/gcc/avr/5.4.0/../../../../avr/lib/avr6\libc.a(strncasecmp_P.o)
 .text          0x0000761a        0x0 c:/program files (x86)/atmel/studio/7.0/toolchain/avr8/avr8-gnu-toolchain/bin/../lib/gcc/avr/5.4.0/../../../../avr/lib/avr6\libc.a(strnlen_P.o)
 .text          0x0000761a        0x0 c:/program files (x86)/atmel/studio/7.0/toolchain/avr8/avr8-gnu-toolchain/bin/../lib/gcc/avr/5.4.0/../../../../avr/lib/avr6\libc.a(strnlen.o)
 .text          0x0000761a        0x0 c:/program files (x86)/atmel/studio/7.0/toolchain/avr8/avr8-gnu-toolchain/bin/../lib/gcc/avr/5.4.0/../../../../avr/lib/avr6\libc.a(strrev.o)
 .text          0x0000761a        0x0 c:/program files (x86)/atmel/studio/7.0/toolchain/avr8/avr8-gnu-toolchain/bin/../lib/gcc/avr/5.4.0/../../../../avr/lib/avr6\libc.a(fputc.o)
 .text          0x0000761a        0x0 c:/program files (x86)/atmel/studio/7.0/toolchain/avr8/avr8-gnu-toolchain/bin/../lib/gcc/avr/5.4.0/../../../../avr/lib/avr6\libc.a(iob.o)
 .text          0x0000761a        0x0 c:/program files (x86)/atmel/studio/7.0/toolchain/avr8/avr8-gnu-toolchain/bin/../lib/gcc/avr/5.4.0/../../../../avr/lib/avr6\libc.a(ultoa_invert.o)
 .text          0x0000761a        0x0 c:/program files (x86)/atmel/studio/7.0/toolchain/avr8/avr8-gnu-toolchain/bin/../lib/gcc/avr/5.4.0/../../../../avr/lib/avr6\libc.a(errno.o)
 .text          0x0000761a        0x0 c:/program files (x86)/atmel/studio/7.0/toolchain/avr8/avr8-gnu-toolchain/bin/../lib/gcc/avr/5.4.0/avr6\libgcc.a(_mulshisi3.o)
                0x0000761a                . = ALIGN (0x2)
 *(.text.*)
 .text._ZN5Print17availableForWriteEv
                0x0000761a        0x6 obj\Release\arduino\HardwareSerial0.o
                0x0000761a                _ZN5Print17availableForWriteEv
 .text._ZN5Print5flushEv
                0x00007620        0x2 obj\Release\arduino\HardwareSerial0.o
                0x00007620                _ZN5Print5flushEv
 .text.startup  0x00007622       0x5a obj\Release\arduino\HardwareSerial0.o
 .text.startup  0x0000767c       0x5a obj\Release\arduino\HardwareSerial1.o
 .text.startup  0x000076d6       0x5a obj\Release\arduino\HardwareSerial2.o
 .text.startup  0x00007730       0x5a obj\Release\arduino\HardwareSerial3.o
 .text.startup  0x0000778a        0x2 obj\Release\arduino\IPAddress.o
 .text._ZN6Keypad8pin_readEh
                0x0000778c        0x6 obj\Release\arduino\Keypad.o
                0x0000778c                _ZN6Keypad8pin_readEh
 .text._ZN6Keypad9pin_writeEhb
                0x00007792        0x8 obj\Release\arduino\Keypad.o
                0x00007792                _ZN6Keypad9pin_writeEhb
 .text._ZN6Keypad8pin_modeEhh
                0x0000779a        0x8 obj\Release\arduino\Keypad.o
                0x0000779a                _ZN6Keypad8pin_modeEhh
 .text._ZN17LiquidCrystal_I2C7commandEh
                0x000077a2        0x6 obj\Release\arduino\LiquidCrystal_I2C.o
                0x000077a2                _ZN17LiquidCrystal_I2C7commandEh
 .text._ZN17LiquidCrystal_I2C5writeEh
                0x000077a8        0xc obj\Release\arduino\LiquidCrystal_I2C.o
                0x000077a8                _ZN17LiquidCrystal_I2C5writeEh
 .text.startup  0x000077b4       0x1e obj\Release\arduino\main.o
                0x000077b4                main
 .text._ZN5Print5writeEPKc
                0x000077d2       0x2a obj\Release\arduino\Print.o
                0x000077d2                _ZN5Print5writeEPKc
 .text.startup  0x000077fc        0x8 obj\Release\arduino\Wire.o
 .text.itoa     0x00007804        0x4 obj\Release\arduino\WString.o
 .text.ltoa     0x00007808        0x4 obj\Release\arduino\WString.o
 .text.utoa     0x0000780c        0x4 obj\Release\arduino\WString.o
 .text.ultoa    0x00007810        0x4 obj\Release\arduino\WString.o
 .text.startup  0x00007814       0x76 obj\Release\HWInputs.o
 .text.startup  0x0000788a       0x18 obj\Release\WifiConn.o
 .text.exit     0x000078a2       0x10 obj\Release\WifiConn.o
 .text.libgcc.mul
                0x000078b2       0x20 c:/program files (x86)/atmel/studio/7.0/toolchain/avr8/avr8-gnu-toolchain/bin/../lib/gcc/avr/5.4.0/avr6\libgcc.a(_mulsi3.o)
                0x000078b2                __mulsi3
 .text.libgcc.div
                0x000078d2        0x0 c:/program files (x86)/atmel/studio/7.0/toolchain/avr8/avr8-gnu-toolchain/bin/../lib/gcc/avr/5.4.0/avr6\libgcc.a(_mulsi3.o)
 .text.libgcc   0x000078d2        0x0 c:/program files (x86)/atmel/studio/7.0/toolchain/avr8/avr8-gnu-toolchain/bin/../lib/gcc/avr/5.4.0/avr6\libgcc.a(_mulsi3.o)
 .text.libgcc.prologue
                0x000078d2        0x0 c:/program files (x86)/atmel/studio/7.0/toolchain/avr8/avr8-gnu-toolchain/bin/../lib/gcc/avr/5.4.0/avr6\libgcc.a(_mulsi3.o)
 .text.libgcc.builtins
                0x000078d2        0x0 c:/program files (x86)/atmel/studio/7.0/toolchain/avr8/avr8-gnu-toolchain/bin/../lib/gcc/avr/5.4.0/avr6\libgcc.a(_mulsi3.o)
 .text.libgcc.fmul
                0x000078d2        0x0 c:/program files (x86)/atmel/studio/7.0/toolchain/avr8/avr8-gnu-toolchain/bin/../lib/gcc/avr/5.4.0/avr6\libgcc.a(_mulsi3.o)
 .text.libgcc.fixed
                0x000078d2        0x0 c:/program files (x86)/atmel/studio/7.0/toolchain/avr8/avr8-gnu-toolchain/bin/../lib/gcc/avr/5.4.0/avr6\libgcc.a(_mulsi3.o)
 .text.libgcc.mul
                0x000078d2        0x0 c:/program files (x86)/atmel/studio/7.0/toolchain/avr8/avr8-gnu-toolchain/bin/../lib/gcc/avr/5.4.0/avr6\libgcc.a(_udivmodqi4.o)
 .text.libgcc.div
                0x000078d2       0x18 c:/program files (x86)/atmel/studio/7.0/toolchain/avr8/avr8-gnu-toolchain/bin/../lib/gcc/avr/5.4.0/avr6\libgcc.a(_udivmodqi4.o)
                0x000078d2                __udivmodqi4
 .text.libgcc   0x000078ea        0x0 c:/program files (x86)/atmel/studio/7.0/toolchain/avr8/avr8-gnu-toolchain/bin/../lib/gcc/avr/5.4.0/avr6\libgcc.a(_udivmodqi4.o)
 .text.libgcc.prologue
                0x000078ea        0x0 c:/program files (x86)/atmel/studio/7.0/toolchain/avr8/avr8-gnu-toolchain/bin/../lib/gcc/avr/5.4.0/avr6\libgcc.a(_udivmodqi4.o)
 .text.libgcc.builtins
                0x000078ea        0x0 c:/program files (x86)/atmel/studio/7.0/toolchain/avr8/avr8-gnu-toolchain/bin/../lib/gcc/avr/5.4.0/avr6\libgcc.a(_udivmodqi4.o)
 .text.libgcc.fmul
                0x000078ea        0x0 c:/program files (x86)/atmel/studio/7.0/toolchain/avr8/avr8-gnu-toolchain/bin/../lib/gcc/avr/5.4.0/avr6\libgcc.a(_udivmodqi4.o)
 .text.libgcc.fixed
                0x000078ea        0x0 c:/program files (x86)/atmel/studio/7.0/toolchain/avr8/avr8-gnu-toolchain/bin/../lib/gcc/avr/5.4.0/avr6\libgcc.a(_udivmodqi4.o)
 .text.libgcc.mul
                0x000078ea        0x0 c:/program files (x86)/atmel/studio/7.0/toolchain/avr8/avr8-gnu-toolchain/bin/../lib/gcc/avr/5.4.0/avr6\libgcc.a(_udivmodsi4.o)
 .text.libgcc.div
                0x000078ea       0x44 c:/program files (x86)/atmel/studio/7.0/toolchain/avr8/avr8-gnu-toolchain/bin/../lib/gcc/avr/5.4.0/avr6\libgcc.a(_udivmodsi4.o)
                0x000078ea                __udivmodsi4
 .text.libgcc   0x0000792e        0x0 c:/program files (x86)/atmel/studio/7.0/toolchain/avr8/avr8-gnu-toolchain/bin/../lib/gcc/avr/5.4.0/avr6\libgcc.a(_udivmodsi4.o)
 .text.libgcc.prologue
                0x0000792e        0x0 c:/program files (x86)/atmel/studio/7.0/toolchain/avr8/avr8-gnu-toolchain/bin/../lib/gcc/avr/5.4.0/avr6\libgcc.a(_udivmodsi4.o)
 .text.libgcc.builtins
                0x0000792e        0x0 c:/program files (x86)/atmel/studio/7.0/toolchain/avr8/avr8-gnu-toolchain/bin/../lib/gcc/avr/5.4.0/avr6\libgcc.a(_udivmodsi4.o)
 .text.libgcc.fmul
                0x0000792e        0x0 c:/program files (x86)/atmel/studio/7.0/toolchain/avr8/avr8-gnu-toolchain/bin/../lib/gcc/avr/5.4.0/avr6\libgcc.a(_udivmodsi4.o)
 .text.libgcc.fixed
                0x0000792e        0x0 c:/program files (x86)/atmel/studio/7.0/toolchain/avr8/avr8-gnu-toolchain/bin/../lib/gcc/avr/5.4.0/avr6\libgcc.a(_udivmodsi4.o)
 .text.libgcc.mul
                0x0000792e        0x0 c:/program files (x86)/atmel/studio/7.0/toolchain/avr8/avr8-gnu-toolchain/bin/../lib/gcc/avr/5.4.0/avr6\libgcc.a(_divmodsi4.o)
 .text.libgcc.div
                0x0000792e       0x2e c:/program files (x86)/atmel/studio/7.0/toolchain/avr8/avr8-gnu-toolchain/bin/../lib/gcc/avr/5.4.0/avr6\libgcc.a(_divmodsi4.o)
                0x0000792e                __divmodsi4
 .text.libgcc   0x0000795c        0x0 c:/program files (x86)/atmel/studio/7.0/toolchain/avr8/avr8-gnu-toolchain/bin/../lib/gcc/avr/5.4.0/avr6\libgcc.a(_divmodsi4.o)
 .text.libgcc.prologue
                0x0000795c        0x0 c:/program files (x86)/atmel/studio/7.0/toolchain/avr8/avr8-gnu-toolchain/bin/../lib/gcc/avr/5.4.0/avr6\libgcc.a(_divmodsi4.o)
 .text.libgcc.builtins
                0x0000795c        0x0 c:/program files (x86)/atmel/studio/7.0/toolchain/avr8/avr8-gnu-toolchain/bin/../lib/gcc/avr/5.4.0/avr6\libgcc.a(_divmodsi4.o)
 .text.libgcc.fmul
                0x0000795c        0x0 c:/program files (x86)/atmel/studio/7.0/toolchain/avr8/avr8-gnu-toolchain/bin/../lib/gcc/avr/5.4.0/avr6\libgcc.a(_divmodsi4.o)
 .text.libgcc.fixed
                0x0000795c        0x0 c:/program files (x86)/atmel/studio/7.0/toolchain/avr8/avr8-gnu-toolchain/bin/../lib/gcc/avr/5.4.0/avr6\libgcc.a(_divmodsi4.o)
 .text.libgcc.mul
                0x0000795c        0x0 c:/program files (x86)/atmel/studio/7.0/toolchain/avr8/avr8-gnu-toolchain/bin/../lib/gcc/avr/5.4.0/avr6\libgcc.a(_negsi2.o)
 .text.libgcc.div
                0x0000795c       0x10 c:/program files (x86)/atmel/studio/7.0/toolchain/avr8/avr8-gnu-toolchain/bin/../lib/gcc/avr/5.4.0/avr6\libgcc.a(_negsi2.o)
                0x0000795c                __negsi2
 .text.libgcc   0x0000796c        0x0 c:/program files (x86)/atmel/studio/7.0/toolchain/avr8/avr8-gnu-toolchain/bin/../lib/gcc/avr/5.4.0/avr6\libgcc.a(_negsi2.o)
 .text.libgcc.prologue
                0x0000796c        0x0 c:/program files (x86)/atmel/studio/7.0/toolchain/avr8/avr8-gnu-toolchain/bin/../lib/gcc/avr/5.4.0/avr6\libgcc.a(_negsi2.o)
 .text.libgcc.builtins
                0x0000796c        0x0 c:/program files (x86)/atmel/studio/7.0/toolchain/avr8/avr8-gnu-toolchain/bin/../lib/gcc/avr/5.4.0/avr6\libgcc.a(_negsi2.o)
 .text.libgcc.fmul
                0x0000796c        0x0 c:/program files (x86)/atmel/studio/7.0/toolchain/avr8/avr8-gnu-toolchain/bin/../lib/gcc/avr/5.4.0/avr6\libgcc.a(_negsi2.o)
 .text.libgcc.fixed
                0x0000796c        0x0 c:/program files (x86)/atmel/studio/7.0/toolchain/avr8/avr8-gnu-toolchain/bin/../lib/gcc/avr/5.4.0/avr6\libgcc.a(_negsi2.o)
 .text.libgcc.mul
                0x0000796c        0x0 c:/program files (x86)/atmel/studio/7.0/toolchain/avr8/avr8-gnu-toolchain/bin/../lib/gcc/avr/5.4.0/avr6\libgcc.a(_exit.o)
 .text.libgcc.div
                0x0000796c        0x0 c:/program files (x86)/atmel/studio/7.0/toolchain/avr8/avr8-gnu-toolchain/bin/../lib/gcc/avr/5.4.0/avr6\libgcc.a(_exit.o)
 .text.libgcc   0x0000796c        0x0 c:/program files (x86)/atmel/studio/7.0/toolchain/avr8/avr8-gnu-toolchain/bin/../lib/gcc/avr/5.4.0/avr6\libgcc.a(_exit.o)
 .text.libgcc.prologue
                0x0000796c        0x0 c:/program files (x86)/atmel/studio/7.0/toolchain/avr8/avr8-gnu-toolchain/bin/../lib/gcc/avr/5.4.0/avr6\libgcc.a(_exit.o)
 .text.libgcc.builtins
                0x0000796c        0x0 c:/program files (x86)/atmel/studio/7.0/toolchain/avr8/avr8-gnu-toolchain/bin/../lib/gcc/avr/5.4.0/avr6\libgcc.a(_exit.o)
 .text.libgcc.fmul
                0x0000796c        0x0 c:/program files (x86)/atmel/studio/7.0/toolchain/avr8/avr8-gnu-toolchain/bin/../lib/gcc/avr/5.4.0/avr6\libgcc.a(_exit.o)
 .text.libgcc.fixed
                0x0000796c        0x0 c:/program files (x86)/atmel/studio/7.0/toolchain/avr8/avr8-gnu-toolchain/bin/../lib/gcc/avr/5.4.0/avr6\libgcc.a(_exit.o)
 .text.libgcc.mul
                0x0000796c        0x0 c:/program files (x86)/atmel/studio/7.0/toolchain/avr8/avr8-gnu-toolchain/bin/../lib/gcc/avr/5.4.0/avr6\libgcc.a(_tablejump2.o)
 .text.libgcc.div
                0x0000796c        0x0 c:/program files (x86)/atmel/studio/7.0/toolchain/avr8/avr8-gnu-toolchain/bin/../lib/gcc/avr/5.4.0/avr6\libgcc.a(_tablejump2.o)
 .text.libgcc   0x0000796c       0x10 c:/program files (x86)/atmel/studio/7.0/toolchain/avr8/avr8-gnu-toolchain/bin/../lib/gcc/avr/5.4.0/avr6\libgcc.a(_tablejump2.o)
                0x0000796c                __tablejump2__
 .text.libgcc.prologue
                0x0000797c        0x0 c:/program files (x86)/atmel/studio/7.0/toolchain/avr8/avr8-gnu-toolchain/bin/../lib/gcc/avr/5.4.0/avr6\libgcc.a(_tablejump2.o)
 .text.libgcc.builtins
                0x0000797c        0x0 c:/program files (x86)/atmel/studio/7.0/toolchain/avr8/avr8-gnu-toolchain/bin/../lib/gcc/avr/5.4.0/avr6\libgcc.a(_tablejump2.o)
 .text.libgcc.fmul
                0x0000797c        0x0 c:/program files (x86)/atmel/studio/7.0/toolchain/avr8/avr8-gnu-toolchain/bin/../lib/gcc/avr/5.4.0/avr6\libgcc.a(_tablejump2.o)
 .text.libgcc.fixed
                0x0000797c        0x0 c:/program files (x86)/atmel/studio/7.0/toolchain/avr8/avr8-gnu-toolchain/bin/../lib/gcc/avr/5.4.0/avr6\libgcc.a(_tablejump2.o)
 .text.libgcc.mul
                0x0000797c        0x0 c:/program files (x86)/atmel/studio/7.0/toolchain/avr8/avr8-gnu-toolchain/bin/../lib/gcc/avr/5.4.0/avr6\libgcc.a(_copy_data.o)
 .text.libgcc.div
                0x0000797c        0x0 c:/program files (x86)/atmel/studio/7.0/toolchain/avr8/avr8-gnu-toolchain/bin/../lib/gcc/avr/5.4.0/avr6\libgcc.a(_copy_data.o)
 .text.libgcc   0x0000797c        0x0 c:/program files (x86)/atmel/studio/7.0/toolchain/avr8/avr8-gnu-toolchain/bin/../lib/gcc/avr/5.4.0/avr6\libgcc.a(_copy_data.o)
 .text.libgcc.prologue
                0x0000797c        0x0 c:/program files (x86)/atmel/studio/7.0/toolchain/avr8/avr8-gnu-toolchain/bin/../lib/gcc/avr/5.4.0/avr6\libgcc.a(_copy_data.o)
 .text.libgcc.builtins
                0x0000797c        0x0 c:/program files (x86)/atmel/studio/7.0/toolchain/avr8/avr8-gnu-toolchain/bin/../lib/gcc/avr/5.4.0/avr6\libgcc.a(_copy_data.o)
 .text.libgcc.fmul
                0x0000797c        0x0 c:/program files (x86)/atmel/studio/7.0/toolchain/avr8/avr8-gnu-toolchain/bin/../lib/gcc/avr/5.4.0/avr6\libgcc.a(_copy_data.o)
 .text.libgcc.fixed
                0x0000797c        0x0 c:/program files (x86)/atmel/studio/7.0/toolchain/avr8/avr8-gnu-toolchain/bin/../lib/gcc/avr/5.4.0/avr6\libgcc.a(_copy_data.o)
 .text.libgcc.mul
                0x0000797c        0x0 c:/program files (x86)/atmel/studio/7.0/toolchain/avr8/avr8-gnu-toolchain/bin/../lib/gcc/avr/5.4.0/avr6\libgcc.a(_clear_bss.o)
 .text.libgcc.div
                0x0000797c        0x0 c:/program files (x86)/atmel/studio/7.0/toolchain/avr8/avr8-gnu-toolchain/bin/../lib/gcc/avr/5.4.0/avr6\libgcc.a(_clear_bss.o)
 .text.libgcc   0x0000797c        0x0 c:/program files (x86)/atmel/studio/7.0/toolchain/avr8/avr8-gnu-toolchain/bin/../lib/gcc/avr/5.4.0/avr6\libgcc.a(_clear_bss.o)
 .text.libgcc.prologue
                0x0000797c        0x0 c:/program files (x86)/atmel/studio/7.0/toolchain/avr8/avr8-gnu-toolchain/bin/../lib/gcc/avr/5.4.0/avr6\libgcc.a(_clear_bss.o)
 .text.libgcc.builtins
                0x0000797c        0x0 c:/program files (x86)/atmel/studio/7.0/toolchain/avr8/avr8-gnu-toolchain/bin/../lib/gcc/avr/5.4.0/avr6\libgcc.a(_clear_bss.o)
 .text.libgcc.fmul
                0x0000797c        0x0 c:/program files (x86)/atmel/studio/7.0/toolchain/avr8/avr8-gnu-toolchain/bin/../lib/gcc/avr/5.4.0/avr6\libgcc.a(_clear_bss.o)
 .text.libgcc.fixed
                0x0000797c        0x0 c:/program files (x86)/atmel/studio/7.0/toolchain/avr8/avr8-gnu-toolchain/bin/../lib/gcc/avr/5.4.0/avr6\libgcc.a(_clear_bss.o)
 .text.libgcc.mul
                0x0000797c        0x0 c:/program files (x86)/atmel/studio/7.0/toolchain/avr8/avr8-gnu-toolchain/bin/../lib/gcc/avr/5.4.0/avr6\libgcc.a(_ctors.o)
 .text.libgcc.div
                0x0000797c        0x0 c:/program files (x86)/atmel/studio/7.0/toolchain/avr8/avr8-gnu-toolchain/bin/../lib/gcc/avr/5.4.0/avr6\libgcc.a(_ctors.o)
 .text.libgcc   0x0000797c        0x0 c:/program files (x86)/atmel/studio/7.0/toolchain/avr8/avr8-gnu-toolchain/bin/../lib/gcc/avr/5.4.0/avr6\libgcc.a(_ctors.o)
 .text.libgcc.prologue
                0x0000797c        0x0 c:/program files (x86)/atmel/studio/7.0/toolchain/avr8/avr8-gnu-toolchain/bin/../lib/gcc/avr/5.4.0/avr6\libgcc.a(_ctors.o)
 .text.libgcc.builtins
                0x0000797c        0x0 c:/program files (x86)/atmel/studio/7.0/toolchain/avr8/avr8-gnu-toolchain/bin/../lib/gcc/avr/5.4.0/avr6\libgcc.a(_ctors.o)
 .text.libgcc.fmul
                0x0000797c        0x0 c:/program files (x86)/atmel/studio/7.0/toolchain/avr8/avr8-gnu-toolchain/bin/../lib/gcc/avr/5.4.0/avr6\libgcc.a(_ctors.o)
 .text.libgcc.fixed
                0x0000797c        0x0 c:/program files (x86)/atmel/studio/7.0/toolchain/avr8/avr8-gnu-toolchain/bin/../lib/gcc/avr/5.4.0/avr6\libgcc.a(_ctors.o)
 .text.libgcc.mul
                0x0000797c        0x0 c:/program files (x86)/atmel/studio/7.0/toolchain/avr8/avr8-gnu-toolchain/bin/../lib/gcc/avr/5.4.0/avr6\libgcc.a(_dtors.o)
 .text.libgcc.div
                0x0000797c        0x0 c:/program files (x86)/atmel/studio/7.0/toolchain/avr8/avr8-gnu-toolchain/bin/../lib/gcc/avr/5.4.0/avr6\libgcc.a(_dtors.o)
 .text.libgcc   0x0000797c        0x0 c:/program files (x86)/atmel/studio/7.0/toolchain/avr8/avr8-gnu-toolchain/bin/../lib/gcc/avr/5.4.0/avr6\libgcc.a(_dtors.o)
 .text.libgcc.prologue
                0x0000797c        0x0 c:/program files (x86)/atmel/studio/7.0/toolchain/avr8/avr8-gnu-toolchain/bin/../lib/gcc/avr/5.4.0/avr6\libgcc.a(_dtors.o)
 .text.libgcc.builtins
                0x0000797c        0x0 c:/program files (x86)/atmel/studio/7.0/toolchain/avr8/avr8-gnu-toolchain/bin/../lib/gcc/avr/5.4.0/avr6\libgcc.a(_dtors.o)
 .text.libgcc.fmul
                0x0000797c        0x0 c:/program files (x86)/atmel/studio/7.0/toolchain/avr8/avr8-gnu-toolchain/bin/../lib/gcc/avr/5.4.0/avr6\libgcc.a(_dtors.o)
 .text.libgcc.fixed
                0x0000797c        0x0 c:/program files (x86)/atmel/studio/7.0/toolchain/avr8/avr8-gnu-toolchain/bin/../lib/gcc/avr/5.4.0/avr6\libgcc.a(_dtors.o)
 .text.libgcc.mul
                0x0000797c       0x16 c:/program files (x86)/atmel/studio/7.0/toolchain/avr8/avr8-gnu-toolchain/bin/../lib/gcc/avr/5.4.0/avr6\libgcc.a(_muluhisi3.o)
                0x0000797c                __muluhisi3
 .text.libgcc.div
                0x00007992        0x0 c:/program files (x86)/atmel/studio/7.0/toolchain/avr8/avr8-gnu-toolchain/bin/../lib/gcc/avr/5.4.0/avr6\libgcc.a(_muluhisi3.o)
 .text.libgcc   0x00007992        0x0 c:/program files (x86)/atmel/studio/7.0/toolchain/avr8/avr8-gnu-toolchain/bin/../lib/gcc/avr/5.4.0/avr6\libgcc.a(_muluhisi3.o)
 .text.libgcc.prologue
                0x00007992        0x0 c:/program files (x86)/atmel/studio/7.0/toolchain/avr8/avr8-gnu-toolchain/bin/../lib/gcc/avr/5.4.0/avr6\libgcc.a(_muluhisi3.o)
 .text.libgcc.builtins
                0x00007992        0x0 c:/program files (x86)/atmel/studio/7.0/toolchain/avr8/avr8-gnu-toolchain/bin/../lib/gcc/avr/5.4.0/avr6\libgcc.a(_muluhisi3.o)
 .text.libgcc.fmul
                0x00007992        0x0 c:/program files (x86)/atmel/studio/7.0/toolchain/avr8/avr8-gnu-toolchain/bin/../lib/gcc/avr/5.4.0/avr6\libgcc.a(_muluhisi3.o)
 .text.libgcc.fixed
                0x00007992        0x0 c:/program files (x86)/atmel/studio/7.0/toolchain/avr8/avr8-gnu-toolchain/bin/../lib/gcc/avr/5.4.0/avr6\libgcc.a(_muluhisi3.o)
 .text.libgcc.mul
                0x00007992       0x1e c:/program files (x86)/atmel/studio/7.0/toolchain/avr8/avr8-gnu-toolchain/bin/../lib/gcc/avr/5.4.0/avr6\libgcc.a(_umulhisi3.o)
                0x00007992                __umulhisi3
 .text.libgcc.div
                0x000079b0        0x0 c:/program files (x86)/atmel/studio/7.0/toolchain/avr8/avr8-gnu-toolchain/bin/../lib/gcc/avr/5.4.0/avr6\libgcc.a(_umulhisi3.o)
 .text.libgcc   0x000079b0        0x0 c:/program files (x86)/atmel/studio/7.0/toolchain/avr8/avr8-gnu-toolchain/bin/../lib/gcc/avr/5.4.0/avr6\libgcc.a(_umulhisi3.o)
 .text.libgcc.prologue
                0x000079b0        0x0 c:/program files (x86)/atmel/studio/7.0/toolchain/avr8/avr8-gnu-toolchain/bin/../lib/gcc/avr/5.4.0/avr6\libgcc.a(_umulhisi3.o)
 .text.libgcc.builtins
                0x000079b0        0x0 c:/program files (x86)/atmel/studio/7.0/toolchain/avr8/avr8-gnu-toolchain/bin/../lib/gcc/avr/5.4.0/avr6\libgcc.a(_umulhisi3.o)
 .text.libgcc.fmul
                0x000079b0        0x0 c:/program files (x86)/atmel/studio/7.0/toolchain/avr8/avr8-gnu-toolchain/bin/../lib/gcc/avr/5.4.0/avr6\libgcc.a(_umulhisi3.o)
 .text.libgcc.fixed
                0x000079b0        0x0 c:/program files (x86)/atmel/studio/7.0/toolchain/avr8/avr8-gnu-toolchain/bin/../lib/gcc/avr/5.4.0/avr6\libgcc.a(_umulhisi3.o)
 .text.avr-libc.fplib
                0x000079b0        0xe c:/program files (x86)/atmel/studio/7.0/toolchain/avr8/avr8-gnu-toolchain/bin/../lib/gcc/avr/5.4.0/../../../../avr/lib/avr6\libm.a(addsf3.o)
                0x000079b0                __subsf3
                0x000079b2                __addsf3
 .text.avr-libc.fplib
                0x000079be       0xcc c:/program files (x86)/atmel/studio/7.0/toolchain/avr8/avr8-gnu-toolchain/bin/../lib/gcc/avr/5.4.0/../../../../avr/lib/avr6\libm.a(addsf3x.o)
                0x000079e0                __addsf3x
 .text.avr-libc.fplib
                0x00007a8a        0xa c:/program files (x86)/atmel/studio/7.0/toolchain/avr8/avr8-gnu-toolchain/bin/../lib/gcc/avr/5.4.0/../../../../avr/lib/avr6\libm.a(cmpsf2.o)
                0x00007a8a                __nesf2
                0x00007a8a                __eqsf2
                0x00007a8a                __cmpsf2
                0x00007a8a                __ltsf2
                0x00007a8a                __lesf2
 .text.avr-libc.fplib
                0x00007a94        0x8 c:/program files (x86)/atmel/studio/7.0/toolchain/avr8/avr8-gnu-toolchain/bin/../lib/gcc/avr/5.4.0/../../../../avr/lib/avr6\libm.a(divsf3.o)
                0x00007a94                __divsf3
 .text.avr-libc.fplib
                0x00007a9c       0xdc c:/program files (x86)/atmel/studio/7.0/toolchain/avr8/avr8-gnu-toolchain/bin/../lib/gcc/avr/5.4.0/../../../../avr/lib/avr6\libm.a(divsf3x.o)
                0x00007abc                __divsf3x
                0x00007ac2                __divsf3_pse
 .text.avr-libc.fplib
                0x00007b78        0xe c:/program files (x86)/atmel/studio/7.0/toolchain/avr8/avr8-gnu-toolchain/bin/../lib/gcc/avr/5.4.0/../../../../avr/lib/avr6\libm.a(fixsfsi.o)
                0x00007b78                __fixsfsi
 .text.avr-libc.fplib
                0x00007b86       0x5e c:/program files (x86)/atmel/studio/7.0/toolchain/avr8/avr8-gnu-toolchain/bin/../lib/gcc/avr/5.4.0/../../../../avr/lib/avr6\libm.a(fixunssfsi.o)
                0x00007b86                __fixunssfsi
 .text.avr-libc.fplib
                0x00007be4       0x7a c:/program files (x86)/atmel/studio/7.0/toolchain/avr8/avr8-gnu-toolchain/bin/../lib/gcc/avr/5.4.0/../../../../avr/lib/avr6\libm.a(floatsisf.o)
                0x00007be4                __floatunsisf
                0x00007be8                __floatsisf
 .text.avr-libc.fplib
                0x00007c5e       0x48 c:/program files (x86)/atmel/studio/7.0/toolchain/avr8/avr8-gnu-toolchain/bin/../lib/gcc/avr/5.4.0/../../../../avr/lib/avr6\libm.a(fp_cmp.o)
                0x00007c5e                __fp_cmp
 .text.avr-libc.fplib
                0x00007ca6        0xc c:/program files (x86)/atmel/studio/7.0/toolchain/avr8/avr8-gnu-toolchain/bin/../lib/gcc/avr/5.4.0/../../../../avr/lib/avr6\libm.a(fp_inf.o)
                0x00007ca6                __fp_inf
 .text.avr-libc.fplib
                0x00007cb2        0x6 c:/program files (x86)/atmel/studio/7.0/toolchain/avr8/avr8-gnu-toolchain/bin/../lib/gcc/avr/5.4.0/../../../../avr/lib/avr6\libm.a(fp_nan.o)
                0x00007cb2                __fp_nan
 .text.avr-libc.fplib
                0x00007cb8        0xe c:/program files (x86)/atmel/studio/7.0/toolchain/avr8/avr8-gnu-toolchain/bin/../lib/gcc/avr/5.4.0/../../../../avr/lib/avr6\libm.a(fp_pscA.o)
                0x00007cb8                __fp_pscA
 .text.avr-libc.fplib
                0x00007cc6        0xe c:/program files (x86)/atmel/studio/7.0/toolchain/avr8/avr8-gnu-toolchain/bin/../lib/gcc/avr/5.4.0/../../../../avr/lib/avr6\libm.a(fp_pscB.o)
                0x00007cc6                __fp_pscB
 .text.avr-libc.fplib
                0x00007cd4       0x22 c:/program files (x86)/atmel/studio/7.0/toolchain/avr8/avr8-gnu-toolchain/bin/../lib/gcc/avr/5.4.0/../../../../avr/lib/avr6\libm.a(fp_round.o)
                0x00007cd4                __fp_round
 .text.avr-libc.fplib
                0x00007cf6       0x44 c:/program files (x86)/atmel/studio/7.0/toolchain/avr8/avr8-gnu-toolchain/bin/../lib/gcc/avr/5.4.0/../../../../avr/lib/avr6\libm.a(fp_split3.o)
                0x00007cf6                __fp_split3
                0x00007d06                __fp_splitA
 .text.avr-libc.fplib
                0x00007d3a        0xe c:/program files (x86)/atmel/studio/7.0/toolchain/avr8/avr8-gnu-toolchain/bin/../lib/gcc/avr/5.4.0/../../../../avr/lib/avr6\libm.a(fp_zero.o)
                0x00007d3a                __fp_zero
                0x00007d3c                __fp_szero
 .text.avr-libc.fplib
                0x00007d48        0xa c:/program files (x86)/atmel/studio/7.0/toolchain/avr8/avr8-gnu-toolchain/bin/../lib/gcc/avr/5.4.0/../../../../avr/lib/avr6\libm.a(gesf2.o)
                0x00007d48                __gesf2
                0x00007d48                __gtsf2
 .text.avr-libc.fplib
                0x00007d52        0x8 c:/program files (x86)/atmel/studio/7.0/toolchain/avr8/avr8-gnu-toolchain/bin/../lib/gcc/avr/5.4.0/../../../../avr/lib/avr6\libm.a(mulsf3.o)
                0x00007d52                __mulsf3
 .text.avr-libc.fplib
                0x00007d5a       0xd2 c:/program files (x86)/atmel/studio/7.0/toolchain/avr8/avr8-gnu-toolchain/bin/../lib/gcc/avr/5.4.0/../../../../avr/lib/avr6\libm.a(mulsf3x.o)
                0x00007d78                __mulsf3x
                0x00007d7e                __mulsf3_pse
 .text.avr-libc.fplib
                0x00007e2c        0xa c:/program files (x86)/atmel/studio/7.0/toolchain/avr8/avr8-gnu-toolchain/bin/../lib/gcc/avr/5.4.0/../../../../avr/lib/avr6\libm.a(unordsf2.o)
                0x00007e2c                __unordsf2
 .text.avr-libc
                0x00007e36       0x40 c:/program files (x86)/atmel/studio/7.0/toolchain/avr8/avr8-gnu-toolchain/bin/../lib/gcc/avr/5.4.0/../../../../avr/lib/avr6\libc.a(dtostrf.o)
                0x00007e36                dtostrf
 .text.avr-libc
                0x00007e76      0x242 c:/program files (x86)/atmel/studio/7.0/toolchain/avr8/avr8-gnu-toolchain/bin/../lib/gcc/avr/5.4.0/../../../../avr/lib/avr6\libc.a(malloc.o)
                0x00007e76                malloc
                0x00007fa6                free
 .text.avr-libc
                0x000080b8      0x144 c:/program files (x86)/atmel/studio/7.0/toolchain/avr8/avr8-gnu-toolchain/bin/../lib/gcc/avr/5.4.0/../../../../avr/lib/avr6\libc.a(random.o)
                0x000080b8                random_r
                0x0000814e                random
                0x000081ea                srandom
 .text.avr-libc
                0x000081fc      0x1ca c:/program files (x86)/atmel/studio/7.0/toolchain/avr8/avr8-gnu-toolchain/bin/../lib/gcc/avr/5.4.0/../../../../avr/lib/avr6\libc.a(realloc.o)
                0x000081fc                realloc
 .text.avr-libc
                0x000083c6        0xa c:/program files (x86)/atmel/studio/7.0/toolchain/avr8/avr8-gnu-toolchain/bin/../lib/gcc/avr/5.4.0/../../../../avr/lib/avr6\libc.a(abort.o)
                0x000083c6                abort
 .text.avr-libc
                0x000083d0        0x8 c:/program files (x86)/atmel/studio/7.0/toolchain/avr8/avr8-gnu-toolchain/bin/../lib/gcc/avr/5.4.0/../../../../avr/lib/avr6\libc.a(atof.o)
                0x000083d0                atof
 .text.avr-libc
                0x000083d8       0x4e c:/program files (x86)/atmel/studio/7.0/toolchain/avr8/avr8-gnu-toolchain/bin/../lib/gcc/avr/5.4.0/../../../../avr/lib/avr6\libc.a(atol.o)
                0x000083d8                atol
 .text.avr-libc
                0x00008426       0x12 c:/program files (x86)/atmel/studio/7.0/toolchain/avr8/avr8-gnu-toolchain/bin/../lib/gcc/avr/5.4.0/../../../../avr/lib/avr6\libc.a(isspace.o)
                0x00008426                isspace
 .text.avr-libc
                0x00008438       0x10 c:/program files (x86)/atmel/studio/7.0/toolchain/avr8/avr8-gnu-toolchain/bin/../lib/gcc/avr/5.4.0/../../../../avr/lib/avr6\libc.a(tolower.o)
                0x00008438                tolower
 .text.avr-libc
                0x00008448       0x10 c:/program files (x86)/atmel/studio/7.0/toolchain/avr8/avr8-gnu-toolchain/bin/../lib/gcc/avr/5.4.0/../../../../avr/lib/avr6\libc.a(toupper.o)
                0x00008448                toupper
 .text.avr-libc
                0x00008458        0xe c:/program files (x86)/atmel/studio/7.0/toolchain/avr8/avr8-gnu-toolchain/bin/../lib/gcc/avr/5.4.0/../../../../avr/lib/avr6\libc.a(strcpy_P.o)
                0x00008458                strcpy_P
 .text.avr-libc
                0x00008466       0x12 c:/program files (x86)/atmel/studio/7.0/toolchain/avr8/avr8-gnu-toolchain/bin/../lib/gcc/avr/5.4.0/../../../../avr/lib/avr6\libc.a(strlen_P.o)
                0x00008466                __strlen_P
 .text.avr-libc
                0x00008478       0x1a c:/program files (x86)/atmel/studio/7.0/toolchain/avr8/avr8-gnu-toolchain/bin/../lib/gcc/avr/5.4.0/../../../../avr/lib/avr6\libc.a(memcmp.o)
                0x00008478                memcmp
 .text.avr-libc
                0x00008492       0x12 c:/program files (x86)/atmel/studio/7.0/toolchain/avr8/avr8-gnu-toolchain/bin/../lib/gcc/avr/5.4.0/../../../../avr/lib/avr6\libc.a(memcpy.o)
                0x00008492                memcpy
 .text.avr-libc
                0x000084a4       0x24 c:/program files (x86)/atmel/studio/7.0/toolchain/avr8/avr8-gnu-toolchain/bin/../lib/gcc/avr/5.4.0/../../../../avr/lib/avr6\libc.a(memmove.o)
                0x000084a4                memmove
 .text.avr-libc
                0x000084c8       0x16 c:/program files (x86)/atmel/studio/7.0/toolchain/avr8/avr8-gnu-toolchain/bin/../lib/gcc/avr/5.4.0/../../../../avr/lib/avr6\libc.a(strchr.o)
                0x000084c8                strchr
 .text.avr-libc
                0x000084de       0x12 c:/program files (x86)/atmel/studio/7.0/toolchain/avr8/avr8-gnu-toolchain/bin/../lib/gcc/avr/5.4.0/../../../../avr/lib/avr6\libc.a(strcmp.o)
                0x000084de                strcmp
 .text.avr-libc
                0x000084f0        0xe c:/program files (x86)/atmel/studio/7.0/toolchain/avr8/avr8-gnu-toolchain/bin/../lib/gcc/avr/5.4.0/../../../../avr/lib/avr6\libc.a(strcpy.o)
                0x000084f0                strcpy
 .text.avr-libc
                0x000084fe       0x1c c:/program files (x86)/atmel/studio/7.0/toolchain/avr8/avr8-gnu-toolchain/bin/../lib/gcc/avr/5.4.0/../../../../avr/lib/avr6\libc.a(strncmp.o)
                0x000084fe                strncmp
 .text.avr-libc
                0x0000851a       0x1e c:/program files (x86)/atmel/studio/7.0/toolchain/avr8/avr8-gnu-toolchain/bin/../lib/gcc/avr/5.4.0/../../../../avr/lib/avr6\libc.a(strncpy.o)
                0x0000851a                strncpy
 .text.avr-libc
                0x00008538       0x16 c:/program files (x86)/atmel/studio/7.0/toolchain/avr8/avr8-gnu-toolchain/bin/../lib/gcc/avr/5.4.0/../../../../avr/lib/avr6\libc.a(strrchr.o)
                0x00008538                strrchr
 .text.avr-libc
                0x0000854e       0x34 c:/program files (x86)/atmel/studio/7.0/toolchain/avr8/avr8-gnu-toolchain/bin/../lib/gcc/avr/5.4.0/../../../../avr/lib/avr6\libc.a(strstr.o)
                0x0000854e                strstr
 .text.avr-libc
                0x00008582       0x16 c:/program files (x86)/atmel/studio/7.0/toolchain/avr8/avr8-gnu-toolchain/bin/../lib/gcc/avr/5.4.0/../../../../avr/lib/avr6\libc.a(itoa.o)
                0x00008582                __itoa
                0x00008582                itoa
 .text.avr-libc
                0x00008598       0x16 c:/program files (x86)/atmel/studio/7.0/toolchain/avr8/avr8-gnu-toolchain/bin/../lib/gcc/avr/5.4.0/../../../../avr/lib/avr6\libc.a(itoa_ncheck.o)
                0x00008598                __itoa_ncheck
 .text.avr-libc
                0x000085ae       0x16 c:/program files (x86)/atmel/studio/7.0/toolchain/avr8/avr8-gnu-toolchain/bin/../lib/gcc/avr/5.4.0/../../../../avr/lib/avr6\libc.a(ltoa.o)
                0x000085ae                ltoa
                0x000085ae                __ltoa
 .text.avr-libc
                0x000085c4       0x1e c:/program files (x86)/atmel/studio/7.0/toolchain/avr8/avr8-gnu-toolchain/bin/../lib/gcc/avr/5.4.0/../../../../avr/lib/avr6\libc.a(ltoa_ncheck.o)
                0x000085c4                __ltoa_ncheck
 .text.avr-libc
                0x000085e2       0x2a c:/program files (x86)/atmel/studio/7.0/toolchain/avr8/avr8-gnu-toolchain/bin/../lib/gcc/avr/5.4.0/../../../../avr/lib/avr6\libc.a(mulsi10.o)
                0x000085e2                __mulsi_const_10
 .text.avr-libc
                0x0000860c       0x16 c:/program files (x86)/atmel/studio/7.0/toolchain/avr8/avr8-gnu-toolchain/bin/../lib/gcc/avr/5.4.0/../../../../avr/lib/avr6\libc.a(ultoa.o)
                0x0000860c                ultoa
                0x0000860c                __ultoa
 .text.avr-libc
                0x00008622       0x44 c:/program files (x86)/atmel/studio/7.0/toolchain/avr8/avr8-gnu-toolchain/bin/../lib/gcc/avr/5.4.0/../../../../avr/lib/avr6\libc.a(ultoa_ncheck.o)
                0x00008622                __ultoa_ncheck
                0x00008624                __ultoa_common
 .text.avr-libc
                0x00008666       0x16 c:/program files (x86)/atmel/studio/7.0/toolchain/avr8/avr8-gnu-toolchain/bin/../lib/gcc/avr/5.4.0/../../../../avr/lib/avr6\libc.a(utoa.o)
                0x00008666                __utoa
                0x00008666                utoa
 .text.avr-libc
                0x0000867c       0x34 c:/program files (x86)/atmel/studio/7.0/toolchain/avr8/avr8-gnu-toolchain/bin/../lib/gcc/avr/5.4.0/../../../../avr/lib/avr6\libc.a(utoa_ncheck.o)
                0x0000867c                __utoa_ncheck
                0x0000867e                __utoa_common
 .text.avr-libc
                0x000086b0       0x28 c:/program files (x86)/atmel/studio/7.0/toolchain/avr8/avr8-gnu-toolchain/bin/../lib/gcc/avr/5.4.0/../../../../avr/lib/avr6\libc.a(printf.o)
                0x000086b0                printf
 .text.avr-libc
                0x000086d8       0x60 c:/program files (x86)/atmel/studio/7.0/toolchain/avr8/avr8-gnu-toolchain/bin/../lib/gcc/avr/5.4.0/../../../../avr/lib/avr6\libc.a(puts.o)
                0x000086d8                puts
 .text.avr-libc
                0x00008738      0x414 c:/program files (x86)/atmel/studio/7.0/toolchain/avr8/avr8-gnu-toolchain/bin/../lib/gcc/avr/5.4.0/../../../../avr/lib/avr6\libc.a(vfprintf_std.o)
                0x00008738                vfprintf
 .text.avr-libc
                0x00008b4c      0x2ee c:/program files (x86)/atmel/studio/7.0/toolchain/avr8/avr8-gnu-toolchain/bin/../lib/gcc/avr/5.4.0/../../../../avr/lib/avr6\libc.a(dtoa_prf.o)
                0x00008b4c                dtoa_prf
 .text.avr-libc
                0x00008e3a      0x2b8 c:/program files (x86)/atmel/studio/7.0/toolchain/avr8/avr8-gnu-toolchain/bin/../lib/gcc/avr/5.4.0/../../../../avr/lib/avr6\libc.a(strtod.o)
                0x00008e3a                strtod
 .text.avr-libc
                0x000090f2      0x1b0 c:/program files (x86)/atmel/studio/7.0/toolchain/avr8/avr8-gnu-toolchain/bin/../lib/gcc/avr/5.4.0/../../../../avr/lib/avr6\libc.a(ftoa_engine.o)
                0x000090f2                __ftoa_engine
 .text.avr-libc
                0x000092a2        0x6 c:/program files (x86)/atmel/studio/7.0/toolchain/avr8/avr8-gnu-toolchain/bin/../lib/gcc/avr/5.4.0/../../../../avr/lib/avr6\libc.a(cty_isfalse.o)
                0x000092a2                __ctype_isfalse
                0x000092a6                __ctype_istrue
 .text.avr-libc
                0x000092a8       0x30 c:/program files (x86)/atmel/studio/7.0/toolchain/avr8/avr8-gnu-toolchain/bin/../lib/gcc/avr/5.4.0/../../../../avr/lib/avr6\libc.a(strncasecmp_P.o)
                0x000092a8                strncasecmp_P
 .text.avr-libc
                0x000092d8       0x16 c:/program files (x86)/atmel/studio/7.0/toolchain/avr8/avr8-gnu-toolchain/bin/../lib/gcc/avr/5.4.0/../../../../avr/lib/avr6\libc.a(strnlen_P.o)
                0x000092d8                strnlen_P
 .text.avr-libc
                0x000092ee       0x16 c:/program files (x86)/atmel/studio/7.0/toolchain/avr8/avr8-gnu-toolchain/bin/../lib/gcc/avr/5.4.0/../../../../avr/lib/avr6\libc.a(strnlen.o)
                0x000092ee                strnlen
 .text.avr-libc
                0x00009304       0x20 c:/program files (x86)/atmel/studio/7.0/toolchain/avr8/avr8-gnu-toolchain/bin/../lib/gcc/avr/5.4.0/../../../../avr/lib/avr6\libc.a(strrev.o)
                0x00009304                strrev
 .text.avr-libc
                0x00009324       0x78 c:/program files (x86)/atmel/studio/7.0/toolchain/avr8/avr8-gnu-toolchain/bin/../lib/gcc/avr/5.4.0/../../../../avr/lib/avr6\libc.a(fputc.o)
                0x00009324                fputc
 .text.avr-libc
                0x0000939c       0xbc c:/program files (x86)/atmel/studio/7.0/toolchain/avr8/avr8-gnu-toolchain/bin/../lib/gcc/avr/5.4.0/../../../../avr/lib/avr6\libc.a(ultoa_invert.o)
                0x0000939c                __ultoa_invert
 .text.libgcc.mul
                0x00009458       0x10 c:/program files (x86)/atmel/studio/7.0/toolchain/avr8/avr8-gnu-toolchain/bin/../lib/gcc/avr/5.4.0/avr6\libgcc.a(_mulshisi3.o)
                0x00009458                __mulshisi3
                0x0000945e                __mulohisi3
 .text.libgcc.div
                0x00009468        0x0 c:/program files (x86)/atmel/studio/7.0/toolchain/avr8/avr8-gnu-toolchain/bin/../lib/gcc/avr/5.4.0/avr6\libgcc.a(_mulshisi3.o)
 .text.libgcc   0x00009468        0x0 c:/program files (x86)/atmel/studio/7.0/toolchain/avr8/avr8-gnu-toolchain/bin/../lib/gcc/avr/5.4.0/avr6\libgcc.a(_mulshisi3.o)
 .text.libgcc.prologue
                0x00009468        0x0 c:/program files (x86)/atmel/studio/7.0/toolchain/avr8/avr8-gnu-toolchain/bin/../lib/gcc/avr/5.4.0/avr6\libgcc.a(_mulshisi3.o)
 .text.libgcc.builtins
                0x00009468        0x0 c:/program files (x86)/atmel/studio/7.0/toolchain/avr8/avr8-gnu-toolchain/bin/../lib/gcc/avr/5.4.0/avr6\libgcc.a(_mulshisi3.o)
 .text.libgcc.fmul
                0x00009468        0x0 c:/program files (x86)/atmel/studio/7.0/toolchain/avr8/avr8-gnu-toolchain/bin/../lib/gcc/avr/5.4.0/avr6\libgcc.a(_mulshisi3.o)
 .text.libgcc.fixed
                0x00009468        0x0 c:/program files (x86)/atmel/studio/7.0/toolchain/avr8/avr8-gnu-toolchain/bin/../lib/gcc/avr/5.4.0/avr6\libgcc.a(_mulshisi3.o)
                0x00009468                . = ALIGN (0x2)
 *(.fini9)
 .fini9         0x00009468        0x0 c:/program files (x86)/atmel/studio/7.0/toolchain/avr8/avr8-gnu-toolchain/bin/../lib/gcc/avr/5.4.0/avr6\libgcc.a(_exit.o)
                0x00009468                _exit
                0x00009468                exit
 *(.fini9)
 *(.fini8)
 *(.fini8)
 *(.fini7)
 *(.fini7)
 *(.fini6)
 .fini6         0x00009468       0x20 c:/program files (x86)/atmel/studio/7.0/toolchain/avr8/avr8-gnu-toolchain/bin/../lib/gcc/avr/5.4.0/avr6\libgcc.a(_dtors.o)
                0x00009468                __do_global_dtors
 *(.fini6)
 *(.fini5)
 *(.fini5)
 *(.fini4)
 *(.fini4)
 *(.fini3)
 *(.fini3)
 *(.fini2)
 *(.fini2)
 *(.fini1)
 *(.fini1)
 *(.fini0)
 .fini0         0x00009488        0x4 c:/program files (x86)/atmel/studio/7.0/toolchain/avr8/avr8-gnu-toolchain/bin/../lib/gcc/avr/5.4.0/avr6\libgcc.a(_exit.o)
 *(.fini0)
                0x0000948c                _etext = .

.data           0x00800200      0x4ae load address 0x0000948c
                0x00800200                PROVIDE (__data_start, .)
 *(.data)
 .data          0x00800200        0x0 c:/program files (x86)/atmel/studio/7.0/toolchain/avr8/avr8-gnu-toolchain/bin/../lib/gcc/avr/5.4.0/../../../../avr/lib/avr6/crtatmega2560.o
 .data          0x00800200        0x0 obj\Release\arduino\abi.o
 .data          0x00800200        0x0 obj\Release\arduino\CDC.o
 .data          0x00800200        0x0 obj\Release\arduino\dht.o
 .data          0x00800200        0x0 obj\Release\arduino\HardwareSerial.o
 .data          0x00800200        0x0 obj\Release\arduino\HardwareSerial0.o
 .data          0x00800200        0x0 obj\Release\arduino\HardwareSerial1.o
 .data          0x00800200        0x0 obj\Release\arduino\HardwareSerial2.o
 .data          0x00800200        0x0 obj\Release\arduino\HardwareSerial3.o
 .data          0x00800200        0x0 obj\Release\arduino\hooks.o
 .data          0x00800200        0x0 obj\Release\arduino\IPAddress.o
 .data          0x00800200        0x0 obj\Release\arduino\Key.o
 .data          0x00800200        0x0 obj\Release\arduino\Keypad.o
 .data          0x00800200        0x0 obj\Release\arduino\LiquidCrystal_I2C.o
 .data          0x00800200        0x0 obj\Release\arduino\main.o
 .data          0x00800200        0x0 obj\Release\arduino\new.o
 .data          0x00800200        0x0 obj\Release\arduino\Password.o
 .data          0x00800200        0x0 obj\Release\arduino\PluggableUSB.o
 .data          0x00800200        0x0 obj\Release\arduino\Print.o
 .data          0x00800200        0x0 obj\Release\arduino\Servo.o
 .data          0x00800200        0x0 obj\Release\arduino\Stream.o
 .data          0x00800200        0x1 obj\Release\arduino\Tone.o
 .data          0x00800201        0x0 obj\Release\arduino\USBCore.o
 .data          0x00800201        0x0 obj\Release\arduino\utility\twi.o
 .data          0x00800201       0x10 obj\Release\arduino\WInterrupts.o
 .data          0x00800211        0x0 obj\Release\arduino\Wire.o
 .data          0x00800211        0x0 obj\Release\arduino\wiring.o
 .data          0x00800211        0x1 obj\Release\arduino\wiring_analog.o
                0x00800211                analog_reference
 .data          0x00800212        0x0 obj\Release\arduino\wiring_digital.o
 .data          0x00800212        0x0 obj\Release\arduino\wiring_pulse.o
 .data          0x00800212        0x0 obj\Release\arduino\wiring_shift.o
 .data          0x00800212        0x0 obj\Release\arduino\WMath.o
 .data          0x00800212        0x0 obj\Release\arduino\WString.o
 .data          0x00800212        0x1 obj\Release\Comfort.o
                0x00800212                dhtPin
 .data          0x00800213        0x1 obj\Release\Doorlock.o
                0x00800213                doorbuzzer
 .data          0x00800214       0x80 obj\Release\HWInputs.o
                0x00800214                currentMenu
                0x00800216                newChar1
                0x0080021e                rightBlank
                0x00800226                almostFull
                0x0080022e                almostHalf
                0x00800236                leftArrow
                0x0080023e                rightArrow
                0x00800246                middleUpDown
                0x0080024e                bottomUpDown
                0x00800256                topUpDown
                0x0080025e                colPins
                0x00800262                rowPins
                0x00800266                hexaKeys
                0x00800276                colPinsDl
                0x0080027a                rowPinsDl
                0x0080027e                hexaKeysDoorlock
                0x0080028e                newTemp
                0x00800290                desiredTemperature
                0x00800292                cnt
 .data          0x00800294        0x0 obj\Release\HWOutputs.o
 .data          0x00800294        0x0 obj\Release\Lights.o
 .data          0x00800294        0x0 obj\Release\Logic.o
 .data          0x00800294        0x3 obj\Release\Security.o
                0x00800294                counter
                0x00800296                buzzer
 .data          0x00800297        0x0 obj\Release\SmartHome.o
 .data          0x00800297        0x0 obj\Release\SWInputs.o
 .data          0x00800297        0x0 obj\Release\SWOutputs.o
 .data          0x00800297       0xdd obj\Release\WifiConn.o
                0x00800297                pgToUpload
                0x008002cd                pgSecurity
                0x008002ff                pgConfort
                0x00800330                pgLights
                0x00800360                netwpass
 .data          0x00800374        0x0 c:/program files (x86)/atmel/studio/7.0/toolchain/avr8/avr8-gnu-toolchain/bin/../lib/gcc/avr/5.4.0/avr6\libgcc.a(_mulsi3.o)
 .data          0x00800374        0x0 c:/program files (x86)/atmel/studio/7.0/toolchain/avr8/avr8-gnu-toolchain/bin/../lib/gcc/avr/5.4.0/avr6\libgcc.a(_udivmodqi4.o)
 .data          0x00800374        0x0 c:/program files (x86)/atmel/studio/7.0/toolchain/avr8/avr8-gnu-toolchain/bin/../lib/gcc/avr/5.4.0/avr6\libgcc.a(_udivmodsi4.o)
 .data          0x00800374        0x0 c:/program files (x86)/atmel/studio/7.0/toolchain/avr8/avr8-gnu-toolchain/bin/../lib/gcc/avr/5.4.0/avr6\libgcc.a(_divmodsi4.o)
 .data          0x00800374        0x0 c:/program files (x86)/atmel/studio/7.0/toolchain/avr8/avr8-gnu-toolchain/bin/../lib/gcc/avr/5.4.0/avr6\libgcc.a(_negsi2.o)
 .data          0x00800374        0x0 c:/program files (x86)/atmel/studio/7.0/toolchain/avr8/avr8-gnu-toolchain/bin/../lib/gcc/avr/5.4.0/avr6\libgcc.a(_exit.o)
 .data          0x00800374        0x0 c:/program files (x86)/atmel/studio/7.0/toolchain/avr8/avr8-gnu-toolchain/bin/../lib/gcc/avr/5.4.0/avr6\libgcc.a(_tablejump2.o)
 .data          0x00800374        0x0 c:/program files (x86)/atmel/studio/7.0/toolchain/avr8/avr8-gnu-toolchain/bin/../lib/gcc/avr/5.4.0/avr6\libgcc.a(_copy_data.o)
 .data          0x00800374        0x0 c:/program files (x86)/atmel/studio/7.0/toolchain/avr8/avr8-gnu-toolchain/bin/../lib/gcc/avr/5.4.0/avr6\libgcc.a(_clear_bss.o)
 .data          0x00800374        0x0 c:/program files (x86)/atmel/studio/7.0/toolchain/avr8/avr8-gnu-toolchain/bin/../lib/gcc/avr/5.4.0/avr6\libgcc.a(_ctors.o)
 .data          0x00800374        0x0 c:/program files (x86)/atmel/studio/7.0/toolchain/avr8/avr8-gnu-toolchain/bin/../lib/gcc/avr/5.4.0/avr6\libgcc.a(_dtors.o)
 .data          0x00800374        0x0 c:/program files (x86)/atmel/studio/7.0/toolchain/avr8/avr8-gnu-toolchain/bin/../lib/gcc/avr/5.4.0/avr6\libgcc.a(_muluhisi3.o)
 .data          0x00800374        0x0 c:/program files (x86)/atmel/studio/7.0/toolchain/avr8/avr8-gnu-toolchain/bin/../lib/gcc/avr/5.4.0/avr6\libgcc.a(_umulhisi3.o)
 .data          0x00800374        0x0 c:/program files (x86)/atmel/studio/7.0/toolchain/avr8/avr8-gnu-toolchain/bin/../lib/gcc/avr/5.4.0/../../../../avr/lib/avr6\libm.a(addsf3.o)
 .data          0x00800374        0x0 c:/program files (x86)/atmel/studio/7.0/toolchain/avr8/avr8-gnu-toolchain/bin/../lib/gcc/avr/5.4.0/../../../../avr/lib/avr6\libm.a(addsf3x.o)
 .data          0x00800374        0x0 c:/program files (x86)/atmel/studio/7.0/toolchain/avr8/avr8-gnu-toolchain/bin/../lib/gcc/avr/5.4.0/../../../../avr/lib/avr6\libm.a(cmpsf2.o)
 .data          0x00800374        0x0 c:/program files (x86)/atmel/studio/7.0/toolchain/avr8/avr8-gnu-toolchain/bin/../lib/gcc/avr/5.4.0/../../../../avr/lib/avr6\libm.a(divsf3.o)
 .data          0x00800374        0x0 c:/program files (x86)/atmel/studio/7.0/toolchain/avr8/avr8-gnu-toolchain/bin/../lib/gcc/avr/5.4.0/../../../../avr/lib/avr6\libm.a(divsf3x.o)
 .data          0x00800374        0x0 c:/program files (x86)/atmel/studio/7.0/toolchain/avr8/avr8-gnu-toolchain/bin/../lib/gcc/avr/5.4.0/../../../../avr/lib/avr6\libm.a(fixsfsi.o)
 .data          0x00800374        0x0 c:/program files (x86)/atmel/studio/7.0/toolchain/avr8/avr8-gnu-toolchain/bin/../lib/gcc/avr/5.4.0/../../../../avr/lib/avr6\libm.a(fixunssfsi.o)
 .data          0x00800374        0x0 c:/program files (x86)/atmel/studio/7.0/toolchain/avr8/avr8-gnu-toolchain/bin/../lib/gcc/avr/5.4.0/../../../../avr/lib/avr6\libm.a(floatsisf.o)
 .data          0x00800374        0x0 c:/program files (x86)/atmel/studio/7.0/toolchain/avr8/avr8-gnu-toolchain/bin/../lib/gcc/avr/5.4.0/../../../../avr/lib/avr6\libm.a(fp_cmp.o)
 .data          0x00800374        0x0 c:/program files (x86)/atmel/studio/7.0/toolchain/avr8/avr8-gnu-toolchain/bin/../lib/gcc/avr/5.4.0/../../../../avr/lib/avr6\libm.a(fp_inf.o)
 .data          0x00800374        0x0 c:/program files (x86)/atmel/studio/7.0/toolchain/avr8/avr8-gnu-toolchain/bin/../lib/gcc/avr/5.4.0/../../../../avr/lib/avr6\libm.a(fp_nan.o)
 .data          0x00800374        0x0 c:/program files (x86)/atmel/studio/7.0/toolchain/avr8/avr8-gnu-toolchain/bin/../lib/gcc/avr/5.4.0/../../../../avr/lib/avr6\libm.a(fp_pscA.o)
 .data          0x00800374        0x0 c:/program files (x86)/atmel/studio/7.0/toolchain/avr8/avr8-gnu-toolchain/bin/../lib/gcc/avr/5.4.0/../../../../avr/lib/avr6\libm.a(fp_pscB.o)
 .data          0x00800374        0x0 c:/program files (x86)/atmel/studio/7.0/toolchain/avr8/avr8-gnu-toolchain/bin/../lib/gcc/avr/5.4.0/../../../../avr/lib/avr6\libm.a(fp_round.o)
 .data          0x00800374        0x0 c:/program files (x86)/atmel/studio/7.0/toolchain/avr8/avr8-gnu-toolchain/bin/../lib/gcc/avr/5.4.0/../../../../avr/lib/avr6\libm.a(fp_split3.o)
 .data          0x00800374        0x0 c:/program files (x86)/atmel/studio/7.0/toolchain/avr8/avr8-gnu-toolchain/bin/../lib/gcc/avr/5.4.0/../../../../avr/lib/avr6\libm.a(fp_zero.o)
 .data          0x00800374        0x0 c:/program files (x86)/atmel/studio/7.0/toolchain/avr8/avr8-gnu-toolchain/bin/../lib/gcc/avr/5.4.0/../../../../avr/lib/avr6\libm.a(gesf2.o)
 .data          0x00800374        0x0 c:/program files (x86)/atmel/studio/7.0/toolchain/avr8/avr8-gnu-toolchain/bin/../lib/gcc/avr/5.4.0/../../../../avr/lib/avr6\libm.a(mulsf3.o)
 .data          0x00800374        0x0 c:/program files (x86)/atmel/studio/7.0/toolchain/avr8/avr8-gnu-toolchain/bin/../lib/gcc/avr/5.4.0/../../../../avr/lib/avr6\libm.a(mulsf3x.o)
 .data          0x00800374        0x0 c:/program files (x86)/atmel/studio/7.0/toolchain/avr8/avr8-gnu-toolchain/bin/../lib/gcc/avr/5.4.0/../../../../avr/lib/avr6\libm.a(unordsf2.o)
 .data          0x00800374        0x0 c:/program files (x86)/atmel/studio/7.0/toolchain/avr8/avr8-gnu-toolchain/bin/../lib/gcc/avr/5.4.0/../../../../avr/lib/avr6\libc.a(dtostrf.o)
 .data          0x00800374        0x6 c:/program files (x86)/atmel/studio/7.0/toolchain/avr8/avr8-gnu-toolchain/bin/../lib/gcc/avr/5.4.0/../../../../avr/lib/avr6\libc.a(malloc.o)
                0x00800374                __malloc_heap_end
                0x00800376                __malloc_heap_start
                0x00800378                __malloc_margin
 .data          0x0080037a        0x4 c:/program files (x86)/atmel/studio/7.0/toolchain/avr8/avr8-gnu-toolchain/bin/../lib/gcc/avr/5.4.0/../../../../avr/lib/avr6\libc.a(random.o)
 .data          0x0080037e        0x0 c:/program files (x86)/atmel/studio/7.0/toolchain/avr8/avr8-gnu-toolchain/bin/../lib/gcc/avr/5.4.0/../../../../avr/lib/avr6\libc.a(realloc.o)
 .data          0x0080037e        0x0 c:/program files (x86)/atmel/studio/7.0/toolchain/avr8/avr8-gnu-toolchain/bin/../lib/gcc/avr/5.4.0/../../../../avr/lib/avr6\libc.a(abort.o)
 .data          0x0080037e        0x0 c:/program files (x86)/atmel/studio/7.0/toolchain/avr8/avr8-gnu-toolchain/bin/../lib/gcc/avr/5.4.0/../../../../avr/lib/avr6\libc.a(atof.o)
 .data          0x0080037e        0x0 c:/program files (x86)/atmel/studio/7.0/toolchain/avr8/avr8-gnu-toolchain/bin/../lib/gcc/avr/5.4.0/../../../../avr/lib/avr6\libc.a(atol.o)
 .data          0x0080037e        0x0 c:/program files (x86)/atmel/studio/7.0/toolchain/avr8/avr8-gnu-toolchain/bin/../lib/gcc/avr/5.4.0/../../../../avr/lib/avr6\libc.a(isspace.o)
 .data          0x0080037e        0x0 c:/program files (x86)/atmel/studio/7.0/toolchain/avr8/avr8-gnu-toolchain/bin/../lib/gcc/avr/5.4.0/../../../../avr/lib/avr6\libc.a(tolower.o)
 .data          0x0080037e        0x0 c:/program files (x86)/atmel/studio/7.0/toolchain/avr8/avr8-gnu-toolchain/bin/../lib/gcc/avr/5.4.0/../../../../avr/lib/avr6\libc.a(toupper.o)
 .data          0x0080037e        0x0 c:/program files (x86)/atmel/studio/7.0/toolchain/avr8/avr8-gnu-toolchain/bin/../lib/gcc/avr/5.4.0/../../../../avr/lib/avr6\libc.a(strcpy_P.o)
 .data          0x0080037e        0x0 c:/program files (x86)/atmel/studio/7.0/toolchain/avr8/avr8-gnu-toolchain/bin/../lib/gcc/avr/5.4.0/../../../../avr/lib/avr6\libc.a(strlen_P.o)
 .data          0x0080037e        0x0 c:/program files (x86)/atmel/studio/7.0/toolchain/avr8/avr8-gnu-toolchain/bin/../lib/gcc/avr/5.4.0/../../../../avr/lib/avr6\libc.a(memcmp.o)
 .data          0x0080037e        0x0 c:/program files (x86)/atmel/studio/7.0/toolchain/avr8/avr8-gnu-toolchain/bin/../lib/gcc/avr/5.4.0/../../../../avr/lib/avr6\libc.a(memcpy.o)
 .data          0x0080037e        0x0 c:/program files (x86)/atmel/studio/7.0/toolchain/avr8/avr8-gnu-toolchain/bin/../lib/gcc/avr/5.4.0/../../../../avr/lib/avr6\libc.a(memmove.o)
 .data          0x0080037e        0x0 c:/program files (x86)/atmel/studio/7.0/toolchain/avr8/avr8-gnu-toolchain/bin/../lib/gcc/avr/5.4.0/../../../../avr/lib/avr6\libc.a(strchr.o)
 .data          0x0080037e        0x0 c:/program files (x86)/atmel/studio/7.0/toolchain/avr8/avr8-gnu-toolchain/bin/../lib/gcc/avr/5.4.0/../../../../avr/lib/avr6\libc.a(strcmp.o)
 .data          0x0080037e        0x0 c:/program files (x86)/atmel/studio/7.0/toolchain/avr8/avr8-gnu-toolchain/bin/../lib/gcc/avr/5.4.0/../../../../avr/lib/avr6\libc.a(strcpy.o)
 .data          0x0080037e        0x0 c:/program files (x86)/atmel/studio/7.0/toolchain/avr8/avr8-gnu-toolchain/bin/../lib/gcc/avr/5.4.0/../../../../avr/lib/avr6\libc.a(strncmp.o)
 .data          0x0080037e        0x0 c:/program files (x86)/atmel/studio/7.0/toolchain/avr8/avr8-gnu-toolchain/bin/../lib/gcc/avr/5.4.0/../../../../avr/lib/avr6\libc.a(strncpy.o)
 .data          0x0080037e        0x0 c:/program files (x86)/atmel/studio/7.0/toolchain/avr8/avr8-gnu-toolchain/bin/../lib/gcc/avr/5.4.0/../../../../avr/lib/avr6\libc.a(strrchr.o)
 .data          0x0080037e        0x0 c:/program files (x86)/atmel/studio/7.0/toolchain/avr8/avr8-gnu-toolchain/bin/../lib/gcc/avr/5.4.0/../../../../avr/lib/avr6\libc.a(strstr.o)
 .data          0x0080037e        0x0 c:/program files (x86)/atmel/studio/7.0/toolchain/avr8/avr8-gnu-toolchain/bin/../lib/gcc/avr/5.4.0/../../../../avr/lib/avr6\libc.a(itoa.o)
 .data          0x0080037e        0x0 c:/program files (x86)/atmel/studio/7.0/toolchain/avr8/avr8-gnu-toolchain/bin/../lib/gcc/avr/5.4.0/../../../../avr/lib/avr6\libc.a(itoa_ncheck.o)
 .data          0x0080037e        0x0 c:/program files (x86)/atmel/studio/7.0/toolchain/avr8/avr8-gnu-toolchain/bin/../lib/gcc/avr/5.4.0/../../../../avr/lib/avr6\libc.a(ltoa.o)
 .data          0x0080037e        0x0 c:/program files (x86)/atmel/studio/7.0/toolchain/avr8/avr8-gnu-toolchain/bin/../lib/gcc/avr/5.4.0/../../../../avr/lib/avr6\libc.a(ltoa_ncheck.o)
 .data          0x0080037e        0x0 c:/program files (x86)/atmel/studio/7.0/toolchain/avr8/avr8-gnu-toolchain/bin/../lib/gcc/avr/5.4.0/../../../../avr/lib/avr6\libc.a(mulsi10.o)
 .data          0x0080037e        0x0 c:/program files (x86)/atmel/studio/7.0/toolchain/avr8/avr8-gnu-toolchain/bin/../lib/gcc/avr/5.4.0/../../../../avr/lib/avr6\libc.a(ultoa.o)
 .data          0x0080037e        0x0 c:/program files (x86)/atmel/studio/7.0/toolchain/avr8/avr8-gnu-toolchain/bin/../lib/gcc/avr/5.4.0/../../../../avr/lib/avr6\libc.a(ultoa_ncheck.o)
 .data          0x0080037e        0x0 c:/program files (x86)/atmel/studio/7.0/toolchain/avr8/avr8-gnu-toolchain/bin/../lib/gcc/avr/5.4.0/../../../../avr/lib/avr6\libc.a(utoa.o)
 .data          0x0080037e        0x0 c:/program files (x86)/atmel/studio/7.0/toolchain/avr8/avr8-gnu-toolchain/bin/../lib/gcc/avr/5.4.0/../../../../avr/lib/avr6\libc.a(utoa_ncheck.o)
 .data          0x0080037e        0x0 c:/program files (x86)/atmel/studio/7.0/toolchain/avr8/avr8-gnu-toolchain/bin/../lib/gcc/avr/5.4.0/../../../../avr/lib/avr6\libc.a(printf.o)
 .data          0x0080037e        0x0 c:/program files (x86)/atmel/studio/7.0/toolchain/avr8/avr8-gnu-toolchain/bin/../lib/gcc/avr/5.4.0/../../../../avr/lib/avr6\libc.a(puts.o)
 .data          0x0080037e        0x0 c:/program files (x86)/atmel/studio/7.0/toolchain/avr8/avr8-gnu-toolchain/bin/../lib/gcc/avr/5.4.0/../../../../avr/lib/avr6\libc.a(vfprintf_std.o)
 .data          0x0080037e        0x0 c:/program files (x86)/atmel/studio/7.0/toolchain/avr8/avr8-gnu-toolchain/bin/../lib/gcc/avr/5.4.0/../../../../avr/lib/avr6\libc.a(dtoa_prf.o)
 .data          0x0080037e        0x0 c:/program files (x86)/atmel/studio/7.0/toolchain/avr8/avr8-gnu-toolchain/bin/../lib/gcc/avr/5.4.0/../../../../avr/lib/avr6\libc.a(strtod.o)
 .data          0x0080037e        0x0 c:/program files (x86)/atmel/studio/7.0/toolchain/avr8/avr8-gnu-toolchain/bin/../lib/gcc/avr/5.4.0/../../../../avr/lib/avr6\libc.a(ftoa_engine.o)
 .data          0x0080037e        0x0 c:/program files (x86)/atmel/studio/7.0/toolchain/avr8/avr8-gnu-toolchain/bin/../lib/gcc/avr/5.4.0/../../../../avr/lib/avr6\libc.a(cty_isfalse.o)
 .data          0x0080037e        0x0 c:/program files (x86)/atmel/studio/7.0/toolchain/avr8/avr8-gnu-toolchain/bin/../lib/gcc/avr/5.4.0/../../../../avr/lib/avr6\libc.a(strncasecmp_P.o)
 .data          0x0080037e        0x0 c:/program files (x86)/atmel/studio/7.0/toolchain/avr8/avr8-gnu-toolchain/bin/../lib/gcc/avr/5.4.0/../../../../avr/lib/avr6\libc.a(strnlen_P.o)
 .data          0x0080037e        0x0 c:/program files (x86)/atmel/studio/7.0/toolchain/avr8/avr8-gnu-toolchain/bin/../lib/gcc/avr/5.4.0/../../../../avr/lib/avr6\libc.a(strnlen.o)
 .data          0x0080037e        0x0 c:/program files (x86)/atmel/studio/7.0/toolchain/avr8/avr8-gnu-toolchain/bin/../lib/gcc/avr/5.4.0/../../../../avr/lib/avr6\libc.a(strrev.o)
 .data          0x0080037e        0x0 c:/program files (x86)/atmel/studio/7.0/toolchain/avr8/avr8-gnu-toolchain/bin/../lib/gcc/avr/5.4.0/../../../../avr/lib/avr6\libc.a(fputc.o)
 .data          0x0080037e        0x0 c:/program files (x86)/atmel/studio/7.0/toolchain/avr8/avr8-gnu-toolchain/bin/../lib/gcc/avr/5.4.0/../../../../avr/lib/avr6\libc.a(iob.o)
 .data          0x0080037e        0x0 c:/program files (x86)/atmel/studio/7.0/toolchain/avr8/avr8-gnu-toolchain/bin/../lib/gcc/avr/5.4.0/../../../../avr/lib/avr6\libc.a(ultoa_invert.o)
 .data          0x0080037e        0x0 c:/program files (x86)/atmel/studio/7.0/toolchain/avr8/avr8-gnu-toolchain/bin/../lib/gcc/avr/5.4.0/../../../../avr/lib/avr6\libc.a(errno.o)
 .data          0x0080037e        0x0 c:/program files (x86)/atmel/studio/7.0/toolchain/avr8/avr8-gnu-toolchain/bin/../lib/gcc/avr/5.4.0/avr6\libgcc.a(_mulshisi3.o)
 *(.data*)
 *(.gnu.linkonce.d*)
 *(.rodata)
 .rodata        0x0080037e        0x8 obj\Release\arduino\LiquidCrystal_I2C.o
 *(.rodata*)
 .rodata._ZTV14HardwareSerial
                0x00800386       0x12 obj\Release\arduino\HardwareSerial.o
                0x00800386                _ZTV14HardwareSerial
 .rodata._ZTV9IPAddress
                0x00800398        0x6 obj\Release\arduino\IPAddress.o
                0x00800398                _ZTV9IPAddress
 .rodata._ZTV6Keypad
                0x0080039e        0xa obj\Release\arduino\Keypad.o
                0x0080039e                _ZTV6Keypad
 .rodata._ZTV17LiquidCrystal_I2C
                0x008003a8        0xc obj\Release\arduino\LiquidCrystal_I2C.o
                0x008003a8                _ZTV17LiquidCrystal_I2C
 .rodata.str1.1
                0x008003b4        0xf obj\Release\arduino\Print.o
 .rodata._ZTV5Print
                0x008003c3        0xc obj\Release\arduino\Print.o
                0x008003c3                _ZTV5Print
 .rodata.str1.1
                0x008003cf        0xf obj\Release\arduino\Stream.o
                                  0x1 (size before relaxing)
 .rodata._ZTV7TwoWire
                0x008003cf       0x12 obj\Release\arduino\Wire.o
                0x008003cf                _ZTV7TwoWire
 .rodata.str1.1
                0x008003e1        0x1 obj\Release\arduino\WString.o
 .rodata.str1.1
                0x008003e1      0x197 obj\Release\Comfort.o
 .rodata.str1.1
                0x00800578        0xe obj\Release\Doorlock.o
 .rodata.str1.1
                0x00800586       0xbc obj\Release\HWInputs.o
                                0x133 (size before relaxing)
 .rodata.str1.1
                0x00800642        0x4 obj\Release\Security.o
                                 0x10 (size before relaxing)
 .rodata.str1.1
                0x00800646       0x21 obj\Release\SWInputs.o
 .rodata.str1.1
                0x00800667       0x45 obj\Release\SWOutputs.o
 .rodata.str1.1
                0x008006ac        0x2 obj\Release\WifiConn.o
                                  0x3 (size before relaxing)
 *(.gnu.linkonce.r*)
                0x008006ae                . = ALIGN (0x2)
                0x008006ae                _edata = .
                0x008006ae                PROVIDE (__data_end, .)

.bss            0x008006ae      0x61f
                0x008006ae                PROVIDE (__bss_start, .)
 *(.bss)
 .bss           0x008006ae        0x0 c:/program files (x86)/atmel/studio/7.0/toolchain/avr8/avr8-gnu-toolchain/bin/../lib/gcc/avr/5.4.0/../../../../avr/lib/avr6/crtatmega2560.o
 .bss           0x008006ae        0x0 obj\Release\arduino\abi.o
 .bss           0x008006ae        0x0 obj\Release\arduino\CDC.o
 .bss           0x008006ae        0x0 obj\Release\arduino\dht.o
 .bss           0x008006ae        0x0 obj\Release\arduino\HardwareSerial.o
 .bss           0x008006ae       0x9d obj\Release\arduino\HardwareSerial0.o
                0x008006ae                Serial
 .bss           0x0080074b       0x9d obj\Release\arduino\HardwareSerial1.o
                0x0080074b                Serial1
 .bss           0x008007e8       0x9d obj\Release\arduino\HardwareSerial2.o
                0x008007e8                Serial2
 .bss           0x00800885       0x9d obj\Release\arduino\HardwareSerial3.o
                0x00800885                Serial3
 .bss           0x00800922        0x0 obj\Release\arduino\hooks.o
 .bss           0x00800922        0x0 obj\Release\arduino\IPAddress.o
 .bss           0x00800922        0x0 obj\Release\arduino\Key.o
 .bss           0x00800922        0x0 obj\Release\arduino\Keypad.o
 .bss           0x00800922        0x0 obj\Release\arduino\LiquidCrystal_I2C.o
 .bss           0x00800922        0x0 obj\Release\arduino\main.o
 .bss           0x00800922        0x0 obj\Release\arduino\new.o
 .bss           0x00800922        0x0 obj\Release\arduino\Password.o
 .bss           0x00800922        0x0 obj\Release\arduino\PluggableUSB.o
 .bss           0x00800922        0x0 obj\Release\arduino\Print.o
 .bss           0x00800922       0x95 obj\Release\arduino\Servo.o
                0x00800922                ServoCount
 .bss           0x008009b7        0x0 obj\Release\arduino\Stream.o
 .bss           0x008009b7       0x2a obj\Release\arduino\Tone.o
                0x008009b7                timer5_pin_mask
                0x008009b8                timer5_pin_port
                0x008009ba                timer5_toggle_count
                0x008009be                timer4_pin_mask
                0x008009bf                timer4_pin_port
                0x008009c1                timer4_toggle_count
                0x008009c5                timer3_pin_mask
                0x008009c6                timer3_pin_port
                0x008009c8                timer3_toggle_count
                0x008009cc                timer2_pin_mask
                0x008009cd                timer2_pin_port
                0x008009cf                timer2_toggle_count
                0x008009d3                timer1_pin_mask
                0x008009d4                timer1_pin_port
                0x008009d6                timer1_toggle_count
                0x008009da                timer0_pin_mask
                0x008009db                timer0_pin_port
                0x008009dd                timer0_toggle_count
 .bss           0x008009e1        0x0 obj\Release\arduino\USBCore.o
 .bss           0x008009e1       0x6e obj\Release\arduino\utility\twi.o
 .bss           0x00800a4f        0x0 obj\Release\arduino\WInterrupts.o
 .bss           0x00800a4f       0x56 obj\Release\arduino\Wire.o
                0x00800a4f                Wire
                0x00800a5b                _ZN7TwoWire14user_onReceiveE
                0x00800a5d                _ZN7TwoWire14user_onRequestE
                0x00800a5f                _ZN7TwoWire12transmittingE
                0x00800a60                _ZN7TwoWire14txBufferLengthE
                0x00800a61                _ZN7TwoWire13txBufferIndexE
                0x00800a62                _ZN7TwoWire8txBufferE
                0x00800a82                _ZN7TwoWire9txAddressE
                0x00800a83                _ZN7TwoWire14rxBufferLengthE
                0x00800a84                _ZN7TwoWire13rxBufferIndexE
                0x00800a85                _ZN7TwoWire8rxBufferE
 .bss           0x00800aa5        0x9 obj\Release\arduino\wiring.o
                0x00800aa5                timer0_millis
                0x00800aa9                timer0_overflow_count
 .bss           0x00800aae        0x0 obj\Release\arduino\wiring_analog.o
 .bss           0x00800aae        0x0 obj\Release\arduino\wiring_digital.o
 .bss           0x00800aae        0x0 obj\Release\arduino\wiring_pulse.o
 .bss           0x00800aae        0x0 obj\Release\arduino\wiring_shift.o
 .bss           0x00800aae        0x0 obj\Release\arduino\WMath.o
 .bss           0x00800aae        0x1 obj\Release\arduino\WString.o
 .bss           0x00800aaf        0x5 obj\Release\Comfort.o
                0x00800aaf                soilHumidity
                0x00800ab1                tempsts
                0x00800ab2                joyButton
 .bss           0x00800ab4        0x0 obj\Release\Doorlock.o
 .bss           0x00800ab4      0x1b1 obj\Release\HWInputs.o
                0x00800ab4                soil_state
                0x00800ac5                air_humidity
                0x00800ad6                new_temp
                0x00800ae7                current_temp
                0x00800af8                alcohol_lvl
                0x00800b09                air_quality
                0x00800b1a                keypad
                0x00800b89                keypadDl
                0x00800bf8                statuspwd
                0x00800bf9                doorpassword
                0x00800c10                lcdComfort
                0x00800c1c                lcdDoorlock
                0x00800c28                lcdSecurity
                0x00800c34                DHT
                0x00800c41                alcoholValue
                0x00800c45                k
                0x00800c46                motionDetectorValue
                0x00800c47                humidityPercentSoil
                0x00800c48                readHumiditySoil
                0x00800c49                buttonLastState
                0x00800c4b                buttonState
                0x00800c4d                valueMQ135
                0x00800c4e                fahrenheitTemperature
                0x00800c50                alarmasts
                0x00800c51                myservo
                0x00800c54                cp
                0x00800c55                counterDl
                0x00800c57                motionStatus
                0x00800c58                val
                0x00800c59                pirState
                0x00800c5a                lock
                0x00800c5b                passwordvalid
                0x00800c5c                i
                0x00800c5e                pwd
                0x00800c60                keypressed
 .bss           0x00800c65        0x0 obj\Release\HWOutputs.o
 .bss           0x00800c65       0x3f obj\Release\Lights.o
                0x00800c65                butoane
                0x00800c92                becuri
 .bss           0x00800ca4        0x0 obj\Release\Logic.o
 .bss           0x00800ca4        0x1 obj\Release\Security.o
                0x00800ca4                inputPin
 .bss           0x00800ca5        0x0 obj\Release\SmartHome.o
 .bss           0x00800ca5        0x0 obj\Release\SWInputs.o
 .bss           0x00800ca5        0x0 obj\Release\SWOutputs.o
 .bss           0x00800ca5       0x1c obj\Release\WifiConn.o
                0x00800ca5                d
                0x00800cab                data
                0x00800cb1                stopInit
                0x00800cb2                poscnf
                0x00800cb4                poslgh
                0x00800cb6                pospass
                0x00800cb8                confort
                0x00800cba                lumini
                0x00800cbc                parole
                0x00800cbe                statusWifi
                0x00800cbf                requestData
                0x00800cc0                connectWifi
 .bss           0x00800cc1        0x0 c:/program files (x86)/atmel/studio/7.0/toolchain/avr8/avr8-gnu-toolchain/bin/../lib/gcc/avr/5.4.0/avr6\libgcc.a(_mulsi3.o)
 .bss           0x00800cc1        0x0 c:/program files (x86)/atmel/studio/7.0/toolchain/avr8/avr8-gnu-toolchain/bin/../lib/gcc/avr/5.4.0/avr6\libgcc.a(_udivmodqi4.o)
 .bss           0x00800cc1        0x0 c:/program files (x86)/atmel/studio/7.0/toolchain/avr8/avr8-gnu-toolchain/bin/../lib/gcc/avr/5.4.0/avr6\libgcc.a(_udivmodsi4.o)
 .bss           0x00800cc1        0x0 c:/program files (x86)/atmel/studio/7.0/toolchain/avr8/avr8-gnu-toolchain/bin/../lib/gcc/avr/5.4.0/avr6\libgcc.a(_divmodsi4.o)
 .bss           0x00800cc1        0x0 c:/program files (x86)/atmel/studio/7.0/toolchain/avr8/avr8-gnu-toolchain/bin/../lib/gcc/avr/5.4.0/avr6\libgcc.a(_negsi2.o)
 .bss           0x00800cc1        0x0 c:/program files (x86)/atmel/studio/7.0/toolchain/avr8/avr8-gnu-toolchain/bin/../lib/gcc/avr/5.4.0/avr6\libgcc.a(_exit.o)
 .bss           0x00800cc1        0x0 c:/program files (x86)/atmel/studio/7.0/toolchain/avr8/avr8-gnu-toolchain/bin/../lib/gcc/avr/5.4.0/avr6\libgcc.a(_tablejump2.o)
 .bss           0x00800cc1        0x0 c:/program files (x86)/atmel/studio/7.0/toolchain/avr8/avr8-gnu-toolchain/bin/../lib/gcc/avr/5.4.0/avr6\libgcc.a(_copy_data.o)
 .bss           0x00800cc1        0x0 c:/program files (x86)/atmel/studio/7.0/toolchain/avr8/avr8-gnu-toolchain/bin/../lib/gcc/avr/5.4.0/avr6\libgcc.a(_clear_bss.o)
 .bss           0x00800cc1        0x0 c:/program files (x86)/atmel/studio/7.0/toolchain/avr8/avr8-gnu-toolchain/bin/../lib/gcc/avr/5.4.0/avr6\libgcc.a(_ctors.o)
 .bss           0x00800cc1        0x0 c:/program files (x86)/atmel/studio/7.0/toolchain/avr8/avr8-gnu-toolchain/bin/../lib/gcc/avr/5.4.0/avr6\libgcc.a(_dtors.o)
 .bss           0x00800cc1        0x0 c:/program files (x86)/atmel/studio/7.0/toolchain/avr8/avr8-gnu-toolchain/bin/../lib/gcc/avr/5.4.0/avr6\libgcc.a(_muluhisi3.o)
 .bss           0x00800cc1        0x0 c:/program files (x86)/atmel/studio/7.0/toolchain/avr8/avr8-gnu-toolchain/bin/../lib/gcc/avr/5.4.0/avr6\libgcc.a(_umulhisi3.o)
 .bss           0x00800cc1        0x0 c:/program files (x86)/atmel/studio/7.0/toolchain/avr8/avr8-gnu-toolchain/bin/../lib/gcc/avr/5.4.0/../../../../avr/lib/avr6\libm.a(addsf3.o)
 .bss           0x00800cc1        0x0 c:/program files (x86)/atmel/studio/7.0/toolchain/avr8/avr8-gnu-toolchain/bin/../lib/gcc/avr/5.4.0/../../../../avr/lib/avr6\libm.a(addsf3x.o)
 .bss           0x00800cc1        0x0 c:/program files (x86)/atmel/studio/7.0/toolchain/avr8/avr8-gnu-toolchain/bin/../lib/gcc/avr/5.4.0/../../../../avr/lib/avr6\libm.a(cmpsf2.o)
 .bss           0x00800cc1        0x0 c:/program files (x86)/atmel/studio/7.0/toolchain/avr8/avr8-gnu-toolchain/bin/../lib/gcc/avr/5.4.0/../../../../avr/lib/avr6\libm.a(divsf3.o)
 .bss           0x00800cc1        0x0 c:/program files (x86)/atmel/studio/7.0/toolchain/avr8/avr8-gnu-toolchain/bin/../lib/gcc/avr/5.4.0/../../../../avr/lib/avr6\libm.a(divsf3x.o)
 .bss           0x00800cc1        0x0 c:/program files (x86)/atmel/studio/7.0/toolchain/avr8/avr8-gnu-toolchain/bin/../lib/gcc/avr/5.4.0/../../../../avr/lib/avr6\libm.a(fixsfsi.o)
 .bss           0x00800cc1        0x0 c:/program files (x86)/atmel/studio/7.0/toolchain/avr8/avr8-gnu-toolchain/bin/../lib/gcc/avr/5.4.0/../../../../avr/lib/avr6\libm.a(fixunssfsi.o)
 .bss           0x00800cc1        0x0 c:/program files (x86)/atmel/studio/7.0/toolchain/avr8/avr8-gnu-toolchain/bin/../lib/gcc/avr/5.4.0/../../../../avr/lib/avr6\libm.a(floatsisf.o)
 .bss           0x00800cc1        0x0 c:/program files (x86)/atmel/studio/7.0/toolchain/avr8/avr8-gnu-toolchain/bin/../lib/gcc/avr/5.4.0/../../../../avr/lib/avr6\libm.a(fp_cmp.o)
 .bss           0x00800cc1        0x0 c:/program files (x86)/atmel/studio/7.0/toolchain/avr8/avr8-gnu-toolchain/bin/../lib/gcc/avr/5.4.0/../../../../avr/lib/avr6\libm.a(fp_inf.o)
 .bss           0x00800cc1        0x0 c:/program files (x86)/atmel/studio/7.0/toolchain/avr8/avr8-gnu-toolchain/bin/../lib/gcc/avr/5.4.0/../../../../avr/lib/avr6\libm.a(fp_nan.o)
 .bss           0x00800cc1        0x0 c:/program files (x86)/atmel/studio/7.0/toolchain/avr8/avr8-gnu-toolchain/bin/../lib/gcc/avr/5.4.0/../../../../avr/lib/avr6\libm.a(fp_pscA.o)
 .bss           0x00800cc1        0x0 c:/program files (x86)/atmel/studio/7.0/toolchain/avr8/avr8-gnu-toolchain/bin/../lib/gcc/avr/5.4.0/../../../../avr/lib/avr6\libm.a(fp_pscB.o)
 .bss           0x00800cc1        0x0 c:/program files (x86)/atmel/studio/7.0/toolchain/avr8/avr8-gnu-toolchain/bin/../lib/gcc/avr/5.4.0/../../../../avr/lib/avr6\libm.a(fp_round.o)
 .bss           0x00800cc1        0x0 c:/program files (x86)/atmel/studio/7.0/toolchain/avr8/avr8-gnu-toolchain/bin/../lib/gcc/avr/5.4.0/../../../../avr/lib/avr6\libm.a(fp_split3.o)
 .bss           0x00800cc1        0x0 c:/program files (x86)/atmel/studio/7.0/toolchain/avr8/avr8-gnu-toolchain/bin/../lib/gcc/avr/5.4.0/../../../../avr/lib/avr6\libm.a(fp_zero.o)
 .bss           0x00800cc1        0x0 c:/program files (x86)/atmel/studio/7.0/toolchain/avr8/avr8-gnu-toolchain/bin/../lib/gcc/avr/5.4.0/../../../../avr/lib/avr6\libm.a(gesf2.o)
 .bss           0x00800cc1        0x0 c:/program files (x86)/atmel/studio/7.0/toolchain/avr8/avr8-gnu-toolchain/bin/../lib/gcc/avr/5.4.0/../../../../avr/lib/avr6\libm.a(mulsf3.o)
 .bss           0x00800cc1        0x0 c:/program files (x86)/atmel/studio/7.0/toolchain/avr8/avr8-gnu-toolchain/bin/../lib/gcc/avr/5.4.0/../../../../avr/lib/avr6\libm.a(mulsf3x.o)
 .bss           0x00800cc1        0x0 c:/program files (x86)/atmel/studio/7.0/toolchain/avr8/avr8-gnu-toolchain/bin/../lib/gcc/avr/5.4.0/../../../../avr/lib/avr6\libm.a(unordsf2.o)
 .bss           0x00800cc1        0x0 c:/program files (x86)/atmel/studio/7.0/toolchain/avr8/avr8-gnu-toolchain/bin/../lib/gcc/avr/5.4.0/../../../../avr/lib/avr6\libc.a(dtostrf.o)
 .bss           0x00800cc1        0x0 c:/program files (x86)/atmel/studio/7.0/toolchain/avr8/avr8-gnu-toolchain/bin/../lib/gcc/avr/5.4.0/../../../../avr/lib/avr6\libc.a(malloc.o)
 .bss           0x00800cc1        0x0 c:/program files (x86)/atmel/studio/7.0/toolchain/avr8/avr8-gnu-toolchain/bin/../lib/gcc/avr/5.4.0/../../../../avr/lib/avr6\libc.a(random.o)
 .bss           0x00800cc1        0x0 c:/program files (x86)/atmel/studio/7.0/toolchain/avr8/avr8-gnu-toolchain/bin/../lib/gcc/avr/5.4.0/../../../../avr/lib/avr6\libc.a(realloc.o)
 .bss           0x00800cc1        0x0 c:/program files (x86)/atmel/studio/7.0/toolchain/avr8/avr8-gnu-toolchain/bin/../lib/gcc/avr/5.4.0/../../../../avr/lib/avr6\libc.a(abort.o)
 .bss           0x00800cc1        0x0 c:/program files (x86)/atmel/studio/7.0/toolchain/avr8/avr8-gnu-toolchain/bin/../lib/gcc/avr/5.4.0/../../../../avr/lib/avr6\libc.a(atof.o)
 .bss           0x00800cc1        0x0 c:/program files (x86)/atmel/studio/7.0/toolchain/avr8/avr8-gnu-toolchain/bin/../lib/gcc/avr/5.4.0/../../../../avr/lib/avr6\libc.a(atol.o)
 .bss           0x00800cc1        0x0 c:/program files (x86)/atmel/studio/7.0/toolchain/avr8/avr8-gnu-toolchain/bin/../lib/gcc/avr/5.4.0/../../../../avr/lib/avr6\libc.a(isspace.o)
 .bss           0x00800cc1        0x0 c:/program files (x86)/atmel/studio/7.0/toolchain/avr8/avr8-gnu-toolchain/bin/../lib/gcc/avr/5.4.0/../../../../avr/lib/avr6\libc.a(tolower.o)
 .bss           0x00800cc1        0x0 c:/program files (x86)/atmel/studio/7.0/toolchain/avr8/avr8-gnu-toolchain/bin/../lib/gcc/avr/5.4.0/../../../../avr/lib/avr6\libc.a(toupper.o)
 .bss           0x00800cc1        0x0 c:/program files (x86)/atmel/studio/7.0/toolchain/avr8/avr8-gnu-toolchain/bin/../lib/gcc/avr/5.4.0/../../../../avr/lib/avr6\libc.a(strcpy_P.o)
 .bss           0x00800cc1        0x0 c:/program files (x86)/atmel/studio/7.0/toolchain/avr8/avr8-gnu-toolchain/bin/../lib/gcc/avr/5.4.0/../../../../avr/lib/avr6\libc.a(strlen_P.o)
 .bss           0x00800cc1        0x0 c:/program files (x86)/atmel/studio/7.0/toolchain/avr8/avr8-gnu-toolchain/bin/../lib/gcc/avr/5.4.0/../../../../avr/lib/avr6\libc.a(memcmp.o)
 .bss           0x00800cc1        0x0 c:/program files (x86)/atmel/studio/7.0/toolchain/avr8/avr8-gnu-toolchain/bin/../lib/gcc/avr/5.4.0/../../../../avr/lib/avr6\libc.a(memcpy.o)
 .bss           0x00800cc1        0x0 c:/program files (x86)/atmel/studio/7.0/toolchain/avr8/avr8-gnu-toolchain/bin/../lib/gcc/avr/5.4.0/../../../../avr/lib/avr6\libc.a(memmove.o)
 .bss           0x00800cc1        0x0 c:/program files (x86)/atmel/studio/7.0/toolchain/avr8/avr8-gnu-toolchain/bin/../lib/gcc/avr/5.4.0/../../../../avr/lib/avr6\libc.a(strchr.o)
 .bss           0x00800cc1        0x0 c:/program files (x86)/atmel/studio/7.0/toolchain/avr8/avr8-gnu-toolchain/bin/../lib/gcc/avr/5.4.0/../../../../avr/lib/avr6\libc.a(strcmp.o)
 .bss           0x00800cc1        0x0 c:/program files (x86)/atmel/studio/7.0/toolchain/avr8/avr8-gnu-toolchain/bin/../lib/gcc/avr/5.4.0/../../../../avr/lib/avr6\libc.a(strcpy.o)
 .bss           0x00800cc1        0x0 c:/program files (x86)/atmel/studio/7.0/toolchain/avr8/avr8-gnu-toolchain/bin/../lib/gcc/avr/5.4.0/../../../../avr/lib/avr6\libc.a(strncmp.o)
 .bss           0x00800cc1        0x0 c:/program files (x86)/atmel/studio/7.0/toolchain/avr8/avr8-gnu-toolchain/bin/../lib/gcc/avr/5.4.0/../../../../avr/lib/avr6\libc.a(strncpy.o)
 .bss           0x00800cc1        0x0 c:/program files (x86)/atmel/studio/7.0/toolchain/avr8/avr8-gnu-toolchain/bin/../lib/gcc/avr/5.4.0/../../../../avr/lib/avr6\libc.a(strrchr.o)
 .bss           0x00800cc1        0x0 c:/program files (x86)/atmel/studio/7.0/toolchain/avr8/avr8-gnu-toolchain/bin/../lib/gcc/avr/5.4.0/../../../../avr/lib/avr6\libc.a(strstr.o)
 .bss           0x00800cc1        0x0 c:/program files (x86)/atmel/studio/7.0/toolchain/avr8/avr8-gnu-toolchain/bin/../lib/gcc/avr/5.4.0/../../../../avr/lib/avr6\libc.a(itoa.o)
 .bss           0x00800cc1        0x0 c:/program files (x86)/atmel/studio/7.0/toolchain/avr8/avr8-gnu-toolchain/bin/../lib/gcc/avr/5.4.0/../../../../avr/lib/avr6\libc.a(itoa_ncheck.o)
 .bss           0x00800cc1        0x0 c:/program files (x86)/atmel/studio/7.0/toolchain/avr8/avr8-gnu-toolchain/bin/../lib/gcc/avr/5.4.0/../../../../avr/lib/avr6\libc.a(ltoa.o)
 .bss           0x00800cc1        0x0 c:/program files (x86)/atmel/studio/7.0/toolchain/avr8/avr8-gnu-toolchain/bin/../lib/gcc/avr/5.4.0/../../../../avr/lib/avr6\libc.a(ltoa_ncheck.o)
 .bss           0x00800cc1        0x0 c:/program files (x86)/atmel/studio/7.0/toolchain/avr8/avr8-gnu-toolchain/bin/../lib/gcc/avr/5.4.0/../../../../avr/lib/avr6\libc.a(mulsi10.o)
 .bss           0x00800cc1        0x0 c:/program files (x86)/atmel/studio/7.0/toolchain/avr8/avr8-gnu-toolchain/bin/../lib/gcc/avr/5.4.0/../../../../avr/lib/avr6\libc.a(ultoa.o)
 .bss           0x00800cc1        0x0 c:/program files (x86)/atmel/studio/7.0/toolchain/avr8/avr8-gnu-toolchain/bin/../lib/gcc/avr/5.4.0/../../../../avr/lib/avr6\libc.a(ultoa_ncheck.o)
 .bss           0x00800cc1        0x0 c:/program files (x86)/atmel/studio/7.0/toolchain/avr8/avr8-gnu-toolchain/bin/../lib/gcc/avr/5.4.0/../../../../avr/lib/avr6\libc.a(utoa.o)
 .bss           0x00800cc1        0x0 c:/program files (x86)/atmel/studio/7.0/toolchain/avr8/avr8-gnu-toolchain/bin/../lib/gcc/avr/5.4.0/../../../../avr/lib/avr6\libc.a(utoa_ncheck.o)
 .bss           0x00800cc1        0x0 c:/program files (x86)/atmel/studio/7.0/toolchain/avr8/avr8-gnu-toolchain/bin/../lib/gcc/avr/5.4.0/../../../../avr/lib/avr6\libc.a(printf.o)
 .bss           0x00800cc1        0x0 c:/program files (x86)/atmel/studio/7.0/toolchain/avr8/avr8-gnu-toolchain/bin/../lib/gcc/avr/5.4.0/../../../../avr/lib/avr6\libc.a(puts.o)
 .bss           0x00800cc1        0x0 c:/program files (x86)/atmel/studio/7.0/toolchain/avr8/avr8-gnu-toolchain/bin/../lib/gcc/avr/5.4.0/../../../../avr/lib/avr6\libc.a(vfprintf_std.o)
 .bss           0x00800cc1        0x0 c:/program files (x86)/atmel/studio/7.0/toolchain/avr8/avr8-gnu-toolchain/bin/../lib/gcc/avr/5.4.0/../../../../avr/lib/avr6\libc.a(dtoa_prf.o)
 .bss           0x00800cc1        0x0 c:/program files (x86)/atmel/studio/7.0/toolchain/avr8/avr8-gnu-toolchain/bin/../lib/gcc/avr/5.4.0/../../../../avr/lib/avr6\libc.a(strtod.o)
 .bss           0x00800cc1        0x0 c:/program files (x86)/atmel/studio/7.0/toolchain/avr8/avr8-gnu-toolchain/bin/../lib/gcc/avr/5.4.0/../../../../avr/lib/avr6\libc.a(ftoa_engine.o)
 .bss           0x00800cc1        0x0 c:/program files (x86)/atmel/studio/7.0/toolchain/avr8/avr8-gnu-toolchain/bin/../lib/gcc/avr/5.4.0/../../../../avr/lib/avr6\libc.a(cty_isfalse.o)
 .bss           0x00800cc1        0x0 c:/program files (x86)/atmel/studio/7.0/toolchain/avr8/avr8-gnu-toolchain/bin/../lib/gcc/avr/5.4.0/../../../../avr/lib/avr6\libc.a(strncasecmp_P.o)
 .bss           0x00800cc1        0x0 c:/program files (x86)/atmel/studio/7.0/toolchain/avr8/avr8-gnu-toolchain/bin/../lib/gcc/avr/5.4.0/../../../../avr/lib/avr6\libc.a(strnlen_P.o)
 .bss           0x00800cc1        0x0 c:/program files (x86)/atmel/studio/7.0/toolchain/avr8/avr8-gnu-toolchain/bin/../lib/gcc/avr/5.4.0/../../../../avr/lib/avr6\libc.a(strnlen.o)
 .bss           0x00800cc1        0x0 c:/program files (x86)/atmel/studio/7.0/toolchain/avr8/avr8-gnu-toolchain/bin/../lib/gcc/avr/5.4.0/../../../../avr/lib/avr6\libc.a(strrev.o)
 .bss           0x00800cc1        0x0 c:/program files (x86)/atmel/studio/7.0/toolchain/avr8/avr8-gnu-toolchain/bin/../lib/gcc/avr/5.4.0/../../../../avr/lib/avr6\libc.a(fputc.o)
 .bss           0x00800cc1        0x0 c:/program files (x86)/atmel/studio/7.0/toolchain/avr8/avr8-gnu-toolchain/bin/../lib/gcc/avr/5.4.0/../../../../avr/lib/avr6\libc.a(iob.o)
 .bss           0x00800cc1        0x0 c:/program files (x86)/atmel/studio/7.0/toolchain/avr8/avr8-gnu-toolchain/bin/../lib/gcc/avr/5.4.0/../../../../avr/lib/avr6\libc.a(ultoa_invert.o)
 .bss           0x00800cc1        0x0 c:/program files (x86)/atmel/studio/7.0/toolchain/avr8/avr8-gnu-toolchain/bin/../lib/gcc/avr/5.4.0/../../../../avr/lib/avr6\libc.a(errno.o)
 .bss           0x00800cc1        0x0 c:/program files (x86)/atmel/studio/7.0/toolchain/avr8/avr8-gnu-toolchain/bin/../lib/gcc/avr/5.4.0/avr6\libgcc.a(_mulshisi3.o)
 *(.bss*)
 *(COMMON)
 COMMON         0x00800cc1        0x4 c:/program files (x86)/atmel/studio/7.0/toolchain/avr8/avr8-gnu-toolchain/bin/../lib/gcc/avr/5.4.0/../../../../avr/lib/avr6\libc.a(malloc.o)
                0x00800cc1                __brkval
                0x00800cc3                __flp
 COMMON         0x00800cc5        0x6 c:/program files (x86)/atmel/studio/7.0/toolchain/avr8/avr8-gnu-toolchain/bin/../lib/gcc/avr/5.4.0/../../../../avr/lib/avr6\libc.a(iob.o)
                0x00800cc5                __iob
 COMMON         0x00800ccb        0x2 c:/program files (x86)/atmel/studio/7.0/toolchain/avr8/avr8-gnu-toolchain/bin/../lib/gcc/avr/5.4.0/../../../../avr/lib/avr6\libc.a(errno.o)
                0x00800ccb                errno
                0x00800ccd                PROVIDE (__bss_end, .)
                0x0000948c                __data_load_start = LOADADDR (.data)
                0x0000993a                __data_load_end = (__data_load_start + SIZEOF (.data))

.noinit         0x00800ccd        0x0
                [!provide]                PROVIDE (__noinit_start, .)
 *(.noinit*)
                [!provide]                PROVIDE (__noinit_end, .)
                0x00800ccd                _end = .
                0x00800ccd                PROVIDE (__heap_start, .)

.eeprom         0x00810000        0x0
 *(.eeprom*)
                0x00810000                __eeprom_end = .

.fuse
 *(.fuse)
 *(.lfuse)
 *(.hfuse)
 *(.efuse)

.lock
 *(.lock*)

.signature
 *(.signature*)

.user_signatures
 *(.user_signatures*)

.stab
 *(.stab)

.stabstr
 *(.stabstr)

.stab.excl
 *(.stab.excl)

.stab.exclstr
 *(.stab.exclstr)

.stab.index
 *(.stab.index)

.stab.indexstr
 *(.stab.indexstr)

.comment        0x00000000       0x5c
 *(.comment)
 .comment       0x00000000       0x30 obj\Release\arduino\abi.o
                                 0x31 (size before relaxing)
 .comment       0x00000030       0x31 obj\Release\arduino\CDC.o
 .comment       0x00000030       0x31 obj\Release\arduino\dht.o
 .comment       0x00000030       0x31 obj\Release\arduino\HardwareSerial.o
 .comment       0x00000030       0x31 obj\Release\arduino\HardwareSerial0.o
 .comment       0x00000030       0x31 obj\Release\arduino\HardwareSerial1.o
 .comment       0x00000030       0x31 obj\Release\arduino\HardwareSerial2.o
 .comment       0x00000030       0x31 obj\Release\arduino\HardwareSerial3.o
 .comment       0x00000030       0x31 obj\Release\arduino\hooks.o
 .comment       0x00000030       0x31 obj\Release\arduino\IPAddress.o
 .comment       0x00000030       0x31 obj\Release\arduino\Key.o
 .comment       0x00000030       0x31 obj\Release\arduino\Keypad.o
 .comment       0x00000030       0x31 obj\Release\arduino\LiquidCrystal_I2C.o
 .comment       0x00000030       0x31 obj\Release\arduino\main.o
 .comment       0x00000030       0x31 obj\Release\arduino\new.o
 .comment       0x00000030       0x31 obj\Release\arduino\Password.o
 .comment       0x00000030       0x31 obj\Release\arduino\PluggableUSB.o
 .comment       0x00000030       0x31 obj\Release\arduino\Print.o
 .comment       0x00000030       0x31 obj\Release\arduino\Servo.o
 .comment       0x00000030       0x31 obj\Release\arduino\Stream.o
 .comment       0x00000030       0x31 obj\Release\arduino\Tone.o
 .comment       0x00000030       0x31 obj\Release\arduino\USBCore.o
 .comment       0x00000030       0x31 obj\Release\arduino\utility\twi.o
 .comment       0x00000030       0x31 obj\Release\arduino\WInterrupts.o
 .comment       0x00000030       0x31 obj\Release\arduino\Wire.o
 .comment       0x00000030       0x31 obj\Release\arduino\wiring.o
 .comment       0x00000030       0x31 obj\Release\arduino\wiring_analog.o
 .comment       0x00000030       0x31 obj\Release\arduino\wiring_digital.o
 .comment       0x00000030       0x31 obj\Release\arduino\wiring_pulse.o
 .comment       0x00000030       0x31 obj\Release\arduino\wiring_shift.o
 .comment       0x00000030       0x31 obj\Release\arduino\WMath.o
 .comment       0x00000030       0x31 obj\Release\arduino\WString.o
 .comment       0x00000030       0x31 obj\Release\Comfort.o
 .comment       0x00000030       0x31 obj\Release\Doorlock.o
 .comment       0x00000030       0x31 obj\Release\HWInputs.o
 .comment       0x00000030       0x31 obj\Release\HWOutputs.o
 .comment       0x00000030       0x31 obj\Release\Lights.o
 .comment       0x00000030       0x31 obj\Release\Logic.o
 .comment       0x00000030       0x31 obj\Release\Security.o
 .comment       0x00000030       0x31 obj\Release\SmartHome.o
 .comment       0x00000030       0x31 obj\Release\SWInputs.o
 .comment       0x00000030       0x31 obj\Release\SWOutputs.o
 .comment       0x00000030       0x31 obj\Release\WifiConn.o
 .comment       0x00000030       0x31 c:/program files (x86)/atmel/studio/7.0/toolchain/avr8/avr8-gnu-toolchain/bin/../lib/gcc/avr/5.4.0/../../../../avr/lib/avr6\libc.a(dtostrf.o)
 .comment       0x00000030       0x31 c:/program files (x86)/atmel/studio/7.0/toolchain/avr8/avr8-gnu-toolchain/bin/../lib/gcc/avr/5.4.0/../../../../avr/lib/avr6\libc.a(malloc.o)
 .comment       0x00000030       0x31 c:/program files (x86)/atmel/studio/7.0/toolchain/avr8/avr8-gnu-toolchain/bin/../lib/gcc/avr/5.4.0/../../../../avr/lib/avr6\libc.a(random.o)
 .comment       0x00000030       0x31 c:/program files (x86)/atmel/studio/7.0/toolchain/avr8/avr8-gnu-toolchain/bin/../lib/gcc/avr/5.4.0/../../../../avr/lib/avr6\libc.a(realloc.o)
 .comment       0x00000030       0x31 c:/program files (x86)/atmel/studio/7.0/toolchain/avr8/avr8-gnu-toolchain/bin/../lib/gcc/avr/5.4.0/../../../../avr/lib/avr6\libc.a(printf.o)
 .comment       0x00000030       0x31 c:/program files (x86)/atmel/studio/7.0/toolchain/avr8/avr8-gnu-toolchain/bin/../lib/gcc/avr/5.4.0/../../../../avr/lib/avr6\libc.a(puts.o)
 .comment       0x00000030       0x2c c:/program files (x86)/atmel/studio/7.0/toolchain/avr8/avr8-gnu-toolchain/bin/../lib/gcc/avr/5.4.0/../../../../avr/lib/avr6\libc.a(vfprintf_std.o)
                                 0x2d (size before relaxing)
 .comment       0x0000005c       0x31 c:/program files (x86)/atmel/studio/7.0/toolchain/avr8/avr8-gnu-toolchain/bin/../lib/gcc/avr/5.4.0/../../../../avr/lib/avr6\libc.a(dtoa_prf.o)
 .comment       0x0000005c       0x31 c:/program files (x86)/atmel/studio/7.0/toolchain/avr8/avr8-gnu-toolchain/bin/../lib/gcc/avr/5.4.0/../../../../avr/lib/avr6\libc.a(strtod.o)
 .comment       0x0000005c       0x31 c:/program files (x86)/atmel/studio/7.0/toolchain/avr8/avr8-gnu-toolchain/bin/../lib/gcc/avr/5.4.0/../../../../avr/lib/avr6\libc.a(fputc.o)
 .comment       0x0000005c       0x31 c:/program files (x86)/atmel/studio/7.0/toolchain/avr8/avr8-gnu-toolchain/bin/../lib/gcc/avr/5.4.0/../../../../avr/lib/avr6\libc.a(iob.o)
 .comment       0x0000005c       0x2d c:/program files (x86)/atmel/studio/7.0/toolchain/avr8/avr8-gnu-toolchain/bin/../lib/gcc/avr/5.4.0/../../../../avr/lib/avr6\libc.a(errno.o)

.note.gnu.avr.deviceinfo
                0x00000000       0x40
 .note.gnu.avr.deviceinfo
                0x00000000       0x40 c:/program files (x86)/atmel/studio/7.0/toolchain/avr8/avr8-gnu-toolchain/bin/../lib/gcc/avr/5.4.0/../../../../avr/lib/avr6/crtatmega2560.o

.note.gnu.build-id
 *(.note.gnu.build-id)

.debug
 *(.debug)

.line
 *(.line)

.debug_srcinfo
 *(.debug_srcinfo)

.debug_sfnames
 *(.debug_sfnames)

.debug_aranges
 *(.debug_aranges)

.debug_pubnames
 *(.debug_pubnames)

.debug_info     0x00000000      0xbbc
 *(.debug_info .gnu.linkonce.wi.*)
 .debug_info    0x00000000      0xbbc c:/program files (x86)/atmel/studio/7.0/toolchain/avr8/avr8-gnu-toolchain/bin/../lib/gcc/avr/5.4.0/../../../../avr/lib/avr6/crtatmega2560.o

.debug_abbrev   0x00000000      0xb1a
 *(.debug_abbrev)
 .debug_abbrev  0x00000000      0xb1a c:/program files (x86)/atmel/studio/7.0/toolchain/avr8/avr8-gnu-toolchain/bin/../lib/gcc/avr/5.4.0/../../../../avr/lib/avr6/crtatmega2560.o

.debug_line     0x00000000       0x1a
 *(.debug_line .debug_line.* .debug_line_end)
 .debug_line    0x00000000       0x1a c:/program files (x86)/atmel/studio/7.0/toolchain/avr8/avr8-gnu-toolchain/bin/../lib/gcc/avr/5.4.0/../../../../avr/lib/avr6/crtatmega2560.o

.debug_frame
 *(.debug_frame)

.debug_str      0x00000000      0x3e6
 *(.debug_str)
 .debug_str     0x00000000      0x3e6 c:/program files (x86)/atmel/studio/7.0/toolchain/avr8/avr8-gnu-toolchain/bin/../lib/gcc/avr/5.4.0/../../../../avr/lib/avr6/crtatmega2560.o

.debug_loc
 *(.debug_loc)

.debug_macinfo
 *(.debug_macinfo)

.debug_weaknames
 *(.debug_weaknames)

.debug_funcnames
 *(.debug_funcnames)

.debug_typenames
 *(.debug_typenames)

.debug_varnames
 *(.debug_varnames)

.debug_pubtypes
 *(.debug_pubtypes)

.debug_ranges
 *(.debug_ranges)

.debug_macro
 *(.debug_macro)
OUTPUT(bin\Release\SmartHome.elf elf32-avr)
LOAD linker stubs

Cross Reference Table

Symbol                                            File
DHT                                               obj\Release\HWInputs.o
                                                  obj\Release\Comfort.o
SWDPrint                                          obj\Release\SWOutputs.o
SWDigitalMode                                     obj\Release\SWOutputs.o
SWDigitalRead                                     obj\Release\SWInputs.o
SWDigitalWrite                                    obj\Release\SWOutputs.o
SWPrint                                           obj\Release\SWOutputs.o
SWReadDHT                                         obj\Release\SWInputs.o
SWReadInputs                                      obj\Release\SWInputs.o
SWWriteOutputs                                    obj\Release\SWOutputs.o
Serial                                            obj\Release\arduino\HardwareSerial0.o
                                                  obj\Release\WifiConn.o
                                                  obj\Release\SmartHome.o
                                                  obj\Release\Security.o
                                                  obj\Release\HWOutputs.o
                                                  obj\Release\HWInputs.o
                                                  obj\Release\Doorlock.o
                                                  obj\Release\Comfort.o
Serial1                                           obj\Release\arduino\HardwareSerial1.o
Serial2                                           obj\Release\arduino\HardwareSerial2.o
Serial3                                           obj\Release\arduino\HardwareSerial3.o
ServoCount                                        obj\Release\arduino\Servo.o
Wire                                              obj\Release\arduino\Wire.o
                                                  obj\Release\arduino\LiquidCrystal_I2C.o
_Z10LightsInitv                                   obj\Release\Lights.o
_Z10connToWifiv                                   obj\Release\WifiConn.o
                                                  obj\Release\HWInputs.o
_Z10lcdRefreshv                                   obj\Release\HWInputs.o
                                                  obj\Release\Comfort.o
_Z10randomSeedm                                   obj\Release\arduino\WMath.o
_Z10uploadDatav                                   obj\Release\WifiConn.o
_Z11ComfortInitv                                  obj\Release\Comfort.o
                                                  obj\Release\SmartHome.o
_Z11keypadEventc                                  obj\Release\HWInputs.o
                                                  obj\Release\Security.o
_Z11serialEventv                                  obj\Release\arduino\HardwareSerial.o
_Z12DoorlockInitv                                 obj\Release\Doorlock.o
                                                  obj\Release\SmartHome.o
                                                  obj\Release\HWInputs.o
_Z12HWReadInputsPh                                obj\Release\HWInputs.o
_Z12MainFunctionv                                 obj\Release\Logic.o
                                                  obj\Release\SmartHome.o
_Z12SecurityInitv                                 obj\Release\Security.o
                                                  obj\Release\SmartHome.o
_Z12disableTimerh                                 obj\Release\arduino\Tone.o
_Z12infoPgLightsv                                 obj\Release\WifiConn.o
_Z12serialEvent1v                                 obj\Release\arduino\HardwareSerial.o
_Z12serialEvent2v                                 obj\Release\arduino\HardwareSerial.o
_Z12serialEvent3v                                 obj\Release\arduino\HardwareSerial.o
_Z13HWDigitalModehh                               obj\Release\HWOutputs.o
                                                  obj\Release\Security.o
                                                  obj\Release\Lights.o
                                                  obj\Release\Doorlock.o
_Z13HWDigitalReadh                                obj\Release\HWInputs.o
                                                  obj\Release\Lights.o
_Z13checkpasswordv                                obj\Release\HWInputs.o
_Z13infoPgConfortv                                obj\Release\WifiConn.o
_Z14HWDigitalWritehh                              obj\Release\HWOutputs.o
                                                  obj\Release\Security.o
                                                  obj\Release\Lights.o
                                                  obj\Release\Doorlock.o
_Z14HWWriteOutputsPh                              obj\Release\HWOutputs.o
_Z14infoPgSecurityv                               obj\Release\WifiConn.o
                                                  obj\Release\HWInputs.o
_Z14serialEventRunv                               obj\Release\arduino\HardwareSerial.o
                                                  obj\Release\arduino\main.o
_Z15checkpassworddlv                              obj\Release\HWInputs.o
_Z16motion_detectionv                             obj\Release\HWInputs.o
                                                  obj\Release\Security.o
_Z16open_all_thetimev                             obj\Release\HWInputs.o
_Z16passwordevaluatePc                            obj\Release\HWInputs.o
_Z17Serial0_availablev                            obj\Release\arduino\HardwareSerial0.o
                                                  obj\Release\arduino\HardwareSerial.o
_Z17Serial1_availablev                            obj\Release\arduino\HardwareSerial1.o
                                                  obj\Release\arduino\HardwareSerial.o
_Z17Serial2_availablev                            obj\Release\arduino\HardwareSerial2.o
                                                  obj\Release\arduino\HardwareSerial.o
_Z17Serial3_availablev                            obj\Release\arduino\HardwareSerial3.o
                                                  obj\Release\arduino\HardwareSerial.o
_Z17unlock_door_eventc                            obj\Release\HWInputs.o
                                                  obj\Release\Doorlock.o
_Z18LightsMainFunctionv                           obj\Release\Lights.o
_Z19ComfortMainFunctionv                          obj\Release\Comfort.o
                                                  obj\Release\Logic.o
_Z20DoorlockMainFunctionv                         obj\Release\Doorlock.o
                                                  obj\Release\Logic.o
_Z20SecurityMainFunctionv                         obj\Release\Security.o
                                                  obj\Release\Logic.o
_Z3maplllll                                       obj\Release\arduino\WMath.o
                                                  obj\Release\Comfort.o
                                                  obj\Release\arduino\Servo.o
_Z4tonehjm                                        obj\Release\arduino\Tone.o
_Z5armedv                                         obj\Release\HWInputs.o
_Z6closedv                                        obj\Release\HWInputs.o
_Z6noToneh                                        obj\Release\arduino\Tone.o
_Z6randoml                                        obj\Release\arduino\WMath.o
_Z6randomll                                       obj\Release\arduino\WMath.o
_Z7HWPrintPc                                      obj\Release\HWOutputs.o
                                                  obj\Release\Comfort.o
_Z8HWDPrintd                                      obj\Release\HWOutputs.o
_Z8disarmedv                                      obj\Release\HWInputs.o
_Z8makeWordhh                                     obj\Release\arduino\WMath.o
                                                  obj\Release\arduino\dht.o
_Z8makeWordj                                      obj\Release\arduino\WMath.o
_Z8setupUSBv                                      obj\Release\arduino\main.o
_Z9HWReadDHTPdS_                                  obj\Release\HWInputs.o
_ZN14HardwareSerial17_tx_udr_empty_irqEv          obj\Release\arduino\HardwareSerial.o
                                                  obj\Release\arduino\HardwareSerial3.o
                                                  obj\Release\arduino\HardwareSerial2.o
                                                  obj\Release\arduino\HardwareSerial1.o
                                                  obj\Release\arduino\HardwareSerial0.o
_ZN14HardwareSerial17availableForWriteEv          obj\Release\arduino\HardwareSerial.o
_ZN14HardwareSerial3endEv                         obj\Release\arduino\HardwareSerial.o
_ZN14HardwareSerial4peekEv                        obj\Release\arduino\HardwareSerial.o
_ZN14HardwareSerial4readEv                        obj\Release\arduino\HardwareSerial.o
                                                  obj\Release\WifiConn.o
_ZN14HardwareSerial5beginEmh                      obj\Release\arduino\HardwareSerial.o
                                                  obj\Release\SmartHome.o
                                                  obj\Release\Security.o
                                                  obj\Release\Doorlock.o
                                                  obj\Release\Comfort.o
_ZN14HardwareSerial5flushEv                       obj\Release\arduino\HardwareSerial.o
_ZN14HardwareSerial5writeEh                       obj\Release\arduino\HardwareSerial.o
                                                  obj\Release\WifiConn.o
_ZN14HardwareSerial9availableEv                   obj\Release\arduino\HardwareSerial.o
                                                  obj\Release\WifiConn.o
                                                  obj\Release\arduino\HardwareSerial3.o
                                                  obj\Release\arduino\HardwareSerial2.o
                                                  obj\Release\arduino\HardwareSerial1.o
                                                  obj\Release\arduino\HardwareSerial0.o
_ZN17LiquidCrystal_I2C10autoscrollEv              obj\Release\arduino\LiquidCrystal_I2C.o
_ZN17LiquidCrystal_I2C10createCharEhPh            obj\Release\arduino\LiquidCrystal_I2C.o
                                                  obj\Release\Comfort.o
_ZN17LiquidCrystal_I2C10cursor_offEv              obj\Release\arduino\LiquidCrystal_I2C.o
                                                  obj\Release\HWInputs.o
_ZN17LiquidCrystal_I2C10write4bitsEh              obj\Release\arduino\LiquidCrystal_I2C.o
_ZN17LiquidCrystal_I2C11leftToRightEv             obj\Release\arduino\LiquidCrystal_I2C.o
_ZN17LiquidCrystal_I2C11noBacklightEv             obj\Release\arduino\LiquidCrystal_I2C.o
                                                  obj\Release\HWInputs.o
_ZN17LiquidCrystal_I2C11pulseEnableEh             obj\Release\arduino\LiquidCrystal_I2C.o
_ZN17LiquidCrystal_I2C11rightToLeftEv             obj\Release\arduino\LiquidCrystal_I2C.o
_ZN17LiquidCrystal_I2C11setContrastEh             obj\Release\arduino\LiquidCrystal_I2C.o
_ZN17LiquidCrystal_I2C12noAutoscrollEv            obj\Release\arduino\LiquidCrystal_I2C.o
_ZN17LiquidCrystal_I2C12setBacklightEh            obj\Release\arduino\LiquidCrystal_I2C.o
                                                  obj\Release\Comfort.o
_ZN17LiquidCrystal_I2C13expanderWriteEh           obj\Release\arduino\LiquidCrystal_I2C.o
_ZN17LiquidCrystal_I2C13init_bargraphEh           obj\Release\arduino\LiquidCrystal_I2C.o
_ZN17LiquidCrystal_I2C17scrollDisplayLeftEv       obj\Release\arduino\LiquidCrystal_I2C.o
_ZN17LiquidCrystal_I2C18scrollDisplayRightEv      obj\Release\arduino\LiquidCrystal_I2C.o
_ZN17LiquidCrystal_I2C19draw_vertical_graphEhhhh  obj\Release\arduino\LiquidCrystal_I2C.o
_ZN17LiquidCrystal_I2C21draw_horizontal_graphEhhhh obj\Release\arduino\LiquidCrystal_I2C.o
_ZN17LiquidCrystal_I2C21load_custom_characterEhPh obj\Release\arduino\LiquidCrystal_I2C.o
_ZN17LiquidCrystal_I2C2onEv                       obj\Release\arduino\LiquidCrystal_I2C.o
_ZN17LiquidCrystal_I2C3offEv                      obj\Release\arduino\LiquidCrystal_I2C.o
_ZN17LiquidCrystal_I2C4homeEv                     obj\Release\arduino\LiquidCrystal_I2C.o
_ZN17LiquidCrystal_I2C4initEv                     obj\Release\arduino\LiquidCrystal_I2C.o
                                                  obj\Release\Security.o
                                                  obj\Release\Doorlock.o
                                                  obj\Release\Comfort.o
_ZN17LiquidCrystal_I2C4sendEhh                    obj\Release\arduino\LiquidCrystal_I2C.o
_ZN17LiquidCrystal_I2C5beginEhhh                  obj\Release\arduino\LiquidCrystal_I2C.o
_ZN17LiquidCrystal_I2C5blinkEv                    obj\Release\arduino\LiquidCrystal_I2C.o
                                                  obj\Release\HWInputs.o
                                                  obj\Release\Doorlock.o
_ZN17LiquidCrystal_I2C5clearEv                    obj\Release\arduino\LiquidCrystal_I2C.o
                                                  obj\Release\HWInputs.o
                                                  obj\Release\Comfort.o
_ZN17LiquidCrystal_I2C5writeEh                    obj\Release\arduino\LiquidCrystal_I2C.o
_ZN17LiquidCrystal_I2C6cursorEv                   obj\Release\arduino\LiquidCrystal_I2C.o
_ZN17LiquidCrystal_I2C6keypadEv                   obj\Release\arduino\LiquidCrystal_I2C.o
_ZN17LiquidCrystal_I2C6statusEv                   obj\Release\arduino\LiquidCrystal_I2C.o
_ZN17LiquidCrystal_I2C7commandEh                  obj\Release\arduino\LiquidCrystal_I2C.o
_ZN17LiquidCrystal_I2C7displayEv                  obj\Release\arduino\LiquidCrystal_I2C.o
_ZN17LiquidCrystal_I2C7noBlinkEv                  obj\Release\arduino\LiquidCrystal_I2C.o
_ZN17LiquidCrystal_I2C8blink_onEv                 obj\Release\arduino\LiquidCrystal_I2C.o
                                                  obj\Release\HWInputs.o
_ZN17LiquidCrystal_I2C8noCursorEv                 obj\Release\arduino\LiquidCrystal_I2C.o
_ZN17LiquidCrystal_I2C8printstrEPKc               obj\Release\arduino\LiquidCrystal_I2C.o
_ZN17LiquidCrystal_I2C8setDelayEii                obj\Release\arduino\LiquidCrystal_I2C.o
_ZN17LiquidCrystal_I2C9backlightEv                obj\Release\arduino\LiquidCrystal_I2C.o
                                                  obj\Release\Security.o
                                                  obj\Release\HWInputs.o
                                                  obj\Release\Doorlock.o
_ZN17LiquidCrystal_I2C9blink_offEv                obj\Release\arduino\LiquidCrystal_I2C.o
                                                  obj\Release\HWInputs.o
_ZN17LiquidCrystal_I2C9cursor_onEv                obj\Release\arduino\LiquidCrystal_I2C.o
                                                  obj\Release\HWInputs.o
_ZN17LiquidCrystal_I2C9init_privEv                obj\Release\arduino\LiquidCrystal_I2C.o
_ZN17LiquidCrystal_I2C9noDisplayEv                obj\Release\arduino\LiquidCrystal_I2C.o
_ZN17LiquidCrystal_I2C9setCursorEhh               obj\Release\arduino\LiquidCrystal_I2C.o
                                                  obj\Release\Security.o
                                                  obj\Release\HWInputs.o
                                                  obj\Release\Doorlock.o
_ZN17LiquidCrystal_I2CC1Ehhh                      obj\Release\arduino\LiquidCrystal_I2C.o
                                                  obj\Release\HWInputs.o
_ZN17LiquidCrystal_I2CC2Ehhh                      obj\Release\arduino\LiquidCrystal_I2C.o
_ZN3Key10key_updateEc8KeyStateb                   obj\Release\arduino\Key.o
_ZN3KeyC1Ec                                       obj\Release\arduino\Key.o
_ZN3KeyC1Ev                                       obj\Release\arduino\Key.o
                                                  obj\Release\arduino\Keypad.o
_ZN3KeyC2Ec                                       obj\Release\arduino\Key.o
_ZN3KeyC2Ev                                       obj\Release\arduino\Key.o
                                                  obj\Release\arduino\Keypad.o
_ZN3dht4readEh                                    obj\Release\arduino\dht.o
_ZN3dht6read11Eh                                  obj\Release\arduino\dht.o
                                                  obj\Release\HWInputs.o
                                                  obj\Release\Comfort.o
_ZN3dht6read22Eh                                  obj\Release\arduino\dht.o
_ZN5Print10printFloatEdh                          obj\Release\arduino\Print.o
_ZN5Print11printNumberEmh                         obj\Release\arduino\Print.o
_ZN5Print17availableForWriteEv                    obj\Release\arduino\HardwareSerial0.o
                                                  obj\Release\arduino\Wire.o
                                                  obj\Release\arduino\Print.o
                                                  obj\Release\arduino\LiquidCrystal_I2C.o
                                                  obj\Release\arduino\HardwareSerial3.o
                                                  obj\Release\arduino\HardwareSerial2.o
                                                  obj\Release\arduino\HardwareSerial1.o
_ZN5Print5flushEv                                 obj\Release\arduino\HardwareSerial0.o
                                                  obj\Release\arduino\Wire.o
                                                  obj\Release\arduino\Print.o
                                                  obj\Release\arduino\LiquidCrystal_I2C.o
                                                  obj\Release\arduino\HardwareSerial3.o
                                                  obj\Release\arduino\HardwareSerial2.o
                                                  obj\Release\arduino\HardwareSerial1.o
_ZN5Print5printEPK19__FlashStringHelper           obj\Release\arduino\Print.o
_ZN5Print5printEPKc                               obj\Release\arduino\Print.o
                                                  obj\Release\WifiConn.o
                                                  obj\Release\Security.o
                                                  obj\Release\HWInputs.o
                                                  obj\Release\Doorlock.o
                                                  obj\Release\Comfort.o
                                                  obj\Release\arduino\LiquidCrystal_I2C.o
_ZN5Print5printERK6String                         obj\Release\arduino\Print.o
                                                  obj\Release\WifiConn.o
_ZN5Print5printERK9Printable                      obj\Release\arduino\Print.o
_ZN5Print5printEc                                 obj\Release\arduino\Print.o
                                                  obj\Release\HWInputs.o
                                                  obj\Release\arduino\IPAddress.o
_ZN5Print5printEdi                                obj\Release\arduino\Print.o
_ZN5Print5printEhi                                obj\Release\arduino\Print.o
                                                  obj\Release\arduino\IPAddress.o
_ZN5Print5printEii                                obj\Release\arduino\Print.o
                                                  obj\Release\HWInputs.o
_ZN5Print5printEji                                obj\Release\arduino\Print.o
_ZN5Print5printEli                                obj\Release\arduino\Print.o
_ZN5Print5printEmi                                obj\Release\arduino\Print.o
_ZN5Print5writeEPKc                               obj\Release\arduino\Print.o
_ZN5Print5writeEPKhj                              obj\Release\arduino\Print.o
                                                  obj\Release\arduino\LiquidCrystal_I2C.o
                                                  obj\Release\arduino\HardwareSerial.o
_ZN5Print7printlnEPK19__FlashStringHelper         obj\Release\arduino\Print.o
_ZN5Print7printlnEPKc                             obj\Release\arduino\Print.o
                                                  obj\Release\Security.o
                                                  obj\Release\HWOutputs.o
                                                  obj\Release\HWInputs.o
                                                  obj\Release\Comfort.o
_ZN5Print7printlnERK6String                       obj\Release\arduino\Print.o
_ZN5Print7printlnERK9Printable                    obj\Release\arduino\Print.o
_ZN5Print7printlnEc                               obj\Release\arduino\Print.o
                                                  obj\Release\HWInputs.o
_ZN5Print7printlnEdi                              obj\Release\arduino\Print.o
                                                  obj\Release\HWOutputs.o
_ZN5Print7printlnEhi                              obj\Release\arduino\Print.o
                                                  obj\Release\HWOutputs.o
                                                  obj\Release\HWInputs.o
                                                  obj\Release\Comfort.o
_ZN5Print7printlnEii                              obj\Release\arduino\Print.o
                                                  obj\Release\HWInputs.o
                                                  obj\Release\Comfort.o
_ZN5Print7printlnEji                              obj\Release\arduino\Print.o
_ZN5Print7printlnEli                              obj\Release\arduino\Print.o
_ZN5Print7printlnEmi                              obj\Release\arduino\Print.o
_ZN5Print7printlnEv                               obj\Release\arduino\Print.o
_ZN5Servo16readMicrosecondsEv                     obj\Release\arduino\Servo.o
_ZN5Servo17writeMicrosecondsEi                    obj\Release\arduino\Servo.o
_ZN5Servo4readEv                                  obj\Release\arduino\Servo.o
_ZN5Servo5writeEi                                 obj\Release\arduino\Servo.o
                                                  obj\Release\HWInputs.o
_ZN5Servo6attachEi                                obj\Release\arduino\Servo.o
                                                  obj\Release\Doorlock.o
_ZN5Servo6attachEiii                              obj\Release\arduino\Servo.o
_ZN5Servo6detachEv                                obj\Release\arduino\Servo.o
_ZN5Servo8attachedEv                              obj\Release\arduino\Servo.o
_ZN5ServoC1Ev                                     obj\Release\arduino\Servo.o
                                                  obj\Release\HWInputs.o
_ZN5ServoC2Ev                                     obj\Release\arduino\Servo.o
_ZN6Keypad10findInListEc                          obj\Release\arduino\Keypad.o
_ZN6Keypad10findInListEi                          obj\Release\arduino\Keypad.o
_ZN6Keypad10updateListEv                          obj\Release\arduino\Keypad.o
_ZN6Keypad10waitForKeyEv                          obj\Release\arduino\Keypad.o
_ZN6Keypad11setHoldTimeEj                         obj\Release\arduino\Keypad.o
_ZN6Keypad12nextKeyStateEhb                       obj\Release\arduino\Keypad.o
_ZN6Keypad12transitionToEh8KeyState               obj\Release\arduino\Keypad.o
_ZN6Keypad15keyStateChangedEv                     obj\Release\arduino\Keypad.o
_ZN6Keypad15setDebounceTimeEj                     obj\Release\arduino\Keypad.o
_ZN6Keypad16addEventListenerEPFvcE                obj\Release\arduino\Keypad.o
                                                  obj\Release\Security.o
                                                  obj\Release\Doorlock.o
_ZN6Keypad5beginEPc                               obj\Release\arduino\Keypad.o
_ZN6Keypad6getKeyEv                               obj\Release\arduino\Keypad.o
                                                  obj\Release\Security.o
                                                  obj\Release\Doorlock.o
_ZN6Keypad7getKeysEv                              obj\Release\arduino\Keypad.o
_ZN6Keypad7numKeysEv                              obj\Release\arduino\Keypad.o
_ZN6Keypad8getStateEv                             obj\Release\arduino\Keypad.o
                                                  obj\Release\HWInputs.o
_ZN6Keypad8pin_modeEhh                            obj\Release\arduino\Keypad.o
_ZN6Keypad8pin_readEh                             obj\Release\arduino\Keypad.o
_ZN6Keypad8scanKeysEv                             obj\Release\arduino\Keypad.o
_ZN6Keypad9isPressedEc                            obj\Release\arduino\Keypad.o
_ZN6Keypad9pin_writeEhb                           obj\Release\arduino\Keypad.o
_ZN6KeypadC1EPcPhS1_hh                            obj\Release\arduino\Keypad.o
                                                  obj\Release\HWInputs.o
_ZN6KeypadC2EPcPhS1_hh                            obj\Release\arduino\Keypad.o
_ZN6Stream10parseFloatE13LookaheadModec           obj\Release\arduino\Stream.o
_ZN6Stream10readStringEv                          obj\Release\arduino\Stream.o
_ZN6Stream10setTimeoutEm                          obj\Release\arduino\Stream.o
_ZN6Stream13peekNextDigitE13LookaheadModeb        obj\Release\arduino\Stream.o
_ZN6Stream14readBytesUntilEcPcj                   obj\Release\arduino\Stream.o
_ZN6Stream15readStringUntilEc                     obj\Release\arduino\Stream.o
_ZN6Stream4findEPc                                obj\Release\arduino\Stream.o
_ZN6Stream4findEPcj                               obj\Release\arduino\Stream.o
_ZN6Stream8parseIntE13LookaheadModec              obj\Release\arduino\Stream.o
_ZN6Stream9findMultiEPNS_11MultiTargetEi          obj\Release\arduino\Stream.o
_ZN6Stream9findUntilEPcS0_                        obj\Release\arduino\Stream.o
_ZN6Stream9findUntilEPcjS0_j                      obj\Release\arduino\Stream.o
_ZN6Stream9readBytesEPcj                          obj\Release\arduino\Stream.o
_ZN6Stream9timedPeekEv                            obj\Release\arduino\Stream.o
_ZN6Stream9timedReadEv                            obj\Release\arduino\Stream.o
_ZN6String10invalidateEv                          obj\Release\arduino\WString.o
_ZN6String11toLowerCaseEv                         obj\Release\arduino\WString.o
_ZN6String11toUpperCaseEv                         obj\Release\arduino\WString.o
_ZN6String12changeBufferEj                        obj\Release\arduino\WString.o
_ZN6String4copyEPK19__FlashStringHelperj          obj\Release\arduino\WString.o
_ZN6String4copyEPKcj                              obj\Release\arduino\WString.o
_ZN6String4trimEv                                 obj\Release\arduino\WString.o
_ZN6String6concatEPK19__FlashStringHelper         obj\Release\arduino\WString.o
_ZN6String6concatEPKc                             obj\Release\arduino\WString.o
_ZN6String6concatEPKcj                            obj\Release\arduino\WString.o
_ZN6String6concatERKS_                            obj\Release\arduino\WString.o
_ZN6String6concatEc                               obj\Release\arduino\WString.o
                                                  obj\Release\arduino\Stream.o
_ZN6String6concatEd                               obj\Release\arduino\WString.o
_ZN6String6concatEf                               obj\Release\arduino\WString.o
_ZN6String6concatEh                               obj\Release\arduino\WString.o
_ZN6String6concatEi                               obj\Release\arduino\WString.o
_ZN6String6concatEj                               obj\Release\arduino\WString.o
_ZN6String6concatEl                               obj\Release\arduino\WString.o
_ZN6String6concatEm                               obj\Release\arduino\WString.o
_ZN6String6removeEj                               obj\Release\arduino\WString.o
_ZN6String6removeEjj                              obj\Release\arduino\WString.o
_ZN6String7replaceERKS_S1_                        obj\Release\arduino\WString.o
_ZN6String7replaceEcc                             obj\Release\arduino\WString.o
_ZN6String7reserveEj                              obj\Release\arduino\WString.o
_ZN6String9setCharAtEjc                           obj\Release\arduino\WString.o
_ZN6StringC1EPK19__FlashStringHelper              obj\Release\arduino\WString.o
_ZN6StringC1EPKc                                  obj\Release\arduino\WString.o
                                                  obj\Release\WifiConn.o
                                                  obj\Release\arduino\Stream.o
_ZN6StringC1ERKS_                                 obj\Release\arduino\WString.o
                                                  obj\Release\WifiConn.o
_ZN6StringC1Ec                                    obj\Release\arduino\WString.o
_ZN6StringC1Edh                                   obj\Release\arduino\WString.o
_ZN6StringC1Efh                                   obj\Release\arduino\WString.o
_ZN6StringC1Ehh                                   obj\Release\arduino\WString.o
_ZN6StringC1Eih                                   obj\Release\arduino\WString.o
_ZN6StringC1Ejh                                   obj\Release\arduino\WString.o
_ZN6StringC1Elh                                   obj\Release\arduino\WString.o
_ZN6StringC1Emh                                   obj\Release\arduino\WString.o
_ZN6StringC2EPK19__FlashStringHelper              obj\Release\arduino\WString.o
_ZN6StringC2EPKc                                  obj\Release\arduino\WString.o
_ZN6StringC2ERKS_                                 obj\Release\arduino\WString.o
                                                  obj\Release\WifiConn.o
_ZN6StringC2Ec                                    obj\Release\arduino\WString.o
_ZN6StringC2Edh                                   obj\Release\arduino\WString.o
_ZN6StringC2Efh                                   obj\Release\arduino\WString.o
_ZN6StringC2Ehh                                   obj\Release\arduino\WString.o
_ZN6StringC2Eih                                   obj\Release\arduino\WString.o
_ZN6StringC2Ejh                                   obj\Release\arduino\WString.o
_ZN6StringC2Elh                                   obj\Release\arduino\WString.o
_ZN6StringC2Emh                                   obj\Release\arduino\WString.o
_ZN6StringD1Ev                                    obj\Release\arduino\WString.o
                                                  obj\Release\WifiConn.o
_ZN6StringD2Ev                                    obj\Release\arduino\WString.o
                                                  obj\Release\WifiConn.o
_ZN6StringaSEPK19__FlashStringHelper              obj\Release\arduino\WString.o
_ZN6StringaSEPKc                                  obj\Release\arduino\WString.o
_ZN6StringaSERKS_                                 obj\Release\arduino\WString.o
_ZN6StringixEj                                    obj\Release\arduino\WString.o
_ZN7TwoWire11requestFromEhh                       obj\Release\arduino\Wire.o
_ZN7TwoWire11requestFromEhhh                      obj\Release\arduino\Wire.o
_ZN7TwoWire11requestFromEhhmhh                    obj\Release\arduino\Wire.o
_ZN7TwoWire11requestFromEii                       obj\Release\arduino\Wire.o
_ZN7TwoWire11requestFromEiii                      obj\Release\arduino\Wire.o
_ZN7TwoWire12transmittingE                        obj\Release\arduino\Wire.o
_ZN7TwoWire13rxBufferIndexE                       obj\Release\arduino\Wire.o
_ZN7TwoWire13txBufferIndexE                       obj\Release\arduino\Wire.o
_ZN7TwoWire14rxBufferLengthE                      obj\Release\arduino\Wire.o
_ZN7TwoWire14txBufferLengthE                      obj\Release\arduino\Wire.o
_ZN7TwoWire14user_onReceiveE                      obj\Release\arduino\Wire.o
_ZN7TwoWire14user_onRequestE                      obj\Release\arduino\Wire.o
_ZN7TwoWire15endTransmissionEh                    obj\Release\arduino\Wire.o
_ZN7TwoWire15endTransmissionEv                    obj\Release\arduino\Wire.o
                                                  obj\Release\arduino\LiquidCrystal_I2C.o
_ZN7TwoWire16onReceiveServiceEPhi                 obj\Release\arduino\Wire.o
_ZN7TwoWire16onRequestServiceEv                   obj\Release\arduino\Wire.o
_ZN7TwoWire17beginTransmissionEh                  obj\Release\arduino\Wire.o
                                                  obj\Release\arduino\LiquidCrystal_I2C.o
_ZN7TwoWire17beginTransmissionEi                  obj\Release\arduino\Wire.o
_ZN7TwoWire3endEv                                 obj\Release\arduino\Wire.o
_ZN7TwoWire4peekEv                                obj\Release\arduino\Wire.o
_ZN7TwoWire4readEv                                obj\Release\arduino\Wire.o
_ZN7TwoWire5beginEh                               obj\Release\arduino\Wire.o
_ZN7TwoWire5beginEi                               obj\Release\arduino\Wire.o
_ZN7TwoWire5beginEv                               obj\Release\arduino\Wire.o
                                                  obj\Release\arduino\LiquidCrystal_I2C.o
_ZN7TwoWire5flushEv                               obj\Release\arduino\Wire.o
_ZN7TwoWire5writeEPKhj                            obj\Release\arduino\Wire.o
_ZN7TwoWire5writeEh                               obj\Release\arduino\Wire.o
                                                  obj\Release\arduino\LiquidCrystal_I2C.o
_ZN7TwoWire8rxBufferE                             obj\Release\arduino\Wire.o
_ZN7TwoWire8setClockEm                            obj\Release\arduino\Wire.o
_ZN7TwoWire8txBufferE                             obj\Release\arduino\Wire.o
_ZN7TwoWire9availableEv                           obj\Release\arduino\Wire.o
_ZN7TwoWire9onReceiveEPFviE                       obj\Release\arduino\Wire.o
_ZN7TwoWire9onRequestEPFvvE                       obj\Release\arduino\Wire.o
_ZN7TwoWire9txAddressE                            obj\Release\arduino\Wire.o
_ZN7TwoWireC1Ev                                   obj\Release\arduino\Wire.o
_ZN7TwoWireC2Ev                                   obj\Release\arduino\Wire.o
_ZN8Password2isEPc                                obj\Release\arduino\Password.o
_ZN8Password3setEPc                               obj\Release\arduino\Password.o
_ZN8Password5resetEv                              obj\Release\arduino\Password.o
_ZN8Password6appendEc                             obj\Release\arduino\Password.o
_ZN8Password8evaluateEv                           obj\Release\arduino\Password.o
_ZN8PasswordC1EPc                                 obj\Release\arduino\Password.o
                                                  obj\Release\HWInputs.o
_ZN8PasswordC2EPc                                 obj\Release\arduino\Password.o
_ZN8PasswordaSEPc                                 obj\Release\arduino\Password.o
_ZN8PasswordeqEPc                                 obj\Release\arduino\Password.o
_ZN8PasswordlsEc                                  obj\Release\arduino\Password.o
_ZN8PasswordneEPc                                 obj\Release\arduino\Password.o
_ZN9IPAddress10fromStringEPKc                     obj\Release\arduino\IPAddress.o
_ZN9IPAddressC1EPKh                               obj\Release\arduino\IPAddress.o
_ZN9IPAddressC1Ehhhh                              obj\Release\arduino\IPAddress.o
_ZN9IPAddressC1Em                                 obj\Release\arduino\IPAddress.o
_ZN9IPAddressC1Ev                                 obj\Release\arduino\IPAddress.o
_ZN9IPAddressC2EPKh                               obj\Release\arduino\IPAddress.o
_ZN9IPAddressC2Ehhhh                              obj\Release\arduino\IPAddress.o
_ZN9IPAddressC2Em                                 obj\Release\arduino\IPAddress.o
_ZN9IPAddressC2Ev                                 obj\Release\arduino\IPAddress.o
_ZN9IPAddressaSEPKh                               obj\Release\arduino\IPAddress.o
_ZN9IPAddressaSEm                                 obj\Release\arduino\IPAddress.o
_ZNK6String10startsWithERKS_                      obj\Release\arduino\WString.o
_ZNK6String10startsWithERKS_j                     obj\Release\arduino\WString.o
_ZNK6String11lastIndexOfERKS_                     obj\Release\arduino\WString.o
_ZNK6String11lastIndexOfERKS_j                    obj\Release\arduino\WString.o
_ZNK6String11lastIndexOfEc                        obj\Release\arduino\WString.o
_ZNK6String11lastIndexOfEcj                       obj\Release\arduino\WString.o
_ZNK6String16equalsIgnoreCaseERKS_                obj\Release\arduino\WString.o
_ZNK6String5toIntEv                               obj\Release\arduino\WString.o
_ZNK6String6charAtEj                              obj\Release\arduino\WString.o
_ZNK6String6equalsEPKc                            obj\Release\arduino\WString.o
_ZNK6String6equalsERKS_                           obj\Release\arduino\WString.o
_ZNK6String7indexOfERKS_                          obj\Release\arduino\WString.o
_ZNK6String7indexOfERKS_j                         obj\Release\arduino\WString.o
_ZNK6String7indexOfEc                             obj\Release\arduino\WString.o
_ZNK6String7indexOfEcj                            obj\Release\arduino\WString.o
_ZNK6String7toFloatEv                             obj\Release\arduino\WString.o
_ZNK6String8endsWithERKS_                         obj\Release\arduino\WString.o
_ZNK6String8getBytesEPhjj                         obj\Release\arduino\WString.o
_ZNK6String8toDoubleEv                            obj\Release\arduino\WString.o
_ZNK6String9compareToERKS_                        obj\Release\arduino\WString.o
_ZNK6String9substringEjj                          obj\Release\arduino\WString.o
_ZNK6StringgeERKS_                                obj\Release\arduino\WString.o
_ZNK6StringgtERKS_                                obj\Release\arduino\WString.o
_ZNK6StringixEj                                   obj\Release\arduino\WString.o
_ZNK6StringleERKS_                                obj\Release\arduino\WString.o
_ZNK6StringltERKS_                                obj\Release\arduino\WString.o
_ZNK9IPAddress7printToER5Print                    obj\Release\arduino\IPAddress.o
_ZNK9IPAddresseqEPKh                              obj\Release\arduino\IPAddress.o
_ZTV14HardwareSerial                              obj\Release\arduino\HardwareSerial.o
                                                  obj\Release\arduino\HardwareSerial3.o
                                                  obj\Release\arduino\HardwareSerial2.o
                                                  obj\Release\arduino\HardwareSerial1.o
                                                  obj\Release\arduino\HardwareSerial0.o
_ZTV17LiquidCrystal_I2C                           obj\Release\arduino\LiquidCrystal_I2C.o
_ZTV5Print                                        obj\Release\arduino\Print.o
_ZTV6Keypad                                       obj\Release\arduino\Keypad.o
_ZTV7TwoWire                                      obj\Release\arduino\Wire.o
_ZTV9IPAddress                                    obj\Release\arduino\IPAddress.o
_ZdaPv                                            obj\Release\arduino\new.o
_ZdlPv                                            obj\Release\arduino\new.o
_Znaj                                             obj\Release\arduino\new.o
_Znwj                                             obj\Release\arduino\new.o
_ZplRK15StringSumHelperPK19__FlashStringHelper    obj\Release\arduino\WString.o
_ZplRK15StringSumHelperPKc                        obj\Release\arduino\WString.o
_ZplRK15StringSumHelperRK6String                  obj\Release\arduino\WString.o
                                                  obj\Release\WifiConn.o
_ZplRK15StringSumHelperc                          obj\Release\arduino\WString.o
_ZplRK15StringSumHelperd                          obj\Release\arduino\WString.o
_ZplRK15StringSumHelperf                          obj\Release\arduino\WString.o
_ZplRK15StringSumHelperh                          obj\Release\arduino\WString.o
                                                  obj\Release\WifiConn.o
_ZplRK15StringSumHelperi                          obj\Release\arduino\WString.o
_ZplRK15StringSumHelperj                          obj\Release\arduino\WString.o
_ZplRK15StringSumHelperl                          obj\Release\arduino\WString.o
_ZplRK15StringSumHelperm                          obj\Release\arduino\WString.o
__DATA_REGION_LENGTH__                            c:/program files (x86)/atmel/studio/7.0/toolchain/avr8/avr8-gnu-toolchain/bin/../lib/gcc/avr/5.4.0/../../../../avr/lib/avr6/crtatmega2560.o
__DATA_REGION_ORIGIN__                            c:/program files (x86)/atmel/studio/7.0/toolchain/avr8/avr8-gnu-toolchain/bin/../lib/gcc/avr/5.4.0/../../../../avr/lib/avr6/crtatmega2560.o
__EEPROM_REGION_LENGTH__                          c:/program files (x86)/atmel/studio/7.0/toolchain/avr8/avr8-gnu-toolchain/bin/../lib/gcc/avr/5.4.0/../../../../avr/lib/avr6/crtatmega2560.o
__FUSE_REGION_LENGTH__                            c:/program files (x86)/atmel/studio/7.0/toolchain/avr8/avr8-gnu-toolchain/bin/../lib/gcc/avr/5.4.0/../../../../avr/lib/avr6/crtatmega2560.o
__TEXT_REGION_LENGTH__                            c:/program files (x86)/atmel/studio/7.0/toolchain/avr8/avr8-gnu-toolchain/bin/../lib/gcc/avr/5.4.0/../../../../avr/lib/avr6/crtatmega2560.o
__addsf3                                          c:/program files (x86)/atmel/studio/7.0/toolchain/avr8/avr8-gnu-toolchain/bin/../lib/gcc/avr/5.4.0/../../../../avr/lib/avr6\libm.a(addsf3.o)
                                                  obj\Release\HWInputs.o
                                                  obj\Release\arduino\Print.o
__addsf3x                                         c:/program files (x86)/atmel/studio/7.0/toolchain/avr8/avr8-gnu-toolchain/bin/../lib/gcc/avr/5.4.0/../../../../avr/lib/avr6\libm.a(addsf3x.o)
                                                  c:/program files (x86)/atmel/studio/7.0/toolchain/avr8/avr8-gnu-toolchain/bin/../lib/gcc/avr/5.4.0/../../../../avr/lib/avr6\libm.a(addsf3.o)
__bad_interrupt                                   c:/program files (x86)/atmel/studio/7.0/toolchain/avr8/avr8-gnu-toolchain/bin/../lib/gcc/avr/5.4.0/../../../../avr/lib/avr6/crtatmega2560.o
__brkval                                          c:/program files (x86)/atmel/studio/7.0/toolchain/avr8/avr8-gnu-toolchain/bin/../lib/gcc/avr/5.4.0/../../../../avr/lib/avr6\libc.a(malloc.o)
                                                  c:/program files (x86)/atmel/studio/7.0/toolchain/avr8/avr8-gnu-toolchain/bin/../lib/gcc/avr/5.4.0/../../../../avr/lib/avr6\libc.a(realloc.o)
__bss_end                                         c:/program files (x86)/atmel/studio/7.0/toolchain/avr8/avr8-gnu-toolchain/bin/../lib/gcc/avr/5.4.0/avr6\libgcc.a(_clear_bss.o)
__bss_start                                       c:/program files (x86)/atmel/studio/7.0/toolchain/avr8/avr8-gnu-toolchain/bin/../lib/gcc/avr/5.4.0/avr6\libgcc.a(_clear_bss.o)
__cmpsf2                                          c:/program files (x86)/atmel/studio/7.0/toolchain/avr8/avr8-gnu-toolchain/bin/../lib/gcc/avr/5.4.0/../../../../avr/lib/avr6\libm.a(cmpsf2.o)
__ctors_end                                       c:/program files (x86)/atmel/studio/7.0/toolchain/avr8/avr8-gnu-toolchain/bin/../lib/gcc/avr/5.4.0/avr6\libgcc.a(_ctors.o)
__ctors_start                                     c:/program files (x86)/atmel/studio/7.0/toolchain/avr8/avr8-gnu-toolchain/bin/../lib/gcc/avr/5.4.0/avr6\libgcc.a(_ctors.o)
__ctype_isfalse                                   c:/program files (x86)/atmel/studio/7.0/toolchain/avr8/avr8-gnu-toolchain/bin/../lib/gcc/avr/5.4.0/../../../../avr/lib/avr6\libc.a(cty_isfalse.o)
                                                  c:/program files (x86)/atmel/studio/7.0/toolchain/avr8/avr8-gnu-toolchain/bin/../lib/gcc/avr/5.4.0/../../../../avr/lib/avr6\libc.a(isspace.o)
__ctype_istrue                                    c:/program files (x86)/atmel/studio/7.0/toolchain/avr8/avr8-gnu-toolchain/bin/../lib/gcc/avr/5.4.0/../../../../avr/lib/avr6\libc.a(cty_isfalse.o)
__cxa_deleted_virtual                             obj\Release\arduino\abi.o
__cxa_pure_virtual                                obj\Release\arduino\abi.o
                                                  obj\Release\arduino\Print.o
__data_end                                        c:/program files (x86)/atmel/studio/7.0/toolchain/avr8/avr8-gnu-toolchain/bin/../lib/gcc/avr/5.4.0/avr6\libgcc.a(_copy_data.o)
__data_load_start                                 c:/program files (x86)/atmel/studio/7.0/toolchain/avr8/avr8-gnu-toolchain/bin/../lib/gcc/avr/5.4.0/avr6\libgcc.a(_copy_data.o)
__data_start                                      c:/program files (x86)/atmel/studio/7.0/toolchain/avr8/avr8-gnu-toolchain/bin/../lib/gcc/avr/5.4.0/avr6\libgcc.a(_copy_data.o)
__divmodsi4                                       c:/program files (x86)/atmel/studio/7.0/toolchain/avr8/avr8-gnu-toolchain/bin/../lib/gcc/avr/5.4.0/avr6\libgcc.a(_divmodsi4.o)
                                                  c:/program files (x86)/atmel/studio/7.0/toolchain/avr8/avr8-gnu-toolchain/bin/../lib/gcc/avr/5.4.0/../../../../avr/lib/avr6\libc.a(random.o)
                                                  obj\Release\arduino\WMath.o
__divsf3                                          c:/program files (x86)/atmel/studio/7.0/toolchain/avr8/avr8-gnu-toolchain/bin/../lib/gcc/avr/5.4.0/../../../../avr/lib/avr6\libm.a(divsf3.o)
                                                  obj\Release\arduino\Print.o
__divsf3_pse                                      c:/program files (x86)/atmel/studio/7.0/toolchain/avr8/avr8-gnu-toolchain/bin/../lib/gcc/avr/5.4.0/../../../../avr/lib/avr6\libm.a(divsf3x.o)
__divsf3x                                         c:/program files (x86)/atmel/studio/7.0/toolchain/avr8/avr8-gnu-toolchain/bin/../lib/gcc/avr/5.4.0/../../../../avr/lib/avr6\libm.a(divsf3x.o)
                                                  c:/program files (x86)/atmel/studio/7.0/toolchain/avr8/avr8-gnu-toolchain/bin/../lib/gcc/avr/5.4.0/../../../../avr/lib/avr6\libm.a(divsf3.o)
__do_clear_bss                                    c:/program files (x86)/atmel/studio/7.0/toolchain/avr8/avr8-gnu-toolchain/bin/../lib/gcc/avr/5.4.0/avr6\libgcc.a(_clear_bss.o)
                                                  c:/program files (x86)/atmel/studio/7.0/toolchain/avr8/avr8-gnu-toolchain/bin/../lib/gcc/avr/5.4.0/../../../../avr/lib/avr6\libc.a(errno.o)
                                                  c:/program files (x86)/atmel/studio/7.0/toolchain/avr8/avr8-gnu-toolchain/bin/../lib/gcc/avr/5.4.0/../../../../avr/lib/avr6\libc.a(iob.o)
                                                  c:/program files (x86)/atmel/studio/7.0/toolchain/avr8/avr8-gnu-toolchain/bin/../lib/gcc/avr/5.4.0/../../../../avr/lib/avr6\libc.a(malloc.o)
                                                  obj\Release\WifiConn.o
                                                  obj\Release\Security.o
                                                  obj\Release\Lights.o
                                                  obj\Release\HWInputs.o
                                                  obj\Release\Comfort.o
                                                  obj\Release\arduino\WString.o
                                                  obj\Release\arduino\wiring.o
                                                  obj\Release\arduino\Wire.o
                                                  obj\Release\arduino\utility\twi.o
                                                  obj\Release\arduino\Tone.o
                                                  obj\Release\arduino\Servo.o
                                                  obj\Release\arduino\HardwareSerial3.o
                                                  obj\Release\arduino\HardwareSerial2.o
                                                  obj\Release\arduino\HardwareSerial1.o
                                                  obj\Release\arduino\HardwareSerial0.o
__do_copy_data                                    c:/program files (x86)/atmel/studio/7.0/toolchain/avr8/avr8-gnu-toolchain/bin/../lib/gcc/avr/5.4.0/avr6\libgcc.a(_copy_data.o)
                                                  c:/program files (x86)/atmel/studio/7.0/toolchain/avr8/avr8-gnu-toolchain/bin/../lib/gcc/avr/5.4.0/../../../../avr/lib/avr6\libc.a(random.o)
                                                  c:/program files (x86)/atmel/studio/7.0/toolchain/avr8/avr8-gnu-toolchain/bin/../lib/gcc/avr/5.4.0/../../../../avr/lib/avr6\libc.a(malloc.o)
                                                  obj\Release\WifiConn.o
                                                  obj\Release\SWOutputs.o
                                                  obj\Release\SWInputs.o
                                                  obj\Release\Security.o
                                                  obj\Release\HWInputs.o
                                                  obj\Release\Doorlock.o
                                                  obj\Release\Comfort.o
                                                  obj\Release\arduino\WString.o
                                                  obj\Release\arduino\wiring_analog.o
                                                  obj\Release\arduino\Wire.o
                                                  obj\Release\arduino\WInterrupts.o
                                                  obj\Release\arduino\Tone.o
                                                  obj\Release\arduino\Stream.o
                                                  obj\Release\arduino\Print.o
                                                  obj\Release\arduino\LiquidCrystal_I2C.o
                                                  obj\Release\arduino\Keypad.o
                                                  obj\Release\arduino\IPAddress.o
                                                  obj\Release\arduino\HardwareSerial.o
__do_global_ctors                                 c:/program files (x86)/atmel/studio/7.0/toolchain/avr8/avr8-gnu-toolchain/bin/../lib/gcc/avr/5.4.0/avr6\libgcc.a(_ctors.o)
                                                  obj\Release\WifiConn.o
                                                  obj\Release\HWInputs.o
                                                  obj\Release\arduino\Wire.o
                                                  obj\Release\arduino\HardwareSerial3.o
                                                  obj\Release\arduino\HardwareSerial2.o
                                                  obj\Release\arduino\HardwareSerial1.o
                                                  obj\Release\arduino\HardwareSerial0.o
__do_global_dtors                                 c:/program files (x86)/atmel/studio/7.0/toolchain/avr8/avr8-gnu-toolchain/bin/../lib/gcc/avr/5.4.0/avr6\libgcc.a(_dtors.o)
                                                  obj\Release\WifiConn.o
__dtors_end                                       c:/program files (x86)/atmel/studio/7.0/toolchain/avr8/avr8-gnu-toolchain/bin/../lib/gcc/avr/5.4.0/avr6\libgcc.a(_dtors.o)
__dtors_start                                     c:/program files (x86)/atmel/studio/7.0/toolchain/avr8/avr8-gnu-toolchain/bin/../lib/gcc/avr/5.4.0/avr6\libgcc.a(_dtors.o)
__eqsf2                                           c:/program files (x86)/atmel/studio/7.0/toolchain/avr8/avr8-gnu-toolchain/bin/../lib/gcc/avr/5.4.0/../../../../avr/lib/avr6\libm.a(cmpsf2.o)
                                                  c:/program files (x86)/atmel/studio/7.0/toolchain/avr8/avr8-gnu-toolchain/bin/../lib/gcc/avr/5.4.0/../../../../avr/lib/avr6\libc.a(strtod.o)
__fixsfsi                                         c:/program files (x86)/atmel/studio/7.0/toolchain/avr8/avr8-gnu-toolchain/bin/../lib/gcc/avr/5.4.0/../../../../avr/lib/avr6\libm.a(fixsfsi.o)
                                                  obj\Release\HWInputs.o
                                                  obj\Release\Comfort.o
__fixunssfsi                                      c:/program files (x86)/atmel/studio/7.0/toolchain/avr8/avr8-gnu-toolchain/bin/../lib/gcc/avr/5.4.0/../../../../avr/lib/avr6\libm.a(fixunssfsi.o)
                                                  c:/program files (x86)/atmel/studio/7.0/toolchain/avr8/avr8-gnu-toolchain/bin/../lib/gcc/avr/5.4.0/../../../../avr/lib/avr6\libm.a(fixsfsi.o)
                                                  obj\Release\Comfort.o
                                                  obj\Release\arduino\Print.o
__floatsisf                                       c:/program files (x86)/atmel/studio/7.0/toolchain/avr8/avr8-gnu-toolchain/bin/../lib/gcc/avr/5.4.0/../../../../avr/lib/avr6\libm.a(floatsisf.o)
                                                  obj\Release\Comfort.o
                                                  obj\Release\arduino\Stream.o
__floatunsisf                                     c:/program files (x86)/atmel/studio/7.0/toolchain/avr8/avr8-gnu-toolchain/bin/../lib/gcc/avr/5.4.0/../../../../avr/lib/avr6\libm.a(floatsisf.o)
                                                  c:/program files (x86)/atmel/studio/7.0/toolchain/avr8/avr8-gnu-toolchain/bin/../lib/gcc/avr/5.4.0/../../../../avr/lib/avr6\libc.a(strtod.o)
                                                  obj\Release\arduino\Print.o
                                                  obj\Release\arduino\dht.o
__flp                                             c:/program files (x86)/atmel/studio/7.0/toolchain/avr8/avr8-gnu-toolchain/bin/../lib/gcc/avr/5.4.0/../../../../avr/lib/avr6\libc.a(malloc.o)
                                                  c:/program files (x86)/atmel/studio/7.0/toolchain/avr8/avr8-gnu-toolchain/bin/../lib/gcc/avr/5.4.0/../../../../avr/lib/avr6\libc.a(realloc.o)
__fp_cmp                                          c:/program files (x86)/atmel/studio/7.0/toolchain/avr8/avr8-gnu-toolchain/bin/../lib/gcc/avr/5.4.0/../../../../avr/lib/avr6\libm.a(fp_cmp.o)
                                                  c:/program files (x86)/atmel/studio/7.0/toolchain/avr8/avr8-gnu-toolchain/bin/../lib/gcc/avr/5.4.0/../../../../avr/lib/avr6\libm.a(unordsf2.o)
                                                  c:/program files (x86)/atmel/studio/7.0/toolchain/avr8/avr8-gnu-toolchain/bin/../lib/gcc/avr/5.4.0/../../../../avr/lib/avr6\libm.a(gesf2.o)
                                                  c:/program files (x86)/atmel/studio/7.0/toolchain/avr8/avr8-gnu-toolchain/bin/../lib/gcc/avr/5.4.0/../../../../avr/lib/avr6\libm.a(cmpsf2.o)
__fp_inf                                          c:/program files (x86)/atmel/studio/7.0/toolchain/avr8/avr8-gnu-toolchain/bin/../lib/gcc/avr/5.4.0/../../../../avr/lib/avr6\libm.a(fp_inf.o)
                                                  c:/program files (x86)/atmel/studio/7.0/toolchain/avr8/avr8-gnu-toolchain/bin/../lib/gcc/avr/5.4.0/../../../../avr/lib/avr6\libm.a(mulsf3x.o)
                                                  c:/program files (x86)/atmel/studio/7.0/toolchain/avr8/avr8-gnu-toolchain/bin/../lib/gcc/avr/5.4.0/../../../../avr/lib/avr6\libm.a(divsf3x.o)
                                                  c:/program files (x86)/atmel/studio/7.0/toolchain/avr8/avr8-gnu-toolchain/bin/../lib/gcc/avr/5.4.0/../../../../avr/lib/avr6\libm.a(addsf3x.o)
__fp_nan                                          c:/program files (x86)/atmel/studio/7.0/toolchain/avr8/avr8-gnu-toolchain/bin/../lib/gcc/avr/5.4.0/../../../../avr/lib/avr6\libm.a(fp_nan.o)
                                                  c:/program files (x86)/atmel/studio/7.0/toolchain/avr8/avr8-gnu-toolchain/bin/../lib/gcc/avr/5.4.0/../../../../avr/lib/avr6\libm.a(mulsf3x.o)
                                                  c:/program files (x86)/atmel/studio/7.0/toolchain/avr8/avr8-gnu-toolchain/bin/../lib/gcc/avr/5.4.0/../../../../avr/lib/avr6\libm.a(divsf3x.o)
                                                  c:/program files (x86)/atmel/studio/7.0/toolchain/avr8/avr8-gnu-toolchain/bin/../lib/gcc/avr/5.4.0/../../../../avr/lib/avr6\libm.a(addsf3x.o)
__fp_pscA                                         c:/program files (x86)/atmel/studio/7.0/toolchain/avr8/avr8-gnu-toolchain/bin/../lib/gcc/avr/5.4.0/../../../../avr/lib/avr6\libm.a(fp_pscA.o)
                                                  c:/program files (x86)/atmel/studio/7.0/toolchain/avr8/avr8-gnu-toolchain/bin/../lib/gcc/avr/5.4.0/../../../../avr/lib/avr6\libm.a(mulsf3x.o)
                                                  c:/program files (x86)/atmel/studio/7.0/toolchain/avr8/avr8-gnu-toolchain/bin/../lib/gcc/avr/5.4.0/../../../../avr/lib/avr6\libm.a(divsf3x.o)
                                                  c:/program files (x86)/atmel/studio/7.0/toolchain/avr8/avr8-gnu-toolchain/bin/../lib/gcc/avr/5.4.0/../../../../avr/lib/avr6\libm.a(addsf3x.o)
__fp_pscB                                         c:/program files (x86)/atmel/studio/7.0/toolchain/avr8/avr8-gnu-toolchain/bin/../lib/gcc/avr/5.4.0/../../../../avr/lib/avr6\libm.a(fp_pscB.o)
                                                  c:/program files (x86)/atmel/studio/7.0/toolchain/avr8/avr8-gnu-toolchain/bin/../lib/gcc/avr/5.4.0/../../../../avr/lib/avr6\libm.a(mulsf3x.o)
                                                  c:/program files (x86)/atmel/studio/7.0/toolchain/avr8/avr8-gnu-toolchain/bin/../lib/gcc/avr/5.4.0/../../../../avr/lib/avr6\libm.a(divsf3x.o)
                                                  c:/program files (x86)/atmel/studio/7.0/toolchain/avr8/avr8-gnu-toolchain/bin/../lib/gcc/avr/5.4.0/../../../../avr/lib/avr6\libm.a(addsf3x.o)
__fp_round                                        c:/program files (x86)/atmel/studio/7.0/toolchain/avr8/avr8-gnu-toolchain/bin/../lib/gcc/avr/5.4.0/../../../../avr/lib/avr6\libm.a(fp_round.o)
                                                  c:/program files (x86)/atmel/studio/7.0/toolchain/avr8/avr8-gnu-toolchain/bin/../lib/gcc/avr/5.4.0/../../../../avr/lib/avr6\libm.a(mulsf3.o)
                                                  c:/program files (x86)/atmel/studio/7.0/toolchain/avr8/avr8-gnu-toolchain/bin/../lib/gcc/avr/5.4.0/../../../../avr/lib/avr6\libm.a(divsf3.o)
                                                  c:/program files (x86)/atmel/studio/7.0/toolchain/avr8/avr8-gnu-toolchain/bin/../lib/gcc/avr/5.4.0/../../../../avr/lib/avr6\libm.a(addsf3.o)
__fp_split3                                       c:/program files (x86)/atmel/studio/7.0/toolchain/avr8/avr8-gnu-toolchain/bin/../lib/gcc/avr/5.4.0/../../../../avr/lib/avr6\libm.a(fp_split3.o)
                                                  c:/program files (x86)/atmel/studio/7.0/toolchain/avr8/avr8-gnu-toolchain/bin/../lib/gcc/avr/5.4.0/../../../../avr/lib/avr6\libm.a(mulsf3x.o)
                                                  c:/program files (x86)/atmel/studio/7.0/toolchain/avr8/avr8-gnu-toolchain/bin/../lib/gcc/avr/5.4.0/../../../../avr/lib/avr6\libm.a(divsf3x.o)
                                                  c:/program files (x86)/atmel/studio/7.0/toolchain/avr8/avr8-gnu-toolchain/bin/../lib/gcc/avr/5.4.0/../../../../avr/lib/avr6\libm.a(addsf3x.o)
__fp_splitA                                       c:/program files (x86)/atmel/studio/7.0/toolchain/avr8/avr8-gnu-toolchain/bin/../lib/gcc/avr/5.4.0/../../../../avr/lib/avr6\libm.a(fp_split3.o)
                                                  c:/program files (x86)/atmel/studio/7.0/toolchain/avr8/avr8-gnu-toolchain/bin/../lib/gcc/avr/5.4.0/../../../../avr/lib/avr6\libm.a(fixunssfsi.o)
__fp_szero                                        c:/program files (x86)/atmel/studio/7.0/toolchain/avr8/avr8-gnu-toolchain/bin/../lib/gcc/avr/5.4.0/../../../../avr/lib/avr6\libm.a(fp_zero.o)
                                                  c:/program files (x86)/atmel/studio/7.0/toolchain/avr8/avr8-gnu-toolchain/bin/../lib/gcc/avr/5.4.0/../../../../avr/lib/avr6\libm.a(mulsf3x.o)
                                                  c:/program files (x86)/atmel/studio/7.0/toolchain/avr8/avr8-gnu-toolchain/bin/../lib/gcc/avr/5.4.0/../../../../avr/lib/avr6\libm.a(fixsfsi.o)
                                                  c:/program files (x86)/atmel/studio/7.0/toolchain/avr8/avr8-gnu-toolchain/bin/../lib/gcc/avr/5.4.0/../../../../avr/lib/avr6\libm.a(divsf3x.o)
__fp_zero                                         c:/program files (x86)/atmel/studio/7.0/toolchain/avr8/avr8-gnu-toolchain/bin/../lib/gcc/avr/5.4.0/../../../../avr/lib/avr6\libm.a(fp_zero.o)
                                                  c:/program files (x86)/atmel/studio/7.0/toolchain/avr8/avr8-gnu-toolchain/bin/../lib/gcc/avr/5.4.0/../../../../avr/lib/avr6\libm.a(fixunssfsi.o)
                                                  c:/program files (x86)/atmel/studio/7.0/toolchain/avr8/avr8-gnu-toolchain/bin/../lib/gcc/avr/5.4.0/../../../../avr/lib/avr6\libm.a(addsf3x.o)
__ftoa_engine                                     c:/program files (x86)/atmel/studio/7.0/toolchain/avr8/avr8-gnu-toolchain/bin/../lib/gcc/avr/5.4.0/../../../../avr/lib/avr6\libc.a(ftoa_engine.o)
                                                  c:/program files (x86)/atmel/studio/7.0/toolchain/avr8/avr8-gnu-toolchain/bin/../lib/gcc/avr/5.4.0/../../../../avr/lib/avr6\libc.a(dtoa_prf.o)
__gesf2                                           c:/program files (x86)/atmel/studio/7.0/toolchain/avr8/avr8-gnu-toolchain/bin/../lib/gcc/avr/5.4.0/../../../../avr/lib/avr6\libm.a(gesf2.o)
                                                  obj\Release\Comfort.o
__gtsf2                                           c:/program files (x86)/atmel/studio/7.0/toolchain/avr8/avr8-gnu-toolchain/bin/../lib/gcc/avr/5.4.0/../../../../avr/lib/avr6\libm.a(gesf2.o)
                                                  obj\Release\arduino\Print.o
__heap_end                                        c:/program files (x86)/atmel/studio/7.0/toolchain/avr8/avr8-gnu-toolchain/bin/../lib/gcc/avr/5.4.0/../../../../avr/lib/avr6/crtatmega2560.o
                                                  c:/program files (x86)/atmel/studio/7.0/toolchain/avr8/avr8-gnu-toolchain/bin/../lib/gcc/avr/5.4.0/../../../../avr/lib/avr6\libc.a(malloc.o)
__heap_start                                      c:/program files (x86)/atmel/studio/7.0/toolchain/avr8/avr8-gnu-toolchain/bin/../lib/gcc/avr/5.4.0/../../../../avr/lib/avr6\libc.a(malloc.o)
__init                                            c:/program files (x86)/atmel/studio/7.0/toolchain/avr8/avr8-gnu-toolchain/bin/../lib/gcc/avr/5.4.0/../../../../avr/lib/avr6/crtatmega2560.o
__iob                                             c:/program files (x86)/atmel/studio/7.0/toolchain/avr8/avr8-gnu-toolchain/bin/../lib/gcc/avr/5.4.0/../../../../avr/lib/avr6\libc.a(iob.o)
                                                  c:/program files (x86)/atmel/studio/7.0/toolchain/avr8/avr8-gnu-toolchain/bin/../lib/gcc/avr/5.4.0/../../../../avr/lib/avr6\libc.a(puts.o)
                                                  c:/program files (x86)/atmel/studio/7.0/toolchain/avr8/avr8-gnu-toolchain/bin/../lib/gcc/avr/5.4.0/../../../../avr/lib/avr6\libc.a(printf.o)
__itoa                                            c:/program files (x86)/atmel/studio/7.0/toolchain/avr8/avr8-gnu-toolchain/bin/../lib/gcc/avr/5.4.0/../../../../avr/lib/avr6\libc.a(itoa.o)
                                                  obj\Release\arduino\WString.o
__itoa_ncheck                                     c:/program files (x86)/atmel/studio/7.0/toolchain/avr8/avr8-gnu-toolchain/bin/../lib/gcc/avr/5.4.0/../../../../avr/lib/avr6\libc.a(itoa_ncheck.o)
                                                  c:/program files (x86)/atmel/studio/7.0/toolchain/avr8/avr8-gnu-toolchain/bin/../lib/gcc/avr/5.4.0/../../../../avr/lib/avr6\libc.a(itoa.o)
__lesf2                                           c:/program files (x86)/atmel/studio/7.0/toolchain/avr8/avr8-gnu-toolchain/bin/../lib/gcc/avr/5.4.0/../../../../avr/lib/avr6\libm.a(cmpsf2.o)
                                                  obj\Release\arduino\Print.o
__ltoa                                            c:/program files (x86)/atmel/studio/7.0/toolchain/avr8/avr8-gnu-toolchain/bin/../lib/gcc/avr/5.4.0/../../../../avr/lib/avr6\libc.a(ltoa.o)
                                                  obj\Release\arduino\WString.o
__ltoa_ncheck                                     c:/program files (x86)/atmel/studio/7.0/toolchain/avr8/avr8-gnu-toolchain/bin/../lib/gcc/avr/5.4.0/../../../../avr/lib/avr6\libc.a(ltoa_ncheck.o)
                                                  c:/program files (x86)/atmel/studio/7.0/toolchain/avr8/avr8-gnu-toolchain/bin/../lib/gcc/avr/5.4.0/../../../../avr/lib/avr6\libc.a(ltoa.o)
__ltsf2                                           c:/program files (x86)/atmel/studio/7.0/toolchain/avr8/avr8-gnu-toolchain/bin/../lib/gcc/avr/5.4.0/../../../../avr/lib/avr6\libm.a(cmpsf2.o)
                                                  obj\Release\arduino\Print.o
__malloc_heap_end                                 c:/program files (x86)/atmel/studio/7.0/toolchain/avr8/avr8-gnu-toolchain/bin/../lib/gcc/avr/5.4.0/../../../../avr/lib/avr6\libc.a(malloc.o)
                                                  c:/program files (x86)/atmel/studio/7.0/toolchain/avr8/avr8-gnu-toolchain/bin/../lib/gcc/avr/5.4.0/../../../../avr/lib/avr6\libc.a(realloc.o)
__malloc_heap_start                               c:/program files (x86)/atmel/studio/7.0/toolchain/avr8/avr8-gnu-toolchain/bin/../lib/gcc/avr/5.4.0/../../../../avr/lib/avr6\libc.a(malloc.o)
__malloc_margin                                   c:/program files (x86)/atmel/studio/7.0/toolchain/avr8/avr8-gnu-toolchain/bin/../lib/gcc/avr/5.4.0/../../../../avr/lib/avr6\libc.a(malloc.o)
                                                  c:/program files (x86)/atmel/studio/7.0/toolchain/avr8/avr8-gnu-toolchain/bin/../lib/gcc/avr/5.4.0/../../../../avr/lib/avr6\libc.a(realloc.o)
__mulohisi3                                       c:/program files (x86)/atmel/studio/7.0/toolchain/avr8/avr8-gnu-toolchain/bin/../lib/gcc/avr/5.4.0/avr6\libgcc.a(_mulshisi3.o)
                                                  c:/program files (x86)/atmel/studio/7.0/toolchain/avr8/avr8-gnu-toolchain/bin/../lib/gcc/avr/5.4.0/../../../../avr/lib/avr6\libc.a(random.o)
__mulsf3                                          c:/program files (x86)/atmel/studio/7.0/toolchain/avr8/avr8-gnu-toolchain/bin/../lib/gcc/avr/5.4.0/../../../../avr/lib/avr6\libm.a(mulsf3.o)
                                                  c:/program files (x86)/atmel/studio/7.0/toolchain/avr8/avr8-gnu-toolchain/bin/../lib/gcc/avr/5.4.0/../../../../avr/lib/avr6\libc.a(strtod.o)
                                                  obj\Release\HWInputs.o
                                                  obj\Release\arduino\Stream.o
                                                  obj\Release\arduino\Print.o
                                                  obj\Release\arduino\dht.o
__mulsf3_pse                                      c:/program files (x86)/atmel/studio/7.0/toolchain/avr8/avr8-gnu-toolchain/bin/../lib/gcc/avr/5.4.0/../../../../avr/lib/avr6\libm.a(mulsf3x.o)
__mulsf3x                                         c:/program files (x86)/atmel/studio/7.0/toolchain/avr8/avr8-gnu-toolchain/bin/../lib/gcc/avr/5.4.0/../../../../avr/lib/avr6\libm.a(mulsf3x.o)
                                                  c:/program files (x86)/atmel/studio/7.0/toolchain/avr8/avr8-gnu-toolchain/bin/../lib/gcc/avr/5.4.0/../../../../avr/lib/avr6\libm.a(mulsf3.o)
__mulshisi3                                       c:/program files (x86)/atmel/studio/7.0/toolchain/avr8/avr8-gnu-toolchain/bin/../lib/gcc/avr/5.4.0/avr6\libgcc.a(_mulshisi3.o)
__mulsi3                                          c:/program files (x86)/atmel/studio/7.0/toolchain/avr8/avr8-gnu-toolchain/bin/../lib/gcc/avr/5.4.0/avr6\libgcc.a(_mulsi3.o)
                                                  obj\Release\arduino\WMath.o
__mulsi_const_10                                  c:/program files (x86)/atmel/studio/7.0/toolchain/avr8/avr8-gnu-toolchain/bin/../lib/gcc/avr/5.4.0/../../../../avr/lib/avr6\libc.a(mulsi10.o)
                                                  c:/program files (x86)/atmel/studio/7.0/toolchain/avr8/avr8-gnu-toolchain/bin/../lib/gcc/avr/5.4.0/../../../../avr/lib/avr6\libc.a(atol.o)
__muluhisi3                                       c:/program files (x86)/atmel/studio/7.0/toolchain/avr8/avr8-gnu-toolchain/bin/../lib/gcc/avr/5.4.0/avr6\libgcc.a(_muluhisi3.o)
                                                  c:/program files (x86)/atmel/studio/7.0/toolchain/avr8/avr8-gnu-toolchain/bin/../lib/gcc/avr/5.4.0/avr6\libgcc.a(_mulshisi3.o)
                                                  c:/program files (x86)/atmel/studio/7.0/toolchain/avr8/avr8-gnu-toolchain/bin/../lib/gcc/avr/5.4.0/../../../../avr/lib/avr6\libc.a(strtod.o)
                                                  c:/program files (x86)/atmel/studio/7.0/toolchain/avr8/avr8-gnu-toolchain/bin/../lib/gcc/avr/5.4.0/../../../../avr/lib/avr6\libc.a(random.o)
                                                  c:/program files (x86)/atmel/studio/7.0/toolchain/avr8/avr8-gnu-toolchain/bin/../lib/gcc/avr/5.4.0/avr6\libgcc.a(_mulsi3.o)
                                                  obj\Release\arduino\Tone.o
                                                  obj\Release\arduino\Stream.o
__negsi2                                          c:/program files (x86)/atmel/studio/7.0/toolchain/avr8/avr8-gnu-toolchain/bin/../lib/gcc/avr/5.4.0/avr6\libgcc.a(_negsi2.o)
                                                  c:/program files (x86)/atmel/studio/7.0/toolchain/avr8/avr8-gnu-toolchain/bin/../lib/gcc/avr/5.4.0/avr6\libgcc.a(_divmodsi4.o)
__nesf2                                           c:/program files (x86)/atmel/studio/7.0/toolchain/avr8/avr8-gnu-toolchain/bin/../lib/gcc/avr/5.4.0/../../../../avr/lib/avr6\libm.a(cmpsf2.o)
                                                  c:/program files (x86)/atmel/studio/7.0/toolchain/avr8/avr8-gnu-toolchain/bin/../lib/gcc/avr/5.4.0/../../../../avr/lib/avr6\libc.a(strtod.o)
__stack                                           c:/program files (x86)/atmel/studio/7.0/toolchain/avr8/avr8-gnu-toolchain/bin/../lib/gcc/avr/5.4.0/../../../../avr/lib/avr6/crtatmega2560.o
__strlen_P                                        c:/program files (x86)/atmel/studio/7.0/toolchain/avr8/avr8-gnu-toolchain/bin/../lib/gcc/avr/5.4.0/../../../../avr/lib/avr6\libc.a(strlen_P.o)
                                                  obj\Release\arduino\WString.o
__subsf3                                          c:/program files (x86)/atmel/studio/7.0/toolchain/avr8/avr8-gnu-toolchain/bin/../lib/gcc/avr/5.4.0/../../../../avr/lib/avr6\libm.a(addsf3.o)
                                                  obj\Release\arduino\Print.o
__tablejump2__                                    c:/program files (x86)/atmel/studio/7.0/toolchain/avr8/avr8-gnu-toolchain/bin/../lib/gcc/avr/5.4.0/avr6\libgcc.a(_tablejump2.o)
                                                  c:/program files (x86)/atmel/studio/7.0/toolchain/avr8/avr8-gnu-toolchain/bin/../lib/gcc/avr/5.4.0/avr6\libgcc.a(_dtors.o)
                                                  c:/program files (x86)/atmel/studio/7.0/toolchain/avr8/avr8-gnu-toolchain/bin/../lib/gcc/avr/5.4.0/avr6\libgcc.a(_ctors.o)
                                                  obj\Release\arduino\wiring_digital.o
                                                  obj\Release\arduino\wiring_analog.o
                                                  obj\Release\arduino\WInterrupts.o
__udivmodqi4                                      c:/program files (x86)/atmel/studio/7.0/toolchain/avr8/avr8-gnu-toolchain/bin/../lib/gcc/avr/5.4.0/avr6\libgcc.a(_udivmodqi4.o)
                                                  obj\Release\Comfort.o
                                                  obj\Release\arduino\Servo.o
__udivmodsi4                                      c:/program files (x86)/atmel/studio/7.0/toolchain/avr8/avr8-gnu-toolchain/bin/../lib/gcc/avr/5.4.0/avr6\libgcc.a(_udivmodsi4.o)
                                                  c:/program files (x86)/atmel/studio/7.0/toolchain/avr8/avr8-gnu-toolchain/bin/../lib/gcc/avr/5.4.0/avr6\libgcc.a(_divmodsi4.o)
                                                  obj\Release\arduino\utility\twi.o
                                                  obj\Release\arduino\Tone.o
                                                  obj\Release\arduino\Print.o
                                                  obj\Release\arduino\HardwareSerial.o
__ultoa                                           c:/program files (x86)/atmel/studio/7.0/toolchain/avr8/avr8-gnu-toolchain/bin/../lib/gcc/avr/5.4.0/../../../../avr/lib/avr6\libc.a(ultoa.o)
                                                  obj\Release\arduino\WString.o
__ultoa_common                                    c:/program files (x86)/atmel/studio/7.0/toolchain/avr8/avr8-gnu-toolchain/bin/../lib/gcc/avr/5.4.0/../../../../avr/lib/avr6\libc.a(ultoa_ncheck.o)
                                                  c:/program files (x86)/atmel/studio/7.0/toolchain/avr8/avr8-gnu-toolchain/bin/../lib/gcc/avr/5.4.0/../../../../avr/lib/avr6\libc.a(ltoa_ncheck.o)
__ultoa_invert                                    c:/program files (x86)/atmel/studio/7.0/toolchain/avr8/avr8-gnu-toolchain/bin/../lib/gcc/avr/5.4.0/../../../../avr/lib/avr6\libc.a(ultoa_invert.o)
                                                  c:/program files (x86)/atmel/studio/7.0/toolchain/avr8/avr8-gnu-toolchain/bin/../lib/gcc/avr/5.4.0/../../../../avr/lib/avr6\libc.a(vfprintf_std.o)
__ultoa_ncheck                                    c:/program files (x86)/atmel/studio/7.0/toolchain/avr8/avr8-gnu-toolchain/bin/../lib/gcc/avr/5.4.0/../../../../avr/lib/avr6\libc.a(ultoa_ncheck.o)
                                                  c:/program files (x86)/atmel/studio/7.0/toolchain/avr8/avr8-gnu-toolchain/bin/../lib/gcc/avr/5.4.0/../../../../avr/lib/avr6\libc.a(ultoa.o)
__umulhisi3                                       c:/program files (x86)/atmel/studio/7.0/toolchain/avr8/avr8-gnu-toolchain/bin/../lib/gcc/avr/5.4.0/avr6\libgcc.a(_umulhisi3.o)
                                                  c:/program files (x86)/atmel/studio/7.0/toolchain/avr8/avr8-gnu-toolchain/bin/../lib/gcc/avr/5.4.0/avr6\libgcc.a(_muluhisi3.o)
__unordsf2                                        c:/program files (x86)/atmel/studio/7.0/toolchain/avr8/avr8-gnu-toolchain/bin/../lib/gcc/avr/5.4.0/../../../../avr/lib/avr6\libm.a(unordsf2.o)
                                                  obj\Release\arduino\Print.o
__utoa                                            c:/program files (x86)/atmel/studio/7.0/toolchain/avr8/avr8-gnu-toolchain/bin/../lib/gcc/avr/5.4.0/../../../../avr/lib/avr6\libc.a(utoa.o)
                                                  obj\Release\arduino\WString.o
__utoa_common                                     c:/program files (x86)/atmel/studio/7.0/toolchain/avr8/avr8-gnu-toolchain/bin/../lib/gcc/avr/5.4.0/../../../../avr/lib/avr6\libc.a(utoa_ncheck.o)
                                                  c:/program files (x86)/atmel/studio/7.0/toolchain/avr8/avr8-gnu-toolchain/bin/../lib/gcc/avr/5.4.0/../../../../avr/lib/avr6\libc.a(itoa_ncheck.o)
__utoa_ncheck                                     c:/program files (x86)/atmel/studio/7.0/toolchain/avr8/avr8-gnu-toolchain/bin/../lib/gcc/avr/5.4.0/../../../../avr/lib/avr6\libc.a(utoa_ncheck.o)
                                                  c:/program files (x86)/atmel/studio/7.0/toolchain/avr8/avr8-gnu-toolchain/bin/../lib/gcc/avr/5.4.0/../../../../avr/lib/avr6\libc.a(utoa.o)
__vector_1                                        obj\Release\arduino\WInterrupts.o
                                                  c:/program files (x86)/atmel/studio/7.0/toolchain/avr8/avr8-gnu-toolchain/bin/../lib/gcc/avr/5.4.0/../../../../avr/lib/avr6/crtatmega2560.o
__vector_10                                       c:/program files (x86)/atmel/studio/7.0/toolchain/avr8/avr8-gnu-toolchain/bin/../lib/gcc/avr/5.4.0/../../../../avr/lib/avr6/crtatmega2560.o
__vector_11                                       c:/program files (x86)/atmel/studio/7.0/toolchain/avr8/avr8-gnu-toolchain/bin/../lib/gcc/avr/5.4.0/../../../../avr/lib/avr6/crtatmega2560.o
__vector_12                                       c:/program files (x86)/atmel/studio/7.0/toolchain/avr8/avr8-gnu-toolchain/bin/../lib/gcc/avr/5.4.0/../../../../avr/lib/avr6/crtatmega2560.o
__vector_13                                       obj\Release\arduino\Tone.o
                                                  c:/program files (x86)/atmel/studio/7.0/toolchain/avr8/avr8-gnu-toolchain/bin/../lib/gcc/avr/5.4.0/../../../../avr/lib/avr6/crtatmega2560.o
__vector_14                                       c:/program files (x86)/atmel/studio/7.0/toolchain/avr8/avr8-gnu-toolchain/bin/../lib/gcc/avr/5.4.0/../../../../avr/lib/avr6/crtatmega2560.o
__vector_15                                       c:/program files (x86)/atmel/studio/7.0/toolchain/avr8/avr8-gnu-toolchain/bin/../lib/gcc/avr/5.4.0/../../../../avr/lib/avr6/crtatmega2560.o
__vector_16                                       c:/program files (x86)/atmel/studio/7.0/toolchain/avr8/avr8-gnu-toolchain/bin/../lib/gcc/avr/5.4.0/../../../../avr/lib/avr6/crtatmega2560.o
__vector_17                                       obj\Release\arduino\Servo.o
                                                  c:/program files (x86)/atmel/studio/7.0/toolchain/avr8/avr8-gnu-toolchain/bin/../lib/gcc/avr/5.4.0/../../../../avr/lib/avr6/crtatmega2560.o
__vector_18                                       c:/program files (x86)/atmel/studio/7.0/toolchain/avr8/avr8-gnu-toolchain/bin/../lib/gcc/avr/5.4.0/../../../../avr/lib/avr6/crtatmega2560.o
__vector_19                                       c:/program files (x86)/atmel/studio/7.0/toolchain/avr8/avr8-gnu-toolchain/bin/../lib/gcc/avr/5.4.0/../../../../avr/lib/avr6/crtatmega2560.o
__vector_2                                        obj\Release\arduino\WInterrupts.o
                                                  c:/program files (x86)/atmel/studio/7.0/toolchain/avr8/avr8-gnu-toolchain/bin/../lib/gcc/avr/5.4.0/../../../../avr/lib/avr6/crtatmega2560.o
__vector_20                                       c:/program files (x86)/atmel/studio/7.0/toolchain/avr8/avr8-gnu-toolchain/bin/../lib/gcc/avr/5.4.0/../../../../avr/lib/avr6/crtatmega2560.o
__vector_21                                       c:/program files (x86)/atmel/studio/7.0/toolchain/avr8/avr8-gnu-toolchain/bin/../lib/gcc/avr/5.4.0/../../../../avr/lib/avr6/crtatmega2560.o
__vector_22                                       c:/program files (x86)/atmel/studio/7.0/toolchain/avr8/avr8-gnu-toolchain/bin/../lib/gcc/avr/5.4.0/../../../../avr/lib/avr6/crtatmega2560.o
__vector_23                                       obj\Release\arduino\wiring.o
                                                  c:/program files (x86)/atmel/studio/7.0/toolchain/avr8/avr8-gnu-toolchain/bin/../lib/gcc/avr/5.4.0/../../../../avr/lib/avr6/crtatmega2560.o
__vector_24                                       c:/program files (x86)/atmel/studio/7.0/toolchain/avr8/avr8-gnu-toolchain/bin/../lib/gcc/avr/5.4.0/../../../../avr/lib/avr6/crtatmega2560.o
__vector_25                                       obj\Release\arduino\HardwareSerial0.o
                                                  c:/program files (x86)/atmel/studio/7.0/toolchain/avr8/avr8-gnu-toolchain/bin/../lib/gcc/avr/5.4.0/../../../../avr/lib/avr6/crtatmega2560.o
__vector_26                                       obj\Release\arduino\HardwareSerial0.o
                                                  c:/program files (x86)/atmel/studio/7.0/toolchain/avr8/avr8-gnu-toolchain/bin/../lib/gcc/avr/5.4.0/../../../../avr/lib/avr6/crtatmega2560.o
__vector_27                                       c:/program files (x86)/atmel/studio/7.0/toolchain/avr8/avr8-gnu-toolchain/bin/../lib/gcc/avr/5.4.0/../../../../avr/lib/avr6/crtatmega2560.o
__vector_28                                       c:/program files (x86)/atmel/studio/7.0/toolchain/avr8/avr8-gnu-toolchain/bin/../lib/gcc/avr/5.4.0/../../../../avr/lib/avr6/crtatmega2560.o
__vector_29                                       c:/program files (x86)/atmel/studio/7.0/toolchain/avr8/avr8-gnu-toolchain/bin/../lib/gcc/avr/5.4.0/../../../../avr/lib/avr6/crtatmega2560.o
__vector_3                                        obj\Release\arduino\WInterrupts.o
                                                  c:/program files (x86)/atmel/studio/7.0/toolchain/avr8/avr8-gnu-toolchain/bin/../lib/gcc/avr/5.4.0/../../../../avr/lib/avr6/crtatmega2560.o
__vector_30                                       c:/program files (x86)/atmel/studio/7.0/toolchain/avr8/avr8-gnu-toolchain/bin/../lib/gcc/avr/5.4.0/../../../../avr/lib/avr6/crtatmega2560.o
__vector_31                                       c:/program files (x86)/atmel/studio/7.0/toolchain/avr8/avr8-gnu-toolchain/bin/../lib/gcc/avr/5.4.0/../../../../avr/lib/avr6/crtatmega2560.o
__vector_32                                       obj\Release\arduino\Servo.o
                                                  c:/program files (x86)/atmel/studio/7.0/toolchain/avr8/avr8-gnu-toolchain/bin/../lib/gcc/avr/5.4.0/../../../../avr/lib/avr6/crtatmega2560.o
__vector_33                                       c:/program files (x86)/atmel/studio/7.0/toolchain/avr8/avr8-gnu-toolchain/bin/../lib/gcc/avr/5.4.0/../../../../avr/lib/avr6/crtatmega2560.o
__vector_34                                       c:/program files (x86)/atmel/studio/7.0/toolchain/avr8/avr8-gnu-toolchain/bin/../lib/gcc/avr/5.4.0/../../../../avr/lib/avr6/crtatmega2560.o
__vector_35                                       c:/program files (x86)/atmel/studio/7.0/toolchain/avr8/avr8-gnu-toolchain/bin/../lib/gcc/avr/5.4.0/../../../../avr/lib/avr6/crtatmega2560.o
__vector_36                                       obj\Release\arduino\HardwareSerial1.o
                                                  c:/program files (x86)/atmel/studio/7.0/toolchain/avr8/avr8-gnu-toolchain/bin/../lib/gcc/avr/5.4.0/../../../../avr/lib/avr6/crtatmega2560.o
__vector_37                                       obj\Release\arduino\HardwareSerial1.o
                                                  c:/program files (x86)/atmel/studio/7.0/toolchain/avr8/avr8-gnu-toolchain/bin/../lib/gcc/avr/5.4.0/../../../../avr/lib/avr6/crtatmega2560.o
__vector_38                                       c:/program files (x86)/atmel/studio/7.0/toolchain/avr8/avr8-gnu-toolchain/bin/../lib/gcc/avr/5.4.0/../../../../avr/lib/avr6/crtatmega2560.o
__vector_39                                       obj\Release\arduino\utility\twi.o
                                                  c:/program files (x86)/atmel/studio/7.0/toolchain/avr8/avr8-gnu-toolchain/bin/../lib/gcc/avr/5.4.0/../../../../avr/lib/avr6/crtatmega2560.o
__vector_4                                        obj\Release\arduino\WInterrupts.o
                                                  c:/program files (x86)/atmel/studio/7.0/toolchain/avr8/avr8-gnu-toolchain/bin/../lib/gcc/avr/5.4.0/../../../../avr/lib/avr6/crtatmega2560.o
__vector_40                                       c:/program files (x86)/atmel/studio/7.0/toolchain/avr8/avr8-gnu-toolchain/bin/../lib/gcc/avr/5.4.0/../../../../avr/lib/avr6/crtatmega2560.o
__vector_41                                       c:/program files (x86)/atmel/studio/7.0/toolchain/avr8/avr8-gnu-toolchain/bin/../lib/gcc/avr/5.4.0/../../../../avr/lib/avr6/crtatmega2560.o
__vector_42                                       obj\Release\arduino\Servo.o
                                                  c:/program files (x86)/atmel/studio/7.0/toolchain/avr8/avr8-gnu-toolchain/bin/../lib/gcc/avr/5.4.0/../../../../avr/lib/avr6/crtatmega2560.o
__vector_43                                       c:/program files (x86)/atmel/studio/7.0/toolchain/avr8/avr8-gnu-toolchain/bin/../lib/gcc/avr/5.4.0/../../../../avr/lib/avr6/crtatmega2560.o
__vector_44                                       c:/program files (x86)/atmel/studio/7.0/toolchain/avr8/avr8-gnu-toolchain/bin/../lib/gcc/avr/5.4.0/../../../../avr/lib/avr6/crtatmega2560.o
__vector_45                                       c:/program files (x86)/atmel/studio/7.0/toolchain/avr8/avr8-gnu-toolchain/bin/../lib/gcc/avr/5.4.0/../../../../avr/lib/avr6/crtatmega2560.o
__vector_46                                       c:/program files (x86)/atmel/studio/7.0/toolchain/avr8/avr8-gnu-toolchain/bin/../lib/gcc/avr/5.4.0/../../../../avr/lib/avr6/crtatmega2560.o
__vector_47                                       obj\Release\arduino\Servo.o
                                                  c:/program files (x86)/atmel/studio/7.0/toolchain/avr8/avr8-gnu-toolchain/bin/../lib/gcc/avr/5.4.0/../../../../avr/lib/avr6/crtatmega2560.o
__vector_48                                       c:/program files (x86)/atmel/studio/7.0/toolchain/avr8/avr8-gnu-toolchain/bin/../lib/gcc/avr/5.4.0/../../../../avr/lib/avr6/crtatmega2560.o
__vector_49                                       c:/program files (x86)/atmel/studio/7.0/toolchain/avr8/avr8-gnu-toolchain/bin/../lib/gcc/avr/5.4.0/../../../../avr/lib/avr6/crtatmega2560.o
__vector_5                                        obj\Release\arduino\WInterrupts.o
                                                  c:/program files (x86)/atmel/studio/7.0/toolchain/avr8/avr8-gnu-toolchain/bin/../lib/gcc/avr/5.4.0/../../../../avr/lib/avr6/crtatmega2560.o
__vector_50                                       c:/program files (x86)/atmel/studio/7.0/toolchain/avr8/avr8-gnu-toolchain/bin/../lib/gcc/avr/5.4.0/../../../../avr/lib/avr6/crtatmega2560.o
__vector_51                                       obj\Release\arduino\HardwareSerial2.o
                                                  c:/program files (x86)/atmel/studio/7.0/toolchain/avr8/avr8-gnu-toolchain/bin/../lib/gcc/avr/5.4.0/../../../../avr/lib/avr6/crtatmega2560.o
__vector_52                                       obj\Release\arduino\HardwareSerial2.o
                                                  c:/program files (x86)/atmel/studio/7.0/toolchain/avr8/avr8-gnu-toolchain/bin/../lib/gcc/avr/5.4.0/../../../../avr/lib/avr6/crtatmega2560.o
__vector_53                                       c:/program files (x86)/atmel/studio/7.0/toolchain/avr8/avr8-gnu-toolchain/bin/../lib/gcc/avr/5.4.0/../../../../avr/lib/avr6/crtatmega2560.o
__vector_54                                       obj\Release\arduino\HardwareSerial3.o
                                                  c:/program files (x86)/atmel/studio/7.0/toolchain/avr8/avr8-gnu-toolchain/bin/../lib/gcc/avr/5.4.0/../../../../avr/lib/avr6/crtatmega2560.o
__vector_55                                       obj\Release\arduino\HardwareSerial3.o
                                                  c:/program files (x86)/atmel/studio/7.0/toolchain/avr8/avr8-gnu-toolchain/bin/../lib/gcc/avr/5.4.0/../../../../avr/lib/avr6/crtatmega2560.o
__vector_56                                       c:/program files (x86)/atmel/studio/7.0/toolchain/avr8/avr8-gnu-toolchain/bin/../lib/gcc/avr/5.4.0/../../../../avr/lib/avr6/crtatmega2560.o
__vector_6                                        obj\Release\arduino\WInterrupts.o
                                                  c:/program files (x86)/atmel/studio/7.0/toolchain/avr8/avr8-gnu-toolchain/bin/../lib/gcc/avr/5.4.0/../../../../avr/lib/avr6/crtatmega2560.o
__vector_7                                        obj\Release\arduino\WInterrupts.o
                                                  c:/program files (x86)/atmel/studio/7.0/toolchain/avr8/avr8-gnu-toolchain/bin/../lib/gcc/avr/5.4.0/../../../../avr/lib/avr6/crtatmega2560.o
__vector_8                                        obj\Release\arduino\WInterrupts.o
                                                  c:/program files (x86)/atmel/studio/7.0/toolchain/avr8/avr8-gnu-toolchain/bin/../lib/gcc/avr/5.4.0/../../../../avr/lib/avr6/crtatmega2560.o
__vector_9                                        c:/program files (x86)/atmel/studio/7.0/toolchain/avr8/avr8-gnu-toolchain/bin/../lib/gcc/avr/5.4.0/../../../../avr/lib/avr6/crtatmega2560.o
__vector_default                                  c:/program files (x86)/atmel/studio/7.0/toolchain/avr8/avr8-gnu-toolchain/bin/../lib/gcc/avr/5.4.0/../../../../avr/lib/avr6/crtatmega2560.o
__vectors                                         c:/program files (x86)/atmel/studio/7.0/toolchain/avr8/avr8-gnu-toolchain/bin/../lib/gcc/avr/5.4.0/../../../../avr/lib/avr6/crtatmega2560.o
_exit                                             c:/program files (x86)/atmel/studio/7.0/toolchain/avr8/avr8-gnu-toolchain/bin/../lib/gcc/avr/5.4.0/avr6\libgcc.a(_exit.o)
                                                  c:/program files (x86)/atmel/studio/7.0/toolchain/avr8/avr8-gnu-toolchain/bin/../lib/gcc/avr/5.4.0/../../../../avr/lib/avr6\libc.a(abort.o)
abort                                             c:/program files (x86)/atmel/studio/7.0/toolchain/avr8/avr8-gnu-toolchain/bin/../lib/gcc/avr/5.4.0/../../../../avr/lib/avr6\libc.a(abort.o)
                                                  obj\Release\arduino\abi.o
air_humidity                                      obj\Release\HWInputs.o
                                                  obj\Release\Comfort.o
air_quality                                       obj\Release\HWInputs.o
                                                  obj\Release\Comfort.o
alarmasts                                         obj\Release\HWInputs.o
                                                  obj\Release\WifiConn.o
alcoholValue                                      obj\Release\HWInputs.o
                                                  obj\Release\Comfort.o
alcohol_lvl                                       obj\Release\HWInputs.o
                                                  obj\Release\Comfort.o
almostFull                                        obj\Release\HWInputs.o
                                                  obj\Release\Comfort.o
almostHalf                                        obj\Release\HWInputs.o
                                                  obj\Release\Comfort.o
analogRead                                        obj\Release\arduino\wiring_analog.o
                                                  obj\Release\HWInputs.o
                                                  obj\Release\Comfort.o
analogReference                                   obj\Release\arduino\wiring_analog.o
analogWrite                                       obj\Release\arduino\wiring_analog.o
                                                  obj\Release\Security.o
                                                  obj\Release\HWInputs.o
                                                  obj\Release\Doorlock.o
analog_reference                                  obj\Release\arduino\wiring_analog.o
atexit                                            obj\Release\arduino\main.o
atof                                              c:/program files (x86)/atmel/studio/7.0/toolchain/avr8/avr8-gnu-toolchain/bin/../lib/gcc/avr/5.4.0/../../../../avr/lib/avr6\libc.a(atof.o)
                                                  obj\Release\arduino\WString.o
atol                                              c:/program files (x86)/atmel/studio/7.0/toolchain/avr8/avr8-gnu-toolchain/bin/../lib/gcc/avr/5.4.0/../../../../avr/lib/avr6\libc.a(atol.o)
                                                  obj\Release\arduino\WString.o
attachInterrupt                                   obj\Release\arduino\WInterrupts.o
becuri                                            obj\Release\Lights.o
bottomUpDown                                      obj\Release\HWInputs.o
                                                  obj\Release\Comfort.o
butoane                                           obj\Release\Lights.o
buttonLastState                                   obj\Release\HWInputs.o
                                                  obj\Release\Comfort.o
buttonState                                       obj\Release\HWInputs.o
buzzer                                            obj\Release\Security.o
cnt                                               obj\Release\HWInputs.o
colPins                                           obj\Release\HWInputs.o
colPinsDl                                         obj\Release\HWInputs.o
confort                                           obj\Release\WifiConn.o
connectWifi                                       obj\Release\WifiConn.o
countPulseASM                                     obj\Release\arduino\wiring_pulse.o
counter                                           obj\Release\Security.o
counterDl                                         obj\Release\HWInputs.o
                                                  obj\Release\Doorlock.o
cp                                                obj\Release\HWInputs.o
currentMenu                                       obj\Release\HWInputs.o
                                                  obj\Release\Comfort.o
current_temp                                      obj\Release\HWInputs.o
                                                  obj\Release\Comfort.o
d                                                 obj\Release\WifiConn.o
data                                              obj\Release\WifiConn.o
delay                                             obj\Release\arduino\wiring.o
                                                  obj\Release\SmartHome.o
                                                  obj\Release\HWInputs.o
                                                  obj\Release\Doorlock.o
                                                  obj\Release\arduino\LiquidCrystal_I2C.o
                                                  obj\Release\arduino\dht.o
delayMicroseconds                                 obj\Release\arduino\wiring.o
                                                  obj\Release\arduino\LiquidCrystal_I2C.o
                                                  obj\Release\arduino\dht.o
desiredTemperature                                obj\Release\HWInputs.o
detachInterrupt                                   obj\Release\arduino\WInterrupts.o
dhtPin                                            obj\Release\Comfort.o
digitalRead                                       obj\Release\arduino\wiring_digital.o
                                                  obj\Release\HWInputs.o
                                                  obj\Release\Comfort.o
                                                  obj\Release\arduino\wiring_shift.o
                                                  obj\Release\arduino\Keypad.o
                                                  obj\Release\arduino\dht.o
digitalWrite                                      obj\Release\arduino\wiring_digital.o
                                                  obj\Release\HWOutputs.o
                                                  obj\Release\Comfort.o
                                                  obj\Release\arduino\wiring_shift.o
                                                  obj\Release\arduino\wiring_analog.o
                                                  obj\Release\arduino\utility\twi.o
                                                  obj\Release\arduino\Tone.o
                                                  obj\Release\arduino\Servo.o
                                                  obj\Release\arduino\Keypad.o
                                                  obj\Release\arduino\dht.o
digital_pin_to_bit_mask_PGM                       obj\Release\arduino\wiring_digital.o
                                                  obj\Release\arduino\wiring_pulse.o
                                                  obj\Release\arduino\Tone.o
digital_pin_to_port_PGM                           obj\Release\arduino\wiring_digital.o
                                                  obj\Release\arduino\wiring_pulse.o
                                                  obj\Release\arduino\Tone.o
digital_pin_to_timer_PGM                          obj\Release\arduino\wiring_digital.o
                                                  obj\Release\arduino\wiring_analog.o
doorbuzzer                                        obj\Release\Doorlock.o
doorpassword                                      obj\Release\HWInputs.o
dtoa_prf                                          c:/program files (x86)/atmel/studio/7.0/toolchain/avr8/avr8-gnu-toolchain/bin/../lib/gcc/avr/5.4.0/../../../../avr/lib/avr6\libc.a(dtoa_prf.o)
                                                  c:/program files (x86)/atmel/studio/7.0/toolchain/avr8/avr8-gnu-toolchain/bin/../lib/gcc/avr/5.4.0/../../../../avr/lib/avr6\libc.a(dtostrf.o)
dtostrf                                           c:/program files (x86)/atmel/studio/7.0/toolchain/avr8/avr8-gnu-toolchain/bin/../lib/gcc/avr/5.4.0/../../../../avr/lib/avr6\libc.a(dtostrf.o)
                                                  obj\Release\arduino\WString.o
errno                                             c:/program files (x86)/atmel/studio/7.0/toolchain/avr8/avr8-gnu-toolchain/bin/../lib/gcc/avr/5.4.0/../../../../avr/lib/avr6\libc.a(errno.o)
                                                  c:/program files (x86)/atmel/studio/7.0/toolchain/avr8/avr8-gnu-toolchain/bin/../lib/gcc/avr/5.4.0/../../../../avr/lib/avr6\libc.a(strtod.o)
exit                                              c:/program files (x86)/atmel/studio/7.0/toolchain/avr8/avr8-gnu-toolchain/bin/../lib/gcc/avr/5.4.0/avr6\libgcc.a(_exit.o)
                                                  c:/program files (x86)/atmel/studio/7.0/toolchain/avr8/avr8-gnu-toolchain/bin/../lib/gcc/avr/5.4.0/../../../../avr/lib/avr6/crtatmega2560.o
fahrenheitTemperature                             obj\Release\HWInputs.o
fputc                                             c:/program files (x86)/atmel/studio/7.0/toolchain/avr8/avr8-gnu-toolchain/bin/../lib/gcc/avr/5.4.0/../../../../avr/lib/avr6\libc.a(fputc.o)
                                                  c:/program files (x86)/atmel/studio/7.0/toolchain/avr8/avr8-gnu-toolchain/bin/../lib/gcc/avr/5.4.0/../../../../avr/lib/avr6\libc.a(vfprintf_std.o)
free                                              c:/program files (x86)/atmel/studio/7.0/toolchain/avr8/avr8-gnu-toolchain/bin/../lib/gcc/avr/5.4.0/../../../../avr/lib/avr6\libc.a(malloc.o)
                                                  c:/program files (x86)/atmel/studio/7.0/toolchain/avr8/avr8-gnu-toolchain/bin/../lib/gcc/avr/5.4.0/../../../../avr/lib/avr6\libc.a(realloc.o)
                                                  obj\Release\WifiConn.o
                                                  obj\Release\arduino\WString.o
                                                  obj\Release\arduino\new.o
hexaKeys                                          obj\Release\HWInputs.o
hexaKeysDoorlock                                  obj\Release\HWInputs.o
humidityPercentSoil                               obj\Release\HWInputs.o
                                                  obj\Release\Comfort.o
i                                                 obj\Release\HWInputs.o
init                                              obj\Release\arduino\wiring.o
                                                  obj\Release\arduino\main.o
initVariant                                       obj\Release\arduino\main.o
inputPin                                          obj\Release\Security.o
isspace                                           c:/program files (x86)/atmel/studio/7.0/toolchain/avr8/avr8-gnu-toolchain/bin/../lib/gcc/avr/5.4.0/../../../../avr/lib/avr6\libc.a(isspace.o)
                                                  c:/program files (x86)/atmel/studio/7.0/toolchain/avr8/avr8-gnu-toolchain/bin/../lib/gcc/avr/5.4.0/../../../../avr/lib/avr6\libc.a(strtod.o)
                                                  obj\Release\arduino\WString.o
itoa                                              c:/program files (x86)/atmel/studio/7.0/toolchain/avr8/avr8-gnu-toolchain/bin/../lib/gcc/avr/5.4.0/../../../../avr/lib/avr6\libc.a(itoa.o)
                                                  obj\Release\arduino\WString.o
joyButton                                         obj\Release\Comfort.o
k                                                 obj\Release\HWInputs.o
keypad                                            obj\Release\HWInputs.o
                                                  obj\Release\Security.o
keypadDl                                          obj\Release\HWInputs.o
                                                  obj\Release\Doorlock.o
keypressed                                        obj\Release\HWInputs.o
lcdComfort                                        obj\Release\HWInputs.o
                                                  obj\Release\Comfort.o
lcdDoorlock                                       obj\Release\HWInputs.o
                                                  obj\Release\Doorlock.o
lcdSecurity                                       obj\Release\HWInputs.o
                                                  obj\Release\Security.o
leftArrow                                         obj\Release\HWInputs.o
                                                  obj\Release\Comfort.o
lock                                              obj\Release\HWInputs.o
loop                                              obj\Release\SmartHome.o
                                                  obj\Release\arduino\main.o
ltoa                                              c:/program files (x86)/atmel/studio/7.0/toolchain/avr8/avr8-gnu-toolchain/bin/../lib/gcc/avr/5.4.0/../../../../avr/lib/avr6\libc.a(ltoa.o)
                                                  obj\Release\arduino\WString.o
lumini                                            obj\Release\WifiConn.o
main                                              obj\Release\arduino\main.o
                                                  c:/program files (x86)/atmel/studio/7.0/toolchain/avr8/avr8-gnu-toolchain/bin/../lib/gcc/avr/5.4.0/../../../../avr/lib/avr6/crtatmega2560.o
malloc                                            c:/program files (x86)/atmel/studio/7.0/toolchain/avr8/avr8-gnu-toolchain/bin/../lib/gcc/avr/5.4.0/../../../../avr/lib/avr6\libc.a(malloc.o)
                                                  c:/program files (x86)/atmel/studio/7.0/toolchain/avr8/avr8-gnu-toolchain/bin/../lib/gcc/avr/5.4.0/../../../../avr/lib/avr6\libc.a(realloc.o)
                                                  obj\Release\WifiConn.o
                                                  obj\Release\arduino\new.o
memcmp                                            c:/program files (x86)/atmel/studio/7.0/toolchain/avr8/avr8-gnu-toolchain/bin/../lib/gcc/avr/5.4.0/../../../../avr/lib/avr6\libc.a(memcmp.o)
                                                  obj\Release\arduino\IPAddress.o
memcpy                                            c:/program files (x86)/atmel/studio/7.0/toolchain/avr8/avr8-gnu-toolchain/bin/../lib/gcc/avr/5.4.0/../../../../avr/lib/avr6\libc.a(memcpy.o)
                                                  c:/program files (x86)/atmel/studio/7.0/toolchain/avr8/avr8-gnu-toolchain/bin/../lib/gcc/avr/5.4.0/../../../../avr/lib/avr6\libc.a(memmove.o)
                                                  c:/program files (x86)/atmel/studio/7.0/toolchain/avr8/avr8-gnu-toolchain/bin/../lib/gcc/avr/5.4.0/../../../../avr/lib/avr6\libc.a(realloc.o)
                                                  obj\Release\WifiConn.o
                                                  obj\Release\arduino\WString.o
memmove                                           c:/program files (x86)/atmel/studio/7.0/toolchain/avr8/avr8-gnu-toolchain/bin/../lib/gcc/avr/5.4.0/../../../../avr/lib/avr6\libc.a(memmove.o)
                                                  obj\Release\arduino\WString.o
micros                                            obj\Release\arduino\wiring.o
                                                  obj\Release\arduino\wiring_pulse.o
                                                  obj\Release\arduino\dht.o
middleUpDown                                      obj\Release\HWInputs.o
                                                  obj\Release\Comfort.o
millis                                            obj\Release\arduino\wiring.o
                                                  obj\Release\arduino\Stream.o
                                                  obj\Release\arduino\Keypad.o
motionDetectorValue                               obj\Release\HWInputs.o
                                                  obj\Release\Comfort.o
motionStatus                                      obj\Release\HWInputs.o
                                                  obj\Release\Security.o
myservo                                           obj\Release\HWInputs.o
                                                  obj\Release\Doorlock.o
netwpass                                          obj\Release\WifiConn.o
newChar1                                          obj\Release\HWInputs.o
newTemp                                           obj\Release\HWInputs.o
                                                  obj\Release\Comfort.o
new_temp                                          obj\Release\HWInputs.o
                                                  obj\Release\Comfort.o
parole                                            obj\Release\WifiConn.o
                                                  obj\Release\HWInputs.o
passwordvalid                                     obj\Release\HWInputs.o
pgConfort                                         obj\Release\WifiConn.o
pgLights                                          obj\Release\WifiConn.o
pgSecurity                                        obj\Release\WifiConn.o
pgToUpload                                        obj\Release\WifiConn.o
pinMode                                           obj\Release\arduino\wiring_digital.o
                                                  obj\Release\HWOutputs.o
                                                  obj\Release\Comfort.o
                                                  obj\Release\arduino\wiring_analog.o
                                                  obj\Release\arduino\Tone.o
                                                  obj\Release\arduino\Servo.o
                                                  obj\Release\arduino\Keypad.o
                                                  obj\Release\arduino\dht.o
pirState                                          obj\Release\HWInputs.o
                                                  obj\Release\Security.o
port_to_input_PGM                                 obj\Release\arduino\wiring_digital.o
                                                  obj\Release\arduino\wiring_pulse.o
port_to_mode_PGM                                  obj\Release\arduino\wiring_digital.o
port_to_output_PGM                                obj\Release\arduino\wiring_digital.o
                                                  obj\Release\arduino\Tone.o
poscnf                                            obj\Release\WifiConn.o
poslgh                                            obj\Release\WifiConn.o
pospass                                           obj\Release\WifiConn.o
printf                                            c:/program files (x86)/atmel/studio/7.0/toolchain/avr8/avr8-gnu-toolchain/bin/../lib/gcc/avr/5.4.0/../../../../avr/lib/avr6\libc.a(printf.o)
                                                  obj\Release\SWOutputs.o
                                                  obj\Release\SWInputs.o
pulseIn                                           obj\Release\arduino\wiring_pulse.o
pulseInLong                                       obj\Release\arduino\wiring_pulse.o
puts                                              c:/program files (x86)/atmel/studio/7.0/toolchain/avr8/avr8-gnu-toolchain/bin/../lib/gcc/avr/5.4.0/../../../../avr/lib/avr6\libc.a(puts.o)
                                                  obj\Release\SWOutputs.o
pwd                                               obj\Release\HWInputs.o
random                                            c:/program files (x86)/atmel/studio/7.0/toolchain/avr8/avr8-gnu-toolchain/bin/../lib/gcc/avr/5.4.0/../../../../avr/lib/avr6\libc.a(random.o)
                                                  obj\Release\arduino\WMath.o
random_r                                          c:/program files (x86)/atmel/studio/7.0/toolchain/avr8/avr8-gnu-toolchain/bin/../lib/gcc/avr/5.4.0/../../../../avr/lib/avr6\libc.a(random.o)
readHumiditySoil                                  obj\Release\HWInputs.o
                                                  obj\Release\Comfort.o
realloc                                           c:/program files (x86)/atmel/studio/7.0/toolchain/avr8/avr8-gnu-toolchain/bin/../lib/gcc/avr/5.4.0/../../../../avr/lib/avr6\libc.a(realloc.o)
                                                  obj\Release\arduino\WString.o
requestData                                       obj\Release\WifiConn.o
rightArrow                                        obj\Release\HWInputs.o
                                                  obj\Release\Comfort.o
rightBlank                                        obj\Release\HWInputs.o
                                                  obj\Release\Comfort.o
rowPins                                           obj\Release\HWInputs.o
rowPinsDl                                         obj\Release\HWInputs.o
setup                                             obj\Release\SmartHome.o
                                                  obj\Release\arduino\main.o
shiftIn                                           obj\Release\arduino\wiring_shift.o
shiftOut                                          obj\Release\arduino\wiring_shift.o
soilHumidity                                      obj\Release\Comfort.o
soil_state                                        obj\Release\HWInputs.o
                                                  obj\Release\Comfort.o
srandom                                           c:/program files (x86)/atmel/studio/7.0/toolchain/avr8/avr8-gnu-toolchain/bin/../lib/gcc/avr/5.4.0/../../../../avr/lib/avr6\libc.a(random.o)
                                                  obj\Release\arduino\WMath.o
statusWifi                                        obj\Release\WifiConn.o
                                                  obj\Release\HWInputs.o
statuspwd                                         obj\Release\HWInputs.o
stopInit                                          obj\Release\WifiConn.o
strchr                                            c:/program files (x86)/atmel/studio/7.0/toolchain/avr8/avr8-gnu-toolchain/bin/../lib/gcc/avr/5.4.0/../../../../avr/lib/avr6\libc.a(strchr.o)
                                                  obj\Release\arduino\WString.o
strcmp                                            c:/program files (x86)/atmel/studio/7.0/toolchain/avr8/avr8-gnu-toolchain/bin/../lib/gcc/avr/5.4.0/../../../../avr/lib/avr6\libc.a(strcmp.o)
                                                  obj\Release\HWInputs.o
                                                  obj\Release\arduino\WString.o
strcpy                                            c:/program files (x86)/atmel/studio/7.0/toolchain/avr8/avr8-gnu-toolchain/bin/../lib/gcc/avr/5.4.0/../../../../avr/lib/avr6\libc.a(strcpy.o)
                                                  obj\Release\arduino\WString.o
strcpy_P                                          c:/program files (x86)/atmel/studio/7.0/toolchain/avr8/avr8-gnu-toolchain/bin/../lib/gcc/avr/5.4.0/../../../../avr/lib/avr6\libc.a(strcpy_P.o)
                                                  obj\Release\arduino\WString.o
strncasecmp_P                                     c:/program files (x86)/atmel/studio/7.0/toolchain/avr8/avr8-gnu-toolchain/bin/../lib/gcc/avr/5.4.0/../../../../avr/lib/avr6\libc.a(strncasecmp_P.o)
                                                  c:/program files (x86)/atmel/studio/7.0/toolchain/avr8/avr8-gnu-toolchain/bin/../lib/gcc/avr/5.4.0/../../../../avr/lib/avr6\libc.a(strtod.o)
strncmp                                           c:/program files (x86)/atmel/studio/7.0/toolchain/avr8/avr8-gnu-toolchain/bin/../lib/gcc/avr/5.4.0/../../../../avr/lib/avr6\libc.a(strncmp.o)
                                                  obj\Release\arduino\WString.o
strncpy                                           c:/program files (x86)/atmel/studio/7.0/toolchain/avr8/avr8-gnu-toolchain/bin/../lib/gcc/avr/5.4.0/../../../../avr/lib/avr6\libc.a(strncpy.o)
                                                  obj\Release\arduino\WString.o
strnlen                                           c:/program files (x86)/atmel/studio/7.0/toolchain/avr8/avr8-gnu-toolchain/bin/../lib/gcc/avr/5.4.0/../../../../avr/lib/avr6\libc.a(strnlen.o)
                                                  c:/program files (x86)/atmel/studio/7.0/toolchain/avr8/avr8-gnu-toolchain/bin/../lib/gcc/avr/5.4.0/../../../../avr/lib/avr6\libc.a(vfprintf_std.o)
strnlen_P                                         c:/program files (x86)/atmel/studio/7.0/toolchain/avr8/avr8-gnu-toolchain/bin/../lib/gcc/avr/5.4.0/../../../../avr/lib/avr6\libc.a(strnlen_P.o)
                                                  c:/program files (x86)/atmel/studio/7.0/toolchain/avr8/avr8-gnu-toolchain/bin/../lib/gcc/avr/5.4.0/../../../../avr/lib/avr6\libc.a(vfprintf_std.o)
strrchr                                           c:/program files (x86)/atmel/studio/7.0/toolchain/avr8/avr8-gnu-toolchain/bin/../lib/gcc/avr/5.4.0/../../../../avr/lib/avr6\libc.a(strrchr.o)
                                                  obj\Release\arduino\WString.o
strrev                                            c:/program files (x86)/atmel/studio/7.0/toolchain/avr8/avr8-gnu-toolchain/bin/../lib/gcc/avr/5.4.0/../../../../avr/lib/avr6\libc.a(strrev.o)
                                                  c:/program files (x86)/atmel/studio/7.0/toolchain/avr8/avr8-gnu-toolchain/bin/../lib/gcc/avr/5.4.0/../../../../avr/lib/avr6\libc.a(utoa_ncheck.o)
                                                  c:/program files (x86)/atmel/studio/7.0/toolchain/avr8/avr8-gnu-toolchain/bin/../lib/gcc/avr/5.4.0/../../../../avr/lib/avr6\libc.a(ultoa_ncheck.o)
strstr                                            c:/program files (x86)/atmel/studio/7.0/toolchain/avr8/avr8-gnu-toolchain/bin/../lib/gcc/avr/5.4.0/../../../../avr/lib/avr6\libc.a(strstr.o)
                                                  obj\Release\arduino\WString.o
strtod                                            c:/program files (x86)/atmel/studio/7.0/toolchain/avr8/avr8-gnu-toolchain/bin/../lib/gcc/avr/5.4.0/../../../../avr/lib/avr6\libc.a(strtod.o)
                                                  c:/program files (x86)/atmel/studio/7.0/toolchain/avr8/avr8-gnu-toolchain/bin/../lib/gcc/avr/5.4.0/../../../../avr/lib/avr6\libc.a(atof.o)
tempsts                                           obj\Release\Comfort.o
                                                  obj\Release\WifiConn.o
timer0_millis                                     obj\Release\arduino\wiring.o
timer0_overflow_count                             obj\Release\arduino\wiring.o
timer0_pin_mask                                   obj\Release\arduino\Tone.o
timer0_pin_port                                   obj\Release\arduino\Tone.o
timer0_toggle_count                               obj\Release\arduino\Tone.o
timer1_pin_mask                                   obj\Release\arduino\Tone.o
timer1_pin_port                                   obj\Release\arduino\Tone.o
timer1_toggle_count                               obj\Release\arduino\Tone.o
timer2_pin_mask                                   obj\Release\arduino\Tone.o
timer2_pin_port                                   obj\Release\arduino\Tone.o
timer2_toggle_count                               obj\Release\arduino\Tone.o
timer3_pin_mask                                   obj\Release\arduino\Tone.o
timer3_pin_port                                   obj\Release\arduino\Tone.o
timer3_toggle_count                               obj\Release\arduino\Tone.o
timer4_pin_mask                                   obj\Release\arduino\Tone.o
timer4_pin_port                                   obj\Release\arduino\Tone.o
timer4_toggle_count                               obj\Release\arduino\Tone.o
timer5_pin_mask                                   obj\Release\arduino\Tone.o
timer5_pin_port                                   obj\Release\arduino\Tone.o
timer5_toggle_count                               obj\Release\arduino\Tone.o
tolower                                           c:/program files (x86)/atmel/studio/7.0/toolchain/avr8/avr8-gnu-toolchain/bin/../lib/gcc/avr/5.4.0/../../../../avr/lib/avr6\libc.a(tolower.o)
                                                  obj\Release\arduino\WString.o
topUpDown                                         obj\Release\HWInputs.o
                                                  obj\Release\Comfort.o
toupper                                           c:/program files (x86)/atmel/studio/7.0/toolchain/avr8/avr8-gnu-toolchain/bin/../lib/gcc/avr/5.4.0/../../../../avr/lib/avr6\libc.a(toupper.o)
                                                  obj\Release\arduino\WString.o
twi_attachSlaveRxEvent                            obj\Release\arduino\utility\twi.o
                                                  obj\Release\arduino\Wire.o
twi_attachSlaveTxEvent                            obj\Release\arduino\utility\twi.o
                                                  obj\Release\arduino\Wire.o
twi_disable                                       obj\Release\arduino\utility\twi.o
                                                  obj\Release\arduino\Wire.o
twi_init                                          obj\Release\arduino\utility\twi.o
                                                  obj\Release\arduino\Wire.o
twi_readFrom                                      obj\Release\arduino\utility\twi.o
                                                  obj\Release\arduino\Wire.o
twi_releaseBus                                    obj\Release\arduino\utility\twi.o
twi_reply                                         obj\Release\arduino\utility\twi.o
twi_setAddress                                    obj\Release\arduino\utility\twi.o
                                                  obj\Release\arduino\Wire.o
twi_setFrequency                                  obj\Release\arduino\utility\twi.o
                                                  obj\Release\arduino\Wire.o
twi_stop                                          obj\Release\arduino\utility\twi.o
twi_transmit                                      obj\Release\arduino\utility\twi.o
                                                  obj\Release\arduino\Wire.o
twi_writeTo                                       obj\Release\arduino\utility\twi.o
                                                  obj\Release\arduino\Wire.o
ultoa                                             c:/program files (x86)/atmel/studio/7.0/toolchain/avr8/avr8-gnu-toolchain/bin/../lib/gcc/avr/5.4.0/../../../../avr/lib/avr6\libc.a(ultoa.o)
                                                  obj\Release\arduino\WString.o
utoa                                              c:/program files (x86)/atmel/studio/7.0/toolchain/avr8/avr8-gnu-toolchain/bin/../lib/gcc/avr/5.4.0/../../../../avr/lib/avr6\libc.a(utoa.o)
                                                  obj\Release\arduino\WString.o
val                                               obj\Release\HWInputs.o
valueMQ135                                        obj\Release\HWInputs.o
                                                  obj\Release\Comfort.o
vfprintf                                          c:/program files (x86)/atmel/studio/7.0/toolchain/avr8/avr8-gnu-toolchain/bin/../lib/gcc/avr/5.4.0/../../../../avr/lib/avr6\libc.a(vfprintf_std.o)
                                                  c:/program files (x86)/atmel/studio/7.0/toolchain/avr8/avr8-gnu-toolchain/bin/../lib/gcc/avr/5.4.0/../../../../avr/lib/avr6\libc.a(printf.o)
yield                                             obj\Release\arduino\hooks.o
                                                  obj\Release\arduino\wiring.o
