
bin\Release\SmartHome.elf:     file format elf32-avr

Sections:
Idx Name          Size      VMA       LMA       File off  Algn
  0 .data         00000054  00800200  00005edc  00005f70  2**0
                  CONTENTS, ALLOC, LOAD, DATA
  1 .text         00005edc  00000000  00000000  00000094  2**1
                  CONTENTS, ALLOC, LOAD, READONLY, CODE
  2 .bss          000002b4  00800254  00800254  00005fc4  2**0
                  ALLOC
  3 .comment      0000005c  00000000  00000000  00005fc4  2**0
                  CONTENTS, READONLY
  4 .note.gnu.avr.deviceinfo 00000040  00000000  00000000  00006020  2**2
                  CONTENTS, READONLY
  5 .debug_info   00000bbc  00000000  00000000  00006060  2**0
                  CONTENTS, READONLY, DEBUGGING
  6 .debug_abbrev 00000b1a  00000000  00000000  00006c1c  2**0
                  CONTENTS, READONLY, DEBUGGING
  7 .debug_line   0000001a  00000000  00000000  00007736  2**0
                  CONTENTS, READONLY, DEBUGGING
  8 .debug_str    000003e6  00000000  00000000  00007750  2**0
                  CONTENTS, READONLY, DEBUGGING

Disassembly of section .text:

00000000 <__vectors>:
       0:	0c 94 fa 01 	jmp	0x3f4	; 0x3f4 <__ctors_end>
       4:	0c 94 29 11 	jmp	0x2252	; 0x2252 <__vector_1>
       8:	0c 94 54 11 	jmp	0x22a8	; 0x22a8 <__vector_2>
       c:	0c 94 7f 11 	jmp	0x22fe	; 0x22fe <__vector_3>
      10:	0c 94 aa 11 	jmp	0x2354	; 0x2354 <__vector_4>
      14:	0c 94 d5 11 	jmp	0x23aa	; 0x23aa <__vector_5>
      18:	0c 94 00 12 	jmp	0x2400	; 0x2400 <__vector_6>
      1c:	0c 94 2b 12 	jmp	0x2456	; 0x2456 <__vector_7>
      20:	0c 94 56 12 	jmp	0x24ac	; 0x24ac <__vector_8>
      24:	0c 94 2b 02 	jmp	0x456	; 0x456 <__bad_interrupt>
      28:	0c 94 2b 02 	jmp	0x456	; 0x456 <__bad_interrupt>
      2c:	0c 94 2b 02 	jmp	0x456	; 0x456 <__bad_interrupt>
      30:	0c 94 2b 02 	jmp	0x456	; 0x456 <__bad_interrupt>
      34:	0c 94 2a 10 	jmp	0x2054	; 0x2054 <__vector_13>
      38:	0c 94 2b 02 	jmp	0x456	; 0x456 <__bad_interrupt>
      3c:	0c 94 2b 02 	jmp	0x456	; 0x456 <__bad_interrupt>
      40:	0c 94 2b 02 	jmp	0x456	; 0x456 <__bad_interrupt>
      44:	0c 94 2b 02 	jmp	0x456	; 0x456 <__bad_interrupt>
      48:	0c 94 2b 02 	jmp	0x456	; 0x456 <__bad_interrupt>
      4c:	0c 94 2b 02 	jmp	0x456	; 0x456 <__bad_interrupt>
      50:	0c 94 2b 02 	jmp	0x456	; 0x456 <__bad_interrupt>
      54:	0c 94 2b 02 	jmp	0x456	; 0x456 <__bad_interrupt>
      58:	0c 94 2b 02 	jmp	0x456	; 0x456 <__bad_interrupt>
      5c:	0c 94 81 12 	jmp	0x2502	; 0x2502 <__vector_23>
      60:	0c 94 2b 02 	jmp	0x456	; 0x456 <__bad_interrupt>
      64:	0c 94 c3 03 	jmp	0x786	; 0x786 <__vector_25>
      68:	0c 94 f9 03 	jmp	0x7f2	; 0x7f2 <__vector_26>
      6c:	0c 94 2b 02 	jmp	0x456	; 0x456 <__bad_interrupt>
      70:	0c 94 2b 02 	jmp	0x456	; 0x456 <__bad_interrupt>
      74:	0c 94 2b 02 	jmp	0x456	; 0x456 <__bad_interrupt>
      78:	0c 94 2b 02 	jmp	0x456	; 0x456 <__bad_interrupt>
      7c:	0c 94 2b 02 	jmp	0x456	; 0x456 <__bad_interrupt>
      80:	0c 94 2b 02 	jmp	0x456	; 0x456 <__bad_interrupt>
      84:	0c 94 2b 02 	jmp	0x456	; 0x456 <__bad_interrupt>
      88:	0c 94 2b 02 	jmp	0x456	; 0x456 <__bad_interrupt>
      8c:	0c 94 2b 02 	jmp	0x456	; 0x456 <__bad_interrupt>
      90:	0c 94 2d 04 	jmp	0x85a	; 0x85a <__vector_36>
      94:	0c 94 63 04 	jmp	0x8c6	; 0x8c6 <__vector_37>
      98:	0c 94 2b 02 	jmp	0x456	; 0x456 <__bad_interrupt>
      9c:	0c 94 2b 02 	jmp	0x456	; 0x456 <__bad_interrupt>
      a0:	0c 94 2b 02 	jmp	0x456	; 0x456 <__bad_interrupt>
      a4:	0c 94 2b 02 	jmp	0x456	; 0x456 <__bad_interrupt>
      a8:	0c 94 2b 02 	jmp	0x456	; 0x456 <__bad_interrupt>
      ac:	0c 94 2b 02 	jmp	0x456	; 0x456 <__bad_interrupt>
      b0:	0c 94 2b 02 	jmp	0x456	; 0x456 <__bad_interrupt>
      b4:	0c 94 2b 02 	jmp	0x456	; 0x456 <__bad_interrupt>
      b8:	0c 94 2b 02 	jmp	0x456	; 0x456 <__bad_interrupt>
      bc:	0c 94 2b 02 	jmp	0x456	; 0x456 <__bad_interrupt>
      c0:	0c 94 2b 02 	jmp	0x456	; 0x456 <__bad_interrupt>
      c4:	0c 94 2b 02 	jmp	0x456	; 0x456 <__bad_interrupt>
      c8:	0c 94 2b 02 	jmp	0x456	; 0x456 <__bad_interrupt>
      cc:	0c 94 97 04 	jmp	0x92e	; 0x92e <__vector_51>
      d0:	0c 94 cd 04 	jmp	0x99a	; 0x99a <__vector_52>
      d4:	0c 94 2b 02 	jmp	0x456	; 0x456 <__bad_interrupt>
      d8:	0c 94 01 05 	jmp	0xa02	; 0xa02 <__vector_54>
      dc:	0c 94 37 05 	jmp	0xa6e	; 0xa6e <__vector_55>
      e0:	0c 94 2b 02 	jmp	0x456	; 0x456 <__bad_interrupt>
      e4:	d9 10       	cpse	r13, r9
      e6:	a3 10       	cpse	r10, r3
      e8:	ab 10       	cpse	r10, r11
      ea:	b7 10       	cpse	r11, r7
      ec:	c4 10       	cpse	r12, r4
      ee:	e5 10       	cpse	r14, r5
      f0:	f2 10       	cpse	r15, r2
      f2:	19 11       	cpse	r17, r9
      f4:	0f 11       	cpse	r16, r15
      f6:	11 11       	cpse	r17, r1
      f8:	13 11       	cpse	r17, r3
      fa:	15 11       	cpse	r17, r5
      fc:	1b 11       	cpse	r17, r11
      fe:	1d 11       	cpse	r17, r13
     100:	f6 13       	cpse	r31, r22
     102:	fb 13       	cpse	r31, r27
     104:	00 14       	cp	r0, r0
     106:	0a 14       	cp	r0, r10
     108:	14 14       	cp	r1, r4
     10a:	8d 14       	cp	r8, r13
     10c:	1e 14       	cp	r1, r14
     10e:	26 14       	cp	r2, r6
     110:	2e 14       	cp	r2, r14
     112:	38 14       	cp	r3, r8
     114:	42 14       	cp	r4, r2
     116:	4c 14       	cp	r4, r12
     118:	5b 14       	cp	r5, r11
     11a:	65 14       	cp	r6, r5
     11c:	8d 14       	cp	r8, r13
     11e:	6f 14       	cp	r6, r15
     120:	79 14       	cp	r7, r9
     122:	83 14       	cp	r8, r3
     124:	b1 14       	cp	r11, r1
     126:	b4 14       	cp	r11, r4
     128:	a3 14       	cp	r10, r3
     12a:	a7 14       	cp	r10, r7
     12c:	ad 14       	cp	r10, r13
     12e:	eb 14       	cp	r14, r11
     130:	b8 14       	cp	r11, r8
     132:	bc 14       	cp	r11, r12
     134:	c2 14       	cp	r12, r2
     136:	c6 14       	cp	r12, r6
     138:	ca 14       	cp	r12, r10
     13a:	d0 14       	cp	r13, r0
     13c:	d4 14       	cp	r13, r4
     13e:	d8 14       	cp	r13, r8
     140:	eb 14       	cp	r14, r11
     142:	de 14       	cp	r13, r14
     144:	e2 14       	cp	r14, r2
     146:	e6 14       	cp	r14, r6

00000148 <__trampolines_start>:
     148:	0c 94 4b 02 	jmp	0x496	; 0x496 <_ZN14HardwareSerial4readEv>
     14c:	0c 94 ca 14 	jmp	0x2994	; 0x2994 <turnOffPWM+0x68>
     150:	0c 94 d8 14 	jmp	0x29b0	; 0x29b0 <turnOffPWM+0x84>
     154:	0c 94 e6 14 	jmp	0x29cc	; 0x29cc <turnOffPWM+0xa0>
     158:	0c 94 f6 13 	jmp	0x27ec	; 0x27ec <analogWrite+0x52>
     15c:	0c 94 f2 20 	jmp	0x41e4	; 0x41e4 <_ZN5Print5flushEv>
     160:	0c 94 6e 02 	jmp	0x4dc	; 0x4dc <_Z14serialEventRunv>
     164:	0c 94 38 14 	jmp	0x2870	; 0x2870 <analogWrite+0xd6>
     168:	0c 94 0f 11 	jmp	0x221e	; 0x221e <__stack+0x1f>
     16c:	0c 94 c2 14 	jmp	0x2984	; 0x2984 <turnOffPWM+0x58>
     170:	0c 94 0a 14 	jmp	0x2814	; 0x2814 <analogWrite+0x7a>
     174:	0c 94 1e 14 	jmp	0x283c	; 0x283c <analogWrite+0xa2>
     178:	0c 94 a7 14 	jmp	0x294e	; 0x294e <turnOffPWM+0x22>
     17c:	0c 94 20 21 	jmp	0x4240	; 0x4240 <_GLOBAL__sub_I___vector_36>
     180:	0c 94 3d 02 	jmp	0x47a	; 0x47a <_ZN14HardwareSerial4peekEv>
     184:	0c 94 d4 14 	jmp	0x29a8	; 0x29a8 <turnOffPWM+0x7c>
     188:	0c 94 b8 14 	jmp	0x2970	; 0x2970 <turnOffPWM+0x44>
     18c:	0c 94 7a 21 	jmp	0x42f4	; 0x42f4 <_GLOBAL__sub_I___vector_54>
     190:	0c 94 8a 10 	jmp	0x2114	; 0x2114 <nothing>
     194:	0c 94 42 14 	jmp	0x2884	; 0x2884 <analogWrite+0xea>
     198:	0c 94 19 11 	jmp	0x2232	; 0x2232 <__stack+0x33>
     19c:	0c 94 83 14 	jmp	0x2906	; 0x2906 <analogWrite+0x16c>
     1a0:	0c 94 cd 02 	jmp	0x59a	; 0x59a <_ZN14HardwareSerial5writeEh>
     1a4:	0c 94 c4 10 	jmp	0x2188	; 0x2188 <attachInterrupt+0x72>
     1a8:	0c 94 1a 03 	jmp	0x634	; 0x634 <_ZN14HardwareSerial5flushEv>
     1ac:	0c 94 61 05 	jmp	0xac2	; 0xac2 <_Z17Serial3_availablev>
     1b0:	0c 94 15 11 	jmp	0x222a	; 0x222a <__stack+0x2b>
     1b4:	0c 94 2d 02 	jmp	0x45a	; 0x45a <__cxa_pure_virtual>
     1b8:	0c 94 d9 10 	jmp	0x21b2	; 0x21b2 <attachInterrupt+0x9c>
     1bc:	0c 94 ad 14 	jmp	0x295a	; 0x295a <turnOffPWM+0x2e>
     1c0:	0c 94 fb 13 	jmp	0x27f6	; 0x27f6 <analogWrite+0x5c>
     1c4:	0c 94 6f 14 	jmp	0x28de	; 0x28de <analogWrite+0x144>
     1c8:	0c 94 bc 14 	jmp	0x2978	; 0x2978 <turnOffPWM+0x4c>
     1cc:	0c 94 eb 14 	jmp	0x29d6	; 0x29d6 <turnOffPWM+0xaa>
     1d0:	0c 94 5b 14 	jmp	0x28b6	; 0x28b6 <analogWrite+0x11c>
     1d4:	0c 94 8d 04 	jmp	0x91a	; 0x91a <_Z17Serial1_availablev>
     1d8:	0c 94 2e 14 	jmp	0x285c	; 0x285c <analogWrite+0xc2>
     1dc:	0c 94 d0 14 	jmp	0x29a0	; 0x29a0 <turnOffPWM+0x74>
     1e0:	0c 94 14 14 	jmp	0x2828	; 0x2828 <analogWrite+0x8e>
     1e4:	0c 94 4d 21 	jmp	0x429a	; 0x429a <_GLOBAL__sub_I___vector_51>
     1e8:	0c 94 11 11 	jmp	0x2222	; 0x2222 <__stack+0x23>
     1ec:	0c 94 5f 02 	jmp	0x4be	; 0x4be <_ZN14HardwareSerial17availableForWriteEv>
     1f0:	0c 94 a3 10 	jmp	0x2146	; 0x2146 <attachInterrupt+0x30>
     1f4:	0c 94 6c 05 	jmp	0xad8	; 0xad8 <_ZNK9IPAddress7printToER5Print>
     1f8:	0c 94 b7 10 	jmp	0x216e	; 0x216e <attachInterrupt+0x58>
     1fc:	0c 94 e5 10 	jmp	0x21ca	; 0x21ca <attachInterrupt+0xb4>
     200:	0c 94 ab 10 	jmp	0x2156	; 0x2156 <attachInterrupt+0x40>
     204:	0c 94 23 04 	jmp	0x846	; 0x846 <_Z17Serial0_availablev>
     208:	0c 94 4c 14 	jmp	0x2898	; 0x2898 <analogWrite+0xfe>
     20c:	0c 94 38 06 	jmp	0xc70	; 0xc70 <_ZN5Print5writeEPKhj>
     210:	0c 94 a3 14 	jmp	0x2946	; 0x2946 <turnOffPWM+0x1a>
     214:	0c 94 b4 14 	jmp	0x2968	; 0x2968 <turnOffPWM+0x3c>
     218:	0c 94 1d 11 	jmp	0x223a	; 0x223a <__stack+0x3b>
     21c:	0c 94 f3 20 	jmp	0x41e6	; 0x41e6 <_GLOBAL__sub_I___vector_25>
     220:	0c 94 26 14 	jmp	0x284c	; 0x284c <analogWrite+0xb2>
     224:	0c 94 f7 04 	jmp	0x9ee	; 0x9ee <_Z17Serial2_availablev>
     228:	0c 94 13 11 	jmp	0x2226	; 0x2226 <__stack+0x27>
     22c:	0c 94 c6 14 	jmp	0x298c	; 0x298c <turnOffPWM+0x60>
     230:	0c 94 8d 14 	jmp	0x291a	; 0x291a <analogWrite+0x180>
     234:	0c 94 de 14 	jmp	0x29bc	; 0x29bc <turnOffPWM+0x90>
     238:	0c 94 79 14 	jmp	0x28f2	; 0x28f2 <analogWrite+0x158>
     23c:	0c 94 e2 14 	jmp	0x29c4	; 0x29c4 <turnOffPWM+0x98>
     240:	0c 94 ef 20 	jmp	0x41de	; 0x41de <_ZN5Print17availableForWriteEv>
     244:	0c 94 f2 10 	jmp	0x21e4	; 0x21e4 <attachInterrupt+0xce>
     248:	0c 94 1b 11 	jmp	0x2236	; 0x2236 <__stack+0x37>
     24c:	0c 94 31 02 	jmp	0x462	; 0x462 <_ZN14HardwareSerial9availableEv>
     250:	0c 94 b1 14 	jmp	0x2962	; 0x2962 <turnOffPWM+0x36>
     254:	0c 94 00 14 	jmp	0x2800	; 0x2800 <analogWrite+0x66>
     258:	0c 94 65 14 	jmp	0x28ca	; 0x28ca <analogWrite+0x130>

0000025c <__trampolines_end>:
     25c:	4e 41       	sbci	r20, 0x1E	; 30
     25e:	4e 49       	Address 0x0000025e is out of bounds.
.word	0xffff	; ????

0000025f <pstr_inity>:
     25f:	49 4e 49 54 59                                      INITY

00000264 <pstr_inf>:
     264:	49 4e 46                                            INF

00000267 <pwr_m10>:
     267:	cd cc cc 3d 0a d7 23 3c 17 b7 d1 38 77 cc 2b 32     ...=..#<...8w.+2
     277:	95 95 e6 24 1f b1 4f 0a                             ...$..O.

0000027f <pwr_p10>:
     27f:	00 00 20 41 00 00 c8 42 00 40 1c 46 20 bc be 4c     .. A...B.@.F ..L
     28f:	ca 1b 0e 5a ae c5 9d 74 00 40 7a 10 f3 5a 00 a0     ...Z...t.@z..Z..
     29f:	72 4e 18 09 00 10 a5 d4 e8 00 00 e8 76 48 17 00     rN..........vH..
     2af:	00 e4 0b 54 02 00 00 ca 9a 3b 00 00 00 e1 f5 05     ...T.....;......
     2bf:	00 00 80 96 98 00 00 00 40 42 0f 00 00 00 a0 86     ........@B......
     2cf:	01 00 00 00 10 27 00 00 00 00 e8 03 00 00 00 00     .....'..........
     2df:	64 00 00 00 00 00 0a 00 00 00 00 00 01 00 00 00     d...............
     2ef:	00 00 2c 76 d8 88 dc 67 4f 08 23 df c1 df ae 59     ..,v...gO.#....Y
     2ff:	e1 b1 b7 96 e5 e3 e4 53 c6 3a e6 51 99 76 96 e8     .......S.:.Q.v..
     30f:	e6 c2 84 26 eb 89 8c 9b 62 ed 40 7c 6f fc ef bc     ...&....b.@|o...
     31f:	9c 9f 40 f2 ba a5 6f a5 f4 90 05 5a 2a f7 5c 93     ..@...o....Z*.\.
     32f:	6b 6c f9 67 6d c1 1b fc e0 e4 0d 47 fe f5 20 e6     kl.gm......G.. .
     33f:	b5 00 d0 ed 90 2e 03 00 94 35 77 05 00 80 84 1e     .........5w.....
     34f:	08 00 00 20 4e 0a 00 00 00 c8 0c 33 33 33 33 0f     ... N......3333.
     35f:	98 6e 12 83 11 41 ef 8d 21 14 89 3b e6 55 16 cf     .n...A..!..;.U..
     36f:	fe e6 db 18 d1 84 4b 38 1b f7 7c 1d 90 1d a4 bb     ......K8..|.....
     37f:	e4 24 20 32 84 72 5e 22 81 00 c9 f1 24 ec a1 e5     .$ 2.r^"....$...
     38f:	3d 27                                               ='

00000391 <_ZL21tone_pin_to_timer_PGM>:
     391:	02                                                  .

00000392 <digital_pin_to_timer_PGM>:
     392:	00 00 00 08 00 02 01 00 00 03 04 07 00 00 00 00     ................
     3a2:	00 00 00 00                                         ....

000003a6 <digital_pin_to_bit_mask_PGM>:
     3a6:	01 02 04 08 10 20 40 80 01 02 04 08 10 20 01 02     ..... @...... ..
     3b6:	04 08 10 20                                         ... 

000003ba <digital_pin_to_port_PGM>:
     3ba:	04 04 04 04 04 04 04 04 02 02 02 02 02 02 03 03     ................
     3ca:	03 03 03 03                                         ....

000003ce <port_to_input_PGM>:
     3ce:	00 00 00 00 23 00 26 00 29 00                       ....#.&.).

000003d8 <port_to_output_PGM>:
     3d8:	00 00 00 00 25 00 28 00 2b 00                       ....%.(.+.

000003e2 <port_to_mode_PGM>:
     3e2:	00 00 00 00 24 00 27 00 2a 00                       ....$.'.*.

000003ec <__ctors_start>:
     3ec:	f3 20       	and	r15, r3
     3ee:	20 21       	and	r18, r0
     3f0:	4d 21       	and	r20, r13
     3f2:	7a 21       	and	r23, r10

000003f4 <__ctors_end>:
     3f4:	11 24       	eor	r1, r1
     3f6:	1f be       	out	0x3f, r1	; 63
     3f8:	cf ef       	ldi	r28, 0xFF	; 255
     3fa:	d1 e2       	ldi	r29, 0x21	; 33
     3fc:	de bf       	out	0x3e, r29	; 62
     3fe:	cd bf       	out	0x3d, r28	; 61
     400:	00 e0       	ldi	r16, 0x00	; 0
     402:	0c bf       	out	0x3c, r16	; 60

00000404 <__do_copy_data>:
     404:	12 e0       	ldi	r17, 0x02	; 2
     406:	a0 e0       	ldi	r26, 0x00	; 0
     408:	b2 e0       	ldi	r27, 0x02	; 2
     40a:	ec ed       	ldi	r30, 0xDC	; 220
     40c:	fe e5       	ldi	r31, 0x5E	; 94
     40e:	00 e0       	ldi	r16, 0x00	; 0
     410:	0b bf       	out	0x3b, r16	; 59
     412:	02 c0       	rjmp	.+4      	; 0x418 <__do_copy_data+0x14>
     414:	07 90       	elpm	r0, Z+
     416:	0d 92       	st	X+, r0
     418:	a4 35       	cpi	r26, 0x54	; 84
     41a:	b1 07       	cpc	r27, r17
     41c:	d9 f7       	brne	.-10     	; 0x414 <__do_copy_data+0x10>

0000041e <__do_clear_bss>:
     41e:	25 e0       	ldi	r18, 0x05	; 5
     420:	a4 e5       	ldi	r26, 0x54	; 84
     422:	b2 e0       	ldi	r27, 0x02	; 2
     424:	01 c0       	rjmp	.+2      	; 0x428 <.do_clear_bss_start>

00000426 <.do_clear_bss_loop>:
     426:	1d 92       	st	X+, r1

00000428 <.do_clear_bss_start>:
     428:	a8 30       	cpi	r26, 0x08	; 8
     42a:	b2 07       	cpc	r27, r18
     42c:	e1 f7       	brne	.-8      	; 0x426 <.do_clear_bss_loop>

0000042e <__do_global_ctors>:
     42e:	11 e0       	ldi	r17, 0x01	; 1
     430:	ca ef       	ldi	r28, 0xFA	; 250
     432:	d1 e0       	ldi	r29, 0x01	; 1
     434:	00 e0       	ldi	r16, 0x00	; 0
     436:	06 c0       	rjmp	.+12     	; 0x444 <__do_global_ctors+0x16>
     438:	21 97       	sbiw	r28, 0x01	; 1
     43a:	01 09       	sbc	r16, r1
     43c:	80 2f       	mov	r24, r16
     43e:	fe 01       	movw	r30, r28
     440:	0e 94 25 22 	call	0x444a	; 0x444a <__tablejump2__>
     444:	c6 3f       	cpi	r28, 0xF6	; 246
     446:	d1 07       	cpc	r29, r17
     448:	80 e0       	ldi	r24, 0x00	; 0
     44a:	08 07       	cpc	r16, r24
     44c:	a9 f7       	brne	.-22     	; 0x438 <__do_global_ctors+0xa>
     44e:	0e 94 a8 21 	call	0x4350	; 0x4350 <main>
     452:	0c 94 6c 2f 	jmp	0x5ed8	; 0x5ed8 <_exit>

00000456 <__bad_interrupt>:
     456:	0c 94 00 00 	jmp	0	; 0x0 <__vectors>

0000045a <__cxa_pure_virtual>:
     45a:	0e 94 4b 27 	call	0x4e96	; 0x4e96 <abort>

0000045e <__cxa_deleted_virtual>:
     45e:	0e 94 4b 27 	call	0x4e96	; 0x4e96 <abort>

00000462 <_ZN14HardwareSerial9availableEv>:
     462:	fc 01       	movw	r30, r24
     464:	91 8d       	ldd	r25, Z+25	; 0x19
     466:	22 8d       	ldd	r18, Z+26	; 0x1a
     468:	89 2f       	mov	r24, r25
     46a:	90 e0       	ldi	r25, 0x00	; 0
     46c:	80 5c       	subi	r24, 0xC0	; 192
     46e:	9f 4f       	sbci	r25, 0xFF	; 255
     470:	82 1b       	sub	r24, r18
     472:	91 09       	sbc	r25, r1
     474:	8f 73       	andi	r24, 0x3F	; 63
     476:	99 27       	eor	r25, r25
     478:	08 95       	ret

0000047a <_ZN14HardwareSerial4peekEv>:
     47a:	fc 01       	movw	r30, r24
     47c:	91 8d       	ldd	r25, Z+25	; 0x19
     47e:	82 8d       	ldd	r24, Z+26	; 0x1a
     480:	98 17       	cp	r25, r24
     482:	31 f0       	breq	.+12     	; 0x490 <_ZN14HardwareSerial4peekEv+0x16>
     484:	82 8d       	ldd	r24, Z+26	; 0x1a
     486:	e8 0f       	add	r30, r24
     488:	f1 1d       	adc	r31, r1
     48a:	85 8d       	ldd	r24, Z+29	; 0x1d
     48c:	90 e0       	ldi	r25, 0x00	; 0
     48e:	08 95       	ret
     490:	8f ef       	ldi	r24, 0xFF	; 255
     492:	9f ef       	ldi	r25, 0xFF	; 255
     494:	08 95       	ret

00000496 <_ZN14HardwareSerial4readEv>:
     496:	fc 01       	movw	r30, r24
     498:	91 8d       	ldd	r25, Z+25	; 0x19
     49a:	82 8d       	ldd	r24, Z+26	; 0x1a
     49c:	98 17       	cp	r25, r24
     49e:	61 f0       	breq	.+24     	; 0x4b8 <_ZN14HardwareSerial4readEv+0x22>
     4a0:	82 8d       	ldd	r24, Z+26	; 0x1a
     4a2:	df 01       	movw	r26, r30
     4a4:	a8 0f       	add	r26, r24
     4a6:	b1 1d       	adc	r27, r1
     4a8:	5d 96       	adiw	r26, 0x1d	; 29
     4aa:	8c 91       	ld	r24, X
     4ac:	92 8d       	ldd	r25, Z+26	; 0x1a
     4ae:	9f 5f       	subi	r25, 0xFF	; 255
     4b0:	9f 73       	andi	r25, 0x3F	; 63
     4b2:	92 8f       	std	Z+26, r25	; 0x1a
     4b4:	90 e0       	ldi	r25, 0x00	; 0
     4b6:	08 95       	ret
     4b8:	8f ef       	ldi	r24, 0xFF	; 255
     4ba:	9f ef       	ldi	r25, 0xFF	; 255
     4bc:	08 95       	ret

000004be <_ZN14HardwareSerial17availableForWriteEv>:
     4be:	fc 01       	movw	r30, r24
     4c0:	53 8d       	ldd	r21, Z+27	; 0x1b
     4c2:	44 8d       	ldd	r20, Z+28	; 0x1c
     4c4:	25 2f       	mov	r18, r21
     4c6:	30 e0       	ldi	r19, 0x00	; 0
     4c8:	84 2f       	mov	r24, r20
     4ca:	90 e0       	ldi	r25, 0x00	; 0
     4cc:	82 1b       	sub	r24, r18
     4ce:	93 0b       	sbc	r25, r19
     4d0:	54 17       	cp	r21, r20
     4d2:	10 f0       	brcs	.+4      	; 0x4d8 <_ZN14HardwareSerial17availableForWriteEv+0x1a>
     4d4:	cf 96       	adiw	r24, 0x3f	; 63
     4d6:	08 95       	ret
     4d8:	01 97       	sbiw	r24, 0x01	; 1
     4da:	08 95       	ret

000004dc <_Z14serialEventRunv>:
     4dc:	83 e2       	ldi	r24, 0x23	; 35
     4de:	94 e0       	ldi	r25, 0x04	; 4
     4e0:	89 2b       	or	r24, r25
     4e2:	41 f0       	breq	.+16     	; 0x4f4 <_Z14serialEventRunv+0x18>
     4e4:	80 e0       	ldi	r24, 0x00	; 0
     4e6:	90 e0       	ldi	r25, 0x00	; 0
     4e8:	89 2b       	or	r24, r25
     4ea:	21 f0       	breq	.+8      	; 0x4f4 <_Z14serialEventRunv+0x18>
     4ec:	0e 94 23 04 	call	0x846	; 0x846 <_Z17Serial0_availablev>
     4f0:	81 11       	cpse	r24, r1
     4f2:	25 c0       	rjmp	.+74     	; 0x53e <_Z14serialEventRunv+0x62>
     4f4:	8d e8       	ldi	r24, 0x8D	; 141
     4f6:	94 e0       	ldi	r25, 0x04	; 4
     4f8:	89 2b       	or	r24, r25
     4fa:	41 f0       	breq	.+16     	; 0x50c <_Z14serialEventRunv+0x30>
     4fc:	80 e0       	ldi	r24, 0x00	; 0
     4fe:	90 e0       	ldi	r25, 0x00	; 0
     500:	89 2b       	or	r24, r25
     502:	21 f0       	breq	.+8      	; 0x50c <_Z14serialEventRunv+0x30>
     504:	0e 94 8d 04 	call	0x91a	; 0x91a <_Z17Serial1_availablev>
     508:	81 11       	cpse	r24, r1
     50a:	1c c0       	rjmp	.+56     	; 0x544 <_Z14serialEventRunv+0x68>
     50c:	87 ef       	ldi	r24, 0xF7	; 247
     50e:	94 e0       	ldi	r25, 0x04	; 4
     510:	89 2b       	or	r24, r25
     512:	41 f0       	breq	.+16     	; 0x524 <_Z14serialEventRunv+0x48>
     514:	80 e0       	ldi	r24, 0x00	; 0
     516:	90 e0       	ldi	r25, 0x00	; 0
     518:	89 2b       	or	r24, r25
     51a:	21 f0       	breq	.+8      	; 0x524 <_Z14serialEventRunv+0x48>
     51c:	0e 94 f7 04 	call	0x9ee	; 0x9ee <_Z17Serial2_availablev>
     520:	81 11       	cpse	r24, r1
     522:	13 c0       	rjmp	.+38     	; 0x54a <_Z14serialEventRunv+0x6e>
     524:	81 e6       	ldi	r24, 0x61	; 97
     526:	95 e0       	ldi	r25, 0x05	; 5
     528:	89 2b       	or	r24, r25
     52a:	a1 f0       	breq	.+40     	; 0x554 <_Z14serialEventRunv+0x78>
     52c:	80 e0       	ldi	r24, 0x00	; 0
     52e:	90 e0       	ldi	r25, 0x00	; 0
     530:	89 2b       	or	r24, r25
     532:	81 f0       	breq	.+32     	; 0x554 <_Z14serialEventRunv+0x78>
     534:	0e 94 61 05 	call	0xac2	; 0xac2 <_Z17Serial3_availablev>
     538:	81 11       	cpse	r24, r1
     53a:	0a c0       	rjmp	.+20     	; 0x550 <_Z14serialEventRunv+0x74>
     53c:	08 95       	ret
     53e:	0e 94 00 00 	call	0	; 0x0 <__vectors>
     542:	d8 cf       	rjmp	.-80     	; 0x4f4 <_Z14serialEventRunv+0x18>
     544:	0e 94 00 00 	call	0	; 0x0 <__vectors>
     548:	e1 cf       	rjmp	.-62     	; 0x50c <_Z14serialEventRunv+0x30>
     54a:	0e 94 00 00 	call	0	; 0x0 <__vectors>
     54e:	ea cf       	rjmp	.-44     	; 0x524 <_Z14serialEventRunv+0x48>
     550:	0c 94 00 00 	jmp	0	; 0x0 <__vectors>
     554:	08 95       	ret

00000556 <_ZN14HardwareSerial17_tx_udr_empty_irqEv>:
     556:	fc 01       	movw	r30, r24
     558:	84 8d       	ldd	r24, Z+28	; 0x1c
     55a:	df 01       	movw	r26, r30
     55c:	a8 0f       	add	r26, r24
     55e:	b1 1d       	adc	r27, r1
     560:	a3 5a       	subi	r26, 0xA3	; 163
     562:	bf 4f       	sbci	r27, 0xFF	; 255
     564:	2c 91       	ld	r18, X
     566:	84 8d       	ldd	r24, Z+28	; 0x1c
     568:	90 e0       	ldi	r25, 0x00	; 0
     56a:	01 96       	adiw	r24, 0x01	; 1
     56c:	8f 73       	andi	r24, 0x3F	; 63
     56e:	99 27       	eor	r25, r25
     570:	84 8f       	std	Z+28, r24	; 0x1c
     572:	a6 89       	ldd	r26, Z+22	; 0x16
     574:	b7 89       	ldd	r27, Z+23	; 0x17
     576:	2c 93       	st	X, r18
     578:	a0 89       	ldd	r26, Z+16	; 0x10
     57a:	b1 89       	ldd	r27, Z+17	; 0x11
     57c:	8c 91       	ld	r24, X
     57e:	83 70       	andi	r24, 0x03	; 3
     580:	80 64       	ori	r24, 0x40	; 64
     582:	8c 93       	st	X, r24
     584:	93 8d       	ldd	r25, Z+27	; 0x1b
     586:	84 8d       	ldd	r24, Z+28	; 0x1c
     588:	98 13       	cpse	r25, r24
     58a:	06 c0       	rjmp	.+12     	; 0x598 <_ZN14HardwareSerial17_tx_udr_empty_irqEv+0x42>
     58c:	02 88       	ldd	r0, Z+18	; 0x12
     58e:	f3 89       	ldd	r31, Z+19	; 0x13
     590:	e0 2d       	mov	r30, r0
     592:	80 81       	ld	r24, Z
     594:	8f 7d       	andi	r24, 0xDF	; 223
     596:	80 83       	st	Z, r24
     598:	08 95       	ret

0000059a <_ZN14HardwareSerial5writeEh>:
     59a:	ef 92       	push	r14
     59c:	ff 92       	push	r15
     59e:	0f 93       	push	r16
     5a0:	1f 93       	push	r17
     5a2:	cf 93       	push	r28
     5a4:	df 93       	push	r29
     5a6:	ec 01       	movw	r28, r24
     5a8:	81 e0       	ldi	r24, 0x01	; 1
     5aa:	88 8f       	std	Y+24, r24	; 0x18
     5ac:	9b 8d       	ldd	r25, Y+27	; 0x1b
     5ae:	8c 8d       	ldd	r24, Y+28	; 0x1c
     5b0:	98 13       	cpse	r25, r24
     5b2:	05 c0       	rjmp	.+10     	; 0x5be <_ZN14HardwareSerial5writeEh+0x24>
     5b4:	e8 89       	ldd	r30, Y+16	; 0x10
     5b6:	f9 89       	ldd	r31, Y+17	; 0x11
     5b8:	80 81       	ld	r24, Z
     5ba:	85 fd       	sbrc	r24, 5
     5bc:	26 c0       	rjmp	.+76     	; 0x60a <_ZN14HardwareSerial5writeEh+0x70>
     5be:	f6 2e       	mov	r15, r22
     5c0:	0b 8d       	ldd	r16, Y+27	; 0x1b
     5c2:	10 e0       	ldi	r17, 0x00	; 0
     5c4:	0f 5f       	subi	r16, 0xFF	; 255
     5c6:	1f 4f       	sbci	r17, 0xFF	; 255
     5c8:	0f 73       	andi	r16, 0x3F	; 63
     5ca:	11 27       	eor	r17, r17
     5cc:	e0 2e       	mov	r14, r16
     5ce:	8c 8d       	ldd	r24, Y+28	; 0x1c
     5d0:	e8 12       	cpse	r14, r24
     5d2:	0c c0       	rjmp	.+24     	; 0x5ec <_ZN14HardwareSerial5writeEh+0x52>
     5d4:	0f b6       	in	r0, 0x3f	; 63
     5d6:	07 fc       	sbrc	r0, 7
     5d8:	fa cf       	rjmp	.-12     	; 0x5ce <_ZN14HardwareSerial5writeEh+0x34>
     5da:	e8 89       	ldd	r30, Y+16	; 0x10
     5dc:	f9 89       	ldd	r31, Y+17	; 0x11
     5de:	80 81       	ld	r24, Z
     5e0:	85 ff       	sbrs	r24, 5
     5e2:	f5 cf       	rjmp	.-22     	; 0x5ce <_ZN14HardwareSerial5writeEh+0x34>
     5e4:	ce 01       	movw	r24, r28
     5e6:	0e 94 ab 02 	call	0x556	; 0x556 <_ZN14HardwareSerial17_tx_udr_empty_irqEv>
     5ea:	f1 cf       	rjmp	.-30     	; 0x5ce <_ZN14HardwareSerial5writeEh+0x34>
     5ec:	8b 8d       	ldd	r24, Y+27	; 0x1b
     5ee:	fe 01       	movw	r30, r28
     5f0:	e8 0f       	add	r30, r24
     5f2:	f1 1d       	adc	r31, r1
     5f4:	e3 5a       	subi	r30, 0xA3	; 163
     5f6:	ff 4f       	sbci	r31, 0xFF	; 255
     5f8:	f0 82       	st	Z, r15
     5fa:	9f b7       	in	r25, 0x3f	; 63
     5fc:	f8 94       	cli
     5fe:	0b 8f       	std	Y+27, r16	; 0x1b
     600:	ea 89       	ldd	r30, Y+18	; 0x12
     602:	fb 89       	ldd	r31, Y+19	; 0x13
     604:	80 81       	ld	r24, Z
     606:	80 62       	ori	r24, 0x20	; 32
     608:	0a c0       	rjmp	.+20     	; 0x61e <_ZN14HardwareSerial5writeEh+0x84>
     60a:	9f b7       	in	r25, 0x3f	; 63
     60c:	f8 94       	cli
     60e:	ee 89       	ldd	r30, Y+22	; 0x16
     610:	ff 89       	ldd	r31, Y+23	; 0x17
     612:	60 83       	st	Z, r22
     614:	e8 89       	ldd	r30, Y+16	; 0x10
     616:	f9 89       	ldd	r31, Y+17	; 0x11
     618:	80 81       	ld	r24, Z
     61a:	83 70       	andi	r24, 0x03	; 3
     61c:	80 64       	ori	r24, 0x40	; 64
     61e:	80 83       	st	Z, r24
     620:	9f bf       	out	0x3f, r25	; 63
     622:	81 e0       	ldi	r24, 0x01	; 1
     624:	90 e0       	ldi	r25, 0x00	; 0
     626:	df 91       	pop	r29
     628:	cf 91       	pop	r28
     62a:	1f 91       	pop	r17
     62c:	0f 91       	pop	r16
     62e:	ff 90       	pop	r15
     630:	ef 90       	pop	r14
     632:	08 95       	ret

00000634 <_ZN14HardwareSerial5flushEv>:
     634:	cf 93       	push	r28
     636:	df 93       	push	r29
     638:	ec 01       	movw	r28, r24
     63a:	88 8d       	ldd	r24, Y+24	; 0x18
     63c:	88 23       	and	r24, r24
     63e:	c9 f0       	breq	.+50     	; 0x672 <_ZN14HardwareSerial5flushEv+0x3e>
     640:	ea 89       	ldd	r30, Y+18	; 0x12
     642:	fb 89       	ldd	r31, Y+19	; 0x13
     644:	80 81       	ld	r24, Z
     646:	85 fd       	sbrc	r24, 5
     648:	05 c0       	rjmp	.+10     	; 0x654 <_ZN14HardwareSerial5flushEv+0x20>
     64a:	a8 89       	ldd	r26, Y+16	; 0x10
     64c:	b9 89       	ldd	r27, Y+17	; 0x11
     64e:	8c 91       	ld	r24, X
     650:	86 fd       	sbrc	r24, 6
     652:	0f c0       	rjmp	.+30     	; 0x672 <_ZN14HardwareSerial5flushEv+0x3e>
     654:	0f b6       	in	r0, 0x3f	; 63
     656:	07 fc       	sbrc	r0, 7
     658:	f5 cf       	rjmp	.-22     	; 0x644 <_ZN14HardwareSerial5flushEv+0x10>
     65a:	80 81       	ld	r24, Z
     65c:	85 ff       	sbrs	r24, 5
     65e:	f2 cf       	rjmp	.-28     	; 0x644 <_ZN14HardwareSerial5flushEv+0x10>
     660:	a8 89       	ldd	r26, Y+16	; 0x10
     662:	b9 89       	ldd	r27, Y+17	; 0x11
     664:	8c 91       	ld	r24, X
     666:	85 ff       	sbrs	r24, 5
     668:	ed cf       	rjmp	.-38     	; 0x644 <_ZN14HardwareSerial5flushEv+0x10>
     66a:	ce 01       	movw	r24, r28
     66c:	0e 94 ab 02 	call	0x556	; 0x556 <_ZN14HardwareSerial17_tx_udr_empty_irqEv>
     670:	e7 cf       	rjmp	.-50     	; 0x640 <_ZN14HardwareSerial5flushEv+0xc>
     672:	df 91       	pop	r29
     674:	cf 91       	pop	r28
     676:	08 95       	ret

00000678 <_ZN14HardwareSerial5beginEmh>:
     678:	cf 92       	push	r12
     67a:	df 92       	push	r13
     67c:	ef 92       	push	r14
     67e:	ff 92       	push	r15
     680:	1f 93       	push	r17
     682:	cf 93       	push	r28
     684:	df 93       	push	r29
     686:	ec 01       	movw	r28, r24
     688:	6a 01       	movw	r12, r20
     68a:	7b 01       	movw	r14, r22
     68c:	12 2f       	mov	r17, r18
     68e:	e8 89       	ldd	r30, Y+16	; 0x10
     690:	f9 89       	ldd	r31, Y+17	; 0x11
     692:	82 e0       	ldi	r24, 0x02	; 2
     694:	80 83       	st	Z, r24
     696:	41 15       	cp	r20, r1
     698:	51 4e       	sbci	r21, 0xE1	; 225
     69a:	61 05       	cpc	r22, r1
     69c:	71 05       	cpc	r23, r1
     69e:	b1 f0       	breq	.+44     	; 0x6cc <_ZN14HardwareSerial5beginEmh+0x54>
     6a0:	60 e0       	ldi	r22, 0x00	; 0
     6a2:	79 e0       	ldi	r23, 0x09	; 9
     6a4:	8d e3       	ldi	r24, 0x3D	; 61
     6a6:	90 e0       	ldi	r25, 0x00	; 0
     6a8:	a7 01       	movw	r20, r14
     6aa:	96 01       	movw	r18, r12
     6ac:	0e 94 e4 21 	call	0x43c8	; 0x43c8 <__udivmodsi4>
     6b0:	da 01       	movw	r26, r20
     6b2:	c9 01       	movw	r24, r18
     6b4:	01 97       	sbiw	r24, 0x01	; 1
     6b6:	a1 09       	sbc	r26, r1
     6b8:	b1 09       	sbc	r27, r1
     6ba:	b6 95       	lsr	r27
     6bc:	a7 95       	ror	r26
     6be:	97 95       	ror	r25
     6c0:	87 95       	ror	r24
     6c2:	9c 01       	movw	r18, r24
     6c4:	21 15       	cp	r18, r1
     6c6:	80 e1       	ldi	r24, 0x10	; 16
     6c8:	38 07       	cpc	r19, r24
     6ca:	a8 f0       	brcs	.+42     	; 0x6f6 <_ZN14HardwareSerial5beginEmh+0x7e>
     6cc:	e8 89       	ldd	r30, Y+16	; 0x10
     6ce:	f9 89       	ldd	r31, Y+17	; 0x11
     6d0:	10 82       	st	Z, r1
     6d2:	60 e8       	ldi	r22, 0x80	; 128
     6d4:	74 e8       	ldi	r23, 0x84	; 132
     6d6:	8e e1       	ldi	r24, 0x1E	; 30
     6d8:	90 e0       	ldi	r25, 0x00	; 0
     6da:	a7 01       	movw	r20, r14
     6dc:	96 01       	movw	r18, r12
     6de:	0e 94 e4 21 	call	0x43c8	; 0x43c8 <__udivmodsi4>
     6e2:	da 01       	movw	r26, r20
     6e4:	c9 01       	movw	r24, r18
     6e6:	01 97       	sbiw	r24, 0x01	; 1
     6e8:	a1 09       	sbc	r26, r1
     6ea:	b1 09       	sbc	r27, r1
     6ec:	b6 95       	lsr	r27
     6ee:	a7 95       	ror	r26
     6f0:	97 95       	ror	r25
     6f2:	87 95       	ror	r24
     6f4:	9c 01       	movw	r18, r24
     6f6:	ec 85       	ldd	r30, Y+12	; 0x0c
     6f8:	fd 85       	ldd	r31, Y+13	; 0x0d
     6fa:	30 83       	st	Z, r19
     6fc:	ee 85       	ldd	r30, Y+14	; 0x0e
     6fe:	ff 85       	ldd	r31, Y+15	; 0x0f
     700:	20 83       	st	Z, r18
     702:	18 8e       	std	Y+24, r1	; 0x18
     704:	ec 89       	ldd	r30, Y+20	; 0x14
     706:	fd 89       	ldd	r31, Y+21	; 0x15
     708:	10 83       	st	Z, r17
     70a:	ea 89       	ldd	r30, Y+18	; 0x12
     70c:	fb 89       	ldd	r31, Y+19	; 0x13
     70e:	80 81       	ld	r24, Z
     710:	80 61       	ori	r24, 0x10	; 16
     712:	80 83       	st	Z, r24
     714:	ea 89       	ldd	r30, Y+18	; 0x12
     716:	fb 89       	ldd	r31, Y+19	; 0x13
     718:	80 81       	ld	r24, Z
     71a:	88 60       	ori	r24, 0x08	; 8
     71c:	80 83       	st	Z, r24
     71e:	ea 89       	ldd	r30, Y+18	; 0x12
     720:	fb 89       	ldd	r31, Y+19	; 0x13
     722:	80 81       	ld	r24, Z
     724:	80 68       	ori	r24, 0x80	; 128
     726:	80 83       	st	Z, r24
     728:	ea 89       	ldd	r30, Y+18	; 0x12
     72a:	fb 89       	ldd	r31, Y+19	; 0x13
     72c:	80 81       	ld	r24, Z
     72e:	8f 7d       	andi	r24, 0xDF	; 223
     730:	80 83       	st	Z, r24
     732:	df 91       	pop	r29
     734:	cf 91       	pop	r28
     736:	1f 91       	pop	r17
     738:	ff 90       	pop	r15
     73a:	ef 90       	pop	r14
     73c:	df 90       	pop	r13
     73e:	cf 90       	pop	r12
     740:	08 95       	ret

00000742 <_ZN14HardwareSerial3endEv>:
     742:	cf 93       	push	r28
     744:	df 93       	push	r29
     746:	ec 01       	movw	r28, r24
     748:	e8 81       	ld	r30, Y
     74a:	f9 81       	ldd	r31, Y+1	; 0x01
     74c:	06 80       	ldd	r0, Z+6	; 0x06
     74e:	f7 81       	ldd	r31, Z+7	; 0x07
     750:	e0 2d       	mov	r30, r0
     752:	19 95       	eicall
     754:	ea 89       	ldd	r30, Y+18	; 0x12
     756:	fb 89       	ldd	r31, Y+19	; 0x13
     758:	80 81       	ld	r24, Z
     75a:	8f 7e       	andi	r24, 0xEF	; 239
     75c:	80 83       	st	Z, r24
     75e:	ea 89       	ldd	r30, Y+18	; 0x12
     760:	fb 89       	ldd	r31, Y+19	; 0x13
     762:	80 81       	ld	r24, Z
     764:	87 7f       	andi	r24, 0xF7	; 247
     766:	80 83       	st	Z, r24
     768:	ea 89       	ldd	r30, Y+18	; 0x12
     76a:	fb 89       	ldd	r31, Y+19	; 0x13
     76c:	80 81       	ld	r24, Z
     76e:	8f 77       	andi	r24, 0x7F	; 127
     770:	80 83       	st	Z, r24
     772:	ea 89       	ldd	r30, Y+18	; 0x12
     774:	fb 89       	ldd	r31, Y+19	; 0x13
     776:	80 81       	ld	r24, Z
     778:	8f 7d       	andi	r24, 0xDF	; 223
     77a:	80 83       	st	Z, r24
     77c:	8a 8d       	ldd	r24, Y+26	; 0x1a
     77e:	89 8f       	std	Y+25, r24	; 0x19
     780:	df 91       	pop	r29
     782:	cf 91       	pop	r28
     784:	08 95       	ret

00000786 <__vector_25>:
     786:	1f 92       	push	r1
     788:	0f 92       	push	r0
     78a:	0f b6       	in	r0, 0x3f	; 63
     78c:	0f 92       	push	r0
     78e:	11 24       	eor	r1, r1
     790:	0b b6       	in	r0, 0x3b	; 59
     792:	0f 92       	push	r0
     794:	2f 93       	push	r18
     796:	8f 93       	push	r24
     798:	9f 93       	push	r25
     79a:	ef 93       	push	r30
     79c:	ff 93       	push	r31
     79e:	e0 91 64 02 	lds	r30, 0x0264	; 0x800264 <__data_end+0x10>
     7a2:	f0 91 65 02 	lds	r31, 0x0265	; 0x800265 <__data_end+0x11>
     7a6:	80 81       	ld	r24, Z
     7a8:	e0 91 6a 02 	lds	r30, 0x026A	; 0x80026a <__data_end+0x16>
     7ac:	f0 91 6b 02 	lds	r31, 0x026B	; 0x80026b <__data_end+0x17>
     7b0:	82 fd       	sbrc	r24, 2
     7b2:	12 c0       	rjmp	.+36     	; 0x7d8 <__vector_25+0x52>
     7b4:	90 81       	ld	r25, Z
     7b6:	80 91 6d 02 	lds	r24, 0x026D	; 0x80026d <__data_end+0x19>
     7ba:	8f 5f       	subi	r24, 0xFF	; 255
     7bc:	8f 73       	andi	r24, 0x3F	; 63
     7be:	20 91 6e 02 	lds	r18, 0x026E	; 0x80026e <__data_end+0x1a>
     7c2:	82 17       	cp	r24, r18
     7c4:	51 f0       	breq	.+20     	; 0x7da <__vector_25+0x54>
     7c6:	e0 91 6d 02 	lds	r30, 0x026D	; 0x80026d <__data_end+0x19>
     7ca:	f0 e0       	ldi	r31, 0x00	; 0
     7cc:	ec 5a       	subi	r30, 0xAC	; 172
     7ce:	fd 4f       	sbci	r31, 0xFD	; 253
     7d0:	95 8f       	std	Z+29, r25	; 0x1d
     7d2:	80 93 6d 02 	sts	0x026D, r24	; 0x80026d <__data_end+0x19>
     7d6:	01 c0       	rjmp	.+2      	; 0x7da <__vector_25+0x54>
     7d8:	80 81       	ld	r24, Z
     7da:	ff 91       	pop	r31
     7dc:	ef 91       	pop	r30
     7de:	9f 91       	pop	r25
     7e0:	8f 91       	pop	r24
     7e2:	2f 91       	pop	r18
     7e4:	0f 90       	pop	r0
     7e6:	0b be       	out	0x3b, r0	; 59
     7e8:	0f 90       	pop	r0
     7ea:	0f be       	out	0x3f, r0	; 63
     7ec:	0f 90       	pop	r0
     7ee:	1f 90       	pop	r1
     7f0:	18 95       	reti

000007f2 <__vector_26>:
     7f2:	1f 92       	push	r1
     7f4:	0f 92       	push	r0
     7f6:	0f b6       	in	r0, 0x3f	; 63
     7f8:	0f 92       	push	r0
     7fa:	11 24       	eor	r1, r1
     7fc:	0b b6       	in	r0, 0x3b	; 59
     7fe:	0f 92       	push	r0
     800:	2f 93       	push	r18
     802:	3f 93       	push	r19
     804:	4f 93       	push	r20
     806:	5f 93       	push	r21
     808:	6f 93       	push	r22
     80a:	7f 93       	push	r23
     80c:	8f 93       	push	r24
     80e:	9f 93       	push	r25
     810:	af 93       	push	r26
     812:	bf 93       	push	r27
     814:	ef 93       	push	r30
     816:	ff 93       	push	r31
     818:	84 e5       	ldi	r24, 0x54	; 84
     81a:	92 e0       	ldi	r25, 0x02	; 2
     81c:	0e 94 ab 02 	call	0x556	; 0x556 <_ZN14HardwareSerial17_tx_udr_empty_irqEv>
     820:	ff 91       	pop	r31
     822:	ef 91       	pop	r30
     824:	bf 91       	pop	r27
     826:	af 91       	pop	r26
     828:	9f 91       	pop	r25
     82a:	8f 91       	pop	r24
     82c:	7f 91       	pop	r23
     82e:	6f 91       	pop	r22
     830:	5f 91       	pop	r21
     832:	4f 91       	pop	r20
     834:	3f 91       	pop	r19
     836:	2f 91       	pop	r18
     838:	0f 90       	pop	r0
     83a:	0b be       	out	0x3b, r0	; 59
     83c:	0f 90       	pop	r0
     83e:	0f be       	out	0x3f, r0	; 63
     840:	0f 90       	pop	r0
     842:	1f 90       	pop	r1
     844:	18 95       	reti

00000846 <_Z17Serial0_availablev>:
     846:	84 e5       	ldi	r24, 0x54	; 84
     848:	92 e0       	ldi	r25, 0x02	; 2
     84a:	0e 94 31 02 	call	0x462	; 0x462 <_ZN14HardwareSerial9availableEv>
     84e:	21 e0       	ldi	r18, 0x01	; 1
     850:	89 2b       	or	r24, r25
     852:	09 f4       	brne	.+2      	; 0x856 <_Z17Serial0_availablev+0x10>
     854:	20 e0       	ldi	r18, 0x00	; 0
     856:	82 2f       	mov	r24, r18
     858:	08 95       	ret

0000085a <__vector_36>:
     85a:	1f 92       	push	r1
     85c:	0f 92       	push	r0
     85e:	0f b6       	in	r0, 0x3f	; 63
     860:	0f 92       	push	r0
     862:	11 24       	eor	r1, r1
     864:	0b b6       	in	r0, 0x3b	; 59
     866:	0f 92       	push	r0
     868:	2f 93       	push	r18
     86a:	8f 93       	push	r24
     86c:	9f 93       	push	r25
     86e:	ef 93       	push	r30
     870:	ff 93       	push	r31
     872:	e0 91 01 03 	lds	r30, 0x0301	; 0x800301 <Serial1+0x10>
     876:	f0 91 02 03 	lds	r31, 0x0302	; 0x800302 <Serial1+0x11>
     87a:	80 81       	ld	r24, Z
     87c:	e0 91 07 03 	lds	r30, 0x0307	; 0x800307 <Serial1+0x16>
     880:	f0 91 08 03 	lds	r31, 0x0308	; 0x800308 <Serial1+0x17>
     884:	82 fd       	sbrc	r24, 2
     886:	12 c0       	rjmp	.+36     	; 0x8ac <__vector_36+0x52>
     888:	90 81       	ld	r25, Z
     88a:	80 91 0a 03 	lds	r24, 0x030A	; 0x80030a <Serial1+0x19>
     88e:	8f 5f       	subi	r24, 0xFF	; 255
     890:	8f 73       	andi	r24, 0x3F	; 63
     892:	20 91 0b 03 	lds	r18, 0x030B	; 0x80030b <Serial1+0x1a>
     896:	82 17       	cp	r24, r18
     898:	51 f0       	breq	.+20     	; 0x8ae <__vector_36+0x54>
     89a:	e0 91 0a 03 	lds	r30, 0x030A	; 0x80030a <Serial1+0x19>
     89e:	f0 e0       	ldi	r31, 0x00	; 0
     8a0:	ef 50       	subi	r30, 0x0F	; 15
     8a2:	fd 4f       	sbci	r31, 0xFD	; 253
     8a4:	95 8f       	std	Z+29, r25	; 0x1d
     8a6:	80 93 0a 03 	sts	0x030A, r24	; 0x80030a <Serial1+0x19>
     8aa:	01 c0       	rjmp	.+2      	; 0x8ae <__vector_36+0x54>
     8ac:	80 81       	ld	r24, Z
     8ae:	ff 91       	pop	r31
     8b0:	ef 91       	pop	r30
     8b2:	9f 91       	pop	r25
     8b4:	8f 91       	pop	r24
     8b6:	2f 91       	pop	r18
     8b8:	0f 90       	pop	r0
     8ba:	0b be       	out	0x3b, r0	; 59
     8bc:	0f 90       	pop	r0
     8be:	0f be       	out	0x3f, r0	; 63
     8c0:	0f 90       	pop	r0
     8c2:	1f 90       	pop	r1
     8c4:	18 95       	reti

000008c6 <__vector_37>:
     8c6:	1f 92       	push	r1
     8c8:	0f 92       	push	r0
     8ca:	0f b6       	in	r0, 0x3f	; 63
     8cc:	0f 92       	push	r0
     8ce:	11 24       	eor	r1, r1
     8d0:	0b b6       	in	r0, 0x3b	; 59
     8d2:	0f 92       	push	r0
     8d4:	2f 93       	push	r18
     8d6:	3f 93       	push	r19
     8d8:	4f 93       	push	r20
     8da:	5f 93       	push	r21
     8dc:	6f 93       	push	r22
     8de:	7f 93       	push	r23
     8e0:	8f 93       	push	r24
     8e2:	9f 93       	push	r25
     8e4:	af 93       	push	r26
     8e6:	bf 93       	push	r27
     8e8:	ef 93       	push	r30
     8ea:	ff 93       	push	r31
     8ec:	81 ef       	ldi	r24, 0xF1	; 241
     8ee:	92 e0       	ldi	r25, 0x02	; 2
     8f0:	0e 94 ab 02 	call	0x556	; 0x556 <_ZN14HardwareSerial17_tx_udr_empty_irqEv>
     8f4:	ff 91       	pop	r31
     8f6:	ef 91       	pop	r30
     8f8:	bf 91       	pop	r27
     8fa:	af 91       	pop	r26
     8fc:	9f 91       	pop	r25
     8fe:	8f 91       	pop	r24
     900:	7f 91       	pop	r23
     902:	6f 91       	pop	r22
     904:	5f 91       	pop	r21
     906:	4f 91       	pop	r20
     908:	3f 91       	pop	r19
     90a:	2f 91       	pop	r18
     90c:	0f 90       	pop	r0
     90e:	0b be       	out	0x3b, r0	; 59
     910:	0f 90       	pop	r0
     912:	0f be       	out	0x3f, r0	; 63
     914:	0f 90       	pop	r0
     916:	1f 90       	pop	r1
     918:	18 95       	reti

0000091a <_Z17Serial1_availablev>:
     91a:	81 ef       	ldi	r24, 0xF1	; 241
     91c:	92 e0       	ldi	r25, 0x02	; 2
     91e:	0e 94 31 02 	call	0x462	; 0x462 <_ZN14HardwareSerial9availableEv>
     922:	21 e0       	ldi	r18, 0x01	; 1
     924:	89 2b       	or	r24, r25
     926:	09 f4       	brne	.+2      	; 0x92a <_Z17Serial1_availablev+0x10>
     928:	20 e0       	ldi	r18, 0x00	; 0
     92a:	82 2f       	mov	r24, r18
     92c:	08 95       	ret

0000092e <__vector_51>:
     92e:	1f 92       	push	r1
     930:	0f 92       	push	r0
     932:	0f b6       	in	r0, 0x3f	; 63
     934:	0f 92       	push	r0
     936:	11 24       	eor	r1, r1
     938:	0b b6       	in	r0, 0x3b	; 59
     93a:	0f 92       	push	r0
     93c:	2f 93       	push	r18
     93e:	8f 93       	push	r24
     940:	9f 93       	push	r25
     942:	ef 93       	push	r30
     944:	ff 93       	push	r31
     946:	e0 91 9e 03 	lds	r30, 0x039E	; 0x80039e <Serial2+0x10>
     94a:	f0 91 9f 03 	lds	r31, 0x039F	; 0x80039f <Serial2+0x11>
     94e:	80 81       	ld	r24, Z
     950:	e0 91 a4 03 	lds	r30, 0x03A4	; 0x8003a4 <Serial2+0x16>
     954:	f0 91 a5 03 	lds	r31, 0x03A5	; 0x8003a5 <Serial2+0x17>
     958:	82 fd       	sbrc	r24, 2
     95a:	12 c0       	rjmp	.+36     	; 0x980 <__vector_51+0x52>
     95c:	90 81       	ld	r25, Z
     95e:	80 91 a7 03 	lds	r24, 0x03A7	; 0x8003a7 <Serial2+0x19>
     962:	8f 5f       	subi	r24, 0xFF	; 255
     964:	8f 73       	andi	r24, 0x3F	; 63
     966:	20 91 a8 03 	lds	r18, 0x03A8	; 0x8003a8 <Serial2+0x1a>
     96a:	82 17       	cp	r24, r18
     96c:	51 f0       	breq	.+20     	; 0x982 <__vector_51+0x54>
     96e:	e0 91 a7 03 	lds	r30, 0x03A7	; 0x8003a7 <Serial2+0x19>
     972:	f0 e0       	ldi	r31, 0x00	; 0
     974:	e2 57       	subi	r30, 0x72	; 114
     976:	fc 4f       	sbci	r31, 0xFC	; 252
     978:	95 8f       	std	Z+29, r25	; 0x1d
     97a:	80 93 a7 03 	sts	0x03A7, r24	; 0x8003a7 <Serial2+0x19>
     97e:	01 c0       	rjmp	.+2      	; 0x982 <__vector_51+0x54>
     980:	80 81       	ld	r24, Z
     982:	ff 91       	pop	r31
     984:	ef 91       	pop	r30
     986:	9f 91       	pop	r25
     988:	8f 91       	pop	r24
     98a:	2f 91       	pop	r18
     98c:	0f 90       	pop	r0
     98e:	0b be       	out	0x3b, r0	; 59
     990:	0f 90       	pop	r0
     992:	0f be       	out	0x3f, r0	; 63
     994:	0f 90       	pop	r0
     996:	1f 90       	pop	r1
     998:	18 95       	reti

0000099a <__vector_52>:
     99a:	1f 92       	push	r1
     99c:	0f 92       	push	r0
     99e:	0f b6       	in	r0, 0x3f	; 63
     9a0:	0f 92       	push	r0
     9a2:	11 24       	eor	r1, r1
     9a4:	0b b6       	in	r0, 0x3b	; 59
     9a6:	0f 92       	push	r0
     9a8:	2f 93       	push	r18
     9aa:	3f 93       	push	r19
     9ac:	4f 93       	push	r20
     9ae:	5f 93       	push	r21
     9b0:	6f 93       	push	r22
     9b2:	7f 93       	push	r23
     9b4:	8f 93       	push	r24
     9b6:	9f 93       	push	r25
     9b8:	af 93       	push	r26
     9ba:	bf 93       	push	r27
     9bc:	ef 93       	push	r30
     9be:	ff 93       	push	r31
     9c0:	8e e8       	ldi	r24, 0x8E	; 142
     9c2:	93 e0       	ldi	r25, 0x03	; 3
     9c4:	0e 94 ab 02 	call	0x556	; 0x556 <_ZN14HardwareSerial17_tx_udr_empty_irqEv>
     9c8:	ff 91       	pop	r31
     9ca:	ef 91       	pop	r30
     9cc:	bf 91       	pop	r27
     9ce:	af 91       	pop	r26
     9d0:	9f 91       	pop	r25
     9d2:	8f 91       	pop	r24
     9d4:	7f 91       	pop	r23
     9d6:	6f 91       	pop	r22
     9d8:	5f 91       	pop	r21
     9da:	4f 91       	pop	r20
     9dc:	3f 91       	pop	r19
     9de:	2f 91       	pop	r18
     9e0:	0f 90       	pop	r0
     9e2:	0b be       	out	0x3b, r0	; 59
     9e4:	0f 90       	pop	r0
     9e6:	0f be       	out	0x3f, r0	; 63
     9e8:	0f 90       	pop	r0
     9ea:	1f 90       	pop	r1
     9ec:	18 95       	reti

000009ee <_Z17Serial2_availablev>:
     9ee:	8e e8       	ldi	r24, 0x8E	; 142
     9f0:	93 e0       	ldi	r25, 0x03	; 3
     9f2:	0e 94 31 02 	call	0x462	; 0x462 <_ZN14HardwareSerial9availableEv>
     9f6:	21 e0       	ldi	r18, 0x01	; 1
     9f8:	89 2b       	or	r24, r25
     9fa:	09 f4       	brne	.+2      	; 0x9fe <_Z17Serial2_availablev+0x10>
     9fc:	20 e0       	ldi	r18, 0x00	; 0
     9fe:	82 2f       	mov	r24, r18
     a00:	08 95       	ret

00000a02 <__vector_54>:
     a02:	1f 92       	push	r1
     a04:	0f 92       	push	r0
     a06:	0f b6       	in	r0, 0x3f	; 63
     a08:	0f 92       	push	r0
     a0a:	11 24       	eor	r1, r1
     a0c:	0b b6       	in	r0, 0x3b	; 59
     a0e:	0f 92       	push	r0
     a10:	2f 93       	push	r18
     a12:	8f 93       	push	r24
     a14:	9f 93       	push	r25
     a16:	ef 93       	push	r30
     a18:	ff 93       	push	r31
     a1a:	e0 91 3b 04 	lds	r30, 0x043B	; 0x80043b <Serial3+0x10>
     a1e:	f0 91 3c 04 	lds	r31, 0x043C	; 0x80043c <Serial3+0x11>
     a22:	80 81       	ld	r24, Z
     a24:	e0 91 41 04 	lds	r30, 0x0441	; 0x800441 <Serial3+0x16>
     a28:	f0 91 42 04 	lds	r31, 0x0442	; 0x800442 <Serial3+0x17>
     a2c:	82 fd       	sbrc	r24, 2
     a2e:	12 c0       	rjmp	.+36     	; 0xa54 <__vector_54+0x52>
     a30:	90 81       	ld	r25, Z
     a32:	80 91 44 04 	lds	r24, 0x0444	; 0x800444 <Serial3+0x19>
     a36:	8f 5f       	subi	r24, 0xFF	; 255
     a38:	8f 73       	andi	r24, 0x3F	; 63
     a3a:	20 91 45 04 	lds	r18, 0x0445	; 0x800445 <Serial3+0x1a>
     a3e:	82 17       	cp	r24, r18
     a40:	51 f0       	breq	.+20     	; 0xa56 <__vector_54+0x54>
     a42:	e0 91 44 04 	lds	r30, 0x0444	; 0x800444 <Serial3+0x19>
     a46:	f0 e0       	ldi	r31, 0x00	; 0
     a48:	e5 5d       	subi	r30, 0xD5	; 213
     a4a:	fb 4f       	sbci	r31, 0xFB	; 251
     a4c:	95 8f       	std	Z+29, r25	; 0x1d
     a4e:	80 93 44 04 	sts	0x0444, r24	; 0x800444 <Serial3+0x19>
     a52:	01 c0       	rjmp	.+2      	; 0xa56 <__vector_54+0x54>
     a54:	80 81       	ld	r24, Z
     a56:	ff 91       	pop	r31
     a58:	ef 91       	pop	r30
     a5a:	9f 91       	pop	r25
     a5c:	8f 91       	pop	r24
     a5e:	2f 91       	pop	r18
     a60:	0f 90       	pop	r0
     a62:	0b be       	out	0x3b, r0	; 59
     a64:	0f 90       	pop	r0
     a66:	0f be       	out	0x3f, r0	; 63
     a68:	0f 90       	pop	r0
     a6a:	1f 90       	pop	r1
     a6c:	18 95       	reti

00000a6e <__vector_55>:
     a6e:	1f 92       	push	r1
     a70:	0f 92       	push	r0
     a72:	0f b6       	in	r0, 0x3f	; 63
     a74:	0f 92       	push	r0
     a76:	11 24       	eor	r1, r1
     a78:	0b b6       	in	r0, 0x3b	; 59
     a7a:	0f 92       	push	r0
     a7c:	2f 93       	push	r18
     a7e:	3f 93       	push	r19
     a80:	4f 93       	push	r20
     a82:	5f 93       	push	r21
     a84:	6f 93       	push	r22
     a86:	7f 93       	push	r23
     a88:	8f 93       	push	r24
     a8a:	9f 93       	push	r25
     a8c:	af 93       	push	r26
     a8e:	bf 93       	push	r27
     a90:	ef 93       	push	r30
     a92:	ff 93       	push	r31
     a94:	8b e2       	ldi	r24, 0x2B	; 43
     a96:	94 e0       	ldi	r25, 0x04	; 4
     a98:	0e 94 ab 02 	call	0x556	; 0x556 <_ZN14HardwareSerial17_tx_udr_empty_irqEv>
     a9c:	ff 91       	pop	r31
     a9e:	ef 91       	pop	r30
     aa0:	bf 91       	pop	r27
     aa2:	af 91       	pop	r26
     aa4:	9f 91       	pop	r25
     aa6:	8f 91       	pop	r24
     aa8:	7f 91       	pop	r23
     aaa:	6f 91       	pop	r22
     aac:	5f 91       	pop	r21
     aae:	4f 91       	pop	r20
     ab0:	3f 91       	pop	r19
     ab2:	2f 91       	pop	r18
     ab4:	0f 90       	pop	r0
     ab6:	0b be       	out	0x3b, r0	; 59
     ab8:	0f 90       	pop	r0
     aba:	0f be       	out	0x3f, r0	; 63
     abc:	0f 90       	pop	r0
     abe:	1f 90       	pop	r1
     ac0:	18 95       	reti

00000ac2 <_Z17Serial3_availablev>:
     ac2:	8b e2       	ldi	r24, 0x2B	; 43
     ac4:	94 e0       	ldi	r25, 0x04	; 4
     ac6:	0e 94 31 02 	call	0x462	; 0x462 <_ZN14HardwareSerial9availableEv>
     aca:	21 e0       	ldi	r18, 0x01	; 1
     acc:	89 2b       	or	r24, r25
     ace:	09 f4       	brne	.+2      	; 0xad2 <_Z17Serial3_availablev+0x10>
     ad0:	20 e0       	ldi	r18, 0x00	; 0
     ad2:	82 2f       	mov	r24, r18
     ad4:	08 95       	ret

00000ad6 <yield>:
     ad6:	08 95       	ret

00000ad8 <_ZNK9IPAddress7printToER5Print>:
     ad8:	8f 92       	push	r8
     ada:	9f 92       	push	r9
     adc:	af 92       	push	r10
     ade:	bf 92       	push	r11
     ae0:	cf 92       	push	r12
     ae2:	df 92       	push	r13
     ae4:	ef 92       	push	r14
     ae6:	ff 92       	push	r15
     ae8:	0f 93       	push	r16
     aea:	1f 93       	push	r17
     aec:	cf 93       	push	r28
     aee:	df 93       	push	r29
     af0:	7c 01       	movw	r14, r24
     af2:	8b 01       	movw	r16, r22
     af4:	4c 01       	movw	r8, r24
     af6:	82 e0       	ldi	r24, 0x02	; 2
     af8:	88 0e       	add	r8, r24
     afa:	91 1c       	adc	r9, r1
     afc:	57 01       	movw	r10, r14
     afe:	e5 e0       	ldi	r30, 0x05	; 5
     b00:	ae 0e       	add	r10, r30
     b02:	b1 1c       	adc	r11, r1
     b04:	c0 e0       	ldi	r28, 0x00	; 0
     b06:	d0 e0       	ldi	r29, 0x00	; 0
     b08:	f4 01       	movw	r30, r8
     b0a:	61 91       	ld	r22, Z+
     b0c:	4f 01       	movw	r8, r30
     b0e:	4a e0       	ldi	r20, 0x0A	; 10
     b10:	50 e0       	ldi	r21, 0x00	; 0
     b12:	c8 01       	movw	r24, r16
     b14:	0e 94 5b 07 	call	0xeb6	; 0xeb6 <_ZN5Print5printEhi>
     b18:	6c 01       	movw	r12, r24
     b1a:	6e e2       	ldi	r22, 0x2E	; 46
     b1c:	c8 01       	movw	r24, r16
     b1e:	0e 94 96 06 	call	0xd2c	; 0xd2c <_ZN5Print5printEc>
     b22:	8c 0d       	add	r24, r12
     b24:	9d 1d       	adc	r25, r13
     b26:	c8 0f       	add	r28, r24
     b28:	d9 1f       	adc	r29, r25
     b2a:	8a 14       	cp	r8, r10
     b2c:	9b 04       	cpc	r9, r11
     b2e:	61 f7       	brne	.-40     	; 0xb08 <_ZNK9IPAddress7printToER5Print+0x30>
     b30:	4a e0       	ldi	r20, 0x0A	; 10
     b32:	50 e0       	ldi	r21, 0x00	; 0
     b34:	f7 01       	movw	r30, r14
     b36:	65 81       	ldd	r22, Z+5	; 0x05
     b38:	c8 01       	movw	r24, r16
     b3a:	0e 94 5b 07 	call	0xeb6	; 0xeb6 <_ZN5Print5printEhi>
     b3e:	8c 0f       	add	r24, r28
     b40:	9d 1f       	adc	r25, r29
     b42:	df 91       	pop	r29
     b44:	cf 91       	pop	r28
     b46:	1f 91       	pop	r17
     b48:	0f 91       	pop	r16
     b4a:	ff 90       	pop	r15
     b4c:	ef 90       	pop	r14
     b4e:	df 90       	pop	r13
     b50:	cf 90       	pop	r12
     b52:	bf 90       	pop	r11
     b54:	af 90       	pop	r10
     b56:	9f 90       	pop	r9
     b58:	8f 90       	pop	r8
     b5a:	08 95       	ret

00000b5c <_ZN9IPAddressC1Ev>:
     b5c:	23 e3       	ldi	r18, 0x33	; 51
     b5e:	32 e0       	ldi	r19, 0x02	; 2
     b60:	fc 01       	movw	r30, r24
     b62:	31 83       	std	Z+1, r19	; 0x01
     b64:	20 83       	st	Z, r18
     b66:	12 82       	std	Z+2, r1	; 0x02
     b68:	13 82       	std	Z+3, r1	; 0x03
     b6a:	14 82       	std	Z+4, r1	; 0x04
     b6c:	15 82       	std	Z+5, r1	; 0x05
     b6e:	08 95       	ret

00000b70 <_ZN9IPAddressC1Ehhhh>:
     b70:	0f 93       	push	r16
     b72:	fc 01       	movw	r30, r24
     b74:	83 e3       	ldi	r24, 0x33	; 51
     b76:	92 e0       	ldi	r25, 0x02	; 2
     b78:	91 83       	std	Z+1, r25	; 0x01
     b7a:	80 83       	st	Z, r24
     b7c:	62 83       	std	Z+2, r22	; 0x02
     b7e:	43 83       	std	Z+3, r20	; 0x03
     b80:	24 83       	std	Z+4, r18	; 0x04
     b82:	05 83       	std	Z+5, r16	; 0x05
     b84:	0f 91       	pop	r16
     b86:	08 95       	ret

00000b88 <_ZN9IPAddressC1Em>:
     b88:	23 e3       	ldi	r18, 0x33	; 51
     b8a:	32 e0       	ldi	r19, 0x02	; 2
     b8c:	fc 01       	movw	r30, r24
     b8e:	31 83       	std	Z+1, r19	; 0x01
     b90:	20 83       	st	Z, r18
     b92:	42 83       	std	Z+2, r20	; 0x02
     b94:	53 83       	std	Z+3, r21	; 0x03
     b96:	64 83       	std	Z+4, r22	; 0x04
     b98:	75 83       	std	Z+5, r23	; 0x05
     b9a:	08 95       	ret

00000b9c <_ZN9IPAddressC1EPKh>:
     b9c:	dc 01       	movw	r26, r24
     b9e:	83 e3       	ldi	r24, 0x33	; 51
     ba0:	92 e0       	ldi	r25, 0x02	; 2
     ba2:	8d 93       	st	X+, r24
     ba4:	9d 93       	st	X+, r25
     ba6:	84 e0       	ldi	r24, 0x04	; 4
     ba8:	fb 01       	movw	r30, r22
     baa:	01 90       	ld	r0, Z+
     bac:	0d 92       	st	X+, r0
     bae:	8a 95       	dec	r24
     bb0:	e1 f7       	brne	.-8      	; 0xbaa <_ZN9IPAddressC1EPKh+0xe>
     bb2:	08 95       	ret

00000bb4 <_ZN9IPAddress10fromStringEPKc>:
     bb4:	dc 01       	movw	r26, r24
     bb6:	90 e0       	ldi	r25, 0x00	; 0
     bb8:	20 e0       	ldi	r18, 0x00	; 0
     bba:	30 e0       	ldi	r19, 0x00	; 0
     bbc:	8a e0       	ldi	r24, 0x0A	; 10
     bbe:	fb 01       	movw	r30, r22
     bc0:	41 91       	ld	r20, Z+
     bc2:	bf 01       	movw	r22, r30
     bc4:	44 23       	and	r20, r20
     bc6:	09 f1       	breq	.+66     	; 0xc0a <_ZN9IPAddress10fromStringEPKc+0x56>
     bc8:	50 ed       	ldi	r21, 0xD0	; 208
     bca:	54 0f       	add	r21, r20
     bcc:	5a 30       	cpi	r21, 0x0A	; 10
     bce:	88 f4       	brcc	.+34     	; 0xbf2 <_ZN9IPAddress10fromStringEPKc+0x3e>
     bd0:	82 9f       	mul	r24, r18
     bd2:	f0 01       	movw	r30, r0
     bd4:	83 9f       	mul	r24, r19
     bd6:	f0 0d       	add	r31, r0
     bd8:	11 24       	eor	r1, r1
     bda:	9f 01       	movw	r18, r30
     bdc:	20 53       	subi	r18, 0x30	; 48
     bde:	31 09       	sbc	r19, r1
     be0:	24 0f       	add	r18, r20
     be2:	31 1d       	adc	r19, r1
     be4:	47 fd       	sbrc	r20, 7
     be6:	3a 95       	dec	r19
     be8:	2f 3f       	cpi	r18, 0xFF	; 255
     bea:	31 05       	cpc	r19, r1
     bec:	41 f3       	breq	.-48     	; 0xbbe <_ZN9IPAddress10fromStringEPKc+0xa>
     bee:	38 f3       	brcs	.-50     	; 0xbbe <_ZN9IPAddress10fromStringEPKc+0xa>
     bf0:	12 c0       	rjmp	.+36     	; 0xc16 <_ZN9IPAddress10fromStringEPKc+0x62>
     bf2:	4e 32       	cpi	r20, 0x2E	; 46
     bf4:	81 f4       	brne	.+32     	; 0xc16 <_ZN9IPAddress10fromStringEPKc+0x62>
     bf6:	93 30       	cpi	r25, 0x03	; 3
     bf8:	71 f0       	breq	.+28     	; 0xc16 <_ZN9IPAddress10fromStringEPKc+0x62>
     bfa:	fd 01       	movw	r30, r26
     bfc:	e9 0f       	add	r30, r25
     bfe:	f1 1d       	adc	r31, r1
     c00:	22 83       	std	Z+2, r18	; 0x02
     c02:	9f 5f       	subi	r25, 0xFF	; 255
     c04:	20 e0       	ldi	r18, 0x00	; 0
     c06:	30 e0       	ldi	r19, 0x00	; 0
     c08:	da cf       	rjmp	.-76     	; 0xbbe <_ZN9IPAddress10fromStringEPKc+0xa>
     c0a:	93 30       	cpi	r25, 0x03	; 3
     c0c:	21 f4       	brne	.+8      	; 0xc16 <_ZN9IPAddress10fromStringEPKc+0x62>
     c0e:	15 96       	adiw	r26, 0x05	; 5
     c10:	2c 93       	st	X, r18
     c12:	81 e0       	ldi	r24, 0x01	; 1
     c14:	08 95       	ret
     c16:	80 e0       	ldi	r24, 0x00	; 0
     c18:	08 95       	ret

00000c1a <_ZN9IPAddressaSEPKh>:
     c1a:	dc 01       	movw	r26, r24
     c1c:	12 96       	adiw	r26, 0x02	; 2
     c1e:	24 e0       	ldi	r18, 0x04	; 4
     c20:	fb 01       	movw	r30, r22
     c22:	01 90       	ld	r0, Z+
     c24:	0d 92       	st	X+, r0
     c26:	2a 95       	dec	r18
     c28:	e1 f7       	brne	.-8      	; 0xc22 <_ZN9IPAddressaSEPKh+0x8>
     c2a:	08 95       	ret

00000c2c <_ZN9IPAddressaSEm>:
     c2c:	fc 01       	movw	r30, r24
     c2e:	42 83       	std	Z+2, r20	; 0x02
     c30:	53 83       	std	Z+3, r21	; 0x03
     c32:	64 83       	std	Z+4, r22	; 0x04
     c34:	75 83       	std	Z+5, r23	; 0x05
     c36:	08 95       	ret

00000c38 <_ZNK9IPAddresseqEPKh>:
     c38:	9b 01       	movw	r18, r22
     c3a:	bc 01       	movw	r22, r24
     c3c:	6e 5f       	subi	r22, 0xFE	; 254
     c3e:	7f 4f       	sbci	r23, 0xFF	; 255
     c40:	44 e0       	ldi	r20, 0x04	; 4
     c42:	50 e0       	ldi	r21, 0x00	; 0
     c44:	c9 01       	movw	r24, r18
     c46:	0e 94 a4 27 	call	0x4f48	; 0x4f48 <memcmp>
     c4a:	21 e0       	ldi	r18, 0x01	; 1
     c4c:	89 2b       	or	r24, r25
     c4e:	09 f0       	breq	.+2      	; 0xc52 <_ZNK9IPAddresseqEPKh+0x1a>
     c50:	20 e0       	ldi	r18, 0x00	; 0
     c52:	82 2f       	mov	r24, r18
     c54:	08 95       	ret

00000c56 <atexit>:
     c56:	80 e0       	ldi	r24, 0x00	; 0
     c58:	90 e0       	ldi	r25, 0x00	; 0
     c5a:	08 95       	ret

00000c5c <initVariant>:
     c5c:	08 95       	ret

00000c5e <_Z8setupUSBv>:
     c5e:	08 95       	ret

00000c60 <_Znwj>:
     c60:	0c 94 a3 24 	jmp	0x4946	; 0x4946 <malloc>

00000c64 <_Znaj>:
     c64:	0c 94 a3 24 	jmp	0x4946	; 0x4946 <malloc>

00000c68 <_ZdlPv>:
     c68:	0c 94 3b 25 	jmp	0x4a76	; 0x4a76 <free>

00000c6c <_ZdaPv>:
     c6c:	0c 94 3b 25 	jmp	0x4a76	; 0x4a76 <free>

00000c70 <_ZN5Print5writeEPKhj>:
     c70:	cf 92       	push	r12
     c72:	df 92       	push	r13
     c74:	ef 92       	push	r14
     c76:	ff 92       	push	r15
     c78:	0f 93       	push	r16
     c7a:	1f 93       	push	r17
     c7c:	cf 93       	push	r28
     c7e:	df 93       	push	r29
     c80:	6c 01       	movw	r12, r24
     c82:	7a 01       	movw	r14, r20
     c84:	8b 01       	movw	r16, r22
     c86:	c0 e0       	ldi	r28, 0x00	; 0
     c88:	d0 e0       	ldi	r29, 0x00	; 0
     c8a:	ce 15       	cp	r28, r14
     c8c:	df 05       	cpc	r29, r15
     c8e:	81 f0       	breq	.+32     	; 0xcb0 <_ZN5Print5writeEPKhj+0x40>
     c90:	d8 01       	movw	r26, r16
     c92:	6d 91       	ld	r22, X+
     c94:	8d 01       	movw	r16, r26
     c96:	d6 01       	movw	r26, r12
     c98:	ed 91       	ld	r30, X+
     c9a:	fc 91       	ld	r31, X
     c9c:	01 90       	ld	r0, Z+
     c9e:	f0 81       	ld	r31, Z
     ca0:	e0 2d       	mov	r30, r0
     ca2:	c6 01       	movw	r24, r12
     ca4:	19 95       	eicall
     ca6:	89 2b       	or	r24, r25
     ca8:	11 f0       	breq	.+4      	; 0xcae <_ZN5Print5writeEPKhj+0x3e>
     caa:	21 96       	adiw	r28, 0x01	; 1
     cac:	ee cf       	rjmp	.-36     	; 0xc8a <_ZN5Print5writeEPKhj+0x1a>
     cae:	7e 01       	movw	r14, r28
     cb0:	c7 01       	movw	r24, r14
     cb2:	df 91       	pop	r29
     cb4:	cf 91       	pop	r28
     cb6:	1f 91       	pop	r17
     cb8:	0f 91       	pop	r16
     cba:	ff 90       	pop	r15
     cbc:	ef 90       	pop	r14
     cbe:	df 90       	pop	r13
     cc0:	cf 90       	pop	r12
     cc2:	08 95       	ret

00000cc4 <_ZN5Print5printEPK19__FlashStringHelper>:
     cc4:	ef 92       	push	r14
     cc6:	ff 92       	push	r15
     cc8:	0f 93       	push	r16
     cca:	1f 93       	push	r17
     ccc:	cf 93       	push	r28
     cce:	df 93       	push	r29
     cd0:	8c 01       	movw	r16, r24
     cd2:	7b 01       	movw	r14, r22
     cd4:	c0 e0       	ldi	r28, 0x00	; 0
     cd6:	d0 e0       	ldi	r29, 0x00	; 0
     cd8:	f7 01       	movw	r30, r14
     cda:	ec 0f       	add	r30, r28
     cdc:	fd 1f       	adc	r31, r29
     cde:	64 91       	lpm	r22, Z
     ce0:	66 23       	and	r22, r22
     ce2:	61 f0       	breq	.+24     	; 0xcfc <_ZN5Print5printEPK19__FlashStringHelper+0x38>
     ce4:	d8 01       	movw	r26, r16
     ce6:	ed 91       	ld	r30, X+
     ce8:	fc 91       	ld	r31, X
     cea:	01 90       	ld	r0, Z+
     cec:	f0 81       	ld	r31, Z
     cee:	e0 2d       	mov	r30, r0
     cf0:	c8 01       	movw	r24, r16
     cf2:	19 95       	eicall
     cf4:	89 2b       	or	r24, r25
     cf6:	11 f0       	breq	.+4      	; 0xcfc <_ZN5Print5printEPK19__FlashStringHelper+0x38>
     cf8:	21 96       	adiw	r28, 0x01	; 1
     cfa:	ee cf       	rjmp	.-36     	; 0xcd8 <_ZN5Print5printEPK19__FlashStringHelper+0x14>
     cfc:	ce 01       	movw	r24, r28
     cfe:	df 91       	pop	r29
     d00:	cf 91       	pop	r28
     d02:	1f 91       	pop	r17
     d04:	0f 91       	pop	r16
     d06:	ff 90       	pop	r15
     d08:	ef 90       	pop	r14
     d0a:	08 95       	ret

00000d0c <_ZN5Print5printERK6String>:
     d0c:	db 01       	movw	r26, r22
     d0e:	14 96       	adiw	r26, 0x04	; 4
     d10:	4d 91       	ld	r20, X+
     d12:	5c 91       	ld	r21, X
     d14:	15 97       	sbiw	r26, 0x05	; 5
     d16:	6d 91       	ld	r22, X+
     d18:	7c 91       	ld	r23, X
     d1a:	dc 01       	movw	r26, r24
     d1c:	ed 91       	ld	r30, X+
     d1e:	fc 91       	ld	r31, X
     d20:	02 80       	ldd	r0, Z+2	; 0x02
     d22:	f3 81       	ldd	r31, Z+3	; 0x03
     d24:	e0 2d       	mov	r30, r0
     d26:	19 94       	eijmp

00000d28 <_ZN5Print5printEPKc>:
     d28:	0c 94 b7 21 	jmp	0x436e	; 0x436e <_ZN5Print5writeEPKc>

00000d2c <_ZN5Print5printEc>:
     d2c:	dc 01       	movw	r26, r24
     d2e:	ed 91       	ld	r30, X+
     d30:	fc 91       	ld	r31, X
     d32:	01 90       	ld	r0, Z+
     d34:	f0 81       	ld	r31, Z
     d36:	e0 2d       	mov	r30, r0
     d38:	19 94       	eijmp

00000d3a <_ZN5Print5printERK9Printable>:
     d3a:	db 01       	movw	r26, r22
     d3c:	ed 91       	ld	r30, X+
     d3e:	fc 91       	ld	r31, X
     d40:	11 97       	sbiw	r26, 0x01	; 1
     d42:	01 90       	ld	r0, Z+
     d44:	f0 81       	ld	r31, Z
     d46:	e0 2d       	mov	r30, r0
     d48:	bc 01       	movw	r22, r24
     d4a:	cd 01       	movw	r24, r26
     d4c:	19 94       	eijmp

00000d4e <_ZN5Print7printlnEv>:
     d4e:	65 e3       	ldi	r22, 0x35	; 53
     d50:	72 e0       	ldi	r23, 0x02	; 2
     d52:	0c 94 b7 21 	jmp	0x436e	; 0x436e <_ZN5Print5writeEPKc>

00000d56 <_ZN5Print7printlnEPK19__FlashStringHelper>:
     d56:	0f 93       	push	r16
     d58:	1f 93       	push	r17
     d5a:	cf 93       	push	r28
     d5c:	df 93       	push	r29
     d5e:	ec 01       	movw	r28, r24
     d60:	0e 94 62 06 	call	0xcc4	; 0xcc4 <_ZN5Print5printEPK19__FlashStringHelper>
     d64:	8c 01       	movw	r16, r24
     d66:	ce 01       	movw	r24, r28
     d68:	0e 94 a7 06 	call	0xd4e	; 0xd4e <_ZN5Print7printlnEv>
     d6c:	80 0f       	add	r24, r16
     d6e:	91 1f       	adc	r25, r17
     d70:	df 91       	pop	r29
     d72:	cf 91       	pop	r28
     d74:	1f 91       	pop	r17
     d76:	0f 91       	pop	r16
     d78:	08 95       	ret

00000d7a <_ZN5Print7printlnERK6String>:
     d7a:	0f 93       	push	r16
     d7c:	1f 93       	push	r17
     d7e:	cf 93       	push	r28
     d80:	df 93       	push	r29
     d82:	ec 01       	movw	r28, r24
     d84:	0e 94 86 06 	call	0xd0c	; 0xd0c <_ZN5Print5printERK6String>
     d88:	8c 01       	movw	r16, r24
     d8a:	ce 01       	movw	r24, r28
     d8c:	0e 94 a7 06 	call	0xd4e	; 0xd4e <_ZN5Print7printlnEv>
     d90:	80 0f       	add	r24, r16
     d92:	91 1f       	adc	r25, r17
     d94:	df 91       	pop	r29
     d96:	cf 91       	pop	r28
     d98:	1f 91       	pop	r17
     d9a:	0f 91       	pop	r16
     d9c:	08 95       	ret

00000d9e <_ZN5Print7printlnEPKc>:
     d9e:	0f 93       	push	r16
     da0:	1f 93       	push	r17
     da2:	cf 93       	push	r28
     da4:	df 93       	push	r29
     da6:	ec 01       	movw	r28, r24
     da8:	0e 94 b7 21 	call	0x436e	; 0x436e <_ZN5Print5writeEPKc>
     dac:	8c 01       	movw	r16, r24
     dae:	ce 01       	movw	r24, r28
     db0:	0e 94 a7 06 	call	0xd4e	; 0xd4e <_ZN5Print7printlnEv>
     db4:	80 0f       	add	r24, r16
     db6:	91 1f       	adc	r25, r17
     db8:	df 91       	pop	r29
     dba:	cf 91       	pop	r28
     dbc:	1f 91       	pop	r17
     dbe:	0f 91       	pop	r16
     dc0:	08 95       	ret

00000dc2 <_ZN5Print7printlnEc>:
     dc2:	0f 93       	push	r16
     dc4:	1f 93       	push	r17
     dc6:	cf 93       	push	r28
     dc8:	df 93       	push	r29
     dca:	ec 01       	movw	r28, r24
     dcc:	0e 94 96 06 	call	0xd2c	; 0xd2c <_ZN5Print5printEc>
     dd0:	8c 01       	movw	r16, r24
     dd2:	ce 01       	movw	r24, r28
     dd4:	0e 94 a7 06 	call	0xd4e	; 0xd4e <_ZN5Print7printlnEv>
     dd8:	80 0f       	add	r24, r16
     dda:	91 1f       	adc	r25, r17
     ddc:	df 91       	pop	r29
     dde:	cf 91       	pop	r28
     de0:	1f 91       	pop	r17
     de2:	0f 91       	pop	r16
     de4:	08 95       	ret

00000de6 <_ZN5Print7printlnERK9Printable>:
     de6:	0f 93       	push	r16
     de8:	1f 93       	push	r17
     dea:	cf 93       	push	r28
     dec:	df 93       	push	r29
     dee:	ec 01       	movw	r28, r24
     df0:	0e 94 9d 06 	call	0xd3a	; 0xd3a <_ZN5Print5printERK9Printable>
     df4:	8c 01       	movw	r16, r24
     df6:	ce 01       	movw	r24, r28
     df8:	0e 94 a7 06 	call	0xd4e	; 0xd4e <_ZN5Print7printlnEv>
     dfc:	80 0f       	add	r24, r16
     dfe:	91 1f       	adc	r25, r17
     e00:	df 91       	pop	r29
     e02:	cf 91       	pop	r28
     e04:	1f 91       	pop	r17
     e06:	0f 91       	pop	r16
     e08:	08 95       	ret

00000e0a <_ZN5Print11printNumberEmh>:
     e0a:	8f 92       	push	r8
     e0c:	9f 92       	push	r9
     e0e:	af 92       	push	r10
     e10:	bf 92       	push	r11
     e12:	ef 92       	push	r14
     e14:	ff 92       	push	r15
     e16:	0f 93       	push	r16
     e18:	1f 93       	push	r17
     e1a:	cf 93       	push	r28
     e1c:	df 93       	push	r29
     e1e:	cd b7       	in	r28, 0x3d	; 61
     e20:	de b7       	in	r29, 0x3e	; 62
     e22:	a1 97       	sbiw	r28, 0x21	; 33
     e24:	0f b6       	in	r0, 0x3f	; 63
     e26:	f8 94       	cli
     e28:	de bf       	out	0x3e, r29	; 62
     e2a:	0f be       	out	0x3f, r0	; 63
     e2c:	cd bf       	out	0x3d, r28	; 61
     e2e:	7c 01       	movw	r14, r24
     e30:	fa 01       	movw	r30, r20
     e32:	cb 01       	movw	r24, r22
     e34:	19 a2       	std	Y+33, r1	; 0x21
     e36:	22 30       	cpi	r18, 0x02	; 2
     e38:	08 f4       	brcc	.+2      	; 0xe3c <_ZN5Print11printNumberEmh+0x32>
     e3a:	2a e0       	ldi	r18, 0x0A	; 10
     e3c:	8e 01       	movw	r16, r28
     e3e:	0f 5d       	subi	r16, 0xDF	; 223
     e40:	1f 4f       	sbci	r17, 0xFF	; 255
     e42:	82 2e       	mov	r8, r18
     e44:	91 2c       	mov	r9, r1
     e46:	a1 2c       	mov	r10, r1
     e48:	b1 2c       	mov	r11, r1
     e4a:	bf 01       	movw	r22, r30
     e4c:	a5 01       	movw	r20, r10
     e4e:	94 01       	movw	r18, r8
     e50:	0e 94 e4 21 	call	0x43c8	; 0x43c8 <__udivmodsi4>
     e54:	f9 01       	movw	r30, r18
     e56:	ca 01       	movw	r24, r20
     e58:	01 50       	subi	r16, 0x01	; 1
     e5a:	11 09       	sbc	r17, r1
     e5c:	6a 30       	cpi	r22, 0x0A	; 10
     e5e:	14 f4       	brge	.+4      	; 0xe64 <_ZN5Print11printNumberEmh+0x5a>
     e60:	60 5d       	subi	r22, 0xD0	; 208
     e62:	01 c0       	rjmp	.+2      	; 0xe66 <_ZN5Print11printNumberEmh+0x5c>
     e64:	69 5c       	subi	r22, 0xC9	; 201
     e66:	d8 01       	movw	r26, r16
     e68:	6c 93       	st	X, r22
     e6a:	23 2b       	or	r18, r19
     e6c:	24 2b       	or	r18, r20
     e6e:	25 2b       	or	r18, r21
     e70:	61 f7       	brne	.-40     	; 0xe4a <_ZN5Print11printNumberEmh+0x40>
     e72:	b8 01       	movw	r22, r16
     e74:	c7 01       	movw	r24, r14
     e76:	0e 94 b7 21 	call	0x436e	; 0x436e <_ZN5Print5writeEPKc>
     e7a:	a1 96       	adiw	r28, 0x21	; 33
     e7c:	0f b6       	in	r0, 0x3f	; 63
     e7e:	f8 94       	cli
     e80:	de bf       	out	0x3e, r29	; 62
     e82:	0f be       	out	0x3f, r0	; 63
     e84:	cd bf       	out	0x3d, r28	; 61
     e86:	df 91       	pop	r29
     e88:	cf 91       	pop	r28
     e8a:	1f 91       	pop	r17
     e8c:	0f 91       	pop	r16
     e8e:	ff 90       	pop	r15
     e90:	ef 90       	pop	r14
     e92:	bf 90       	pop	r11
     e94:	af 90       	pop	r10
     e96:	9f 90       	pop	r9
     e98:	8f 90       	pop	r8
     e9a:	08 95       	ret

00000e9c <_ZN5Print5printEmi>:
     e9c:	21 15       	cp	r18, r1
     e9e:	31 05       	cpc	r19, r1
     ea0:	41 f4       	brne	.+16     	; 0xeb2 <_ZN5Print5printEmi+0x16>
     ea2:	dc 01       	movw	r26, r24
     ea4:	ed 91       	ld	r30, X+
     ea6:	fc 91       	ld	r31, X
     ea8:	01 90       	ld	r0, Z+
     eaa:	f0 81       	ld	r31, Z
     eac:	e0 2d       	mov	r30, r0
     eae:	64 2f       	mov	r22, r20
     eb0:	19 94       	eijmp
     eb2:	0c 94 05 07 	jmp	0xe0a	; 0xe0a <_ZN5Print11printNumberEmh>

00000eb6 <_ZN5Print5printEhi>:
     eb6:	9a 01       	movw	r18, r20
     eb8:	46 2f       	mov	r20, r22
     eba:	50 e0       	ldi	r21, 0x00	; 0
     ebc:	60 e0       	ldi	r22, 0x00	; 0
     ebe:	70 e0       	ldi	r23, 0x00	; 0
     ec0:	0c 94 4e 07 	jmp	0xe9c	; 0xe9c <_ZN5Print5printEmi>

00000ec4 <_ZN5Print7printlnEhi>:
     ec4:	0f 93       	push	r16
     ec6:	1f 93       	push	r17
     ec8:	cf 93       	push	r28
     eca:	df 93       	push	r29
     ecc:	ec 01       	movw	r28, r24
     ece:	0e 94 5b 07 	call	0xeb6	; 0xeb6 <_ZN5Print5printEhi>
     ed2:	8c 01       	movw	r16, r24
     ed4:	ce 01       	movw	r24, r28
     ed6:	0e 94 a7 06 	call	0xd4e	; 0xd4e <_ZN5Print7printlnEv>
     eda:	80 0f       	add	r24, r16
     edc:	91 1f       	adc	r25, r17
     ede:	df 91       	pop	r29
     ee0:	cf 91       	pop	r28
     ee2:	1f 91       	pop	r17
     ee4:	0f 91       	pop	r16
     ee6:	08 95       	ret

00000ee8 <_ZN5Print5printEji>:
     ee8:	9a 01       	movw	r18, r20
     eea:	ab 01       	movw	r20, r22
     eec:	60 e0       	ldi	r22, 0x00	; 0
     eee:	70 e0       	ldi	r23, 0x00	; 0
     ef0:	0c 94 4e 07 	jmp	0xe9c	; 0xe9c <_ZN5Print5printEmi>

00000ef4 <_ZN5Print7printlnEji>:
     ef4:	0f 93       	push	r16
     ef6:	1f 93       	push	r17
     ef8:	cf 93       	push	r28
     efa:	df 93       	push	r29
     efc:	ec 01       	movw	r28, r24
     efe:	0e 94 74 07 	call	0xee8	; 0xee8 <_ZN5Print5printEji>
     f02:	8c 01       	movw	r16, r24
     f04:	ce 01       	movw	r24, r28
     f06:	0e 94 a7 06 	call	0xd4e	; 0xd4e <_ZN5Print7printlnEv>
     f0a:	80 0f       	add	r24, r16
     f0c:	91 1f       	adc	r25, r17
     f0e:	df 91       	pop	r29
     f10:	cf 91       	pop	r28
     f12:	1f 91       	pop	r17
     f14:	0f 91       	pop	r16
     f16:	08 95       	ret

00000f18 <_ZN5Print7printlnEmi>:
     f18:	0f 93       	push	r16
     f1a:	1f 93       	push	r17
     f1c:	cf 93       	push	r28
     f1e:	df 93       	push	r29
     f20:	ec 01       	movw	r28, r24
     f22:	0e 94 4e 07 	call	0xe9c	; 0xe9c <_ZN5Print5printEmi>
     f26:	8c 01       	movw	r16, r24
     f28:	ce 01       	movw	r24, r28
     f2a:	0e 94 a7 06 	call	0xd4e	; 0xd4e <_ZN5Print7printlnEv>
     f2e:	80 0f       	add	r24, r16
     f30:	91 1f       	adc	r25, r17
     f32:	df 91       	pop	r29
     f34:	cf 91       	pop	r28
     f36:	1f 91       	pop	r17
     f38:	0f 91       	pop	r16
     f3a:	08 95       	ret

00000f3c <_ZN5Print5printEli>:
     f3c:	cf 92       	push	r12
     f3e:	df 92       	push	r13
     f40:	ef 92       	push	r14
     f42:	ff 92       	push	r15
     f44:	0f 93       	push	r16
     f46:	1f 93       	push	r17
     f48:	cf 93       	push	r28
     f4a:	df 93       	push	r29
     f4c:	21 15       	cp	r18, r1
     f4e:	31 05       	cpc	r19, r1
     f50:	81 f4       	brne	.+32     	; 0xf72 <_ZN5Print5printEli+0x36>
     f52:	dc 01       	movw	r26, r24
     f54:	ed 91       	ld	r30, X+
     f56:	fc 91       	ld	r31, X
     f58:	01 90       	ld	r0, Z+
     f5a:	f0 81       	ld	r31, Z
     f5c:	e0 2d       	mov	r30, r0
     f5e:	64 2f       	mov	r22, r20
     f60:	df 91       	pop	r29
     f62:	cf 91       	pop	r28
     f64:	1f 91       	pop	r17
     f66:	0f 91       	pop	r16
     f68:	ff 90       	pop	r15
     f6a:	ef 90       	pop	r14
     f6c:	df 90       	pop	r13
     f6e:	cf 90       	pop	r12
     f70:	19 94       	eijmp
     f72:	2a 30       	cpi	r18, 0x0A	; 10
     f74:	31 05       	cpc	r19, r1
     f76:	01 f5       	brne	.+64     	; 0xfb8 <_ZN5Print5printEli+0x7c>
     f78:	77 ff       	sbrs	r23, 7
     f7a:	1d c0       	rjmp	.+58     	; 0xfb6 <_ZN5Print5printEli+0x7a>
     f7c:	6a 01       	movw	r12, r20
     f7e:	7b 01       	movw	r14, r22
     f80:	ec 01       	movw	r28, r24
     f82:	6d e2       	ldi	r22, 0x2D	; 45
     f84:	0e 94 96 06 	call	0xd2c	; 0xd2c <_ZN5Print5printEc>
     f88:	8c 01       	movw	r16, r24
     f8a:	44 27       	eor	r20, r20
     f8c:	55 27       	eor	r21, r21
     f8e:	ba 01       	movw	r22, r20
     f90:	4c 19       	sub	r20, r12
     f92:	5d 09       	sbc	r21, r13
     f94:	6e 09       	sbc	r22, r14
     f96:	7f 09       	sbc	r23, r15
     f98:	2a e0       	ldi	r18, 0x0A	; 10
     f9a:	ce 01       	movw	r24, r28
     f9c:	0e 94 05 07 	call	0xe0a	; 0xe0a <_ZN5Print11printNumberEmh>
     fa0:	80 0f       	add	r24, r16
     fa2:	91 1f       	adc	r25, r17
     fa4:	df 91       	pop	r29
     fa6:	cf 91       	pop	r28
     fa8:	1f 91       	pop	r17
     faa:	0f 91       	pop	r16
     fac:	ff 90       	pop	r15
     fae:	ef 90       	pop	r14
     fb0:	df 90       	pop	r13
     fb2:	cf 90       	pop	r12
     fb4:	08 95       	ret
     fb6:	2a e0       	ldi	r18, 0x0A	; 10
     fb8:	df 91       	pop	r29
     fba:	cf 91       	pop	r28
     fbc:	1f 91       	pop	r17
     fbe:	0f 91       	pop	r16
     fc0:	ff 90       	pop	r15
     fc2:	ef 90       	pop	r14
     fc4:	df 90       	pop	r13
     fc6:	cf 90       	pop	r12
     fc8:	0c 94 05 07 	jmp	0xe0a	; 0xe0a <_ZN5Print11printNumberEmh>

00000fcc <_ZN5Print5printEii>:
     fcc:	9a 01       	movw	r18, r20
     fce:	ab 01       	movw	r20, r22
     fd0:	77 0f       	add	r23, r23
     fd2:	66 0b       	sbc	r22, r22
     fd4:	77 0b       	sbc	r23, r23
     fd6:	0c 94 9e 07 	jmp	0xf3c	; 0xf3c <_ZN5Print5printEli>

00000fda <_ZN5Print7printlnEii>:
     fda:	0f 93       	push	r16
     fdc:	1f 93       	push	r17
     fde:	cf 93       	push	r28
     fe0:	df 93       	push	r29
     fe2:	ec 01       	movw	r28, r24
     fe4:	0e 94 e6 07 	call	0xfcc	; 0xfcc <_ZN5Print5printEii>
     fe8:	8c 01       	movw	r16, r24
     fea:	ce 01       	movw	r24, r28
     fec:	0e 94 a7 06 	call	0xd4e	; 0xd4e <_ZN5Print7printlnEv>
     ff0:	80 0f       	add	r24, r16
     ff2:	91 1f       	adc	r25, r17
     ff4:	df 91       	pop	r29
     ff6:	cf 91       	pop	r28
     ff8:	1f 91       	pop	r17
     ffa:	0f 91       	pop	r16
     ffc:	08 95       	ret

00000ffe <_ZN5Print7printlnEli>:
     ffe:	0f 93       	push	r16
    1000:	1f 93       	push	r17
    1002:	cf 93       	push	r28
    1004:	df 93       	push	r29
    1006:	ec 01       	movw	r28, r24
    1008:	0e 94 9e 07 	call	0xf3c	; 0xf3c <_ZN5Print5printEli>
    100c:	8c 01       	movw	r16, r24
    100e:	ce 01       	movw	r24, r28
    1010:	0e 94 a7 06 	call	0xd4e	; 0xd4e <_ZN5Print7printlnEv>
    1014:	80 0f       	add	r24, r16
    1016:	91 1f       	adc	r25, r17
    1018:	df 91       	pop	r29
    101a:	cf 91       	pop	r28
    101c:	1f 91       	pop	r17
    101e:	0f 91       	pop	r16
    1020:	08 95       	ret

00001022 <_ZN5Print10printFloatEdh>:
    1022:	7f 92       	push	r7
    1024:	8f 92       	push	r8
    1026:	9f 92       	push	r9
    1028:	af 92       	push	r10
    102a:	bf 92       	push	r11
    102c:	cf 92       	push	r12
    102e:	df 92       	push	r13
    1030:	ef 92       	push	r14
    1032:	ff 92       	push	r15
    1034:	0f 93       	push	r16
    1036:	1f 93       	push	r17
    1038:	cf 93       	push	r28
    103a:	df 93       	push	r29
    103c:	8c 01       	movw	r16, r24
    103e:	6a 01       	movw	r12, r20
    1040:	7b 01       	movw	r14, r22
    1042:	72 2e       	mov	r7, r18
    1044:	9a 01       	movw	r18, r20
    1046:	ab 01       	movw	r20, r22
    1048:	c7 01       	movw	r24, r14
    104a:	b6 01       	movw	r22, r12
    104c:	0e 94 7e 24 	call	0x48fc	; 0x48fc <__unordsf2>
    1050:	88 23       	and	r24, r24
    1052:	19 f0       	breq	.+6      	; 0x105a <_ZN5Print10printFloatEdh+0x38>
    1054:	68 e3       	ldi	r22, 0x38	; 56
    1056:	72 e0       	ldi	r23, 0x02	; 2
    1058:	27 c0       	rjmp	.+78     	; 0x10a8 <_ZN5Print10printFloatEdh+0x86>
    105a:	46 01       	movw	r8, r12
    105c:	57 01       	movw	r10, r14
    105e:	e8 94       	clt
    1060:	b7 f8       	bld	r11, 7
    1062:	2f ef       	ldi	r18, 0xFF	; 255
    1064:	3f ef       	ldi	r19, 0xFF	; 255
    1066:	4f e7       	ldi	r20, 0x7F	; 127
    1068:	5f e7       	ldi	r21, 0x7F	; 127
    106a:	c5 01       	movw	r24, r10
    106c:	b4 01       	movw	r22, r8
    106e:	0e 94 7e 24 	call	0x48fc	; 0x48fc <__unordsf2>
    1072:	81 11       	cpse	r24, r1
    1074:	0d c0       	rjmp	.+26     	; 0x1090 <_ZN5Print10printFloatEdh+0x6e>
    1076:	2f ef       	ldi	r18, 0xFF	; 255
    1078:	3f ef       	ldi	r19, 0xFF	; 255
    107a:	4f e7       	ldi	r20, 0x7F	; 127
    107c:	5f e7       	ldi	r21, 0x7F	; 127
    107e:	c5 01       	movw	r24, r10
    1080:	b4 01       	movw	r22, r8
    1082:	0e 94 b4 22 	call	0x4568	; 0x4568 <__cmpsf2>
    1086:	18 16       	cp	r1, r24
    1088:	1c f4       	brge	.+6      	; 0x1090 <_ZN5Print10printFloatEdh+0x6e>
    108a:	6c e3       	ldi	r22, 0x3C	; 60
    108c:	72 e0       	ldi	r23, 0x02	; 2
    108e:	0c c0       	rjmp	.+24     	; 0x10a8 <_ZN5Print10printFloatEdh+0x86>
    1090:	2f ef       	ldi	r18, 0xFF	; 255
    1092:	3f ef       	ldi	r19, 0xFF	; 255
    1094:	4f e7       	ldi	r20, 0x7F	; 127
    1096:	5f e4       	ldi	r21, 0x4F	; 79
    1098:	c7 01       	movw	r24, r14
    109a:	b6 01       	movw	r22, r12
    109c:	0e 94 0c 24 	call	0x4818	; 0x4818 <__gesf2>
    10a0:	18 16       	cp	r1, r24
    10a2:	94 f4       	brge	.+36     	; 0x10c8 <_ZN5Print10printFloatEdh+0xa6>
    10a4:	60 e4       	ldi	r22, 0x40	; 64
    10a6:	72 e0       	ldi	r23, 0x02	; 2
    10a8:	c8 01       	movw	r24, r16
    10aa:	df 91       	pop	r29
    10ac:	cf 91       	pop	r28
    10ae:	1f 91       	pop	r17
    10b0:	0f 91       	pop	r16
    10b2:	ff 90       	pop	r15
    10b4:	ef 90       	pop	r14
    10b6:	df 90       	pop	r13
    10b8:	cf 90       	pop	r12
    10ba:	bf 90       	pop	r11
    10bc:	af 90       	pop	r10
    10be:	9f 90       	pop	r9
    10c0:	8f 90       	pop	r8
    10c2:	7f 90       	pop	r7
    10c4:	0c 94 b7 21 	jmp	0x436e	; 0x436e <_ZN5Print5writeEPKc>
    10c8:	2f ef       	ldi	r18, 0xFF	; 255
    10ca:	3f ef       	ldi	r19, 0xFF	; 255
    10cc:	4f e7       	ldi	r20, 0x7F	; 127
    10ce:	5f ec       	ldi	r21, 0xCF	; 207
    10d0:	c7 01       	movw	r24, r14
    10d2:	b6 01       	movw	r22, r12
    10d4:	0e 94 b4 22 	call	0x4568	; 0x4568 <__cmpsf2>
    10d8:	87 fd       	sbrc	r24, 7
    10da:	e4 cf       	rjmp	.-56     	; 0x10a4 <_ZN5Print10printFloatEdh+0x82>
    10dc:	20 e0       	ldi	r18, 0x00	; 0
    10de:	30 e0       	ldi	r19, 0x00	; 0
    10e0:	a9 01       	movw	r20, r18
    10e2:	c7 01       	movw	r24, r14
    10e4:	b6 01       	movw	r22, r12
    10e6:	0e 94 b4 22 	call	0x4568	; 0x4568 <__cmpsf2>
    10ea:	87 ff       	sbrs	r24, 7
    10ec:	0a c0       	rjmp	.+20     	; 0x1102 <_ZN5Print10printFloatEdh+0xe0>
    10ee:	6d e2       	ldi	r22, 0x2D	; 45
    10f0:	c8 01       	movw	r24, r16
    10f2:	0e 94 96 06 	call	0xd2c	; 0xd2c <_ZN5Print5printEc>
    10f6:	ec 01       	movw	r28, r24
    10f8:	f7 fa       	bst	r15, 7
    10fa:	f0 94       	com	r15
    10fc:	f7 f8       	bld	r15, 7
    10fe:	f0 94       	com	r15
    1100:	02 c0       	rjmp	.+4      	; 0x1106 <_ZN5Print10printFloatEdh+0xe4>
    1102:	c0 e0       	ldi	r28, 0x00	; 0
    1104:	d0 e0       	ldi	r29, 0x00	; 0
    1106:	b1 2c       	mov	r11, r1
    1108:	60 e0       	ldi	r22, 0x00	; 0
    110a:	70 e0       	ldi	r23, 0x00	; 0
    110c:	80 e0       	ldi	r24, 0x00	; 0
    110e:	9f e3       	ldi	r25, 0x3F	; 63
    1110:	7b 14       	cp	r7, r11
    1112:	41 f0       	breq	.+16     	; 0x1124 <_ZN5Print10printFloatEdh+0x102>
    1114:	20 e0       	ldi	r18, 0x00	; 0
    1116:	30 e0       	ldi	r19, 0x00	; 0
    1118:	40 e2       	ldi	r20, 0x20	; 32
    111a:	51 e4       	ldi	r21, 0x41	; 65
    111c:	0e 94 b9 22 	call	0x4572	; 0x4572 <__divsf3>
    1120:	b3 94       	inc	r11
    1122:	f6 cf       	rjmp	.-20     	; 0x1110 <_ZN5Print10printFloatEdh+0xee>
    1124:	a7 01       	movw	r20, r14
    1126:	96 01       	movw	r18, r12
    1128:	0e 94 48 22 	call	0x4490	; 0x4490 <__addsf3>
    112c:	6b 01       	movw	r12, r22
    112e:	7c 01       	movw	r14, r24
    1130:	0e 94 2b 23 	call	0x4656	; 0x4656 <__fixunssfsi>
    1134:	4b 01       	movw	r8, r22
    1136:	5c 01       	movw	r10, r24
    1138:	2a e0       	ldi	r18, 0x0A	; 10
    113a:	ab 01       	movw	r20, r22
    113c:	bc 01       	movw	r22, r24
    113e:	c8 01       	movw	r24, r16
    1140:	0e 94 05 07 	call	0xe0a	; 0xe0a <_ZN5Print11printNumberEmh>
    1144:	c8 0f       	add	r28, r24
    1146:	d9 1f       	adc	r29, r25
    1148:	77 20       	and	r7, r7
    114a:	b9 f1       	breq	.+110    	; 0x11ba <_ZN5Print10printFloatEdh+0x198>
    114c:	c5 01       	movw	r24, r10
    114e:	b4 01       	movw	r22, r8
    1150:	0e 94 5a 23 	call	0x46b4	; 0x46b4 <__floatunsisf>
    1154:	9b 01       	movw	r18, r22
    1156:	ac 01       	movw	r20, r24
    1158:	c7 01       	movw	r24, r14
    115a:	b6 01       	movw	r22, r12
    115c:	0e 94 47 22 	call	0x448e	; 0x448e <__subsf3>
    1160:	6b 01       	movw	r12, r22
    1162:	7c 01       	movw	r14, r24
    1164:	6e e2       	ldi	r22, 0x2E	; 46
    1166:	c8 01       	movw	r24, r16
    1168:	0e 94 96 06 	call	0xd2c	; 0xd2c <_ZN5Print5printEc>
    116c:	c8 0f       	add	r28, r24
    116e:	d9 1f       	adc	r29, r25
    1170:	20 e0       	ldi	r18, 0x00	; 0
    1172:	30 e0       	ldi	r19, 0x00	; 0
    1174:	40 e2       	ldi	r20, 0x20	; 32
    1176:	51 e4       	ldi	r21, 0x41	; 65
    1178:	c7 01       	movw	r24, r14
    117a:	b6 01       	movw	r22, r12
    117c:	0e 94 11 24 	call	0x4822	; 0x4822 <__mulsf3>
    1180:	4b 01       	movw	r8, r22
    1182:	5c 01       	movw	r10, r24
    1184:	0e 94 2b 23 	call	0x4656	; 0x4656 <__fixunssfsi>
    1188:	6b 01       	movw	r12, r22
    118a:	7c 01       	movw	r14, r24
    118c:	4a e0       	ldi	r20, 0x0A	; 10
    118e:	50 e0       	ldi	r21, 0x00	; 0
    1190:	c8 01       	movw	r24, r16
    1192:	0e 94 74 07 	call	0xee8	; 0xee8 <_ZN5Print5printEji>
    1196:	c8 0f       	add	r28, r24
    1198:	d9 1f       	adc	r29, r25
    119a:	b6 01       	movw	r22, r12
    119c:	80 e0       	ldi	r24, 0x00	; 0
    119e:	90 e0       	ldi	r25, 0x00	; 0
    11a0:	0e 94 5a 23 	call	0x46b4	; 0x46b4 <__floatunsisf>
    11a4:	9b 01       	movw	r18, r22
    11a6:	ac 01       	movw	r20, r24
    11a8:	c5 01       	movw	r24, r10
    11aa:	b4 01       	movw	r22, r8
    11ac:	0e 94 47 22 	call	0x448e	; 0x448e <__subsf3>
    11b0:	6b 01       	movw	r12, r22
    11b2:	7c 01       	movw	r14, r24
    11b4:	7a 94       	dec	r7
    11b6:	71 10       	cpse	r7, r1
    11b8:	db cf       	rjmp	.-74     	; 0x1170 <_ZN5Print10printFloatEdh+0x14e>
    11ba:	ce 01       	movw	r24, r28
    11bc:	df 91       	pop	r29
    11be:	cf 91       	pop	r28
    11c0:	1f 91       	pop	r17
    11c2:	0f 91       	pop	r16
    11c4:	ff 90       	pop	r15
    11c6:	ef 90       	pop	r14
    11c8:	df 90       	pop	r13
    11ca:	cf 90       	pop	r12
    11cc:	bf 90       	pop	r11
    11ce:	af 90       	pop	r10
    11d0:	9f 90       	pop	r9
    11d2:	8f 90       	pop	r8
    11d4:	7f 90       	pop	r7
    11d6:	08 95       	ret

000011d8 <_ZN5Print5printEdi>:
    11d8:	0c 94 11 08 	jmp	0x1022	; 0x1022 <_ZN5Print10printFloatEdh>

000011dc <_ZN5Print7printlnEdi>:
    11dc:	0f 93       	push	r16
    11de:	1f 93       	push	r17
    11e0:	cf 93       	push	r28
    11e2:	df 93       	push	r29
    11e4:	ec 01       	movw	r28, r24
    11e6:	0e 94 11 08 	call	0x1022	; 0x1022 <_ZN5Print10printFloatEdh>
    11ea:	8c 01       	movw	r16, r24
    11ec:	ce 01       	movw	r24, r28
    11ee:	0e 94 a7 06 	call	0xd4e	; 0xd4e <_ZN5Print7printlnEv>
    11f2:	80 0f       	add	r24, r16
    11f4:	91 1f       	adc	r25, r17
    11f6:	df 91       	pop	r29
    11f8:	cf 91       	pop	r28
    11fa:	1f 91       	pop	r17
    11fc:	0f 91       	pop	r16
    11fe:	08 95       	ret

00001200 <_ZN6Stream9timedReadEv>:
    1200:	0f 93       	push	r16
    1202:	1f 93       	push	r17
    1204:	cf 93       	push	r28
    1206:	df 93       	push	r29
    1208:	ec 01       	movw	r28, r24
    120a:	0e 94 cb 12 	call	0x2596	; 0x2596 <millis>
    120e:	68 87       	std	Y+8, r22	; 0x08
    1210:	79 87       	std	Y+9, r23	; 0x09
    1212:	8a 87       	std	Y+10, r24	; 0x0a
    1214:	9b 87       	std	Y+11, r25	; 0x0b
    1216:	e8 81       	ld	r30, Y
    1218:	f9 81       	ldd	r31, Y+1	; 0x01
    121a:	02 84       	ldd	r0, Z+10	; 0x0a
    121c:	f3 85       	ldd	r31, Z+11	; 0x0b
    121e:	e0 2d       	mov	r30, r0
    1220:	ce 01       	movw	r24, r28
    1222:	19 95       	eicall
    1224:	97 ff       	sbrs	r25, 7
    1226:	17 c0       	rjmp	.+46     	; 0x1256 <_ZN6Stream9timedReadEv+0x56>
    1228:	0e 94 cb 12 	call	0x2596	; 0x2596 <millis>
    122c:	08 85       	ldd	r16, Y+8	; 0x08
    122e:	19 85       	ldd	r17, Y+9	; 0x09
    1230:	2a 85       	ldd	r18, Y+10	; 0x0a
    1232:	3b 85       	ldd	r19, Y+11	; 0x0b
    1234:	dc 01       	movw	r26, r24
    1236:	cb 01       	movw	r24, r22
    1238:	80 1b       	sub	r24, r16
    123a:	91 0b       	sbc	r25, r17
    123c:	a2 0b       	sbc	r26, r18
    123e:	b3 0b       	sbc	r27, r19
    1240:	0c 81       	ldd	r16, Y+4	; 0x04
    1242:	1d 81       	ldd	r17, Y+5	; 0x05
    1244:	2e 81       	ldd	r18, Y+6	; 0x06
    1246:	3f 81       	ldd	r19, Y+7	; 0x07
    1248:	80 17       	cp	r24, r16
    124a:	91 07       	cpc	r25, r17
    124c:	a2 07       	cpc	r26, r18
    124e:	b3 07       	cpc	r27, r19
    1250:	10 f3       	brcs	.-60     	; 0x1216 <_ZN6Stream9timedReadEv+0x16>
    1252:	8f ef       	ldi	r24, 0xFF	; 255
    1254:	9f ef       	ldi	r25, 0xFF	; 255
    1256:	df 91       	pop	r29
    1258:	cf 91       	pop	r28
    125a:	1f 91       	pop	r17
    125c:	0f 91       	pop	r16
    125e:	08 95       	ret

00001260 <_ZN6Stream9timedPeekEv>:
    1260:	0f 93       	push	r16
    1262:	1f 93       	push	r17
    1264:	cf 93       	push	r28
    1266:	df 93       	push	r29
    1268:	ec 01       	movw	r28, r24
    126a:	0e 94 cb 12 	call	0x2596	; 0x2596 <millis>
    126e:	68 87       	std	Y+8, r22	; 0x08
    1270:	79 87       	std	Y+9, r23	; 0x09
    1272:	8a 87       	std	Y+10, r24	; 0x0a
    1274:	9b 87       	std	Y+11, r25	; 0x0b
    1276:	e8 81       	ld	r30, Y
    1278:	f9 81       	ldd	r31, Y+1	; 0x01
    127a:	04 84       	ldd	r0, Z+12	; 0x0c
    127c:	f5 85       	ldd	r31, Z+13	; 0x0d
    127e:	e0 2d       	mov	r30, r0
    1280:	ce 01       	movw	r24, r28
    1282:	19 95       	eicall
    1284:	97 ff       	sbrs	r25, 7
    1286:	17 c0       	rjmp	.+46     	; 0x12b6 <_ZN6Stream9timedPeekEv+0x56>
    1288:	0e 94 cb 12 	call	0x2596	; 0x2596 <millis>
    128c:	08 85       	ldd	r16, Y+8	; 0x08
    128e:	19 85       	ldd	r17, Y+9	; 0x09
    1290:	2a 85       	ldd	r18, Y+10	; 0x0a
    1292:	3b 85       	ldd	r19, Y+11	; 0x0b
    1294:	dc 01       	movw	r26, r24
    1296:	cb 01       	movw	r24, r22
    1298:	80 1b       	sub	r24, r16
    129a:	91 0b       	sbc	r25, r17
    129c:	a2 0b       	sbc	r26, r18
    129e:	b3 0b       	sbc	r27, r19
    12a0:	0c 81       	ldd	r16, Y+4	; 0x04
    12a2:	1d 81       	ldd	r17, Y+5	; 0x05
    12a4:	2e 81       	ldd	r18, Y+6	; 0x06
    12a6:	3f 81       	ldd	r19, Y+7	; 0x07
    12a8:	80 17       	cp	r24, r16
    12aa:	91 07       	cpc	r25, r17
    12ac:	a2 07       	cpc	r26, r18
    12ae:	b3 07       	cpc	r27, r19
    12b0:	10 f3       	brcs	.-60     	; 0x1276 <_ZN6Stream9timedPeekEv+0x16>
    12b2:	8f ef       	ldi	r24, 0xFF	; 255
    12b4:	9f ef       	ldi	r25, 0xFF	; 255
    12b6:	df 91       	pop	r29
    12b8:	cf 91       	pop	r28
    12ba:	1f 91       	pop	r17
    12bc:	0f 91       	pop	r16
    12be:	08 95       	ret

000012c0 <_ZN6Stream13peekNextDigitE13LookaheadModeb>:
    12c0:	ff 92       	push	r15
    12c2:	0f 93       	push	r16
    12c4:	1f 93       	push	r17
    12c6:	cf 93       	push	r28
    12c8:	df 93       	push	r29
    12ca:	ec 01       	movw	r28, r24
    12cc:	8b 01       	movw	r16, r22
    12ce:	f4 2e       	mov	r15, r20
    12d0:	ce 01       	movw	r24, r28
    12d2:	0e 94 30 09 	call	0x1260	; 0x1260 <_ZN6Stream9timedPeekEv>
    12d6:	97 fd       	sbrc	r25, 7
    12d8:	2d c0       	rjmp	.+90     	; 0x1334 <_ZN6Stream13peekNextDigitE13LookaheadModeb+0x74>
    12da:	8d 32       	cpi	r24, 0x2D	; 45
    12dc:	91 05       	cpc	r25, r1
    12de:	19 f1       	breq	.+70     	; 0x1326 <_ZN6Stream13peekNextDigitE13LookaheadModeb+0x66>
    12e0:	9c 01       	movw	r18, r24
    12e2:	20 53       	subi	r18, 0x30	; 48
    12e4:	31 09       	sbc	r19, r1
    12e6:	2a 30       	cpi	r18, 0x0A	; 10
    12e8:	31 05       	cpc	r19, r1
    12ea:	20 f1       	brcs	.+72     	; 0x1334 <_ZN6Stream13peekNextDigitE13LookaheadModeb+0x74>
    12ec:	ff 20       	and	r15, r15
    12ee:	19 f0       	breq	.+6      	; 0x12f6 <_ZN6Stream13peekNextDigitE13LookaheadModeb+0x36>
    12f0:	8e 32       	cpi	r24, 0x2E	; 46
    12f2:	91 05       	cpc	r25, r1
    12f4:	d1 f0       	breq	.+52     	; 0x132a <_ZN6Stream13peekNextDigitE13LookaheadModeb+0x6a>
    12f6:	01 30       	cpi	r16, 0x01	; 1
    12f8:	11 05       	cpc	r17, r1
    12fa:	d1 f0       	breq	.+52     	; 0x1330 <_ZN6Stream13peekNextDigitE13LookaheadModeb+0x70>
    12fc:	02 30       	cpi	r16, 0x02	; 2
    12fe:	11 05       	cpc	r17, r1
    1300:	51 f4       	brne	.+20     	; 0x1316 <_ZN6Stream13peekNextDigitE13LookaheadModeb+0x56>
    1302:	8d 30       	cpi	r24, 0x0D	; 13
    1304:	91 05       	cpc	r25, r1
    1306:	39 f0       	breq	.+14     	; 0x1316 <_ZN6Stream13peekNextDigitE13LookaheadModeb+0x56>
    1308:	24 f4       	brge	.+8      	; 0x1312 <_ZN6Stream13peekNextDigitE13LookaheadModeb+0x52>
    130a:	09 97       	sbiw	r24, 0x09	; 9
    130c:	02 97       	sbiw	r24, 0x02	; 2
    130e:	18 f0       	brcs	.+6      	; 0x1316 <_ZN6Stream13peekNextDigitE13LookaheadModeb+0x56>
    1310:	0f c0       	rjmp	.+30     	; 0x1330 <_ZN6Stream13peekNextDigitE13LookaheadModeb+0x70>
    1312:	80 97       	sbiw	r24, 0x20	; 32
    1314:	69 f4       	brne	.+26     	; 0x1330 <_ZN6Stream13peekNextDigitE13LookaheadModeb+0x70>
    1316:	e8 81       	ld	r30, Y
    1318:	f9 81       	ldd	r31, Y+1	; 0x01
    131a:	02 84       	ldd	r0, Z+10	; 0x0a
    131c:	f3 85       	ldd	r31, Z+11	; 0x0b
    131e:	e0 2d       	mov	r30, r0
    1320:	ce 01       	movw	r24, r28
    1322:	19 95       	eicall
    1324:	d5 cf       	rjmp	.-86     	; 0x12d0 <_ZN6Stream13peekNextDigitE13LookaheadModeb+0x10>
    1326:	8d e2       	ldi	r24, 0x2D	; 45
    1328:	01 c0       	rjmp	.+2      	; 0x132c <_ZN6Stream13peekNextDigitE13LookaheadModeb+0x6c>
    132a:	8e e2       	ldi	r24, 0x2E	; 46
    132c:	90 e0       	ldi	r25, 0x00	; 0
    132e:	02 c0       	rjmp	.+4      	; 0x1334 <_ZN6Stream13peekNextDigitE13LookaheadModeb+0x74>
    1330:	8f ef       	ldi	r24, 0xFF	; 255
    1332:	9f ef       	ldi	r25, 0xFF	; 255
    1334:	df 91       	pop	r29
    1336:	cf 91       	pop	r28
    1338:	1f 91       	pop	r17
    133a:	0f 91       	pop	r16
    133c:	ff 90       	pop	r15
    133e:	08 95       	ret

00001340 <_ZN6Stream10setTimeoutEm>:
    1340:	fc 01       	movw	r30, r24
    1342:	44 83       	std	Z+4, r20	; 0x04
    1344:	55 83       	std	Z+5, r21	; 0x05
    1346:	66 83       	std	Z+6, r22	; 0x06
    1348:	77 83       	std	Z+7, r23	; 0x07
    134a:	08 95       	ret

0000134c <_ZN6Stream8parseIntE13LookaheadModec>:
    134c:	bf 92       	push	r11
    134e:	cf 92       	push	r12
    1350:	df 92       	push	r13
    1352:	ef 92       	push	r14
    1354:	ff 92       	push	r15
    1356:	0f 93       	push	r16
    1358:	1f 93       	push	r17
    135a:	cf 93       	push	r28
    135c:	df 93       	push	r29
    135e:	8c 01       	movw	r16, r24
    1360:	c4 2f       	mov	r28, r20
    1362:	40 e0       	ldi	r20, 0x00	; 0
    1364:	0e 94 60 09 	call	0x12c0	; 0x12c0 <_ZN6Stream13peekNextDigitE13LookaheadModeb>
    1368:	fc 01       	movw	r30, r24
    136a:	97 fd       	sbrc	r25, 7
    136c:	47 c0       	rjmp	.+142    	; 0x13fc <_ZN6Stream8parseIntE13LookaheadModec+0xb0>
    136e:	c1 2c       	mov	r12, r1
    1370:	d1 2c       	mov	r13, r1
    1372:	76 01       	movw	r14, r12
    1374:	b1 2c       	mov	r11, r1
    1376:	0c 2e       	mov	r0, r28
    1378:	00 0c       	add	r0, r0
    137a:	dd 0b       	sbc	r29, r29
    137c:	ec 17       	cp	r30, r28
    137e:	fd 07       	cpc	r31, r29
    1380:	09 f1       	breq	.+66     	; 0x13c4 <_ZN6Stream8parseIntE13LookaheadModec+0x78>
    1382:	ed 32       	cpi	r30, 0x2D	; 45
    1384:	f1 05       	cpc	r31, r1
    1386:	e1 f0       	breq	.+56     	; 0x13c0 <_ZN6Stream8parseIntE13LookaheadModec+0x74>
    1388:	cf 01       	movw	r24, r30
    138a:	c0 97       	sbiw	r24, 0x30	; 48
    138c:	0a 97       	sbiw	r24, 0x0a	; 10
    138e:	d0 f4       	brcc	.+52     	; 0x13c4 <_ZN6Stream8parseIntE13LookaheadModec+0x78>
    1390:	aa e0       	ldi	r26, 0x0A	; 10
    1392:	b0 e0       	ldi	r27, 0x00	; 0
    1394:	a7 01       	movw	r20, r14
    1396:	96 01       	movw	r18, r12
    1398:	0e 94 2d 22 	call	0x445a	; 0x445a <__muluhisi3>
    139c:	6f 01       	movw	r12, r30
    139e:	ff 0f       	add	r31, r31
    13a0:	ee 08       	sbc	r14, r14
    13a2:	ff 08       	sbc	r15, r15
    13a4:	dc 01       	movw	r26, r24
    13a6:	cb 01       	movw	r24, r22
    13a8:	8c 0d       	add	r24, r12
    13aa:	9d 1d       	adc	r25, r13
    13ac:	ae 1d       	adc	r26, r14
    13ae:	bf 1d       	adc	r27, r15
    13b0:	6c 01       	movw	r12, r24
    13b2:	7d 01       	movw	r14, r26
    13b4:	20 e3       	ldi	r18, 0x30	; 48
    13b6:	c2 1a       	sub	r12, r18
    13b8:	d1 08       	sbc	r13, r1
    13ba:	e1 08       	sbc	r14, r1
    13bc:	f1 08       	sbc	r15, r1
    13be:	02 c0       	rjmp	.+4      	; 0x13c4 <_ZN6Stream8parseIntE13LookaheadModec+0x78>
    13c0:	bb 24       	eor	r11, r11
    13c2:	b3 94       	inc	r11
    13c4:	d8 01       	movw	r26, r16
    13c6:	ed 91       	ld	r30, X+
    13c8:	fc 91       	ld	r31, X
    13ca:	02 84       	ldd	r0, Z+10	; 0x0a
    13cc:	f3 85       	ldd	r31, Z+11	; 0x0b
    13ce:	e0 2d       	mov	r30, r0
    13d0:	c8 01       	movw	r24, r16
    13d2:	19 95       	eicall
    13d4:	c8 01       	movw	r24, r16
    13d6:	0e 94 30 09 	call	0x1260	; 0x1260 <_ZN6Stream9timedPeekEv>
    13da:	fc 01       	movw	r30, r24
    13dc:	c0 97       	sbiw	r24, 0x30	; 48
    13de:	0a 97       	sbiw	r24, 0x0a	; 10
    13e0:	68 f2       	brcs	.-102    	; 0x137c <_ZN6Stream8parseIntE13LookaheadModec+0x30>
    13e2:	ce 17       	cp	r28, r30
    13e4:	df 07       	cpc	r29, r31
    13e6:	51 f2       	breq	.-108    	; 0x137c <_ZN6Stream8parseIntE13LookaheadModec+0x30>
    13e8:	bb 20       	and	r11, r11
    13ea:	61 f0       	breq	.+24     	; 0x1404 <_ZN6Stream8parseIntE13LookaheadModec+0xb8>
    13ec:	66 27       	eor	r22, r22
    13ee:	77 27       	eor	r23, r23
    13f0:	cb 01       	movw	r24, r22
    13f2:	6c 19       	sub	r22, r12
    13f4:	7d 09       	sbc	r23, r13
    13f6:	8e 09       	sbc	r24, r14
    13f8:	9f 09       	sbc	r25, r15
    13fa:	06 c0       	rjmp	.+12     	; 0x1408 <_ZN6Stream8parseIntE13LookaheadModec+0xbc>
    13fc:	60 e0       	ldi	r22, 0x00	; 0
    13fe:	70 e0       	ldi	r23, 0x00	; 0
    1400:	cb 01       	movw	r24, r22
    1402:	02 c0       	rjmp	.+4      	; 0x1408 <_ZN6Stream8parseIntE13LookaheadModec+0xbc>
    1404:	c7 01       	movw	r24, r14
    1406:	b6 01       	movw	r22, r12
    1408:	df 91       	pop	r29
    140a:	cf 91       	pop	r28
    140c:	1f 91       	pop	r17
    140e:	0f 91       	pop	r16
    1410:	ff 90       	pop	r15
    1412:	ef 90       	pop	r14
    1414:	df 90       	pop	r13
    1416:	cf 90       	pop	r12
    1418:	bf 90       	pop	r11
    141a:	08 95       	ret

0000141c <_ZN6Stream10parseFloatE13LookaheadModec>:
    141c:	4f 92       	push	r4
    141e:	5f 92       	push	r5
    1420:	6f 92       	push	r6
    1422:	7f 92       	push	r7
    1424:	af 92       	push	r10
    1426:	bf 92       	push	r11
    1428:	cf 92       	push	r12
    142a:	df 92       	push	r13
    142c:	ef 92       	push	r14
    142e:	ff 92       	push	r15
    1430:	0f 93       	push	r16
    1432:	1f 93       	push	r17
    1434:	cf 93       	push	r28
    1436:	df 93       	push	r29
    1438:	5c 01       	movw	r10, r24
    143a:	04 2f       	mov	r16, r20
    143c:	41 e0       	ldi	r20, 0x01	; 1
    143e:	0e 94 60 09 	call	0x12c0	; 0x12c0 <_ZN6Stream13peekNextDigitE13LookaheadModeb>
    1442:	fc 01       	movw	r30, r24
    1444:	97 fd       	sbrc	r25, 7
    1446:	6f c0       	rjmp	.+222    	; 0x1526 <_ZN6Stream10parseFloatE13LookaheadModec+0x10a>
    1448:	41 2c       	mov	r4, r1
    144a:	51 2c       	mov	r5, r1
    144c:	80 e8       	ldi	r24, 0x80	; 128
    144e:	68 2e       	mov	r6, r24
    1450:	8f e3       	ldi	r24, 0x3F	; 63
    1452:	78 2e       	mov	r7, r24
    1454:	c1 2c       	mov	r12, r1
    1456:	d1 2c       	mov	r13, r1
    1458:	76 01       	movw	r14, r12
    145a:	c0 e0       	ldi	r28, 0x00	; 0
    145c:	d0 e0       	ldi	r29, 0x00	; 0
    145e:	00 2e       	mov	r0, r16
    1460:	00 0c       	add	r0, r0
    1462:	11 0b       	sbc	r17, r17
    1464:	e0 17       	cp	r30, r16
    1466:	f1 07       	cpc	r31, r17
    1468:	69 f1       	breq	.+90     	; 0x14c4 <_ZN6Stream10parseFloatE13LookaheadModec+0xa8>
    146a:	ed 32       	cpi	r30, 0x2D	; 45
    146c:	f1 05       	cpc	r31, r1
    146e:	39 f1       	breq	.+78     	; 0x14be <_ZN6Stream10parseFloatE13LookaheadModec+0xa2>
    1470:	ee 32       	cpi	r30, 0x2E	; 46
    1472:	f1 05       	cpc	r31, r1
    1474:	31 f1       	breq	.+76     	; 0x14c2 <_ZN6Stream10parseFloatE13LookaheadModec+0xa6>
    1476:	cf 01       	movw	r24, r30
    1478:	c0 97       	sbiw	r24, 0x30	; 48
    147a:	0a 97       	sbiw	r24, 0x0a	; 10
    147c:	18 f5       	brcc	.+70     	; 0x14c4 <_ZN6Stream10parseFloatE13LookaheadModec+0xa8>
    147e:	aa e0       	ldi	r26, 0x0A	; 10
    1480:	b0 e0       	ldi	r27, 0x00	; 0
    1482:	a7 01       	movw	r20, r14
    1484:	96 01       	movw	r18, r12
    1486:	0e 94 2d 22 	call	0x445a	; 0x445a <__muluhisi3>
    148a:	6f 01       	movw	r12, r30
    148c:	ff 0f       	add	r31, r31
    148e:	ee 08       	sbc	r14, r14
    1490:	ff 08       	sbc	r15, r15
    1492:	c6 0e       	add	r12, r22
    1494:	d7 1e       	adc	r13, r23
    1496:	e8 1e       	adc	r14, r24
    1498:	f9 1e       	adc	r15, r25
    149a:	80 e3       	ldi	r24, 0x30	; 48
    149c:	c8 1a       	sub	r12, r24
    149e:	d1 08       	sbc	r13, r1
    14a0:	e1 08       	sbc	r14, r1
    14a2:	f1 08       	sbc	r15, r1
    14a4:	cc 23       	and	r28, r28
    14a6:	71 f0       	breq	.+28     	; 0x14c4 <_ZN6Stream10parseFloatE13LookaheadModec+0xa8>
    14a8:	2d ec       	ldi	r18, 0xCD	; 205
    14aa:	3c ec       	ldi	r19, 0xCC	; 204
    14ac:	4c ec       	ldi	r20, 0xCC	; 204
    14ae:	5d e3       	ldi	r21, 0x3D	; 61
    14b0:	c3 01       	movw	r24, r6
    14b2:	b2 01       	movw	r22, r4
    14b4:	0e 94 11 24 	call	0x4822	; 0x4822 <__mulsf3>
    14b8:	2b 01       	movw	r4, r22
    14ba:	3c 01       	movw	r6, r24
    14bc:	03 c0       	rjmp	.+6      	; 0x14c4 <_ZN6Stream10parseFloatE13LookaheadModec+0xa8>
    14be:	d1 e0       	ldi	r29, 0x01	; 1
    14c0:	01 c0       	rjmp	.+2      	; 0x14c4 <_ZN6Stream10parseFloatE13LookaheadModec+0xa8>
    14c2:	c1 e0       	ldi	r28, 0x01	; 1
    14c4:	d5 01       	movw	r26, r10
    14c6:	ed 91       	ld	r30, X+
    14c8:	fc 91       	ld	r31, X
    14ca:	02 84       	ldd	r0, Z+10	; 0x0a
    14cc:	f3 85       	ldd	r31, Z+11	; 0x0b
    14ce:	e0 2d       	mov	r30, r0
    14d0:	c5 01       	movw	r24, r10
    14d2:	19 95       	eicall
    14d4:	c5 01       	movw	r24, r10
    14d6:	0e 94 30 09 	call	0x1260	; 0x1260 <_ZN6Stream9timedPeekEv>
    14da:	fc 01       	movw	r30, r24
    14dc:	c0 97       	sbiw	r24, 0x30	; 48
    14de:	0a 97       	sbiw	r24, 0x0a	; 10
    14e0:	08 f2       	brcs	.-126    	; 0x1464 <_ZN6Stream10parseFloatE13LookaheadModec+0x48>
    14e2:	ee 32       	cpi	r30, 0x2E	; 46
    14e4:	f1 05       	cpc	r31, r1
    14e6:	19 f4       	brne	.+6      	; 0x14ee <_ZN6Stream10parseFloatE13LookaheadModec+0xd2>
    14e8:	cc 23       	and	r28, r28
    14ea:	09 f4       	brne	.+2      	; 0x14ee <_ZN6Stream10parseFloatE13LookaheadModec+0xd2>
    14ec:	bb cf       	rjmp	.-138    	; 0x1464 <_ZN6Stream10parseFloatE13LookaheadModec+0x48>
    14ee:	0e 17       	cp	r16, r30
    14f0:	1f 07       	cpc	r17, r31
    14f2:	09 f4       	brne	.+2      	; 0x14f6 <_ZN6Stream10parseFloatE13LookaheadModec+0xda>
    14f4:	b7 cf       	rjmp	.-146    	; 0x1464 <_ZN6Stream10parseFloatE13LookaheadModec+0x48>
    14f6:	dd 23       	and	r29, r29
    14f8:	41 f0       	breq	.+16     	; 0x150a <_ZN6Stream10parseFloatE13LookaheadModec+0xee>
    14fa:	f0 94       	com	r15
    14fc:	e0 94       	com	r14
    14fe:	d0 94       	com	r13
    1500:	c0 94       	com	r12
    1502:	c1 1c       	adc	r12, r1
    1504:	d1 1c       	adc	r13, r1
    1506:	e1 1c       	adc	r14, r1
    1508:	f1 1c       	adc	r15, r1
    150a:	c7 01       	movw	r24, r14
    150c:	b6 01       	movw	r22, r12
    150e:	cc 23       	and	r28, r28
    1510:	39 f0       	breq	.+14     	; 0x1520 <_ZN6Stream10parseFloatE13LookaheadModec+0x104>
    1512:	0e 94 5c 23 	call	0x46b8	; 0x46b8 <__floatsisf>
    1516:	a3 01       	movw	r20, r6
    1518:	92 01       	movw	r18, r4
    151a:	0e 94 11 24 	call	0x4822	; 0x4822 <__mulsf3>
    151e:	06 c0       	rjmp	.+12     	; 0x152c <_ZN6Stream10parseFloatE13LookaheadModec+0x110>
    1520:	0e 94 5c 23 	call	0x46b8	; 0x46b8 <__floatsisf>
    1524:	03 c0       	rjmp	.+6      	; 0x152c <_ZN6Stream10parseFloatE13LookaheadModec+0x110>
    1526:	60 e0       	ldi	r22, 0x00	; 0
    1528:	70 e0       	ldi	r23, 0x00	; 0
    152a:	cb 01       	movw	r24, r22
    152c:	df 91       	pop	r29
    152e:	cf 91       	pop	r28
    1530:	1f 91       	pop	r17
    1532:	0f 91       	pop	r16
    1534:	ff 90       	pop	r15
    1536:	ef 90       	pop	r14
    1538:	df 90       	pop	r13
    153a:	cf 90       	pop	r12
    153c:	bf 90       	pop	r11
    153e:	af 90       	pop	r10
    1540:	7f 90       	pop	r7
    1542:	6f 90       	pop	r6
    1544:	5f 90       	pop	r5
    1546:	4f 90       	pop	r4
    1548:	08 95       	ret

0000154a <_ZN6Stream9readBytesEPcj>:
    154a:	cf 92       	push	r12
    154c:	df 92       	push	r13
    154e:	ef 92       	push	r14
    1550:	ff 92       	push	r15
    1552:	0f 93       	push	r16
    1554:	1f 93       	push	r17
    1556:	cf 93       	push	r28
    1558:	df 93       	push	r29
    155a:	6c 01       	movw	r12, r24
    155c:	7a 01       	movw	r14, r20
    155e:	8b 01       	movw	r16, r22
    1560:	c0 e0       	ldi	r28, 0x00	; 0
    1562:	d0 e0       	ldi	r29, 0x00	; 0
    1564:	ce 15       	cp	r28, r14
    1566:	df 05       	cpc	r29, r15
    1568:	59 f0       	breq	.+22     	; 0x1580 <_ZN6Stream9readBytesEPcj+0x36>
    156a:	c6 01       	movw	r24, r12
    156c:	0e 94 00 09 	call	0x1200	; 0x1200 <_ZN6Stream9timedReadEv>
    1570:	97 fd       	sbrc	r25, 7
    1572:	05 c0       	rjmp	.+10     	; 0x157e <_ZN6Stream9readBytesEPcj+0x34>
    1574:	f8 01       	movw	r30, r16
    1576:	81 93       	st	Z+, r24
    1578:	8f 01       	movw	r16, r30
    157a:	21 96       	adiw	r28, 0x01	; 1
    157c:	f3 cf       	rjmp	.-26     	; 0x1564 <_ZN6Stream9readBytesEPcj+0x1a>
    157e:	7e 01       	movw	r14, r28
    1580:	c7 01       	movw	r24, r14
    1582:	df 91       	pop	r29
    1584:	cf 91       	pop	r28
    1586:	1f 91       	pop	r17
    1588:	0f 91       	pop	r16
    158a:	ff 90       	pop	r15
    158c:	ef 90       	pop	r14
    158e:	df 90       	pop	r13
    1590:	cf 90       	pop	r12
    1592:	08 95       	ret

00001594 <_ZN6Stream14readBytesUntilEcPcj>:
    1594:	af 92       	push	r10
    1596:	bf 92       	push	r11
    1598:	cf 92       	push	r12
    159a:	df 92       	push	r13
    159c:	ef 92       	push	r14
    159e:	ff 92       	push	r15
    15a0:	0f 93       	push	r16
    15a2:	1f 93       	push	r17
    15a4:	cf 93       	push	r28
    15a6:	df 93       	push	r29
    15a8:	21 15       	cp	r18, r1
    15aa:	31 05       	cpc	r19, r1
    15ac:	c9 f0       	breq	.+50     	; 0x15e0 <_ZN6Stream14readBytesUntilEcPcj+0x4c>
    15ae:	89 01       	movw	r16, r18
    15b0:	5c 01       	movw	r10, r24
    15b2:	6a 01       	movw	r12, r20
    15b4:	c0 e0       	ldi	r28, 0x00	; 0
    15b6:	d0 e0       	ldi	r29, 0x00	; 0
    15b8:	e6 2e       	mov	r14, r22
    15ba:	66 0f       	add	r22, r22
    15bc:	ff 08       	sbc	r15, r15
    15be:	c5 01       	movw	r24, r10
    15c0:	0e 94 00 09 	call	0x1200	; 0x1200 <_ZN6Stream9timedReadEv>
    15c4:	97 fd       	sbrc	r25, 7
    15c6:	0f c0       	rjmp	.+30     	; 0x15e6 <_ZN6Stream14readBytesUntilEcPcj+0x52>
    15c8:	8e 15       	cp	r24, r14
    15ca:	9f 05       	cpc	r25, r15
    15cc:	61 f0       	breq	.+24     	; 0x15e6 <_ZN6Stream14readBytesUntilEcPcj+0x52>
    15ce:	f6 01       	movw	r30, r12
    15d0:	81 93       	st	Z+, r24
    15d2:	6f 01       	movw	r12, r30
    15d4:	21 96       	adiw	r28, 0x01	; 1
    15d6:	0c 17       	cp	r16, r28
    15d8:	1d 07       	cpc	r17, r29
    15da:	89 f7       	brne	.-30     	; 0x15be <_ZN6Stream14readBytesUntilEcPcj+0x2a>
    15dc:	c8 01       	movw	r24, r16
    15de:	04 c0       	rjmp	.+8      	; 0x15e8 <_ZN6Stream14readBytesUntilEcPcj+0x54>
    15e0:	80 e0       	ldi	r24, 0x00	; 0
    15e2:	90 e0       	ldi	r25, 0x00	; 0
    15e4:	01 c0       	rjmp	.+2      	; 0x15e8 <_ZN6Stream14readBytesUntilEcPcj+0x54>
    15e6:	ce 01       	movw	r24, r28
    15e8:	df 91       	pop	r29
    15ea:	cf 91       	pop	r28
    15ec:	1f 91       	pop	r17
    15ee:	0f 91       	pop	r16
    15f0:	ff 90       	pop	r15
    15f2:	ef 90       	pop	r14
    15f4:	df 90       	pop	r13
    15f6:	cf 90       	pop	r12
    15f8:	bf 90       	pop	r11
    15fa:	af 90       	pop	r10
    15fc:	08 95       	ret

000015fe <_ZN6Stream10readStringEv>:
    15fe:	0f 93       	push	r16
    1600:	1f 93       	push	r17
    1602:	cf 93       	push	r28
    1604:	df 93       	push	r29
    1606:	ec 01       	movw	r28, r24
    1608:	8b 01       	movw	r16, r22
    160a:	67 e3       	ldi	r22, 0x37	; 55
    160c:	72 e0       	ldi	r23, 0x02	; 2
    160e:	0e 94 de 17 	call	0x2fbc	; 0x2fbc <_ZN6StringC1EPKc>
    1612:	c8 01       	movw	r24, r16
    1614:	0e 94 00 09 	call	0x1200	; 0x1200 <_ZN6Stream9timedReadEv>
    1618:	97 fd       	sbrc	r25, 7
    161a:	05 c0       	rjmp	.+10     	; 0x1626 <_ZN6Stream10readStringEv+0x28>
    161c:	68 2f       	mov	r22, r24
    161e:	ce 01       	movw	r24, r28
    1620:	0e 94 0a 1a 	call	0x3414	; 0x3414 <_ZN6String6concatEc>
    1624:	f6 cf       	rjmp	.-20     	; 0x1612 <_ZN6Stream10readStringEv+0x14>
    1626:	ce 01       	movw	r24, r28
    1628:	df 91       	pop	r29
    162a:	cf 91       	pop	r28
    162c:	1f 91       	pop	r17
    162e:	0f 91       	pop	r16
    1630:	08 95       	ret

00001632 <_ZN6Stream15readStringUntilEc>:
    1632:	ef 92       	push	r14
    1634:	ff 92       	push	r15
    1636:	0f 93       	push	r16
    1638:	1f 93       	push	r17
    163a:	cf 93       	push	r28
    163c:	df 93       	push	r29
    163e:	ec 01       	movw	r28, r24
    1640:	7b 01       	movw	r14, r22
    1642:	04 2f       	mov	r16, r20
    1644:	67 e3       	ldi	r22, 0x37	; 55
    1646:	72 e0       	ldi	r23, 0x02	; 2
    1648:	0e 94 de 17 	call	0x2fbc	; 0x2fbc <_ZN6StringC1EPKc>
    164c:	c7 01       	movw	r24, r14
    164e:	0e 94 00 09 	call	0x1200	; 0x1200 <_ZN6Stream9timedReadEv>
    1652:	00 2e       	mov	r0, r16
    1654:	00 0c       	add	r0, r0
    1656:	11 0b       	sbc	r17, r17
    1658:	97 fd       	sbrc	r25, 7
    165a:	0b c0       	rjmp	.+22     	; 0x1672 <_ZN6Stream15readStringUntilEc+0x40>
    165c:	80 17       	cp	r24, r16
    165e:	91 07       	cpc	r25, r17
    1660:	41 f0       	breq	.+16     	; 0x1672 <_ZN6Stream15readStringUntilEc+0x40>
    1662:	68 2f       	mov	r22, r24
    1664:	ce 01       	movw	r24, r28
    1666:	0e 94 0a 1a 	call	0x3414	; 0x3414 <_ZN6String6concatEc>
    166a:	c7 01       	movw	r24, r14
    166c:	0e 94 00 09 	call	0x1200	; 0x1200 <_ZN6Stream9timedReadEv>
    1670:	f3 cf       	rjmp	.-26     	; 0x1658 <_ZN6Stream15readStringUntilEc+0x26>
    1672:	ce 01       	movw	r24, r28
    1674:	df 91       	pop	r29
    1676:	cf 91       	pop	r28
    1678:	1f 91       	pop	r17
    167a:	0f 91       	pop	r16
    167c:	ff 90       	pop	r15
    167e:	ef 90       	pop	r14
    1680:	08 95       	ret

00001682 <_ZN6Stream9findMultiEPNS_11MultiTargetEi>:
    1682:	4f 92       	push	r4
    1684:	5f 92       	push	r5
    1686:	6f 92       	push	r6
    1688:	7f 92       	push	r7
    168a:	8f 92       	push	r8
    168c:	9f 92       	push	r9
    168e:	af 92       	push	r10
    1690:	bf 92       	push	r11
    1692:	cf 92       	push	r12
    1694:	df 92       	push	r13
    1696:	ef 92       	push	r14
    1698:	ff 92       	push	r15
    169a:	0f 93       	push	r16
    169c:	1f 93       	push	r17
    169e:	cf 93       	push	r28
    16a0:	df 93       	push	r29
    16a2:	8c 01       	movw	r16, r24
    16a4:	eb 01       	movw	r28, r22
    16a6:	86 e0       	ldi	r24, 0x06	; 6
    16a8:	84 9f       	mul	r24, r20
    16aa:	40 01       	movw	r8, r0
    16ac:	85 9f       	mul	r24, r21
    16ae:	90 0c       	add	r9, r0
    16b0:	11 24       	eor	r1, r1
    16b2:	86 0e       	add	r8, r22
    16b4:	97 1e       	adc	r9, r23
    16b6:	fb 01       	movw	r30, r22
    16b8:	e8 15       	cp	r30, r8
    16ba:	f9 05       	cpc	r31, r9
    16bc:	08 f5       	brcc	.+66     	; 0x1700 <_ZN6Stream9findMultiEPNS_11MultiTargetEi+0x7e>
    16be:	82 81       	ldd	r24, Z+2	; 0x02
    16c0:	93 81       	ldd	r25, Z+3	; 0x03
    16c2:	89 2b       	or	r24, r25
    16c4:	21 f1       	breq	.+72     	; 0x170e <_ZN6Stream9findMultiEPNS_11MultiTargetEi+0x8c>
    16c6:	36 96       	adiw	r30, 0x06	; 6
    16c8:	f7 cf       	rjmp	.-18     	; 0x16b8 <_ZN6Stream9findMultiEPNS_11MultiTargetEi+0x36>
    16ca:	60 81       	ld	r22, Z
    16cc:	71 81       	ldd	r23, Z+1	; 0x01
    16ce:	44 81       	ldd	r20, Z+4	; 0x04
    16d0:	55 81       	ldd	r21, Z+5	; 0x05
    16d2:	db 01       	movw	r26, r22
    16d4:	a4 0f       	add	r26, r20
    16d6:	b5 1f       	adc	r27, r21
    16d8:	2c 91       	ld	r18, X
    16da:	02 2e       	mov	r0, r18
    16dc:	00 0c       	add	r0, r0
    16de:	33 0b       	sbc	r19, r19
    16e0:	82 17       	cp	r24, r18
    16e2:	93 07       	cpc	r25, r19
    16e4:	11 f5       	brne	.+68     	; 0x172a <_ZN6Stream9findMultiEPNS_11MultiTargetEi+0xa8>
    16e6:	4f 5f       	subi	r20, 0xFF	; 255
    16e8:	5f 4f       	sbci	r21, 0xFF	; 255
    16ea:	55 83       	std	Z+5, r21	; 0x05
    16ec:	44 83       	std	Z+4, r20	; 0x04
    16ee:	22 81       	ldd	r18, Z+2	; 0x02
    16f0:	33 81       	ldd	r19, Z+3	; 0x03
    16f2:	42 17       	cp	r20, r18
    16f4:	53 07       	cpc	r21, r19
    16f6:	59 f0       	breq	.+22     	; 0x170e <_ZN6Stream9findMultiEPNS_11MultiTargetEi+0x8c>
    16f8:	36 96       	adiw	r30, 0x06	; 6
    16fa:	e8 15       	cp	r30, r8
    16fc:	f9 05       	cpc	r31, r9
    16fe:	28 f3       	brcs	.-54     	; 0x16ca <_ZN6Stream9findMultiEPNS_11MultiTargetEi+0x48>
    1700:	c8 01       	movw	r24, r16
    1702:	0e 94 00 09 	call	0x1200	; 0x1200 <_ZN6Stream9timedReadEv>
    1706:	97 fd       	sbrc	r25, 7
    1708:	46 c0       	rjmp	.+140    	; 0x1796 <_ZN6Stream9findMultiEPNS_11MultiTargetEi+0x114>
    170a:	fe 01       	movw	r30, r28
    170c:	f6 cf       	rjmp	.-20     	; 0x16fa <_ZN6Stream9findMultiEPNS_11MultiTargetEi+0x78>
    170e:	ec 1b       	sub	r30, r28
    1710:	fd 0b       	sbc	r31, r29
    1712:	f5 95       	asr	r31
    1714:	e7 95       	ror	r30
    1716:	2b ea       	ldi	r18, 0xAB	; 171
    1718:	3a ea       	ldi	r19, 0xAA	; 170
    171a:	e2 9f       	mul	r30, r18
    171c:	c0 01       	movw	r24, r0
    171e:	e3 9f       	mul	r30, r19
    1720:	90 0d       	add	r25, r0
    1722:	f2 9f       	mul	r31, r18
    1724:	90 0d       	add	r25, r0
    1726:	11 24       	eor	r1, r1
    1728:	38 c0       	rjmp	.+112    	; 0x179a <_ZN6Stream9findMultiEPNS_11MultiTargetEi+0x118>
    172a:	41 15       	cp	r20, r1
    172c:	51 05       	cpc	r21, r1
    172e:	21 f3       	breq	.-56     	; 0x16f8 <_ZN6Stream9findMultiEPNS_11MultiTargetEi+0x76>
    1730:	c4 80       	ldd	r12, Z+4	; 0x04
    1732:	d5 80       	ldd	r13, Z+5	; 0x05
    1734:	96 01       	movw	r18, r12
    1736:	21 50       	subi	r18, 0x01	; 1
    1738:	31 09       	sbc	r19, r1
    173a:	35 83       	std	Z+5, r19	; 0x05
    173c:	24 83       	std	Z+4, r18	; 0x04
    173e:	db 01       	movw	r26, r22
    1740:	a2 0f       	add	r26, r18
    1742:	b3 1f       	adc	r27, r19
    1744:	ac 91       	ld	r26, X
    1746:	0a 2e       	mov	r0, r26
    1748:	00 0c       	add	r0, r0
    174a:	bb 0b       	sbc	r27, r27
    174c:	8a 17       	cp	r24, r26
    174e:	9b 07       	cpc	r25, r27
    1750:	f9 f4       	brne	.+62     	; 0x1790 <_ZN6Stream9findMultiEPNS_11MultiTargetEi+0x10e>
    1752:	21 15       	cp	r18, r1
    1754:	31 05       	cpc	r19, r1
    1756:	c9 f0       	breq	.+50     	; 0x178a <_ZN6Stream9findMultiEPNS_11MultiTargetEi+0x108>
    1758:	5b 01       	movw	r10, r22
    175a:	7a 01       	movw	r14, r20
    175c:	e2 1a       	sub	r14, r18
    175e:	f3 0a       	sbc	r15, r19
    1760:	e6 0e       	add	r14, r22
    1762:	f7 1e       	adc	r15, r23
    1764:	41 2c       	mov	r4, r1
    1766:	51 2c       	mov	r5, r1
    1768:	d5 01       	movw	r26, r10
    176a:	6d 90       	ld	r6, X+
    176c:	5d 01       	movw	r10, r26
    176e:	d7 01       	movw	r26, r14
    1770:	7d 90       	ld	r7, X+
    1772:	7d 01       	movw	r14, r26
    1774:	67 10       	cpse	r6, r7
    1776:	06 c0       	rjmp	.+12     	; 0x1784 <_ZN6Stream9findMultiEPNS_11MultiTargetEi+0x102>
    1778:	bf ef       	ldi	r27, 0xFF	; 255
    177a:	4b 1a       	sub	r4, r27
    177c:	5b 0a       	sbc	r5, r27
    177e:	42 16       	cp	r4, r18
    1780:	53 06       	cpc	r5, r19
    1782:	90 f3       	brcs	.-28     	; 0x1768 <_ZN6Stream9findMultiEPNS_11MultiTargetEi+0xe6>
    1784:	24 15       	cp	r18, r4
    1786:	35 05       	cpc	r19, r5
    1788:	99 f6       	brne	.-90     	; 0x1730 <_ZN6Stream9findMultiEPNS_11MultiTargetEi+0xae>
    178a:	d5 82       	std	Z+5, r13	; 0x05
    178c:	c4 82       	std	Z+4, r12	; 0x04
    178e:	b4 cf       	rjmp	.-152    	; 0x16f8 <_ZN6Stream9findMultiEPNS_11MultiTargetEi+0x76>
    1790:	23 2b       	or	r18, r19
    1792:	71 f6       	brne	.-100    	; 0x1730 <_ZN6Stream9findMultiEPNS_11MultiTargetEi+0xae>
    1794:	b1 cf       	rjmp	.-158    	; 0x16f8 <_ZN6Stream9findMultiEPNS_11MultiTargetEi+0x76>
    1796:	8f ef       	ldi	r24, 0xFF	; 255
    1798:	9f ef       	ldi	r25, 0xFF	; 255
    179a:	df 91       	pop	r29
    179c:	cf 91       	pop	r28
    179e:	1f 91       	pop	r17
    17a0:	0f 91       	pop	r16
    17a2:	ff 90       	pop	r15
    17a4:	ef 90       	pop	r14
    17a6:	df 90       	pop	r13
    17a8:	cf 90       	pop	r12
    17aa:	bf 90       	pop	r11
    17ac:	af 90       	pop	r10
    17ae:	9f 90       	pop	r9
    17b0:	8f 90       	pop	r8
    17b2:	7f 90       	pop	r7
    17b4:	6f 90       	pop	r6
    17b6:	5f 90       	pop	r5
    17b8:	4f 90       	pop	r4
    17ba:	08 95       	ret

000017bc <_ZN6Stream9findUntilEPcjS0_j.part.0.constprop.1>:
    17bc:	cf 93       	push	r28
    17be:	df 93       	push	r29
    17c0:	00 d0       	rcall	.+0      	; 0x17c2 <_ZN6Stream9findUntilEPcjS0_j.part.0.constprop.1+0x6>
    17c2:	00 d0       	rcall	.+0      	; 0x17c4 <_ZN6Stream9findUntilEPcjS0_j.part.0.constprop.1+0x8>
    17c4:	cd b7       	in	r28, 0x3d	; 61
    17c6:	de b7       	in	r29, 0x3e	; 62
    17c8:	fe 01       	movw	r30, r28
    17ca:	31 96       	adiw	r30, 0x01	; 1
    17cc:	26 e0       	ldi	r18, 0x06	; 6
    17ce:	df 01       	movw	r26, r30
    17d0:	1d 92       	st	X+, r1
    17d2:	2a 95       	dec	r18
    17d4:	e9 f7       	brne	.-6      	; 0x17d0 <_ZN6Stream9findUntilEPcjS0_j.part.0.constprop.1+0x14>
    17d6:	7a 83       	std	Y+2, r23	; 0x02
    17d8:	69 83       	std	Y+1, r22	; 0x01
    17da:	5c 83       	std	Y+4, r21	; 0x04
    17dc:	4b 83       	std	Y+3, r20	; 0x03
    17de:	41 e0       	ldi	r20, 0x01	; 1
    17e0:	50 e0       	ldi	r21, 0x00	; 0
    17e2:	bf 01       	movw	r22, r30
    17e4:	0e 94 41 0b 	call	0x1682	; 0x1682 <_ZN6Stream9findMultiEPNS_11MultiTargetEi>
    17e8:	21 e0       	ldi	r18, 0x01	; 1
    17ea:	89 2b       	or	r24, r25
    17ec:	09 f0       	breq	.+2      	; 0x17f0 <_ZN6Stream9findUntilEPcjS0_j.part.0.constprop.1+0x34>
    17ee:	20 e0       	ldi	r18, 0x00	; 0
    17f0:	82 2f       	mov	r24, r18
    17f2:	26 96       	adiw	r28, 0x06	; 6
    17f4:	0f b6       	in	r0, 0x3f	; 63
    17f6:	f8 94       	cli
    17f8:	de bf       	out	0x3e, r29	; 62
    17fa:	0f be       	out	0x3f, r0	; 63
    17fc:	cd bf       	out	0x3d, r28	; 61
    17fe:	df 91       	pop	r29
    1800:	cf 91       	pop	r28
    1802:	08 95       	ret

00001804 <_ZN6Stream4findEPcj>:
    1804:	0c 94 de 0b 	jmp	0x17bc	; 0x17bc <_ZN6Stream9findUntilEPcjS0_j.part.0.constprop.1>

00001808 <_ZN6Stream4findEPc>:
    1808:	fb 01       	movw	r30, r22
    180a:	01 90       	ld	r0, Z+
    180c:	00 20       	and	r0, r0
    180e:	e9 f7       	brne	.-6      	; 0x180a <_ZN6Stream4findEPc+0x2>
    1810:	31 97       	sbiw	r30, 0x01	; 1
    1812:	af 01       	movw	r20, r30
    1814:	46 1b       	sub	r20, r22
    1816:	57 0b       	sbc	r21, r23
    1818:	0c 94 de 0b 	jmp	0x17bc	; 0x17bc <_ZN6Stream9findUntilEPcjS0_j.part.0.constprop.1>

0000181c <_ZN6Stream9findUntilEPcjS0_j>:
    181c:	ff 92       	push	r15
    181e:	0f 93       	push	r16
    1820:	1f 93       	push	r17
    1822:	cf 93       	push	r28
    1824:	df 93       	push	r29
    1826:	cd b7       	in	r28, 0x3d	; 61
    1828:	de b7       	in	r29, 0x3e	; 62
    182a:	2c 97       	sbiw	r28, 0x0c	; 12
    182c:	0f b6       	in	r0, 0x3f	; 63
    182e:	f8 94       	cli
    1830:	de bf       	out	0x3e, r29	; 62
    1832:	0f be       	out	0x3f, r0	; 63
    1834:	cd bf       	out	0x3d, r28	; 61
    1836:	21 15       	cp	r18, r1
    1838:	31 05       	cpc	r19, r1
    183a:	21 f4       	brne	.+8      	; 0x1844 <_ZN6Stream9findUntilEPcjS0_j+0x28>
    183c:	0e 94 de 0b 	call	0x17bc	; 0x17bc <_ZN6Stream9findUntilEPcjS0_j.part.0.constprop.1>
    1840:	28 2f       	mov	r18, r24
    1842:	19 c0       	rjmp	.+50     	; 0x1876 <_ZN6Stream9findUntilEPcjS0_j+0x5a>
    1844:	fe 01       	movw	r30, r28
    1846:	31 96       	adiw	r30, 0x01	; 1
    1848:	ac e0       	ldi	r26, 0x0C	; 12
    184a:	fa 2e       	mov	r15, r26
    184c:	df 01       	movw	r26, r30
    184e:	1d 92       	st	X+, r1
    1850:	fa 94       	dec	r15
    1852:	e9 f7       	brne	.-6      	; 0x184e <_ZN6Stream9findUntilEPcjS0_j+0x32>
    1854:	7a 83       	std	Y+2, r23	; 0x02
    1856:	69 83       	std	Y+1, r22	; 0x01
    1858:	5c 83       	std	Y+4, r21	; 0x04
    185a:	4b 83       	std	Y+3, r20	; 0x03
    185c:	38 87       	std	Y+8, r19	; 0x08
    185e:	2f 83       	std	Y+7, r18	; 0x07
    1860:	1a 87       	std	Y+10, r17	; 0x0a
    1862:	09 87       	std	Y+9, r16	; 0x09
    1864:	42 e0       	ldi	r20, 0x02	; 2
    1866:	50 e0       	ldi	r21, 0x00	; 0
    1868:	bf 01       	movw	r22, r30
    186a:	0e 94 41 0b 	call	0x1682	; 0x1682 <_ZN6Stream9findMultiEPNS_11MultiTargetEi>
    186e:	21 e0       	ldi	r18, 0x01	; 1
    1870:	89 2b       	or	r24, r25
    1872:	09 f0       	breq	.+2      	; 0x1876 <_ZN6Stream9findUntilEPcjS0_j+0x5a>
    1874:	20 e0       	ldi	r18, 0x00	; 0
    1876:	82 2f       	mov	r24, r18
    1878:	2c 96       	adiw	r28, 0x0c	; 12
    187a:	0f b6       	in	r0, 0x3f	; 63
    187c:	f8 94       	cli
    187e:	de bf       	out	0x3e, r29	; 62
    1880:	0f be       	out	0x3f, r0	; 63
    1882:	cd bf       	out	0x3d, r28	; 61
    1884:	df 91       	pop	r29
    1886:	cf 91       	pop	r28
    1888:	1f 91       	pop	r17
    188a:	0f 91       	pop	r16
    188c:	ff 90       	pop	r15
    188e:	08 95       	ret

00001890 <_ZN6Stream9findUntilEPcS0_>:
    1890:	0f 93       	push	r16
    1892:	1f 93       	push	r17
    1894:	9a 01       	movw	r18, r20
    1896:	fa 01       	movw	r30, r20
    1898:	01 90       	ld	r0, Z+
    189a:	00 20       	and	r0, r0
    189c:	e9 f7       	brne	.-6      	; 0x1898 <_ZN6Stream9findUntilEPcS0_+0x8>
    189e:	31 97       	sbiw	r30, 0x01	; 1
    18a0:	8f 01       	movw	r16, r30
    18a2:	04 1b       	sub	r16, r20
    18a4:	15 0b       	sbc	r17, r21
    18a6:	fb 01       	movw	r30, r22
    18a8:	01 90       	ld	r0, Z+
    18aa:	00 20       	and	r0, r0
    18ac:	e9 f7       	brne	.-6      	; 0x18a8 <_ZN6Stream9findUntilEPcS0_+0x18>
    18ae:	31 97       	sbiw	r30, 0x01	; 1
    18b0:	af 01       	movw	r20, r30
    18b2:	46 1b       	sub	r20, r22
    18b4:	57 0b       	sbc	r21, r23
    18b6:	0e 94 0e 0c 	call	0x181c	; 0x181c <_ZN6Stream9findUntilEPcjS0_j>
    18ba:	1f 91       	pop	r17
    18bc:	0f 91       	pop	r16
    18be:	08 95       	ret

000018c0 <_Z4tonehjm>:
    18c0:	4f 92       	push	r4
    18c2:	5f 92       	push	r5
    18c4:	6f 92       	push	r6
    18c6:	7f 92       	push	r7
    18c8:	8f 92       	push	r8
    18ca:	9f 92       	push	r9
    18cc:	af 92       	push	r10
    18ce:	bf 92       	push	r11
    18d0:	cf 92       	push	r12
    18d2:	df 92       	push	r13
    18d4:	ef 92       	push	r14
    18d6:	ff 92       	push	r15
    18d8:	0f 93       	push	r16
    18da:	1f 93       	push	r17
    18dc:	cf 93       	push	r28
    18de:	df 93       	push	r29
    18e0:	00 d0       	rcall	.+0      	; 0x18e2 <_Z4tonehjm+0x22>
    18e2:	1f 92       	push	r1
    18e4:	1f 92       	push	r1
    18e6:	cd b7       	in	r28, 0x3d	; 61
    18e8:	de b7       	in	r29, 0x3e	; 62
    18ea:	8b 01       	movw	r16, r22
    18ec:	29 01       	movw	r4, r18
    18ee:	3a 01       	movw	r6, r20
    18f0:	90 91 00 02 	lds	r25, 0x0200	; 0x800200 <__data_start>
    18f4:	89 17       	cp	r24, r25
    18f6:	21 f0       	breq	.+8      	; 0x1900 <_Z4tonehjm+0x40>
    18f8:	9f 3f       	cpi	r25, 0xFF	; 255
    18fa:	09 f0       	breq	.+2      	; 0x18fe <_Z4tonehjm+0x3e>
    18fc:	46 c3       	rjmp	.+1676   	; 0x1f8a <_Z4tonehjm+0x6ca>
    18fe:	05 c0       	rjmp	.+10     	; 0x190a <_Z4tonehjm+0x4a>
    1900:	e1 e9       	ldi	r30, 0x91	; 145
    1902:	f3 e0       	ldi	r31, 0x03	; 3
    1904:	24 91       	lpm	r18, Z
    1906:	2d 83       	std	Y+5, r18	; 0x05
    1908:	03 c1       	rjmp	.+518    	; 0x1b10 <_Z4tonehjm+0x250>
    190a:	80 93 00 02 	sts	0x0200, r24	; 0x800200 <__data_start>
    190e:	e1 e9       	ldi	r30, 0x91	; 145
    1910:	f3 e0       	ldi	r31, 0x03	; 3
    1912:	94 91       	lpm	r25, Z
    1914:	9d 83       	std	Y+5, r25	; 0x05
    1916:	9f 3f       	cpi	r25, 0xFF	; 255
    1918:	09 f4       	brne	.+2      	; 0x191c <_Z4tonehjm+0x5c>
    191a:	37 c3       	rjmp	.+1646   	; 0x1f8a <_Z4tonehjm+0x6ca>
    191c:	92 30       	cpi	r25, 0x02	; 2
    191e:	09 f4       	brne	.+2      	; 0x1922 <_Z4tonehjm+0x62>
    1920:	7f c0       	rjmp	.+254    	; 0x1a20 <_Z4tonehjm+0x160>
    1922:	68 f5       	brcc	.+90     	; 0x197e <_Z4tonehjm+0xbe>
    1924:	99 23       	and	r25, r25
    1926:	09 f4       	brne	.+2      	; 0x192a <_Z4tonehjm+0x6a>
    1928:	5a c0       	rjmp	.+180    	; 0x19de <_Z4tonehjm+0x11e>
    192a:	91 30       	cpi	r25, 0x01	; 1
    192c:	09 f0       	breq	.+2      	; 0x1930 <_Z4tonehjm+0x70>
    192e:	f0 c0       	rjmp	.+480    	; 0x1b10 <_Z4tonehjm+0x250>
    1930:	10 92 80 00 	sts	0x0080, r1	; 0x800080 <__TEXT_REGION_LENGTH__+0x700080>
    1934:	10 92 81 00 	sts	0x0081, r1	; 0x800081 <__TEXT_REGION_LENGTH__+0x700081>
    1938:	90 91 81 00 	lds	r25, 0x0081	; 0x800081 <__TEXT_REGION_LENGTH__+0x700081>
    193c:	98 60       	ori	r25, 0x08	; 8
    193e:	90 93 81 00 	sts	0x0081, r25	; 0x800081 <__TEXT_REGION_LENGTH__+0x700081>
    1942:	90 91 81 00 	lds	r25, 0x0081	; 0x800081 <__TEXT_REGION_LENGTH__+0x700081>
    1946:	91 60       	ori	r25, 0x01	; 1
    1948:	90 93 81 00 	sts	0x0081, r25	; 0x800081 <__TEXT_REGION_LENGTH__+0x700081>
    194c:	28 2f       	mov	r18, r24
    194e:	30 e0       	ldi	r19, 0x00	; 0
    1950:	f9 01       	movw	r30, r18
    1952:	e6 54       	subi	r30, 0x46	; 70
    1954:	fc 4f       	sbci	r31, 0xFC	; 252
    1956:	e4 91       	lpm	r30, Z
    1958:	f0 e0       	ldi	r31, 0x00	; 0
    195a:	ee 0f       	add	r30, r30
    195c:	ff 1f       	adc	r31, r31
    195e:	e8 52       	subi	r30, 0x28	; 40
    1960:	fc 4f       	sbci	r31, 0xFC	; 252
    1962:	45 91       	lpm	r20, Z+
    1964:	54 91       	lpm	r21, Z
    1966:	50 93 e6 04 	sts	0x04E6, r21	; 0x8004e6 <timer1_pin_port+0x1>
    196a:	40 93 e5 04 	sts	0x04E5, r20	; 0x8004e5 <timer1_pin_port>
    196e:	f9 01       	movw	r30, r18
    1970:	ea 55       	subi	r30, 0x5A	; 90
    1972:	fc 4f       	sbci	r31, 0xFC	; 252
    1974:	e4 91       	lpm	r30, Z
    1976:	e0 93 e4 04 	sts	0x04E4, r30	; 0x8004e4 <timer1_pin_mask>
    197a:	91 e0       	ldi	r25, 0x01	; 1
    197c:	9f c0       	rjmp	.+318    	; 0x1abc <_Z4tonehjm+0x1fc>
    197e:	2d 81       	ldd	r18, Y+5	; 0x05
    1980:	24 30       	cpi	r18, 0x04	; 4
    1982:	09 f4       	brne	.+2      	; 0x1986 <_Z4tonehjm+0xc6>
    1984:	9d c0       	rjmp	.+314    	; 0x1ac0 <_Z4tonehjm+0x200>
    1986:	08 f4       	brcc	.+2      	; 0x198a <_Z4tonehjm+0xca>
    1988:	73 c0       	rjmp	.+230    	; 0x1a70 <_Z4tonehjm+0x1b0>
    198a:	25 30       	cpi	r18, 0x05	; 5
    198c:	09 f0       	breq	.+2      	; 0x1990 <_Z4tonehjm+0xd0>
    198e:	c0 c0       	rjmp	.+384    	; 0x1b10 <_Z4tonehjm+0x250>
    1990:	10 92 20 01 	sts	0x0120, r1	; 0x800120 <__TEXT_REGION_LENGTH__+0x700120>
    1994:	10 92 21 01 	sts	0x0121, r1	; 0x800121 <__TEXT_REGION_LENGTH__+0x700121>
    1998:	90 91 21 01 	lds	r25, 0x0121	; 0x800121 <__TEXT_REGION_LENGTH__+0x700121>
    199c:	98 60       	ori	r25, 0x08	; 8
    199e:	90 93 21 01 	sts	0x0121, r25	; 0x800121 <__TEXT_REGION_LENGTH__+0x700121>
    19a2:	90 91 21 01 	lds	r25, 0x0121	; 0x800121 <__TEXT_REGION_LENGTH__+0x700121>
    19a6:	91 60       	ori	r25, 0x01	; 1
    19a8:	90 93 21 01 	sts	0x0121, r25	; 0x800121 <__TEXT_REGION_LENGTH__+0x700121>
    19ac:	28 2f       	mov	r18, r24
    19ae:	30 e0       	ldi	r19, 0x00	; 0
    19b0:	f9 01       	movw	r30, r18
    19b2:	e6 54       	subi	r30, 0x46	; 70
    19b4:	fc 4f       	sbci	r31, 0xFC	; 252
    19b6:	e4 91       	lpm	r30, Z
    19b8:	f0 e0       	ldi	r31, 0x00	; 0
    19ba:	ee 0f       	add	r30, r30
    19bc:	ff 1f       	adc	r31, r31
    19be:	e8 52       	subi	r30, 0x28	; 40
    19c0:	fc 4f       	sbci	r31, 0xFC	; 252
    19c2:	45 91       	lpm	r20, Z+
    19c4:	54 91       	lpm	r21, Z
    19c6:	50 93 ca 04 	sts	0x04CA, r21	; 0x8004ca <timer5_pin_port+0x1>
    19ca:	40 93 c9 04 	sts	0x04C9, r20	; 0x8004c9 <timer5_pin_port>
    19ce:	f9 01       	movw	r30, r18
    19d0:	ea 55       	subi	r30, 0x5A	; 90
    19d2:	fc 4f       	sbci	r31, 0xFC	; 252
    19d4:	e4 91       	lpm	r30, Z
    19d6:	e0 93 c8 04 	sts	0x04C8, r30	; 0x8004c8 <timer5_pin_mask>
    19da:	95 e0       	ldi	r25, 0x05	; 5
    19dc:	6f c0       	rjmp	.+222    	; 0x1abc <_Z4tonehjm+0x1fc>
    19de:	14 bc       	out	0x24, r1	; 36
    19e0:	15 bc       	out	0x25, r1	; 37
    19e2:	94 b5       	in	r25, 0x24	; 36
    19e4:	92 60       	ori	r25, 0x02	; 2
    19e6:	94 bd       	out	0x24, r25	; 36
    19e8:	95 b5       	in	r25, 0x25	; 37
    19ea:	91 60       	ori	r25, 0x01	; 1
    19ec:	95 bd       	out	0x25, r25	; 37
    19ee:	28 2f       	mov	r18, r24
    19f0:	30 e0       	ldi	r19, 0x00	; 0
    19f2:	f9 01       	movw	r30, r18
    19f4:	e6 54       	subi	r30, 0x46	; 70
    19f6:	fc 4f       	sbci	r31, 0xFC	; 252
    19f8:	e4 91       	lpm	r30, Z
    19fa:	f0 e0       	ldi	r31, 0x00	; 0
    19fc:	ee 0f       	add	r30, r30
    19fe:	ff 1f       	adc	r31, r31
    1a00:	e8 52       	subi	r30, 0x28	; 40
    1a02:	fc 4f       	sbci	r31, 0xFC	; 252
    1a04:	45 91       	lpm	r20, Z+
    1a06:	54 91       	lpm	r21, Z
    1a08:	50 93 ed 04 	sts	0x04ED, r21	; 0x8004ed <timer0_pin_port+0x1>
    1a0c:	40 93 ec 04 	sts	0x04EC, r20	; 0x8004ec <timer0_pin_port>
    1a10:	f9 01       	movw	r30, r18
    1a12:	ea 55       	subi	r30, 0x5A	; 90
    1a14:	fc 4f       	sbci	r31, 0xFC	; 252
    1a16:	e4 91       	lpm	r30, Z
    1a18:	e0 93 eb 04 	sts	0x04EB, r30	; 0x8004eb <timer0_pin_mask>
    1a1c:	1d 82       	std	Y+5, r1	; 0x05
    1a1e:	b1 c2       	rjmp	.+1378   	; 0x1f82 <_Z4tonehjm+0x6c2>
    1a20:	10 92 b0 00 	sts	0x00B0, r1	; 0x8000b0 <__TEXT_REGION_LENGTH__+0x7000b0>
    1a24:	10 92 b1 00 	sts	0x00B1, r1	; 0x8000b1 <__TEXT_REGION_LENGTH__+0x7000b1>
    1a28:	90 91 b0 00 	lds	r25, 0x00B0	; 0x8000b0 <__TEXT_REGION_LENGTH__+0x7000b0>
    1a2c:	92 60       	ori	r25, 0x02	; 2
    1a2e:	90 93 b0 00 	sts	0x00B0, r25	; 0x8000b0 <__TEXT_REGION_LENGTH__+0x7000b0>
    1a32:	90 91 b1 00 	lds	r25, 0x00B1	; 0x8000b1 <__TEXT_REGION_LENGTH__+0x7000b1>
    1a36:	91 60       	ori	r25, 0x01	; 1
    1a38:	90 93 b1 00 	sts	0x00B1, r25	; 0x8000b1 <__TEXT_REGION_LENGTH__+0x7000b1>
    1a3c:	28 2f       	mov	r18, r24
    1a3e:	30 e0       	ldi	r19, 0x00	; 0
    1a40:	f9 01       	movw	r30, r18
    1a42:	e6 54       	subi	r30, 0x46	; 70
    1a44:	fc 4f       	sbci	r31, 0xFC	; 252
    1a46:	e4 91       	lpm	r30, Z
    1a48:	f0 e0       	ldi	r31, 0x00	; 0
    1a4a:	ee 0f       	add	r30, r30
    1a4c:	ff 1f       	adc	r31, r31
    1a4e:	e8 52       	subi	r30, 0x28	; 40
    1a50:	fc 4f       	sbci	r31, 0xFC	; 252
    1a52:	45 91       	lpm	r20, Z+
    1a54:	54 91       	lpm	r21, Z
    1a56:	50 93 df 04 	sts	0x04DF, r21	; 0x8004df <timer2_pin_port+0x1>
    1a5a:	40 93 de 04 	sts	0x04DE, r20	; 0x8004de <timer2_pin_port>
    1a5e:	f9 01       	movw	r30, r18
    1a60:	ea 55       	subi	r30, 0x5A	; 90
    1a62:	fc 4f       	sbci	r31, 0xFC	; 252
    1a64:	e4 91       	lpm	r30, Z
    1a66:	e0 93 dd 04 	sts	0x04DD, r30	; 0x8004dd <timer2_pin_mask>
    1a6a:	22 e0       	ldi	r18, 0x02	; 2
    1a6c:	2d 83       	std	Y+5, r18	; 0x05
    1a6e:	89 c2       	rjmp	.+1298   	; 0x1f82 <_Z4tonehjm+0x6c2>
    1a70:	10 92 90 00 	sts	0x0090, r1	; 0x800090 <__TEXT_REGION_LENGTH__+0x700090>
    1a74:	10 92 91 00 	sts	0x0091, r1	; 0x800091 <__TEXT_REGION_LENGTH__+0x700091>
    1a78:	90 91 91 00 	lds	r25, 0x0091	; 0x800091 <__TEXT_REGION_LENGTH__+0x700091>
    1a7c:	98 60       	ori	r25, 0x08	; 8
    1a7e:	90 93 91 00 	sts	0x0091, r25	; 0x800091 <__TEXT_REGION_LENGTH__+0x700091>
    1a82:	90 91 91 00 	lds	r25, 0x0091	; 0x800091 <__TEXT_REGION_LENGTH__+0x700091>
    1a86:	91 60       	ori	r25, 0x01	; 1
    1a88:	90 93 91 00 	sts	0x0091, r25	; 0x800091 <__TEXT_REGION_LENGTH__+0x700091>
    1a8c:	28 2f       	mov	r18, r24
    1a8e:	30 e0       	ldi	r19, 0x00	; 0
    1a90:	f9 01       	movw	r30, r18
    1a92:	e6 54       	subi	r30, 0x46	; 70
    1a94:	fc 4f       	sbci	r31, 0xFC	; 252
    1a96:	e4 91       	lpm	r30, Z
    1a98:	f0 e0       	ldi	r31, 0x00	; 0
    1a9a:	ee 0f       	add	r30, r30
    1a9c:	ff 1f       	adc	r31, r31
    1a9e:	e8 52       	subi	r30, 0x28	; 40
    1aa0:	fc 4f       	sbci	r31, 0xFC	; 252
    1aa2:	45 91       	lpm	r20, Z+
    1aa4:	54 91       	lpm	r21, Z
    1aa6:	50 93 d8 04 	sts	0x04D8, r21	; 0x8004d8 <timer3_pin_port+0x1>
    1aaa:	40 93 d7 04 	sts	0x04D7, r20	; 0x8004d7 <timer3_pin_port>
    1aae:	f9 01       	movw	r30, r18
    1ab0:	ea 55       	subi	r30, 0x5A	; 90
    1ab2:	fc 4f       	sbci	r31, 0xFC	; 252
    1ab4:	e4 91       	lpm	r30, Z
    1ab6:	e0 93 d6 04 	sts	0x04D6, r30	; 0x8004d6 <timer3_pin_mask>
    1aba:	93 e0       	ldi	r25, 0x03	; 3
    1abc:	9d 83       	std	Y+5, r25	; 0x05
    1abe:	b1 c0       	rjmp	.+354    	; 0x1c22 <_Z4tonehjm+0x362>
    1ac0:	10 92 a0 00 	sts	0x00A0, r1	; 0x8000a0 <__TEXT_REGION_LENGTH__+0x7000a0>
    1ac4:	10 92 a1 00 	sts	0x00A1, r1	; 0x8000a1 <__TEXT_REGION_LENGTH__+0x7000a1>
    1ac8:	90 91 a1 00 	lds	r25, 0x00A1	; 0x8000a1 <__TEXT_REGION_LENGTH__+0x7000a1>
    1acc:	98 60       	ori	r25, 0x08	; 8
    1ace:	90 93 a1 00 	sts	0x00A1, r25	; 0x8000a1 <__TEXT_REGION_LENGTH__+0x7000a1>
    1ad2:	90 91 a1 00 	lds	r25, 0x00A1	; 0x8000a1 <__TEXT_REGION_LENGTH__+0x7000a1>
    1ad6:	91 60       	ori	r25, 0x01	; 1
    1ad8:	90 93 a1 00 	sts	0x00A1, r25	; 0x8000a1 <__TEXT_REGION_LENGTH__+0x7000a1>
    1adc:	28 2f       	mov	r18, r24
    1ade:	30 e0       	ldi	r19, 0x00	; 0
    1ae0:	f9 01       	movw	r30, r18
    1ae2:	e6 54       	subi	r30, 0x46	; 70
    1ae4:	fc 4f       	sbci	r31, 0xFC	; 252
    1ae6:	e4 91       	lpm	r30, Z
    1ae8:	f0 e0       	ldi	r31, 0x00	; 0
    1aea:	ee 0f       	add	r30, r30
    1aec:	ff 1f       	adc	r31, r31
    1aee:	e8 52       	subi	r30, 0x28	; 40
    1af0:	fc 4f       	sbci	r31, 0xFC	; 252
    1af2:	45 91       	lpm	r20, Z+
    1af4:	54 91       	lpm	r21, Z
    1af6:	50 93 d1 04 	sts	0x04D1, r21	; 0x8004d1 <timer4_pin_port+0x1>
    1afa:	40 93 d0 04 	sts	0x04D0, r20	; 0x8004d0 <timer4_pin_port>
    1afe:	f9 01       	movw	r30, r18
    1b00:	ea 55       	subi	r30, 0x5A	; 90
    1b02:	fc 4f       	sbci	r31, 0xFC	; 252
    1b04:	e4 91       	lpm	r30, Z
    1b06:	e0 93 cf 04 	sts	0x04CF, r30	; 0x8004cf <timer4_pin_mask>
    1b0a:	24 e0       	ldi	r18, 0x04	; 4
    1b0c:	2d 83       	std	Y+5, r18	; 0x05
    1b0e:	89 c0       	rjmp	.+274    	; 0x1c22 <_Z4tonehjm+0x362>
    1b10:	2d 81       	ldd	r18, Y+5	; 0x05
    1b12:	27 fd       	sbrc	r18, 7
    1b14:	3a c2       	rjmp	.+1140   	; 0x1f8a <_Z4tonehjm+0x6ca>
    1b16:	61 e0       	ldi	r22, 0x01	; 1
    1b18:	0e 94 ec 14 	call	0x29d8	; 0x29d8 <pinMode>
    1b1c:	8d 81       	ldd	r24, Y+5	; 0x05
    1b1e:	8d 7f       	andi	r24, 0xFD	; 253
    1b20:	09 f0       	breq	.+2      	; 0x1b24 <_Z4tonehjm+0x264>
    1b22:	82 c0       	rjmp	.+260    	; 0x1c28 <_Z4tonehjm+0x368>
    1b24:	48 01       	movw	r8, r16
    1b26:	a1 2c       	mov	r10, r1
    1b28:	b1 2c       	mov	r11, r1
    1b2a:	60 e0       	ldi	r22, 0x00	; 0
    1b2c:	72 e1       	ldi	r23, 0x12	; 18
    1b2e:	8a e7       	ldi	r24, 0x7A	; 122
    1b30:	90 e0       	ldi	r25, 0x00	; 0
    1b32:	a5 01       	movw	r20, r10
    1b34:	94 01       	movw	r18, r8
    1b36:	0e 94 e4 21 	call	0x43c8	; 0x43c8 <__udivmodsi4>
    1b3a:	29 83       	std	Y+1, r18	; 0x01
    1b3c:	3a 83       	std	Y+2, r19	; 0x02
    1b3e:	4b 83       	std	Y+3, r20	; 0x03
    1b40:	5c 83       	std	Y+4, r21	; 0x04
    1b42:	69 01       	movw	r12, r18
    1b44:	7a 01       	movw	r14, r20
    1b46:	81 e0       	ldi	r24, 0x01	; 1
    1b48:	c8 1a       	sub	r12, r24
    1b4a:	d1 08       	sbc	r13, r1
    1b4c:	e1 08       	sbc	r14, r1
    1b4e:	f1 08       	sbc	r15, r1
    1b50:	9f ef       	ldi	r25, 0xFF	; 255
    1b52:	c9 16       	cp	r12, r25
    1b54:	d1 04       	cpc	r13, r1
    1b56:	e1 04       	cpc	r14, r1
    1b58:	f1 04       	cpc	r15, r1
    1b5a:	09 f0       	breq	.+2      	; 0x1b5e <_Z4tonehjm+0x29e>
    1b5c:	08 f4       	brcc	.+2      	; 0x1b60 <_Z4tonehjm+0x2a0>
    1b5e:	4e c0       	rjmp	.+156    	; 0x1bfc <_Z4tonehjm+0x33c>
    1b60:	60 e4       	ldi	r22, 0x40	; 64
    1b62:	72 e4       	ldi	r23, 0x42	; 66
    1b64:	8f e0       	ldi	r24, 0x0F	; 15
    1b66:	90 e0       	ldi	r25, 0x00	; 0
    1b68:	a5 01       	movw	r20, r10
    1b6a:	94 01       	movw	r18, r8
    1b6c:	0e 94 e4 21 	call	0x43c8	; 0x43c8 <__udivmodsi4>
    1b70:	69 01       	movw	r12, r18
    1b72:	7a 01       	movw	r14, r20
    1b74:	81 e0       	ldi	r24, 0x01	; 1
    1b76:	c8 1a       	sub	r12, r24
    1b78:	d1 08       	sbc	r13, r1
    1b7a:	e1 08       	sbc	r14, r1
    1b7c:	f1 08       	sbc	r15, r1
    1b7e:	9d 81       	ldd	r25, Y+5	; 0x05
    1b80:	92 30       	cpi	r25, 0x02	; 2
    1b82:	09 f5       	brne	.+66     	; 0x1bc6 <_Z4tonehjm+0x306>
    1b84:	2f ef       	ldi	r18, 0xFF	; 255
    1b86:	c2 16       	cp	r12, r18
    1b88:	d1 04       	cpc	r13, r1
    1b8a:	e1 04       	cpc	r14, r1
    1b8c:	f1 04       	cpc	r15, r1
    1b8e:	09 f0       	breq	.+2      	; 0x1b92 <_Z4tonehjm+0x2d2>
    1b90:	08 f4       	brcc	.+2      	; 0x1b94 <_Z4tonehjm+0x2d4>
    1b92:	be c1       	rjmp	.+892    	; 0x1f10 <_Z4tonehjm+0x650>
    1b94:	60 e9       	ldi	r22, 0x90	; 144
    1b96:	70 ed       	ldi	r23, 0xD0	; 208
    1b98:	83 e0       	ldi	r24, 0x03	; 3
    1b9a:	90 e0       	ldi	r25, 0x00	; 0
    1b9c:	a5 01       	movw	r20, r10
    1b9e:	94 01       	movw	r18, r8
    1ba0:	0e 94 e4 21 	call	0x43c8	; 0x43c8 <__udivmodsi4>
    1ba4:	69 01       	movw	r12, r18
    1ba6:	7a 01       	movw	r14, r20
    1ba8:	81 e0       	ldi	r24, 0x01	; 1
    1baa:	c8 1a       	sub	r12, r24
    1bac:	d1 08       	sbc	r13, r1
    1bae:	e1 08       	sbc	r14, r1
    1bb0:	f1 08       	sbc	r15, r1
    1bb2:	9f ef       	ldi	r25, 0xFF	; 255
    1bb4:	c9 16       	cp	r12, r25
    1bb6:	d1 04       	cpc	r13, r1
    1bb8:	e1 04       	cpc	r14, r1
    1bba:	f1 04       	cpc	r15, r1
    1bbc:	11 f0       	breq	.+4      	; 0x1bc2 <_Z4tonehjm+0x302>
    1bbe:	08 f0       	brcs	.+2      	; 0x1bc2 <_Z4tonehjm+0x302>
    1bc0:	35 c1       	rjmp	.+618    	; 0x1e2c <_Z4tonehjm+0x56c>
    1bc2:	83 e0       	ldi	r24, 0x03	; 3
    1bc4:	27 c0       	rjmp	.+78     	; 0x1c14 <_Z4tonehjm+0x354>
    1bc6:	2f ef       	ldi	r18, 0xFF	; 255
    1bc8:	c2 16       	cp	r12, r18
    1bca:	d1 04       	cpc	r13, r1
    1bcc:	e1 04       	cpc	r14, r1
    1bce:	f1 04       	cpc	r15, r1
    1bd0:	b9 f0       	breq	.+46     	; 0x1c00 <_Z4tonehjm+0x340>
    1bd2:	b0 f0       	brcs	.+44     	; 0x1c00 <_Z4tonehjm+0x340>
    1bd4:	68 e4       	ldi	r22, 0x48	; 72
    1bd6:	78 ee       	ldi	r23, 0xE8	; 232
    1bd8:	81 e0       	ldi	r24, 0x01	; 1
    1bda:	90 e0       	ldi	r25, 0x00	; 0
    1bdc:	a5 01       	movw	r20, r10
    1bde:	94 01       	movw	r18, r8
    1be0:	0e 94 e4 21 	call	0x43c8	; 0x43c8 <__udivmodsi4>
    1be4:	69 01       	movw	r12, r18
    1be6:	7a 01       	movw	r14, r20
    1be8:	81 e0       	ldi	r24, 0x01	; 1
    1bea:	c8 1a       	sub	r12, r24
    1bec:	d1 08       	sbc	r13, r1
    1bee:	e1 08       	sbc	r14, r1
    1bf0:	f1 08       	sbc	r15, r1
    1bf2:	9d 81       	ldd	r25, Y+5	; 0x05
    1bf4:	99 23       	and	r25, r25
    1bf6:	09 f4       	brne	.+2      	; 0x1bfa <_Z4tonehjm+0x33a>
    1bf8:	8f c1       	rjmp	.+798    	; 0x1f18 <_Z4tonehjm+0x658>
    1bfa:	57 c1       	rjmp	.+686    	; 0x1eaa <_Z4tonehjm+0x5ea>
    1bfc:	81 e0       	ldi	r24, 0x01	; 1
    1bfe:	01 c0       	rjmp	.+2      	; 0x1c02 <_Z4tonehjm+0x342>
    1c00:	82 e0       	ldi	r24, 0x02	; 2
    1c02:	9d 81       	ldd	r25, Y+5	; 0x05
    1c04:	91 11       	cpse	r25, r1
    1c06:	06 c0       	rjmp	.+12     	; 0x1c14 <_Z4tonehjm+0x354>
    1c08:	95 b5       	in	r25, 0x25	; 37
    1c0a:	98 7f       	andi	r25, 0xF8	; 248
    1c0c:	89 2b       	or	r24, r25
    1c0e:	85 bd       	out	0x25, r24	; 37
    1c10:	7e c0       	rjmp	.+252    	; 0x1d0e <_Z4tonehjm+0x44e>
    1c12:	85 e0       	ldi	r24, 0x05	; 5
    1c14:	90 91 b1 00 	lds	r25, 0x00B1	; 0x8000b1 <__TEXT_REGION_LENGTH__+0x7000b1>
    1c18:	98 7f       	andi	r25, 0xF8	; 248
    1c1a:	89 2b       	or	r24, r25
    1c1c:	80 93 b1 00 	sts	0x00B1, r24	; 0x8000b1 <__TEXT_REGION_LENGTH__+0x7000b1>
    1c20:	76 c0       	rjmp	.+236    	; 0x1d0e <_Z4tonehjm+0x44e>
    1c22:	61 e0       	ldi	r22, 0x01	; 1
    1c24:	0e 94 ec 14 	call	0x29d8	; 0x29d8 <pinMode>
    1c28:	48 01       	movw	r8, r16
    1c2a:	a1 2c       	mov	r10, r1
    1c2c:	b1 2c       	mov	r11, r1
    1c2e:	60 e0       	ldi	r22, 0x00	; 0
    1c30:	72 e1       	ldi	r23, 0x12	; 18
    1c32:	8a e7       	ldi	r24, 0x7A	; 122
    1c34:	90 e0       	ldi	r25, 0x00	; 0
    1c36:	a5 01       	movw	r20, r10
    1c38:	94 01       	movw	r18, r8
    1c3a:	0e 94 e4 21 	call	0x43c8	; 0x43c8 <__udivmodsi4>
    1c3e:	69 01       	movw	r12, r18
    1c40:	7a 01       	movw	r14, r20
    1c42:	81 e0       	ldi	r24, 0x01	; 1
    1c44:	c8 1a       	sub	r12, r24
    1c46:	d1 08       	sbc	r13, r1
    1c48:	e1 08       	sbc	r14, r1
    1c4a:	f1 08       	sbc	r15, r1
    1c4c:	c1 14       	cp	r12, r1
    1c4e:	d1 04       	cpc	r13, r1
    1c50:	91 e0       	ldi	r25, 0x01	; 1
    1c52:	e9 06       	cpc	r14, r25
    1c54:	f1 04       	cpc	r15, r1
    1c56:	88 f0       	brcs	.+34     	; 0x1c7a <_Z4tonehjm+0x3ba>
    1c58:	68 e4       	ldi	r22, 0x48	; 72
    1c5a:	78 ee       	ldi	r23, 0xE8	; 232
    1c5c:	81 e0       	ldi	r24, 0x01	; 1
    1c5e:	90 e0       	ldi	r25, 0x00	; 0
    1c60:	a5 01       	movw	r20, r10
    1c62:	94 01       	movw	r18, r8
    1c64:	0e 94 e4 21 	call	0x43c8	; 0x43c8 <__udivmodsi4>
    1c68:	69 01       	movw	r12, r18
    1c6a:	7a 01       	movw	r14, r20
    1c6c:	81 e0       	ldi	r24, 0x01	; 1
    1c6e:	c8 1a       	sub	r12, r24
    1c70:	d1 08       	sbc	r13, r1
    1c72:	e1 08       	sbc	r14, r1
    1c74:	f1 08       	sbc	r15, r1
    1c76:	83 e0       	ldi	r24, 0x03	; 3
    1c78:	01 c0       	rjmp	.+2      	; 0x1c7c <_Z4tonehjm+0x3bc>
    1c7a:	81 e0       	ldi	r24, 0x01	; 1
    1c7c:	9d 81       	ldd	r25, Y+5	; 0x05
    1c7e:	91 30       	cpi	r25, 0x01	; 1
    1c80:	81 f4       	brne	.+32     	; 0x1ca2 <_Z4tonehjm+0x3e2>
    1c82:	90 91 81 00 	lds	r25, 0x0081	; 0x800081 <__TEXT_REGION_LENGTH__+0x700081>
    1c86:	98 7f       	andi	r25, 0xF8	; 248
    1c88:	89 2b       	or	r24, r25
    1c8a:	80 93 81 00 	sts	0x0081, r24	; 0x800081 <__TEXT_REGION_LENGTH__+0x700081>
    1c8e:	41 14       	cp	r4, r1
    1c90:	51 04       	cpc	r5, r1
    1c92:	61 04       	cpc	r6, r1
    1c94:	71 04       	cpc	r7, r1
    1c96:	09 f0       	breq	.+2      	; 0x1c9a <_Z4tonehjm+0x3da>
    1c98:	3f c0       	rjmp	.+126    	; 0x1d18 <_Z4tonehjm+0x458>
    1c9a:	2f ef       	ldi	r18, 0xFF	; 255
    1c9c:	3f ef       	ldi	r19, 0xFF	; 255
    1c9e:	a9 01       	movw	r20, r18
    1ca0:	6d c0       	rjmp	.+218    	; 0x1d7c <_Z4tonehjm+0x4bc>
    1ca2:	2d 81       	ldd	r18, Y+5	; 0x05
    1ca4:	23 30       	cpi	r18, 0x03	; 3
    1ca6:	79 f4       	brne	.+30     	; 0x1cc6 <_Z4tonehjm+0x406>
    1ca8:	90 91 91 00 	lds	r25, 0x0091	; 0x800091 <__TEXT_REGION_LENGTH__+0x700091>
    1cac:	98 7f       	andi	r25, 0xF8	; 248
    1cae:	89 2b       	or	r24, r25
    1cb0:	80 93 91 00 	sts	0x0091, r24	; 0x800091 <__TEXT_REGION_LENGTH__+0x700091>
    1cb4:	41 14       	cp	r4, r1
    1cb6:	51 04       	cpc	r5, r1
    1cb8:	61 04       	cpc	r6, r1
    1cba:	71 04       	cpc	r7, r1
    1cbc:	69 f5       	brne	.+90     	; 0x1d18 <_Z4tonehjm+0x458>
    1cbe:	2f ef       	ldi	r18, 0xFF	; 255
    1cc0:	3f ef       	ldi	r19, 0xFF	; 255
    1cc2:	a9 01       	movw	r20, r18
    1cc4:	7d c0       	rjmp	.+250    	; 0x1dc0 <_Z4tonehjm+0x500>
    1cc6:	9d 81       	ldd	r25, Y+5	; 0x05
    1cc8:	94 30       	cpi	r25, 0x04	; 4
    1cca:	79 f4       	brne	.+30     	; 0x1cea <_Z4tonehjm+0x42a>
    1ccc:	90 91 a1 00 	lds	r25, 0x00A1	; 0x8000a1 <__TEXT_REGION_LENGTH__+0x7000a1>
    1cd0:	98 7f       	andi	r25, 0xF8	; 248
    1cd2:	89 2b       	or	r24, r25
    1cd4:	80 93 a1 00 	sts	0x00A1, r24	; 0x8000a1 <__TEXT_REGION_LENGTH__+0x7000a1>
    1cd8:	41 14       	cp	r4, r1
    1cda:	51 04       	cpc	r5, r1
    1cdc:	61 04       	cpc	r6, r1
    1cde:	71 04       	cpc	r7, r1
    1ce0:	d9 f4       	brne	.+54     	; 0x1d18 <_Z4tonehjm+0x458>
    1ce2:	2f ef       	ldi	r18, 0xFF	; 255
    1ce4:	3f ef       	ldi	r19, 0xFF	; 255
    1ce6:	a9 01       	movw	r20, r18
    1ce8:	7d c0       	rjmp	.+250    	; 0x1de4 <_Z4tonehjm+0x524>
    1cea:	2d 81       	ldd	r18, Y+5	; 0x05
    1cec:	25 30       	cpi	r18, 0x05	; 5
    1cee:	79 f4       	brne	.+30     	; 0x1d0e <_Z4tonehjm+0x44e>
    1cf0:	90 91 21 01 	lds	r25, 0x0121	; 0x800121 <__TEXT_REGION_LENGTH__+0x700121>
    1cf4:	98 7f       	andi	r25, 0xF8	; 248
    1cf6:	89 2b       	or	r24, r25
    1cf8:	80 93 21 01 	sts	0x0121, r24	; 0x800121 <__TEXT_REGION_LENGTH__+0x700121>
    1cfc:	41 14       	cp	r4, r1
    1cfe:	51 04       	cpc	r5, r1
    1d00:	61 04       	cpc	r6, r1
    1d02:	71 04       	cpc	r7, r1
    1d04:	49 f4       	brne	.+18     	; 0x1d18 <_Z4tonehjm+0x458>
    1d06:	2f ef       	ldi	r18, 0xFF	; 255
    1d08:	3f ef       	ldi	r19, 0xFF	; 255
    1d0a:	a9 01       	movw	r20, r18
    1d0c:	7d c0       	rjmp	.+250    	; 0x1e08 <_Z4tonehjm+0x548>
    1d0e:	41 14       	cp	r4, r1
    1d10:	51 04       	cpc	r5, r1
    1d12:	61 04       	cpc	r6, r1
    1d14:	71 04       	cpc	r7, r1
    1d16:	71 f0       	breq	.+28     	; 0x1d34 <_Z4tonehjm+0x474>
    1d18:	d8 01       	movw	r26, r16
    1d1a:	aa 0f       	add	r26, r26
    1d1c:	bb 1f       	adc	r27, r27
    1d1e:	a3 01       	movw	r20, r6
    1d20:	92 01       	movw	r18, r4
    1d22:	0e 94 2d 22 	call	0x445a	; 0x445a <__muluhisi3>
    1d26:	28 ee       	ldi	r18, 0xE8	; 232
    1d28:	33 e0       	ldi	r19, 0x03	; 3
    1d2a:	40 e0       	ldi	r20, 0x00	; 0
    1d2c:	50 e0       	ldi	r21, 0x00	; 0
    1d2e:	0e 94 e4 21 	call	0x43c8	; 0x43c8 <__udivmodsi4>
    1d32:	03 c0       	rjmp	.+6      	; 0x1d3a <_Z4tonehjm+0x47a>
    1d34:	2f ef       	ldi	r18, 0xFF	; 255
    1d36:	3f ef       	ldi	r19, 0xFF	; 255
    1d38:	a9 01       	movw	r20, r18
    1d3a:	8d 81       	ldd	r24, Y+5	; 0x05
    1d3c:	82 30       	cpi	r24, 0x02	; 2
    1d3e:	81 f1       	breq	.+96     	; 0x1da0 <_Z4tonehjm+0x4e0>
    1d40:	2c f4       	brge	.+10     	; 0x1d4c <_Z4tonehjm+0x48c>
    1d42:	88 23       	and	r24, r24
    1d44:	61 f0       	breq	.+24     	; 0x1d5e <_Z4tonehjm+0x49e>
    1d46:	81 30       	cpi	r24, 0x01	; 1
    1d48:	c9 f0       	breq	.+50     	; 0x1d7c <_Z4tonehjm+0x4bc>
    1d4a:	1f c1       	rjmp	.+574    	; 0x1f8a <_Z4tonehjm+0x6ca>
    1d4c:	9d 81       	ldd	r25, Y+5	; 0x05
    1d4e:	94 30       	cpi	r25, 0x04	; 4
    1d50:	09 f4       	brne	.+2      	; 0x1d54 <_Z4tonehjm+0x494>
    1d52:	48 c0       	rjmp	.+144    	; 0x1de4 <_Z4tonehjm+0x524>
    1d54:	ac f1       	brlt	.+106    	; 0x1dc0 <_Z4tonehjm+0x500>
    1d56:	95 30       	cpi	r25, 0x05	; 5
    1d58:	09 f4       	brne	.+2      	; 0x1d5c <_Z4tonehjm+0x49c>
    1d5a:	56 c0       	rjmp	.+172    	; 0x1e08 <_Z4tonehjm+0x548>
    1d5c:	16 c1       	rjmp	.+556    	; 0x1f8a <_Z4tonehjm+0x6ca>
    1d5e:	c7 bc       	out	0x27, r12	; 39
    1d60:	20 93 ee 04 	sts	0x04EE, r18	; 0x8004ee <timer0_toggle_count>
    1d64:	30 93 ef 04 	sts	0x04EF, r19	; 0x8004ef <timer0_toggle_count+0x1>
    1d68:	40 93 f0 04 	sts	0x04F0, r20	; 0x8004f0 <timer0_toggle_count+0x2>
    1d6c:	50 93 f1 04 	sts	0x04F1, r21	; 0x8004f1 <timer0_toggle_count+0x3>
    1d70:	80 91 6e 00 	lds	r24, 0x006E	; 0x80006e <__TEXT_REGION_LENGTH__+0x70006e>
    1d74:	82 60       	ori	r24, 0x02	; 2
    1d76:	80 93 6e 00 	sts	0x006E, r24	; 0x80006e <__TEXT_REGION_LENGTH__+0x70006e>
    1d7a:	07 c1       	rjmp	.+526    	; 0x1f8a <_Z4tonehjm+0x6ca>
    1d7c:	d0 92 89 00 	sts	0x0089, r13	; 0x800089 <__TEXT_REGION_LENGTH__+0x700089>
    1d80:	c0 92 88 00 	sts	0x0088, r12	; 0x800088 <__TEXT_REGION_LENGTH__+0x700088>
    1d84:	20 93 e7 04 	sts	0x04E7, r18	; 0x8004e7 <timer1_toggle_count>
    1d88:	30 93 e8 04 	sts	0x04E8, r19	; 0x8004e8 <timer1_toggle_count+0x1>
    1d8c:	40 93 e9 04 	sts	0x04E9, r20	; 0x8004e9 <timer1_toggle_count+0x2>
    1d90:	50 93 ea 04 	sts	0x04EA, r21	; 0x8004ea <timer1_toggle_count+0x3>
    1d94:	80 91 6f 00 	lds	r24, 0x006F	; 0x80006f <__TEXT_REGION_LENGTH__+0x70006f>
    1d98:	82 60       	ori	r24, 0x02	; 2
    1d9a:	80 93 6f 00 	sts	0x006F, r24	; 0x80006f <__TEXT_REGION_LENGTH__+0x70006f>
    1d9e:	f5 c0       	rjmp	.+490    	; 0x1f8a <_Z4tonehjm+0x6ca>
    1da0:	c0 92 b3 00 	sts	0x00B3, r12	; 0x8000b3 <__TEXT_REGION_LENGTH__+0x7000b3>
    1da4:	20 93 e0 04 	sts	0x04E0, r18	; 0x8004e0 <timer2_toggle_count>
    1da8:	30 93 e1 04 	sts	0x04E1, r19	; 0x8004e1 <timer2_toggle_count+0x1>
    1dac:	40 93 e2 04 	sts	0x04E2, r20	; 0x8004e2 <timer2_toggle_count+0x2>
    1db0:	50 93 e3 04 	sts	0x04E3, r21	; 0x8004e3 <timer2_toggle_count+0x3>
    1db4:	80 91 70 00 	lds	r24, 0x0070	; 0x800070 <__TEXT_REGION_LENGTH__+0x700070>
    1db8:	82 60       	ori	r24, 0x02	; 2
    1dba:	80 93 70 00 	sts	0x0070, r24	; 0x800070 <__TEXT_REGION_LENGTH__+0x700070>
    1dbe:	e5 c0       	rjmp	.+458    	; 0x1f8a <_Z4tonehjm+0x6ca>
    1dc0:	d0 92 99 00 	sts	0x0099, r13	; 0x800099 <__TEXT_REGION_LENGTH__+0x700099>
    1dc4:	c0 92 98 00 	sts	0x0098, r12	; 0x800098 <__TEXT_REGION_LENGTH__+0x700098>
    1dc8:	20 93 d9 04 	sts	0x04D9, r18	; 0x8004d9 <timer3_toggle_count>
    1dcc:	30 93 da 04 	sts	0x04DA, r19	; 0x8004da <timer3_toggle_count+0x1>
    1dd0:	40 93 db 04 	sts	0x04DB, r20	; 0x8004db <timer3_toggle_count+0x2>
    1dd4:	50 93 dc 04 	sts	0x04DC, r21	; 0x8004dc <timer3_toggle_count+0x3>
    1dd8:	80 91 71 00 	lds	r24, 0x0071	; 0x800071 <__TEXT_REGION_LENGTH__+0x700071>
    1ddc:	82 60       	ori	r24, 0x02	; 2
    1dde:	80 93 71 00 	sts	0x0071, r24	; 0x800071 <__TEXT_REGION_LENGTH__+0x700071>
    1de2:	d3 c0       	rjmp	.+422    	; 0x1f8a <_Z4tonehjm+0x6ca>
    1de4:	d0 92 a9 00 	sts	0x00A9, r13	; 0x8000a9 <__TEXT_REGION_LENGTH__+0x7000a9>
    1de8:	c0 92 a8 00 	sts	0x00A8, r12	; 0x8000a8 <__TEXT_REGION_LENGTH__+0x7000a8>
    1dec:	20 93 d2 04 	sts	0x04D2, r18	; 0x8004d2 <timer4_toggle_count>
    1df0:	30 93 d3 04 	sts	0x04D3, r19	; 0x8004d3 <timer4_toggle_count+0x1>
    1df4:	40 93 d4 04 	sts	0x04D4, r20	; 0x8004d4 <timer4_toggle_count+0x2>
    1df8:	50 93 d5 04 	sts	0x04D5, r21	; 0x8004d5 <timer4_toggle_count+0x3>
    1dfc:	80 91 72 00 	lds	r24, 0x0072	; 0x800072 <__TEXT_REGION_LENGTH__+0x700072>
    1e00:	82 60       	ori	r24, 0x02	; 2
    1e02:	80 93 72 00 	sts	0x0072, r24	; 0x800072 <__TEXT_REGION_LENGTH__+0x700072>
    1e06:	c1 c0       	rjmp	.+386    	; 0x1f8a <_Z4tonehjm+0x6ca>
    1e08:	d0 92 29 01 	sts	0x0129, r13	; 0x800129 <__TEXT_REGION_LENGTH__+0x700129>
    1e0c:	c0 92 28 01 	sts	0x0128, r12	; 0x800128 <__TEXT_REGION_LENGTH__+0x700128>
    1e10:	20 93 cb 04 	sts	0x04CB, r18	; 0x8004cb <timer5_toggle_count>
    1e14:	30 93 cc 04 	sts	0x04CC, r19	; 0x8004cc <timer5_toggle_count+0x1>
    1e18:	40 93 cd 04 	sts	0x04CD, r20	; 0x8004cd <timer5_toggle_count+0x2>
    1e1c:	50 93 ce 04 	sts	0x04CE, r21	; 0x8004ce <timer5_toggle_count+0x3>
    1e20:	80 91 73 00 	lds	r24, 0x0073	; 0x800073 <__TEXT_REGION_LENGTH__+0x700073>
    1e24:	82 60       	ori	r24, 0x02	; 2
    1e26:	80 93 73 00 	sts	0x0073, r24	; 0x800073 <__TEXT_REGION_LENGTH__+0x700073>
    1e2a:	af c0       	rjmp	.+350    	; 0x1f8a <_Z4tonehjm+0x6ca>
    1e2c:	68 e4       	ldi	r22, 0x48	; 72
    1e2e:	78 ee       	ldi	r23, 0xE8	; 232
    1e30:	81 e0       	ldi	r24, 0x01	; 1
    1e32:	90 e0       	ldi	r25, 0x00	; 0
    1e34:	a5 01       	movw	r20, r10
    1e36:	94 01       	movw	r18, r8
    1e38:	0e 94 e4 21 	call	0x43c8	; 0x43c8 <__udivmodsi4>
    1e3c:	69 01       	movw	r12, r18
    1e3e:	7a 01       	movw	r14, r20
    1e40:	81 e0       	ldi	r24, 0x01	; 1
    1e42:	c8 1a       	sub	r12, r24
    1e44:	d1 08       	sbc	r13, r1
    1e46:	e1 08       	sbc	r14, r1
    1e48:	f1 08       	sbc	r15, r1
    1e4a:	9f ef       	ldi	r25, 0xFF	; 255
    1e4c:	c9 16       	cp	r12, r25
    1e4e:	d1 04       	cpc	r13, r1
    1e50:	e1 04       	cpc	r14, r1
    1e52:	f1 04       	cpc	r15, r1
    1e54:	41 f1       	breq	.+80     	; 0x1ea6 <_Z4tonehjm+0x5e6>
    1e56:	38 f1       	brcs	.+78     	; 0x1ea6 <_Z4tonehjm+0x5e6>
    1e58:	64 e2       	ldi	r22, 0x24	; 36
    1e5a:	74 ef       	ldi	r23, 0xF4	; 244
    1e5c:	80 e0       	ldi	r24, 0x00	; 0
    1e5e:	90 e0       	ldi	r25, 0x00	; 0
    1e60:	a5 01       	movw	r20, r10
    1e62:	94 01       	movw	r18, r8
    1e64:	0e 94 e4 21 	call	0x43c8	; 0x43c8 <__udivmodsi4>
    1e68:	69 01       	movw	r12, r18
    1e6a:	7a 01       	movw	r14, r20
    1e6c:	81 e0       	ldi	r24, 0x01	; 1
    1e6e:	c8 1a       	sub	r12, r24
    1e70:	d1 08       	sbc	r13, r1
    1e72:	e1 08       	sbc	r14, r1
    1e74:	f1 08       	sbc	r15, r1
    1e76:	9f ef       	ldi	r25, 0xFF	; 255
    1e78:	c9 16       	cp	r12, r25
    1e7a:	d1 04       	cpc	r13, r1
    1e7c:	e1 04       	cpc	r14, r1
    1e7e:	f1 04       	cpc	r15, r1
    1e80:	09 f0       	breq	.+2      	; 0x1e84 <_Z4tonehjm+0x5c4>
    1e82:	08 f4       	brcc	.+2      	; 0x1e86 <_Z4tonehjm+0x5c6>
    1e84:	c6 ce       	rjmp	.-628    	; 0x1c12 <_Z4tonehjm+0x352>
    1e86:	62 e1       	ldi	r22, 0x12	; 18
    1e88:	7a e7       	ldi	r23, 0x7A	; 122
    1e8a:	80 e0       	ldi	r24, 0x00	; 0
    1e8c:	90 e0       	ldi	r25, 0x00	; 0
    1e8e:	a5 01       	movw	r20, r10
    1e90:	94 01       	movw	r18, r8
    1e92:	0e 94 e4 21 	call	0x43c8	; 0x43c8 <__udivmodsi4>
    1e96:	69 01       	movw	r12, r18
    1e98:	7a 01       	movw	r14, r20
    1e9a:	81 e0       	ldi	r24, 0x01	; 1
    1e9c:	c8 1a       	sub	r12, r24
    1e9e:	d1 08       	sbc	r13, r1
    1ea0:	e1 08       	sbc	r14, r1
    1ea2:	f1 08       	sbc	r15, r1
    1ea4:	18 c0       	rjmp	.+48     	; 0x1ed6 <_Z4tonehjm+0x616>
    1ea6:	84 e0       	ldi	r24, 0x04	; 4
    1ea8:	b5 ce       	rjmp	.-662    	; 0x1c14 <_Z4tonehjm+0x354>
    1eaa:	2f ef       	ldi	r18, 0xFF	; 255
    1eac:	c2 16       	cp	r12, r18
    1eae:	d1 04       	cpc	r13, r1
    1eb0:	e1 04       	cpc	r14, r1
    1eb2:	f1 04       	cpc	r15, r1
    1eb4:	79 f1       	breq	.+94     	; 0x1f14 <_Z4tonehjm+0x654>
    1eb6:	70 f1       	brcs	.+92     	; 0x1f14 <_Z4tonehjm+0x654>
    1eb8:	62 e1       	ldi	r22, 0x12	; 18
    1eba:	7a e7       	ldi	r23, 0x7A	; 122
    1ebc:	80 e0       	ldi	r24, 0x00	; 0
    1ebe:	90 e0       	ldi	r25, 0x00	; 0
    1ec0:	a5 01       	movw	r20, r10
    1ec2:	94 01       	movw	r18, r8
    1ec4:	0e 94 e4 21 	call	0x43c8	; 0x43c8 <__udivmodsi4>
    1ec8:	69 01       	movw	r12, r18
    1eca:	7a 01       	movw	r14, r20
    1ecc:	91 e0       	ldi	r25, 0x01	; 1
    1ece:	c9 1a       	sub	r12, r25
    1ed0:	d1 08       	sbc	r13, r1
    1ed2:	e1 08       	sbc	r14, r1
    1ed4:	f1 08       	sbc	r15, r1
    1ed6:	8f ef       	ldi	r24, 0xFF	; 255
    1ed8:	c8 16       	cp	r12, r24
    1eda:	d1 04       	cpc	r13, r1
    1edc:	e1 04       	cpc	r14, r1
    1ede:	f1 04       	cpc	r15, r1
    1ee0:	a9 f0       	breq	.+42     	; 0x1f0c <_Z4tonehjm+0x64c>
    1ee2:	a0 f0       	brcs	.+40     	; 0x1f0c <_Z4tonehjm+0x64c>
    1ee4:	89 81       	ldd	r24, Y+1	; 0x01
    1ee6:	9a 81       	ldd	r25, Y+2	; 0x02
    1ee8:	ab 81       	ldd	r26, Y+3	; 0x03
    1eea:	bc 81       	ldd	r27, Y+4	; 0x04
    1eec:	2a e0       	ldi	r18, 0x0A	; 10
    1eee:	b6 95       	lsr	r27
    1ef0:	a7 95       	ror	r26
    1ef2:	97 95       	ror	r25
    1ef4:	87 95       	ror	r24
    1ef6:	2a 95       	dec	r18
    1ef8:	d1 f7       	brne	.-12     	; 0x1eee <_Z4tonehjm+0x62e>
    1efa:	6c 01       	movw	r12, r24
    1efc:	7d 01       	movw	r14, r26
    1efe:	21 e0       	ldi	r18, 0x01	; 1
    1f00:	c2 1a       	sub	r12, r18
    1f02:	d1 08       	sbc	r13, r1
    1f04:	e1 08       	sbc	r14, r1
    1f06:	f1 08       	sbc	r15, r1
    1f08:	87 e0       	ldi	r24, 0x07	; 7
    1f0a:	84 ce       	rjmp	.-760    	; 0x1c14 <_Z4tonehjm+0x354>
    1f0c:	86 e0       	ldi	r24, 0x06	; 6
    1f0e:	82 ce       	rjmp	.-764    	; 0x1c14 <_Z4tonehjm+0x354>
    1f10:	82 e0       	ldi	r24, 0x02	; 2
    1f12:	80 ce       	rjmp	.-768    	; 0x1c14 <_Z4tonehjm+0x354>
    1f14:	84 e0       	ldi	r24, 0x04	; 4
    1f16:	75 ce       	rjmp	.-790    	; 0x1c02 <_Z4tonehjm+0x342>
    1f18:	2f ef       	ldi	r18, 0xFF	; 255
    1f1a:	c2 16       	cp	r12, r18
    1f1c:	d1 04       	cpc	r13, r1
    1f1e:	e1 04       	cpc	r14, r1
    1f20:	f1 04       	cpc	r15, r1
    1f22:	69 f1       	breq	.+90     	; 0x1f7e <_Z4tonehjm+0x6be>
    1f24:	60 f1       	brcs	.+88     	; 0x1f7e <_Z4tonehjm+0x6be>
    1f26:	62 e1       	ldi	r22, 0x12	; 18
    1f28:	7a e7       	ldi	r23, 0x7A	; 122
    1f2a:	80 e0       	ldi	r24, 0x00	; 0
    1f2c:	90 e0       	ldi	r25, 0x00	; 0
    1f2e:	a5 01       	movw	r20, r10
    1f30:	94 01       	movw	r18, r8
    1f32:	0e 94 e4 21 	call	0x43c8	; 0x43c8 <__udivmodsi4>
    1f36:	69 01       	movw	r12, r18
    1f38:	7a 01       	movw	r14, r20
    1f3a:	81 e0       	ldi	r24, 0x01	; 1
    1f3c:	c8 1a       	sub	r12, r24
    1f3e:	d1 08       	sbc	r13, r1
    1f40:	e1 08       	sbc	r14, r1
    1f42:	f1 08       	sbc	r15, r1
    1f44:	9f ef       	ldi	r25, 0xFF	; 255
    1f46:	c9 16       	cp	r12, r25
    1f48:	d1 04       	cpc	r13, r1
    1f4a:	e1 04       	cpc	r14, r1
    1f4c:	f1 04       	cpc	r15, r1
    1f4e:	a9 f0       	breq	.+42     	; 0x1f7a <_Z4tonehjm+0x6ba>
    1f50:	a0 f0       	brcs	.+40     	; 0x1f7a <_Z4tonehjm+0x6ba>
    1f52:	89 81       	ldd	r24, Y+1	; 0x01
    1f54:	9a 81       	ldd	r25, Y+2	; 0x02
    1f56:	ab 81       	ldd	r26, Y+3	; 0x03
    1f58:	bc 81       	ldd	r27, Y+4	; 0x04
    1f5a:	3a e0       	ldi	r19, 0x0A	; 10
    1f5c:	b6 95       	lsr	r27
    1f5e:	a7 95       	ror	r26
    1f60:	97 95       	ror	r25
    1f62:	87 95       	ror	r24
    1f64:	3a 95       	dec	r19
    1f66:	d1 f7       	brne	.-12     	; 0x1f5c <_Z4tonehjm+0x69c>
    1f68:	6c 01       	movw	r12, r24
    1f6a:	7d 01       	movw	r14, r26
    1f6c:	21 e0       	ldi	r18, 0x01	; 1
    1f6e:	c2 1a       	sub	r12, r18
    1f70:	d1 08       	sbc	r13, r1
    1f72:	e1 08       	sbc	r14, r1
    1f74:	f1 08       	sbc	r15, r1
    1f76:	85 e0       	ldi	r24, 0x05	; 5
    1f78:	47 ce       	rjmp	.-882    	; 0x1c08 <_Z4tonehjm+0x348>
    1f7a:	84 e0       	ldi	r24, 0x04	; 4
    1f7c:	45 ce       	rjmp	.-886    	; 0x1c08 <_Z4tonehjm+0x348>
    1f7e:	83 e0       	ldi	r24, 0x03	; 3
    1f80:	43 ce       	rjmp	.-890    	; 0x1c08 <_Z4tonehjm+0x348>
    1f82:	61 e0       	ldi	r22, 0x01	; 1
    1f84:	0e 94 ec 14 	call	0x29d8	; 0x29d8 <pinMode>
    1f88:	cd cd       	rjmp	.-1126   	; 0x1b24 <_Z4tonehjm+0x264>
    1f8a:	0f 90       	pop	r0
    1f8c:	0f 90       	pop	r0
    1f8e:	0f 90       	pop	r0
    1f90:	0f 90       	pop	r0
    1f92:	0f 90       	pop	r0
    1f94:	df 91       	pop	r29
    1f96:	cf 91       	pop	r28
    1f98:	1f 91       	pop	r17
    1f9a:	0f 91       	pop	r16
    1f9c:	ff 90       	pop	r15
    1f9e:	ef 90       	pop	r14
    1fa0:	df 90       	pop	r13
    1fa2:	cf 90       	pop	r12
    1fa4:	bf 90       	pop	r11
    1fa6:	af 90       	pop	r10
    1fa8:	9f 90       	pop	r9
    1faa:	8f 90       	pop	r8
    1fac:	7f 90       	pop	r7
    1fae:	6f 90       	pop	r6
    1fb0:	5f 90       	pop	r5
    1fb2:	4f 90       	pop	r4
    1fb4:	08 95       	ret

00001fb6 <_Z12disableTimerh>:
    1fb6:	82 30       	cpi	r24, 0x02	; 2
    1fb8:	a9 f0       	breq	.+42     	; 0x1fe4 <_Z12disableTimerh+0x2e>
    1fba:	28 f4       	brcc	.+10     	; 0x1fc6 <_Z12disableTimerh+0x10>
    1fbc:	88 23       	and	r24, r24
    1fbe:	49 f0       	breq	.+18     	; 0x1fd2 <_Z12disableTimerh+0x1c>
    1fc0:	81 30       	cpi	r24, 0x01	; 1
    1fc2:	51 f0       	breq	.+20     	; 0x1fd8 <_Z12disableTimerh+0x22>
    1fc4:	08 95       	ret
    1fc6:	84 30       	cpi	r24, 0x04	; 4
    1fc8:	21 f1       	breq	.+72     	; 0x2012 <_Z12disableTimerh+0x5c>
    1fca:	e8 f0       	brcs	.+58     	; 0x2006 <_Z12disableTimerh+0x50>
    1fcc:	85 30       	cpi	r24, 0x05	; 5
    1fce:	39 f1       	breq	.+78     	; 0x201e <_Z12disableTimerh+0x68>
    1fd0:	08 95       	ret
    1fd2:	10 92 6e 00 	sts	0x006E, r1	; 0x80006e <__TEXT_REGION_LENGTH__+0x70006e>
    1fd6:	08 95       	ret
    1fd8:	80 91 6f 00 	lds	r24, 0x006F	; 0x80006f <__TEXT_REGION_LENGTH__+0x70006f>
    1fdc:	8d 7f       	andi	r24, 0xFD	; 253
    1fde:	80 93 6f 00 	sts	0x006F, r24	; 0x80006f <__TEXT_REGION_LENGTH__+0x70006f>
    1fe2:	08 95       	ret
    1fe4:	80 91 70 00 	lds	r24, 0x0070	; 0x800070 <__TEXT_REGION_LENGTH__+0x700070>
    1fe8:	8d 7f       	andi	r24, 0xFD	; 253
    1fea:	80 93 70 00 	sts	0x0070, r24	; 0x800070 <__TEXT_REGION_LENGTH__+0x700070>
    1fee:	81 e0       	ldi	r24, 0x01	; 1
    1ff0:	80 93 b0 00 	sts	0x00B0, r24	; 0x8000b0 <__TEXT_REGION_LENGTH__+0x7000b0>
    1ff4:	80 91 b1 00 	lds	r24, 0x00B1	; 0x8000b1 <__TEXT_REGION_LENGTH__+0x7000b1>
    1ff8:	88 7f       	andi	r24, 0xF8	; 248
    1ffa:	84 60       	ori	r24, 0x04	; 4
    1ffc:	80 93 b1 00 	sts	0x00B1, r24	; 0x8000b1 <__TEXT_REGION_LENGTH__+0x7000b1>
    2000:	10 92 b3 00 	sts	0x00B3, r1	; 0x8000b3 <__TEXT_REGION_LENGTH__+0x7000b3>
    2004:	08 95       	ret
    2006:	80 91 71 00 	lds	r24, 0x0071	; 0x800071 <__TEXT_REGION_LENGTH__+0x700071>
    200a:	8d 7f       	andi	r24, 0xFD	; 253
    200c:	80 93 71 00 	sts	0x0071, r24	; 0x800071 <__TEXT_REGION_LENGTH__+0x700071>
    2010:	08 95       	ret
    2012:	80 91 72 00 	lds	r24, 0x0072	; 0x800072 <__TEXT_REGION_LENGTH__+0x700072>
    2016:	8d 7f       	andi	r24, 0xFD	; 253
    2018:	80 93 72 00 	sts	0x0072, r24	; 0x800072 <__TEXT_REGION_LENGTH__+0x700072>
    201c:	08 95       	ret
    201e:	80 91 73 00 	lds	r24, 0x0073	; 0x800073 <__TEXT_REGION_LENGTH__+0x700073>
    2022:	8d 7f       	andi	r24, 0xFD	; 253
    2024:	80 93 73 00 	sts	0x0073, r24	; 0x800073 <__TEXT_REGION_LENGTH__+0x700073>
    2028:	08 95       	ret

0000202a <_Z6noToneh>:
    202a:	cf 93       	push	r28
    202c:	c8 2f       	mov	r28, r24
    202e:	80 91 00 02 	lds	r24, 0x0200	; 0x800200 <__data_start>
    2032:	c8 13       	cpse	r28, r24
    2034:	07 c0       	rjmp	.+14     	; 0x2044 <_Z6noToneh+0x1a>
    2036:	e1 e9       	ldi	r30, 0x91	; 145
    2038:	f3 e0       	ldi	r31, 0x03	; 3
    203a:	84 91       	lpm	r24, Z
    203c:	9f ef       	ldi	r25, 0xFF	; 255
    203e:	90 93 00 02 	sts	0x0200, r25	; 0x800200 <__data_start>
    2042:	01 c0       	rjmp	.+2      	; 0x2046 <_Z6noToneh+0x1c>
    2044:	8f ef       	ldi	r24, 0xFF	; 255
    2046:	0e 94 db 0f 	call	0x1fb6	; 0x1fb6 <_Z12disableTimerh>
    204a:	60 e0       	ldi	r22, 0x00	; 0
    204c:	8c 2f       	mov	r24, r28
    204e:	cf 91       	pop	r28
    2050:	0c 94 28 15 	jmp	0x2a50	; 0x2a50 <digitalWrite>

00002054 <__vector_13>:
    2054:	1f 92       	push	r1
    2056:	0f 92       	push	r0
    2058:	0f b6       	in	r0, 0x3f	; 63
    205a:	0f 92       	push	r0
    205c:	11 24       	eor	r1, r1
    205e:	0b b6       	in	r0, 0x3b	; 59
    2060:	0f 92       	push	r0
    2062:	2f 93       	push	r18
    2064:	3f 93       	push	r19
    2066:	4f 93       	push	r20
    2068:	5f 93       	push	r21
    206a:	6f 93       	push	r22
    206c:	7f 93       	push	r23
    206e:	8f 93       	push	r24
    2070:	9f 93       	push	r25
    2072:	af 93       	push	r26
    2074:	bf 93       	push	r27
    2076:	ef 93       	push	r30
    2078:	ff 93       	push	r31
    207a:	80 91 e0 04 	lds	r24, 0x04E0	; 0x8004e0 <timer2_toggle_count>
    207e:	90 91 e1 04 	lds	r25, 0x04E1	; 0x8004e1 <timer2_toggle_count+0x1>
    2082:	a0 91 e2 04 	lds	r26, 0x04E2	; 0x8004e2 <timer2_toggle_count+0x2>
    2086:	b0 91 e3 04 	lds	r27, 0x04E3	; 0x8004e3 <timer2_toggle_count+0x3>
    208a:	89 2b       	or	r24, r25
    208c:	8a 2b       	or	r24, r26
    208e:	8b 2b       	or	r24, r27
    2090:	51 f1       	breq	.+84     	; 0x20e6 <__vector_13+0x92>
    2092:	90 91 dd 04 	lds	r25, 0x04DD	; 0x8004dd <timer2_pin_mask>
    2096:	e0 91 de 04 	lds	r30, 0x04DE	; 0x8004de <timer2_pin_port>
    209a:	f0 91 df 04 	lds	r31, 0x04DF	; 0x8004df <timer2_pin_port+0x1>
    209e:	80 81       	ld	r24, Z
    20a0:	89 27       	eor	r24, r25
    20a2:	80 83       	st	Z, r24
    20a4:	80 91 e0 04 	lds	r24, 0x04E0	; 0x8004e0 <timer2_toggle_count>
    20a8:	90 91 e1 04 	lds	r25, 0x04E1	; 0x8004e1 <timer2_toggle_count+0x1>
    20ac:	a0 91 e2 04 	lds	r26, 0x04E2	; 0x8004e2 <timer2_toggle_count+0x2>
    20b0:	b0 91 e3 04 	lds	r27, 0x04E3	; 0x8004e3 <timer2_toggle_count+0x3>
    20b4:	18 16       	cp	r1, r24
    20b6:	19 06       	cpc	r1, r25
    20b8:	1a 06       	cpc	r1, r26
    20ba:	1b 06       	cpc	r1, r27
    20bc:	c4 f4       	brge	.+48     	; 0x20ee <__vector_13+0x9a>
    20be:	80 91 e0 04 	lds	r24, 0x04E0	; 0x8004e0 <timer2_toggle_count>
    20c2:	90 91 e1 04 	lds	r25, 0x04E1	; 0x8004e1 <timer2_toggle_count+0x1>
    20c6:	a0 91 e2 04 	lds	r26, 0x04E2	; 0x8004e2 <timer2_toggle_count+0x2>
    20ca:	b0 91 e3 04 	lds	r27, 0x04E3	; 0x8004e3 <timer2_toggle_count+0x3>
    20ce:	01 97       	sbiw	r24, 0x01	; 1
    20d0:	a1 09       	sbc	r26, r1
    20d2:	b1 09       	sbc	r27, r1
    20d4:	80 93 e0 04 	sts	0x04E0, r24	; 0x8004e0 <timer2_toggle_count>
    20d8:	90 93 e1 04 	sts	0x04E1, r25	; 0x8004e1 <timer2_toggle_count+0x1>
    20dc:	a0 93 e2 04 	sts	0x04E2, r26	; 0x8004e2 <timer2_toggle_count+0x2>
    20e0:	b0 93 e3 04 	sts	0x04E3, r27	; 0x8004e3 <timer2_toggle_count+0x3>
    20e4:	04 c0       	rjmp	.+8      	; 0x20ee <__vector_13+0x9a>
    20e6:	80 91 00 02 	lds	r24, 0x0200	; 0x800200 <__data_start>
    20ea:	0e 94 15 10 	call	0x202a	; 0x202a <_Z6noToneh>
    20ee:	ff 91       	pop	r31
    20f0:	ef 91       	pop	r30
    20f2:	bf 91       	pop	r27
    20f4:	af 91       	pop	r26
    20f6:	9f 91       	pop	r25
    20f8:	8f 91       	pop	r24
    20fa:	7f 91       	pop	r23
    20fc:	6f 91       	pop	r22
    20fe:	5f 91       	pop	r21
    2100:	4f 91       	pop	r20
    2102:	3f 91       	pop	r19
    2104:	2f 91       	pop	r18
    2106:	0f 90       	pop	r0
    2108:	0b be       	out	0x3b, r0	; 59
    210a:	0f 90       	pop	r0
    210c:	0f be       	out	0x3f, r0	; 63
    210e:	0f 90       	pop	r0
    2110:	1f 90       	pop	r1
    2112:	18 95       	reti

00002114 <nothing>:
    2114:	08 95       	ret

00002116 <attachInterrupt>:
    2116:	88 30       	cpi	r24, 0x08	; 8
    2118:	08 f0       	brcs	.+2      	; 0x211c <attachInterrupt+0x6>
    211a:	70 c0       	rjmp	.+224    	; 0x21fc <attachInterrupt+0xe6>
    211c:	a8 2f       	mov	r26, r24
    211e:	b0 e0       	ldi	r27, 0x00	; 0
    2120:	aa 0f       	add	r26, r26
    2122:	bb 1f       	adc	r27, r27
    2124:	af 5f       	subi	r26, 0xFF	; 255
    2126:	bd 4f       	sbci	r27, 0xFD	; 253
    2128:	11 96       	adiw	r26, 0x01	; 1
    212a:	7c 93       	st	X, r23
    212c:	6e 93       	st	-X, r22
    212e:	90 e0       	ldi	r25, 0x00	; 0
    2130:	fc 01       	movw	r30, r24
    2132:	31 97       	sbiw	r30, 0x01	; 1
    2134:	e7 30       	cpi	r30, 0x07	; 7
    2136:	f1 05       	cpc	r31, r1
    2138:	a0 f5       	brcc	.+104    	; 0x21a2 <attachInterrupt+0x8c>
    213a:	88 27       	eor	r24, r24
    213c:	ee 58       	subi	r30, 0x8E	; 142
    213e:	ff 4f       	sbci	r31, 0xFF	; 255
    2140:	8f 4f       	sbci	r24, 0xFF	; 255
    2142:	0c 94 25 22 	jmp	0x444a	; 0x444a <__tablejump2__>
    2146:	80 91 69 00 	lds	r24, 0x0069	; 0x800069 <__TEXT_REGION_LENGTH__+0x700069>
    214a:	8c 7f       	andi	r24, 0xFC	; 252
    214c:	48 2b       	or	r20, r24
    214e:	40 93 69 00 	sts	0x0069, r20	; 0x800069 <__TEXT_REGION_LENGTH__+0x700069>
    2152:	e8 9a       	sbi	0x1d, 0	; 29
    2154:	08 95       	ret
    2156:	80 91 69 00 	lds	r24, 0x0069	; 0x800069 <__TEXT_REGION_LENGTH__+0x700069>
    215a:	83 7f       	andi	r24, 0xF3	; 243
    215c:	44 0f       	add	r20, r20
    215e:	55 1f       	adc	r21, r21
    2160:	44 0f       	add	r20, r20
    2162:	55 1f       	adc	r21, r21
    2164:	48 2b       	or	r20, r24
    2166:	40 93 69 00 	sts	0x0069, r20	; 0x800069 <__TEXT_REGION_LENGTH__+0x700069>
    216a:	e9 9a       	sbi	0x1d, 1	; 29
    216c:	08 95       	ret
    216e:	80 91 69 00 	lds	r24, 0x0069	; 0x800069 <__TEXT_REGION_LENGTH__+0x700069>
    2172:	8f 7c       	andi	r24, 0xCF	; 207
    2174:	74 e0       	ldi	r23, 0x04	; 4
    2176:	44 0f       	add	r20, r20
    2178:	55 1f       	adc	r21, r21
    217a:	7a 95       	dec	r23
    217c:	e1 f7       	brne	.-8      	; 0x2176 <attachInterrupt+0x60>
    217e:	48 2b       	or	r20, r24
    2180:	40 93 69 00 	sts	0x0069, r20	; 0x800069 <__TEXT_REGION_LENGTH__+0x700069>
    2184:	ea 9a       	sbi	0x1d, 2	; 29
    2186:	08 95       	ret
    2188:	80 91 69 00 	lds	r24, 0x0069	; 0x800069 <__TEXT_REGION_LENGTH__+0x700069>
    218c:	8f 73       	andi	r24, 0x3F	; 63
    218e:	66 e0       	ldi	r22, 0x06	; 6
    2190:	44 0f       	add	r20, r20
    2192:	55 1f       	adc	r21, r21
    2194:	6a 95       	dec	r22
    2196:	e1 f7       	brne	.-8      	; 0x2190 <attachInterrupt+0x7a>
    2198:	48 2b       	or	r20, r24
    219a:	40 93 69 00 	sts	0x0069, r20	; 0x800069 <__TEXT_REGION_LENGTH__+0x700069>
    219e:	eb 9a       	sbi	0x1d, 3	; 29
    21a0:	08 95       	ret
    21a2:	80 91 6a 00 	lds	r24, 0x006A	; 0x80006a <__TEXT_REGION_LENGTH__+0x70006a>
    21a6:	8c 7f       	andi	r24, 0xFC	; 252
    21a8:	48 2b       	or	r20, r24
    21aa:	40 93 6a 00 	sts	0x006A, r20	; 0x80006a <__TEXT_REGION_LENGTH__+0x70006a>
    21ae:	ec 9a       	sbi	0x1d, 4	; 29
    21b0:	08 95       	ret
    21b2:	80 91 6a 00 	lds	r24, 0x006A	; 0x80006a <__TEXT_REGION_LENGTH__+0x70006a>
    21b6:	83 7f       	andi	r24, 0xF3	; 243
    21b8:	44 0f       	add	r20, r20
    21ba:	55 1f       	adc	r21, r21
    21bc:	44 0f       	add	r20, r20
    21be:	55 1f       	adc	r21, r21
    21c0:	48 2b       	or	r20, r24
    21c2:	40 93 6a 00 	sts	0x006A, r20	; 0x80006a <__TEXT_REGION_LENGTH__+0x70006a>
    21c6:	ed 9a       	sbi	0x1d, 5	; 29
    21c8:	08 95       	ret
    21ca:	80 91 6a 00 	lds	r24, 0x006A	; 0x80006a <__TEXT_REGION_LENGTH__+0x70006a>
    21ce:	8f 7c       	andi	r24, 0xCF	; 207
    21d0:	24 e0       	ldi	r18, 0x04	; 4
    21d2:	44 0f       	add	r20, r20
    21d4:	55 1f       	adc	r21, r21
    21d6:	2a 95       	dec	r18
    21d8:	e1 f7       	brne	.-8      	; 0x21d2 <attachInterrupt+0xbc>
    21da:	48 2b       	or	r20, r24
    21dc:	40 93 6a 00 	sts	0x006A, r20	; 0x80006a <__TEXT_REGION_LENGTH__+0x70006a>
    21e0:	ee 9a       	sbi	0x1d, 6	; 29
    21e2:	08 95       	ret
    21e4:	80 91 6a 00 	lds	r24, 0x006A	; 0x80006a <__TEXT_REGION_LENGTH__+0x70006a>
    21e8:	8f 73       	andi	r24, 0x3F	; 63
    21ea:	96 e0       	ldi	r25, 0x06	; 6
    21ec:	44 0f       	add	r20, r20
    21ee:	55 1f       	adc	r21, r21
    21f0:	9a 95       	dec	r25
    21f2:	e1 f7       	brne	.-8      	; 0x21ec <attachInterrupt+0xd6>
    21f4:	48 2b       	or	r20, r24
    21f6:	40 93 6a 00 	sts	0x006A, r20	; 0x80006a <__TEXT_REGION_LENGTH__+0x70006a>
    21fa:	ef 9a       	sbi	0x1d, 7	; 29
    21fc:	08 95       	ret

000021fe <detachInterrupt>:
    21fe:	98 2f       	mov	r25, r24
    2200:	88 30       	cpi	r24, 0x08	; 8
    2202:	30 f5       	brcc	.+76     	; 0x2250 <__stack+0x51>
    2204:	48 2f       	mov	r20, r24
    2206:	50 e0       	ldi	r21, 0x00	; 0
    2208:	fa 01       	movw	r30, r20
    220a:	31 97       	sbiw	r30, 0x01	; 1
    220c:	e7 30       	cpi	r30, 0x07	; 7
    220e:	f1 05       	cpc	r31, r1
    2210:	70 f4       	brcc	.+28     	; 0x222e <__stack+0x2f>
    2212:	88 27       	eor	r24, r24
    2214:	e7 58       	subi	r30, 0x87	; 135
    2216:	ff 4f       	sbci	r31, 0xFF	; 255
    2218:	8f 4f       	sbci	r24, 0xFF	; 255
    221a:	0c 94 25 22 	jmp	0x444a	; 0x444a <__tablejump2__>
    221e:	e8 98       	cbi	0x1d, 0	; 29
    2220:	0d c0       	rjmp	.+26     	; 0x223c <__stack+0x3d>
    2222:	e9 98       	cbi	0x1d, 1	; 29
    2224:	0b c0       	rjmp	.+22     	; 0x223c <__stack+0x3d>
    2226:	ea 98       	cbi	0x1d, 2	; 29
    2228:	09 c0       	rjmp	.+18     	; 0x223c <__stack+0x3d>
    222a:	eb 98       	cbi	0x1d, 3	; 29
    222c:	07 c0       	rjmp	.+14     	; 0x223c <__stack+0x3d>
    222e:	ec 98       	cbi	0x1d, 4	; 29
    2230:	05 c0       	rjmp	.+10     	; 0x223c <__stack+0x3d>
    2232:	ed 98       	cbi	0x1d, 5	; 29
    2234:	03 c0       	rjmp	.+6      	; 0x223c <__stack+0x3d>
    2236:	ee 98       	cbi	0x1d, 6	; 29
    2238:	01 c0       	rjmp	.+2      	; 0x223c <__stack+0x3d>
    223a:	ef 98       	cbi	0x1d, 7	; 29
    223c:	e9 2f       	mov	r30, r25
    223e:	f0 e0       	ldi	r31, 0x00	; 0
    2240:	ee 0f       	add	r30, r30
    2242:	ff 1f       	adc	r31, r31
    2244:	ef 5f       	subi	r30, 0xFF	; 255
    2246:	fd 4f       	sbci	r31, 0xFD	; 253
    2248:	8a e8       	ldi	r24, 0x8A	; 138
    224a:	90 e1       	ldi	r25, 0x10	; 16
    224c:	91 83       	std	Z+1, r25	; 0x01
    224e:	80 83       	st	Z, r24
    2250:	08 95       	ret

00002252 <__vector_1>:
    2252:	1f 92       	push	r1
    2254:	0f 92       	push	r0
    2256:	0f b6       	in	r0, 0x3f	; 63
    2258:	0f 92       	push	r0
    225a:	11 24       	eor	r1, r1
    225c:	0b b6       	in	r0, 0x3b	; 59
    225e:	0f 92       	push	r0
    2260:	2f 93       	push	r18
    2262:	3f 93       	push	r19
    2264:	4f 93       	push	r20
    2266:	5f 93       	push	r21
    2268:	6f 93       	push	r22
    226a:	7f 93       	push	r23
    226c:	8f 93       	push	r24
    226e:	9f 93       	push	r25
    2270:	af 93       	push	r26
    2272:	bf 93       	push	r27
    2274:	ef 93       	push	r30
    2276:	ff 93       	push	r31
    2278:	e0 91 05 02 	lds	r30, 0x0205	; 0x800205 <intFunc+0x4>
    227c:	f0 91 06 02 	lds	r31, 0x0206	; 0x800206 <intFunc+0x5>
    2280:	19 95       	eicall
    2282:	ff 91       	pop	r31
    2284:	ef 91       	pop	r30
    2286:	bf 91       	pop	r27
    2288:	af 91       	pop	r26
    228a:	9f 91       	pop	r25
    228c:	8f 91       	pop	r24
    228e:	7f 91       	pop	r23
    2290:	6f 91       	pop	r22
    2292:	5f 91       	pop	r21
    2294:	4f 91       	pop	r20
    2296:	3f 91       	pop	r19
    2298:	2f 91       	pop	r18
    229a:	0f 90       	pop	r0
    229c:	0b be       	out	0x3b, r0	; 59
    229e:	0f 90       	pop	r0
    22a0:	0f be       	out	0x3f, r0	; 63
    22a2:	0f 90       	pop	r0
    22a4:	1f 90       	pop	r1
    22a6:	18 95       	reti

000022a8 <__vector_2>:
    22a8:	1f 92       	push	r1
    22aa:	0f 92       	push	r0
    22ac:	0f b6       	in	r0, 0x3f	; 63
    22ae:	0f 92       	push	r0
    22b0:	11 24       	eor	r1, r1
    22b2:	0b b6       	in	r0, 0x3b	; 59
    22b4:	0f 92       	push	r0
    22b6:	2f 93       	push	r18
    22b8:	3f 93       	push	r19
    22ba:	4f 93       	push	r20
    22bc:	5f 93       	push	r21
    22be:	6f 93       	push	r22
    22c0:	7f 93       	push	r23
    22c2:	8f 93       	push	r24
    22c4:	9f 93       	push	r25
    22c6:	af 93       	push	r26
    22c8:	bf 93       	push	r27
    22ca:	ef 93       	push	r30
    22cc:	ff 93       	push	r31
    22ce:	e0 91 07 02 	lds	r30, 0x0207	; 0x800207 <intFunc+0x6>
    22d2:	f0 91 08 02 	lds	r31, 0x0208	; 0x800208 <intFunc+0x7>
    22d6:	19 95       	eicall
    22d8:	ff 91       	pop	r31
    22da:	ef 91       	pop	r30
    22dc:	bf 91       	pop	r27
    22de:	af 91       	pop	r26
    22e0:	9f 91       	pop	r25
    22e2:	8f 91       	pop	r24
    22e4:	7f 91       	pop	r23
    22e6:	6f 91       	pop	r22
    22e8:	5f 91       	pop	r21
    22ea:	4f 91       	pop	r20
    22ec:	3f 91       	pop	r19
    22ee:	2f 91       	pop	r18
    22f0:	0f 90       	pop	r0
    22f2:	0b be       	out	0x3b, r0	; 59
    22f4:	0f 90       	pop	r0
    22f6:	0f be       	out	0x3f, r0	; 63
    22f8:	0f 90       	pop	r0
    22fa:	1f 90       	pop	r1
    22fc:	18 95       	reti

000022fe <__vector_3>:
    22fe:	1f 92       	push	r1
    2300:	0f 92       	push	r0
    2302:	0f b6       	in	r0, 0x3f	; 63
    2304:	0f 92       	push	r0
    2306:	11 24       	eor	r1, r1
    2308:	0b b6       	in	r0, 0x3b	; 59
    230a:	0f 92       	push	r0
    230c:	2f 93       	push	r18
    230e:	3f 93       	push	r19
    2310:	4f 93       	push	r20
    2312:	5f 93       	push	r21
    2314:	6f 93       	push	r22
    2316:	7f 93       	push	r23
    2318:	8f 93       	push	r24
    231a:	9f 93       	push	r25
    231c:	af 93       	push	r26
    231e:	bf 93       	push	r27
    2320:	ef 93       	push	r30
    2322:	ff 93       	push	r31
    2324:	e0 91 09 02 	lds	r30, 0x0209	; 0x800209 <intFunc+0x8>
    2328:	f0 91 0a 02 	lds	r31, 0x020A	; 0x80020a <intFunc+0x9>
    232c:	19 95       	eicall
    232e:	ff 91       	pop	r31
    2330:	ef 91       	pop	r30
    2332:	bf 91       	pop	r27
    2334:	af 91       	pop	r26
    2336:	9f 91       	pop	r25
    2338:	8f 91       	pop	r24
    233a:	7f 91       	pop	r23
    233c:	6f 91       	pop	r22
    233e:	5f 91       	pop	r21
    2340:	4f 91       	pop	r20
    2342:	3f 91       	pop	r19
    2344:	2f 91       	pop	r18
    2346:	0f 90       	pop	r0
    2348:	0b be       	out	0x3b, r0	; 59
    234a:	0f 90       	pop	r0
    234c:	0f be       	out	0x3f, r0	; 63
    234e:	0f 90       	pop	r0
    2350:	1f 90       	pop	r1
    2352:	18 95       	reti

00002354 <__vector_4>:
    2354:	1f 92       	push	r1
    2356:	0f 92       	push	r0
    2358:	0f b6       	in	r0, 0x3f	; 63
    235a:	0f 92       	push	r0
    235c:	11 24       	eor	r1, r1
    235e:	0b b6       	in	r0, 0x3b	; 59
    2360:	0f 92       	push	r0
    2362:	2f 93       	push	r18
    2364:	3f 93       	push	r19
    2366:	4f 93       	push	r20
    2368:	5f 93       	push	r21
    236a:	6f 93       	push	r22
    236c:	7f 93       	push	r23
    236e:	8f 93       	push	r24
    2370:	9f 93       	push	r25
    2372:	af 93       	push	r26
    2374:	bf 93       	push	r27
    2376:	ef 93       	push	r30
    2378:	ff 93       	push	r31
    237a:	e0 91 0b 02 	lds	r30, 0x020B	; 0x80020b <intFunc+0xa>
    237e:	f0 91 0c 02 	lds	r31, 0x020C	; 0x80020c <intFunc+0xb>
    2382:	19 95       	eicall
    2384:	ff 91       	pop	r31
    2386:	ef 91       	pop	r30
    2388:	bf 91       	pop	r27
    238a:	af 91       	pop	r26
    238c:	9f 91       	pop	r25
    238e:	8f 91       	pop	r24
    2390:	7f 91       	pop	r23
    2392:	6f 91       	pop	r22
    2394:	5f 91       	pop	r21
    2396:	4f 91       	pop	r20
    2398:	3f 91       	pop	r19
    239a:	2f 91       	pop	r18
    239c:	0f 90       	pop	r0
    239e:	0b be       	out	0x3b, r0	; 59
    23a0:	0f 90       	pop	r0
    23a2:	0f be       	out	0x3f, r0	; 63
    23a4:	0f 90       	pop	r0
    23a6:	1f 90       	pop	r1
    23a8:	18 95       	reti

000023aa <__vector_5>:
    23aa:	1f 92       	push	r1
    23ac:	0f 92       	push	r0
    23ae:	0f b6       	in	r0, 0x3f	; 63
    23b0:	0f 92       	push	r0
    23b2:	11 24       	eor	r1, r1
    23b4:	0b b6       	in	r0, 0x3b	; 59
    23b6:	0f 92       	push	r0
    23b8:	2f 93       	push	r18
    23ba:	3f 93       	push	r19
    23bc:	4f 93       	push	r20
    23be:	5f 93       	push	r21
    23c0:	6f 93       	push	r22
    23c2:	7f 93       	push	r23
    23c4:	8f 93       	push	r24
    23c6:	9f 93       	push	r25
    23c8:	af 93       	push	r26
    23ca:	bf 93       	push	r27
    23cc:	ef 93       	push	r30
    23ce:	ff 93       	push	r31
    23d0:	e0 91 01 02 	lds	r30, 0x0201	; 0x800201 <intFunc>
    23d4:	f0 91 02 02 	lds	r31, 0x0202	; 0x800202 <intFunc+0x1>
    23d8:	19 95       	eicall
    23da:	ff 91       	pop	r31
    23dc:	ef 91       	pop	r30
    23de:	bf 91       	pop	r27
    23e0:	af 91       	pop	r26
    23e2:	9f 91       	pop	r25
    23e4:	8f 91       	pop	r24
    23e6:	7f 91       	pop	r23
    23e8:	6f 91       	pop	r22
    23ea:	5f 91       	pop	r21
    23ec:	4f 91       	pop	r20
    23ee:	3f 91       	pop	r19
    23f0:	2f 91       	pop	r18
    23f2:	0f 90       	pop	r0
    23f4:	0b be       	out	0x3b, r0	; 59
    23f6:	0f 90       	pop	r0
    23f8:	0f be       	out	0x3f, r0	; 63
    23fa:	0f 90       	pop	r0
    23fc:	1f 90       	pop	r1
    23fe:	18 95       	reti

00002400 <__vector_6>:
    2400:	1f 92       	push	r1
    2402:	0f 92       	push	r0
    2404:	0f b6       	in	r0, 0x3f	; 63
    2406:	0f 92       	push	r0
    2408:	11 24       	eor	r1, r1
    240a:	0b b6       	in	r0, 0x3b	; 59
    240c:	0f 92       	push	r0
    240e:	2f 93       	push	r18
    2410:	3f 93       	push	r19
    2412:	4f 93       	push	r20
    2414:	5f 93       	push	r21
    2416:	6f 93       	push	r22
    2418:	7f 93       	push	r23
    241a:	8f 93       	push	r24
    241c:	9f 93       	push	r25
    241e:	af 93       	push	r26
    2420:	bf 93       	push	r27
    2422:	ef 93       	push	r30
    2424:	ff 93       	push	r31
    2426:	e0 91 03 02 	lds	r30, 0x0203	; 0x800203 <intFunc+0x2>
    242a:	f0 91 04 02 	lds	r31, 0x0204	; 0x800204 <intFunc+0x3>
    242e:	19 95       	eicall
    2430:	ff 91       	pop	r31
    2432:	ef 91       	pop	r30
    2434:	bf 91       	pop	r27
    2436:	af 91       	pop	r26
    2438:	9f 91       	pop	r25
    243a:	8f 91       	pop	r24
    243c:	7f 91       	pop	r23
    243e:	6f 91       	pop	r22
    2440:	5f 91       	pop	r21
    2442:	4f 91       	pop	r20
    2444:	3f 91       	pop	r19
    2446:	2f 91       	pop	r18
    2448:	0f 90       	pop	r0
    244a:	0b be       	out	0x3b, r0	; 59
    244c:	0f 90       	pop	r0
    244e:	0f be       	out	0x3f, r0	; 63
    2450:	0f 90       	pop	r0
    2452:	1f 90       	pop	r1
    2454:	18 95       	reti

00002456 <__vector_7>:
    2456:	1f 92       	push	r1
    2458:	0f 92       	push	r0
    245a:	0f b6       	in	r0, 0x3f	; 63
    245c:	0f 92       	push	r0
    245e:	11 24       	eor	r1, r1
    2460:	0b b6       	in	r0, 0x3b	; 59
    2462:	0f 92       	push	r0
    2464:	2f 93       	push	r18
    2466:	3f 93       	push	r19
    2468:	4f 93       	push	r20
    246a:	5f 93       	push	r21
    246c:	6f 93       	push	r22
    246e:	7f 93       	push	r23
    2470:	8f 93       	push	r24
    2472:	9f 93       	push	r25
    2474:	af 93       	push	r26
    2476:	bf 93       	push	r27
    2478:	ef 93       	push	r30
    247a:	ff 93       	push	r31
    247c:	e0 91 0d 02 	lds	r30, 0x020D	; 0x80020d <intFunc+0xc>
    2480:	f0 91 0e 02 	lds	r31, 0x020E	; 0x80020e <intFunc+0xd>
    2484:	19 95       	eicall
    2486:	ff 91       	pop	r31
    2488:	ef 91       	pop	r30
    248a:	bf 91       	pop	r27
    248c:	af 91       	pop	r26
    248e:	9f 91       	pop	r25
    2490:	8f 91       	pop	r24
    2492:	7f 91       	pop	r23
    2494:	6f 91       	pop	r22
    2496:	5f 91       	pop	r21
    2498:	4f 91       	pop	r20
    249a:	3f 91       	pop	r19
    249c:	2f 91       	pop	r18
    249e:	0f 90       	pop	r0
    24a0:	0b be       	out	0x3b, r0	; 59
    24a2:	0f 90       	pop	r0
    24a4:	0f be       	out	0x3f, r0	; 63
    24a6:	0f 90       	pop	r0
    24a8:	1f 90       	pop	r1
    24aa:	18 95       	reti

000024ac <__vector_8>:
    24ac:	1f 92       	push	r1
    24ae:	0f 92       	push	r0
    24b0:	0f b6       	in	r0, 0x3f	; 63
    24b2:	0f 92       	push	r0
    24b4:	11 24       	eor	r1, r1
    24b6:	0b b6       	in	r0, 0x3b	; 59
    24b8:	0f 92       	push	r0
    24ba:	2f 93       	push	r18
    24bc:	3f 93       	push	r19
    24be:	4f 93       	push	r20
    24c0:	5f 93       	push	r21
    24c2:	6f 93       	push	r22
    24c4:	7f 93       	push	r23
    24c6:	8f 93       	push	r24
    24c8:	9f 93       	push	r25
    24ca:	af 93       	push	r26
    24cc:	bf 93       	push	r27
    24ce:	ef 93       	push	r30
    24d0:	ff 93       	push	r31
    24d2:	e0 91 0f 02 	lds	r30, 0x020F	; 0x80020f <intFunc+0xe>
    24d6:	f0 91 10 02 	lds	r31, 0x0210	; 0x800210 <intFunc+0xf>
    24da:	19 95       	eicall
    24dc:	ff 91       	pop	r31
    24de:	ef 91       	pop	r30
    24e0:	bf 91       	pop	r27
    24e2:	af 91       	pop	r26
    24e4:	9f 91       	pop	r25
    24e6:	8f 91       	pop	r24
    24e8:	7f 91       	pop	r23
    24ea:	6f 91       	pop	r22
    24ec:	5f 91       	pop	r21
    24ee:	4f 91       	pop	r20
    24f0:	3f 91       	pop	r19
    24f2:	2f 91       	pop	r18
    24f4:	0f 90       	pop	r0
    24f6:	0b be       	out	0x3b, r0	; 59
    24f8:	0f 90       	pop	r0
    24fa:	0f be       	out	0x3f, r0	; 63
    24fc:	0f 90       	pop	r0
    24fe:	1f 90       	pop	r1
    2500:	18 95       	reti

00002502 <__vector_23>:
    2502:	1f 92       	push	r1
    2504:	0f 92       	push	r0
    2506:	0f b6       	in	r0, 0x3f	; 63
    2508:	0f 92       	push	r0
    250a:	11 24       	eor	r1, r1
    250c:	2f 93       	push	r18
    250e:	3f 93       	push	r19
    2510:	8f 93       	push	r24
    2512:	9f 93       	push	r25
    2514:	af 93       	push	r26
    2516:	bf 93       	push	r27
    2518:	80 91 f2 04 	lds	r24, 0x04F2	; 0x8004f2 <timer0_millis>
    251c:	90 91 f3 04 	lds	r25, 0x04F3	; 0x8004f3 <timer0_millis+0x1>
    2520:	a0 91 f4 04 	lds	r26, 0x04F4	; 0x8004f4 <timer0_millis+0x2>
    2524:	b0 91 f5 04 	lds	r27, 0x04F5	; 0x8004f5 <timer0_millis+0x3>
    2528:	30 91 fa 04 	lds	r19, 0x04FA	; 0x8004fa <timer0_fract>
    252c:	23 e0       	ldi	r18, 0x03	; 3
    252e:	23 0f       	add	r18, r19
    2530:	2d 37       	cpi	r18, 0x7D	; 125
    2532:	20 f4       	brcc	.+8      	; 0x253c <__vector_23+0x3a>
    2534:	01 96       	adiw	r24, 0x01	; 1
    2536:	a1 1d       	adc	r26, r1
    2538:	b1 1d       	adc	r27, r1
    253a:	05 c0       	rjmp	.+10     	; 0x2546 <__vector_23+0x44>
    253c:	26 e8       	ldi	r18, 0x86	; 134
    253e:	23 0f       	add	r18, r19
    2540:	02 96       	adiw	r24, 0x02	; 2
    2542:	a1 1d       	adc	r26, r1
    2544:	b1 1d       	adc	r27, r1
    2546:	20 93 fa 04 	sts	0x04FA, r18	; 0x8004fa <timer0_fract>
    254a:	80 93 f2 04 	sts	0x04F2, r24	; 0x8004f2 <timer0_millis>
    254e:	90 93 f3 04 	sts	0x04F3, r25	; 0x8004f3 <timer0_millis+0x1>
    2552:	a0 93 f4 04 	sts	0x04F4, r26	; 0x8004f4 <timer0_millis+0x2>
    2556:	b0 93 f5 04 	sts	0x04F5, r27	; 0x8004f5 <timer0_millis+0x3>
    255a:	80 91 f6 04 	lds	r24, 0x04F6	; 0x8004f6 <timer0_overflow_count>
    255e:	90 91 f7 04 	lds	r25, 0x04F7	; 0x8004f7 <timer0_overflow_count+0x1>
    2562:	a0 91 f8 04 	lds	r26, 0x04F8	; 0x8004f8 <timer0_overflow_count+0x2>
    2566:	b0 91 f9 04 	lds	r27, 0x04F9	; 0x8004f9 <timer0_overflow_count+0x3>
    256a:	01 96       	adiw	r24, 0x01	; 1
    256c:	a1 1d       	adc	r26, r1
    256e:	b1 1d       	adc	r27, r1
    2570:	80 93 f6 04 	sts	0x04F6, r24	; 0x8004f6 <timer0_overflow_count>
    2574:	90 93 f7 04 	sts	0x04F7, r25	; 0x8004f7 <timer0_overflow_count+0x1>
    2578:	a0 93 f8 04 	sts	0x04F8, r26	; 0x8004f8 <timer0_overflow_count+0x2>
    257c:	b0 93 f9 04 	sts	0x04F9, r27	; 0x8004f9 <timer0_overflow_count+0x3>
    2580:	bf 91       	pop	r27
    2582:	af 91       	pop	r26
    2584:	9f 91       	pop	r25
    2586:	8f 91       	pop	r24
    2588:	3f 91       	pop	r19
    258a:	2f 91       	pop	r18
    258c:	0f 90       	pop	r0
    258e:	0f be       	out	0x3f, r0	; 63
    2590:	0f 90       	pop	r0
    2592:	1f 90       	pop	r1
    2594:	18 95       	reti

00002596 <millis>:
    2596:	2f b7       	in	r18, 0x3f	; 63
    2598:	f8 94       	cli
    259a:	60 91 f2 04 	lds	r22, 0x04F2	; 0x8004f2 <timer0_millis>
    259e:	70 91 f3 04 	lds	r23, 0x04F3	; 0x8004f3 <timer0_millis+0x1>
    25a2:	80 91 f4 04 	lds	r24, 0x04F4	; 0x8004f4 <timer0_millis+0x2>
    25a6:	90 91 f5 04 	lds	r25, 0x04F5	; 0x8004f5 <timer0_millis+0x3>
    25aa:	2f bf       	out	0x3f, r18	; 63
    25ac:	08 95       	ret

000025ae <micros>:
    25ae:	3f b7       	in	r19, 0x3f	; 63
    25b0:	f8 94       	cli
    25b2:	80 91 f6 04 	lds	r24, 0x04F6	; 0x8004f6 <timer0_overflow_count>
    25b6:	90 91 f7 04 	lds	r25, 0x04F7	; 0x8004f7 <timer0_overflow_count+0x1>
    25ba:	a0 91 f8 04 	lds	r26, 0x04F8	; 0x8004f8 <timer0_overflow_count+0x2>
    25be:	b0 91 f9 04 	lds	r27, 0x04F9	; 0x8004f9 <timer0_overflow_count+0x3>
    25c2:	26 b5       	in	r18, 0x26	; 38
    25c4:	a8 9b       	sbis	0x15, 0	; 21
    25c6:	05 c0       	rjmp	.+10     	; 0x25d2 <micros+0x24>
    25c8:	2f 3f       	cpi	r18, 0xFF	; 255
    25ca:	19 f0       	breq	.+6      	; 0x25d2 <micros+0x24>
    25cc:	01 96       	adiw	r24, 0x01	; 1
    25ce:	a1 1d       	adc	r26, r1
    25d0:	b1 1d       	adc	r27, r1
    25d2:	3f bf       	out	0x3f, r19	; 63
    25d4:	ba 2f       	mov	r27, r26
    25d6:	a9 2f       	mov	r26, r25
    25d8:	98 2f       	mov	r25, r24
    25da:	88 27       	eor	r24, r24
    25dc:	82 0f       	add	r24, r18
    25de:	91 1d       	adc	r25, r1
    25e0:	a1 1d       	adc	r26, r1
    25e2:	b1 1d       	adc	r27, r1
    25e4:	bc 01       	movw	r22, r24
    25e6:	cd 01       	movw	r24, r26
    25e8:	42 e0       	ldi	r20, 0x02	; 2
    25ea:	66 0f       	add	r22, r22
    25ec:	77 1f       	adc	r23, r23
    25ee:	88 1f       	adc	r24, r24
    25f0:	99 1f       	adc	r25, r25
    25f2:	4a 95       	dec	r20
    25f4:	d1 f7       	brne	.-12     	; 0x25ea <micros+0x3c>
    25f6:	08 95       	ret

000025f8 <delay>:
    25f8:	8f 92       	push	r8
    25fa:	9f 92       	push	r9
    25fc:	af 92       	push	r10
    25fe:	bf 92       	push	r11
    2600:	cf 92       	push	r12
    2602:	df 92       	push	r13
    2604:	ef 92       	push	r14
    2606:	ff 92       	push	r15
    2608:	6b 01       	movw	r12, r22
    260a:	7c 01       	movw	r14, r24
    260c:	0e 94 d7 12 	call	0x25ae	; 0x25ae <micros>
    2610:	4b 01       	movw	r8, r22
    2612:	5c 01       	movw	r10, r24
    2614:	c1 14       	cp	r12, r1
    2616:	d1 04       	cpc	r13, r1
    2618:	e1 04       	cpc	r14, r1
    261a:	f1 04       	cpc	r15, r1
    261c:	01 f1       	breq	.+64     	; 0x265e <delay+0x66>
    261e:	0e 94 6b 05 	call	0xad6	; 0xad6 <yield>
    2622:	0e 94 d7 12 	call	0x25ae	; 0x25ae <micros>
    2626:	dc 01       	movw	r26, r24
    2628:	cb 01       	movw	r24, r22
    262a:	88 19       	sub	r24, r8
    262c:	99 09       	sbc	r25, r9
    262e:	aa 09       	sbc	r26, r10
    2630:	bb 09       	sbc	r27, r11
    2632:	88 3e       	cpi	r24, 0xE8	; 232
    2634:	93 40       	sbci	r25, 0x03	; 3
    2636:	a1 05       	cpc	r26, r1
    2638:	b1 05       	cpc	r27, r1
    263a:	60 f3       	brcs	.-40     	; 0x2614 <delay+0x1c>
    263c:	21 e0       	ldi	r18, 0x01	; 1
    263e:	c2 1a       	sub	r12, r18
    2640:	d1 08       	sbc	r13, r1
    2642:	e1 08       	sbc	r14, r1
    2644:	f1 08       	sbc	r15, r1
    2646:	88 ee       	ldi	r24, 0xE8	; 232
    2648:	88 0e       	add	r8, r24
    264a:	83 e0       	ldi	r24, 0x03	; 3
    264c:	98 1e       	adc	r9, r24
    264e:	a1 1c       	adc	r10, r1
    2650:	b1 1c       	adc	r11, r1
    2652:	c1 14       	cp	r12, r1
    2654:	d1 04       	cpc	r13, r1
    2656:	e1 04       	cpc	r14, r1
    2658:	f1 04       	cpc	r15, r1
    265a:	19 f7       	brne	.-58     	; 0x2622 <delay+0x2a>
    265c:	db cf       	rjmp	.-74     	; 0x2614 <delay+0x1c>
    265e:	ff 90       	pop	r15
    2660:	ef 90       	pop	r14
    2662:	df 90       	pop	r13
    2664:	cf 90       	pop	r12
    2666:	bf 90       	pop	r11
    2668:	af 90       	pop	r10
    266a:	9f 90       	pop	r9
    266c:	8f 90       	pop	r8
    266e:	08 95       	ret

00002670 <delayMicroseconds>:
    2670:	82 30       	cpi	r24, 0x02	; 2
    2672:	91 05       	cpc	r25, r1
    2674:	38 f0       	brcs	.+14     	; 0x2684 <delayMicroseconds+0x14>
    2676:	88 0f       	add	r24, r24
    2678:	99 1f       	adc	r25, r25
    267a:	88 0f       	add	r24, r24
    267c:	99 1f       	adc	r25, r25
    267e:	05 97       	sbiw	r24, 0x05	; 5
    2680:	01 97       	sbiw	r24, 0x01	; 1
    2682:	f1 f7       	brne	.-4      	; 0x2680 <delayMicroseconds+0x10>
    2684:	08 95       	ret

00002686 <init>:
    2686:	78 94       	sei
    2688:	84 b5       	in	r24, 0x24	; 36
    268a:	82 60       	ori	r24, 0x02	; 2
    268c:	84 bd       	out	0x24, r24	; 36
    268e:	84 b5       	in	r24, 0x24	; 36
    2690:	81 60       	ori	r24, 0x01	; 1
    2692:	84 bd       	out	0x24, r24	; 36
    2694:	85 b5       	in	r24, 0x25	; 37
    2696:	82 60       	ori	r24, 0x02	; 2
    2698:	85 bd       	out	0x25, r24	; 37
    269a:	85 b5       	in	r24, 0x25	; 37
    269c:	81 60       	ori	r24, 0x01	; 1
    269e:	85 bd       	out	0x25, r24	; 37
    26a0:	ee e6       	ldi	r30, 0x6E	; 110
    26a2:	f0 e0       	ldi	r31, 0x00	; 0
    26a4:	80 81       	ld	r24, Z
    26a6:	81 60       	ori	r24, 0x01	; 1
    26a8:	80 83       	st	Z, r24
    26aa:	e1 e8       	ldi	r30, 0x81	; 129
    26ac:	f0 e0       	ldi	r31, 0x00	; 0
    26ae:	10 82       	st	Z, r1
    26b0:	80 81       	ld	r24, Z
    26b2:	82 60       	ori	r24, 0x02	; 2
    26b4:	80 83       	st	Z, r24
    26b6:	80 81       	ld	r24, Z
    26b8:	81 60       	ori	r24, 0x01	; 1
    26ba:	80 83       	st	Z, r24
    26bc:	e0 e8       	ldi	r30, 0x80	; 128
    26be:	f0 e0       	ldi	r31, 0x00	; 0
    26c0:	80 81       	ld	r24, Z
    26c2:	81 60       	ori	r24, 0x01	; 1
    26c4:	80 83       	st	Z, r24
    26c6:	e1 eb       	ldi	r30, 0xB1	; 177
    26c8:	f0 e0       	ldi	r31, 0x00	; 0
    26ca:	80 81       	ld	r24, Z
    26cc:	84 60       	ori	r24, 0x04	; 4
    26ce:	80 83       	st	Z, r24
    26d0:	e0 eb       	ldi	r30, 0xB0	; 176
    26d2:	f0 e0       	ldi	r31, 0x00	; 0
    26d4:	80 81       	ld	r24, Z
    26d6:	81 60       	ori	r24, 0x01	; 1
    26d8:	80 83       	st	Z, r24
    26da:	e1 e9       	ldi	r30, 0x91	; 145
    26dc:	f0 e0       	ldi	r31, 0x00	; 0
    26de:	80 81       	ld	r24, Z
    26e0:	82 60       	ori	r24, 0x02	; 2
    26e2:	80 83       	st	Z, r24
    26e4:	80 81       	ld	r24, Z
    26e6:	81 60       	ori	r24, 0x01	; 1
    26e8:	80 83       	st	Z, r24
    26ea:	e0 e9       	ldi	r30, 0x90	; 144
    26ec:	f0 e0       	ldi	r31, 0x00	; 0
    26ee:	80 81       	ld	r24, Z
    26f0:	81 60       	ori	r24, 0x01	; 1
    26f2:	80 83       	st	Z, r24
    26f4:	e1 ea       	ldi	r30, 0xA1	; 161
    26f6:	f0 e0       	ldi	r31, 0x00	; 0
    26f8:	80 81       	ld	r24, Z
    26fa:	82 60       	ori	r24, 0x02	; 2
    26fc:	80 83       	st	Z, r24
    26fe:	80 81       	ld	r24, Z
    2700:	81 60       	ori	r24, 0x01	; 1
    2702:	80 83       	st	Z, r24
    2704:	e0 ea       	ldi	r30, 0xA0	; 160
    2706:	f0 e0       	ldi	r31, 0x00	; 0
    2708:	80 81       	ld	r24, Z
    270a:	81 60       	ori	r24, 0x01	; 1
    270c:	80 83       	st	Z, r24
    270e:	e1 e2       	ldi	r30, 0x21	; 33
    2710:	f1 e0       	ldi	r31, 0x01	; 1
    2712:	80 81       	ld	r24, Z
    2714:	82 60       	ori	r24, 0x02	; 2
    2716:	80 83       	st	Z, r24
    2718:	80 81       	ld	r24, Z
    271a:	81 60       	ori	r24, 0x01	; 1
    271c:	80 83       	st	Z, r24
    271e:	e0 e2       	ldi	r30, 0x20	; 32
    2720:	f1 e0       	ldi	r31, 0x01	; 1
    2722:	80 81       	ld	r24, Z
    2724:	81 60       	ori	r24, 0x01	; 1
    2726:	80 83       	st	Z, r24
    2728:	ea e7       	ldi	r30, 0x7A	; 122
    272a:	f0 e0       	ldi	r31, 0x00	; 0
    272c:	80 81       	ld	r24, Z
    272e:	84 60       	ori	r24, 0x04	; 4
    2730:	80 83       	st	Z, r24
    2732:	80 81       	ld	r24, Z
    2734:	82 60       	ori	r24, 0x02	; 2
    2736:	80 83       	st	Z, r24
    2738:	80 81       	ld	r24, Z
    273a:	81 60       	ori	r24, 0x01	; 1
    273c:	80 83       	st	Z, r24
    273e:	80 81       	ld	r24, Z
    2740:	80 68       	ori	r24, 0x80	; 128
    2742:	80 83       	st	Z, r24
    2744:	10 92 c1 00 	sts	0x00C1, r1	; 0x8000c1 <__TEXT_REGION_LENGTH__+0x7000c1>
    2748:	08 95       	ret

0000274a <analogReference>:
    274a:	80 93 11 02 	sts	0x0211, r24	; 0x800211 <analog_reference>
    274e:	08 95       	ret

00002750 <analogRead>:
    2750:	86 33       	cpi	r24, 0x36	; 54
    2752:	08 f0       	brcs	.+2      	; 0x2756 <analogRead+0x6>
    2754:	86 53       	subi	r24, 0x36	; 54
    2756:	90 91 7b 00 	lds	r25, 0x007B	; 0x80007b <__TEXT_REGION_LENGTH__+0x70007b>
    275a:	28 2f       	mov	r18, r24
    275c:	28 70       	andi	r18, 0x08	; 8
    275e:	97 7f       	andi	r25, 0xF7	; 247
    2760:	92 2b       	or	r25, r18
    2762:	90 93 7b 00 	sts	0x007B, r25	; 0x80007b <__TEXT_REGION_LENGTH__+0x70007b>
    2766:	20 91 11 02 	lds	r18, 0x0211	; 0x800211 <analog_reference>
    276a:	90 e4       	ldi	r25, 0x40	; 64
    276c:	29 9f       	mul	r18, r25
    276e:	90 01       	movw	r18, r0
    2770:	11 24       	eor	r1, r1
    2772:	87 70       	andi	r24, 0x07	; 7
    2774:	82 2b       	or	r24, r18
    2776:	80 93 7c 00 	sts	0x007C, r24	; 0x80007c <__TEXT_REGION_LENGTH__+0x70007c>
    277a:	80 91 7a 00 	lds	r24, 0x007A	; 0x80007a <__TEXT_REGION_LENGTH__+0x70007a>
    277e:	80 64       	ori	r24, 0x40	; 64
    2780:	80 93 7a 00 	sts	0x007A, r24	; 0x80007a <__TEXT_REGION_LENGTH__+0x70007a>
    2784:	80 91 7a 00 	lds	r24, 0x007A	; 0x80007a <__TEXT_REGION_LENGTH__+0x70007a>
    2788:	86 fd       	sbrc	r24, 6
    278a:	fc cf       	rjmp	.-8      	; 0x2784 <analogRead+0x34>
    278c:	80 91 78 00 	lds	r24, 0x0078	; 0x800078 <__TEXT_REGION_LENGTH__+0x700078>
    2790:	20 91 79 00 	lds	r18, 0x0079	; 0x800079 <__TEXT_REGION_LENGTH__+0x700079>
    2794:	90 e0       	ldi	r25, 0x00	; 0
    2796:	92 2b       	or	r25, r18
    2798:	08 95       	ret

0000279a <analogWrite>:
    279a:	1f 93       	push	r17
    279c:	cf 93       	push	r28
    279e:	df 93       	push	r29
    27a0:	18 2f       	mov	r17, r24
    27a2:	eb 01       	movw	r28, r22
    27a4:	61 e0       	ldi	r22, 0x01	; 1
    27a6:	0e 94 ec 14 	call	0x29d8	; 0x29d8 <pinMode>
    27aa:	20 97       	sbiw	r28, 0x00	; 0
    27ac:	11 f4       	brne	.+4      	; 0x27b2 <analogWrite+0x18>
    27ae:	60 e0       	ldi	r22, 0x00	; 0
    27b0:	04 c0       	rjmp	.+8      	; 0x27ba <analogWrite+0x20>
    27b2:	cf 3f       	cpi	r28, 0xFF	; 255
    27b4:	d1 05       	cpc	r29, r1
    27b6:	39 f4       	brne	.+14     	; 0x27c6 <analogWrite+0x2c>
    27b8:	61 e0       	ldi	r22, 0x01	; 1
    27ba:	81 2f       	mov	r24, r17
    27bc:	df 91       	pop	r29
    27be:	cf 91       	pop	r28
    27c0:	1f 91       	pop	r17
    27c2:	0c 94 28 15 	jmp	0x2a50	; 0x2a50 <digitalWrite>
    27c6:	e1 2f       	mov	r30, r17
    27c8:	f0 e0       	ldi	r31, 0x00	; 0
    27ca:	ee 56       	subi	r30, 0x6E	; 110
    27cc:	fc 4f       	sbci	r31, 0xFC	; 252
    27ce:	e4 91       	lpm	r30, Z
    27d0:	8e 2f       	mov	r24, r30
    27d2:	90 e0       	ldi	r25, 0x00	; 0
    27d4:	fc 01       	movw	r30, r24
    27d6:	31 97       	sbiw	r30, 0x01	; 1
    27d8:	e2 31       	cpi	r30, 0x12	; 18
    27da:	f1 05       	cpc	r31, r1
    27dc:	08 f0       	brcs	.+2      	; 0x27e0 <analogWrite+0x46>
    27de:	9d c0       	rjmp	.+314    	; 0x291a <analogWrite+0x180>
    27e0:	88 27       	eor	r24, r24
    27e2:	e0 58       	subi	r30, 0x80	; 128
    27e4:	ff 4f       	sbci	r31, 0xFF	; 255
    27e6:	8f 4f       	sbci	r24, 0xFF	; 255
    27e8:	0c 94 25 22 	jmp	0x444a	; 0x444a <__tablejump2__>
    27ec:	84 b5       	in	r24, 0x24	; 36
    27ee:	80 68       	ori	r24, 0x80	; 128
    27f0:	84 bd       	out	0x24, r24	; 36
    27f2:	c7 bd       	out	0x27, r28	; 39
    27f4:	97 c0       	rjmp	.+302    	; 0x2924 <analogWrite+0x18a>
    27f6:	84 b5       	in	r24, 0x24	; 36
    27f8:	80 62       	ori	r24, 0x20	; 32
    27fa:	84 bd       	out	0x24, r24	; 36
    27fc:	c8 bd       	out	0x28, r28	; 40
    27fe:	92 c0       	rjmp	.+292    	; 0x2924 <analogWrite+0x18a>
    2800:	80 91 80 00 	lds	r24, 0x0080	; 0x800080 <__TEXT_REGION_LENGTH__+0x700080>
    2804:	80 68       	ori	r24, 0x80	; 128
    2806:	80 93 80 00 	sts	0x0080, r24	; 0x800080 <__TEXT_REGION_LENGTH__+0x700080>
    280a:	d0 93 89 00 	sts	0x0089, r29	; 0x800089 <__TEXT_REGION_LENGTH__+0x700089>
    280e:	c0 93 88 00 	sts	0x0088, r28	; 0x800088 <__TEXT_REGION_LENGTH__+0x700088>
    2812:	88 c0       	rjmp	.+272    	; 0x2924 <analogWrite+0x18a>
    2814:	80 91 80 00 	lds	r24, 0x0080	; 0x800080 <__TEXT_REGION_LENGTH__+0x700080>
    2818:	80 62       	ori	r24, 0x20	; 32
    281a:	80 93 80 00 	sts	0x0080, r24	; 0x800080 <__TEXT_REGION_LENGTH__+0x700080>
    281e:	d0 93 8b 00 	sts	0x008B, r29	; 0x80008b <__TEXT_REGION_LENGTH__+0x70008b>
    2822:	c0 93 8a 00 	sts	0x008A, r28	; 0x80008a <__TEXT_REGION_LENGTH__+0x70008a>
    2826:	7e c0       	rjmp	.+252    	; 0x2924 <analogWrite+0x18a>
    2828:	80 91 80 00 	lds	r24, 0x0080	; 0x800080 <__TEXT_REGION_LENGTH__+0x700080>
    282c:	88 60       	ori	r24, 0x08	; 8
    282e:	80 93 80 00 	sts	0x0080, r24	; 0x800080 <__TEXT_REGION_LENGTH__+0x700080>
    2832:	d0 93 8d 00 	sts	0x008D, r29	; 0x80008d <__TEXT_REGION_LENGTH__+0x70008d>
    2836:	c0 93 8c 00 	sts	0x008C, r28	; 0x80008c <__TEXT_REGION_LENGTH__+0x70008c>
    283a:	74 c0       	rjmp	.+232    	; 0x2924 <analogWrite+0x18a>
    283c:	80 91 b0 00 	lds	r24, 0x00B0	; 0x8000b0 <__TEXT_REGION_LENGTH__+0x7000b0>
    2840:	80 68       	ori	r24, 0x80	; 128
    2842:	80 93 b0 00 	sts	0x00B0, r24	; 0x8000b0 <__TEXT_REGION_LENGTH__+0x7000b0>
    2846:	c0 93 b3 00 	sts	0x00B3, r28	; 0x8000b3 <__TEXT_REGION_LENGTH__+0x7000b3>
    284a:	6c c0       	rjmp	.+216    	; 0x2924 <analogWrite+0x18a>
    284c:	80 91 b0 00 	lds	r24, 0x00B0	; 0x8000b0 <__TEXT_REGION_LENGTH__+0x7000b0>
    2850:	80 62       	ori	r24, 0x20	; 32
    2852:	80 93 b0 00 	sts	0x00B0, r24	; 0x8000b0 <__TEXT_REGION_LENGTH__+0x7000b0>
    2856:	c0 93 b4 00 	sts	0x00B4, r28	; 0x8000b4 <__TEXT_REGION_LENGTH__+0x7000b4>
    285a:	64 c0       	rjmp	.+200    	; 0x2924 <analogWrite+0x18a>
    285c:	80 91 90 00 	lds	r24, 0x0090	; 0x800090 <__TEXT_REGION_LENGTH__+0x700090>
    2860:	80 68       	ori	r24, 0x80	; 128
    2862:	80 93 90 00 	sts	0x0090, r24	; 0x800090 <__TEXT_REGION_LENGTH__+0x700090>
    2866:	d0 93 99 00 	sts	0x0099, r29	; 0x800099 <__TEXT_REGION_LENGTH__+0x700099>
    286a:	c0 93 98 00 	sts	0x0098, r28	; 0x800098 <__TEXT_REGION_LENGTH__+0x700098>
    286e:	5a c0       	rjmp	.+180    	; 0x2924 <analogWrite+0x18a>
    2870:	80 91 90 00 	lds	r24, 0x0090	; 0x800090 <__TEXT_REGION_LENGTH__+0x700090>
    2874:	80 62       	ori	r24, 0x20	; 32
    2876:	80 93 90 00 	sts	0x0090, r24	; 0x800090 <__TEXT_REGION_LENGTH__+0x700090>
    287a:	d0 93 9b 00 	sts	0x009B, r29	; 0x80009b <__TEXT_REGION_LENGTH__+0x70009b>
    287e:	c0 93 9a 00 	sts	0x009A, r28	; 0x80009a <__TEXT_REGION_LENGTH__+0x70009a>
    2882:	50 c0       	rjmp	.+160    	; 0x2924 <analogWrite+0x18a>
    2884:	80 91 90 00 	lds	r24, 0x0090	; 0x800090 <__TEXT_REGION_LENGTH__+0x700090>
    2888:	88 60       	ori	r24, 0x08	; 8
    288a:	80 93 90 00 	sts	0x0090, r24	; 0x800090 <__TEXT_REGION_LENGTH__+0x700090>
    288e:	d0 93 9d 00 	sts	0x009D, r29	; 0x80009d <__TEXT_REGION_LENGTH__+0x70009d>
    2892:	c0 93 9c 00 	sts	0x009C, r28	; 0x80009c <__TEXT_REGION_LENGTH__+0x70009c>
    2896:	46 c0       	rjmp	.+140    	; 0x2924 <analogWrite+0x18a>
    2898:	80 91 a0 00 	lds	r24, 0x00A0	; 0x8000a0 <__TEXT_REGION_LENGTH__+0x7000a0>
    289c:	80 68       	ori	r24, 0x80	; 128
    289e:	80 93 a0 00 	sts	0x00A0, r24	; 0x8000a0 <__TEXT_REGION_LENGTH__+0x7000a0>
    28a2:	80 91 a0 00 	lds	r24, 0x00A0	; 0x8000a0 <__TEXT_REGION_LENGTH__+0x7000a0>
    28a6:	8f 7b       	andi	r24, 0xBF	; 191
    28a8:	80 93 a0 00 	sts	0x00A0, r24	; 0x8000a0 <__TEXT_REGION_LENGTH__+0x7000a0>
    28ac:	d0 93 a9 00 	sts	0x00A9, r29	; 0x8000a9 <__TEXT_REGION_LENGTH__+0x7000a9>
    28b0:	c0 93 a8 00 	sts	0x00A8, r28	; 0x8000a8 <__TEXT_REGION_LENGTH__+0x7000a8>
    28b4:	37 c0       	rjmp	.+110    	; 0x2924 <analogWrite+0x18a>
    28b6:	80 91 a0 00 	lds	r24, 0x00A0	; 0x8000a0 <__TEXT_REGION_LENGTH__+0x7000a0>
    28ba:	80 62       	ori	r24, 0x20	; 32
    28bc:	80 93 a0 00 	sts	0x00A0, r24	; 0x8000a0 <__TEXT_REGION_LENGTH__+0x7000a0>
    28c0:	d0 93 ab 00 	sts	0x00AB, r29	; 0x8000ab <__TEXT_REGION_LENGTH__+0x7000ab>
    28c4:	c0 93 aa 00 	sts	0x00AA, r28	; 0x8000aa <__TEXT_REGION_LENGTH__+0x7000aa>
    28c8:	2d c0       	rjmp	.+90     	; 0x2924 <analogWrite+0x18a>
    28ca:	80 91 a0 00 	lds	r24, 0x00A0	; 0x8000a0 <__TEXT_REGION_LENGTH__+0x7000a0>
    28ce:	88 60       	ori	r24, 0x08	; 8
    28d0:	80 93 a0 00 	sts	0x00A0, r24	; 0x8000a0 <__TEXT_REGION_LENGTH__+0x7000a0>
    28d4:	d0 93 ad 00 	sts	0x00AD, r29	; 0x8000ad <__TEXT_REGION_LENGTH__+0x7000ad>
    28d8:	c0 93 ac 00 	sts	0x00AC, r28	; 0x8000ac <__TEXT_REGION_LENGTH__+0x7000ac>
    28dc:	23 c0       	rjmp	.+70     	; 0x2924 <analogWrite+0x18a>
    28de:	80 91 20 01 	lds	r24, 0x0120	; 0x800120 <__TEXT_REGION_LENGTH__+0x700120>
    28e2:	80 68       	ori	r24, 0x80	; 128
    28e4:	80 93 20 01 	sts	0x0120, r24	; 0x800120 <__TEXT_REGION_LENGTH__+0x700120>
    28e8:	d0 93 29 01 	sts	0x0129, r29	; 0x800129 <__TEXT_REGION_LENGTH__+0x700129>
    28ec:	c0 93 28 01 	sts	0x0128, r28	; 0x800128 <__TEXT_REGION_LENGTH__+0x700128>
    28f0:	19 c0       	rjmp	.+50     	; 0x2924 <analogWrite+0x18a>
    28f2:	80 91 20 01 	lds	r24, 0x0120	; 0x800120 <__TEXT_REGION_LENGTH__+0x700120>
    28f6:	80 62       	ori	r24, 0x20	; 32
    28f8:	80 93 20 01 	sts	0x0120, r24	; 0x800120 <__TEXT_REGION_LENGTH__+0x700120>
    28fc:	d0 93 2b 01 	sts	0x012B, r29	; 0x80012b <__TEXT_REGION_LENGTH__+0x70012b>
    2900:	c0 93 2a 01 	sts	0x012A, r28	; 0x80012a <__TEXT_REGION_LENGTH__+0x70012a>
    2904:	0f c0       	rjmp	.+30     	; 0x2924 <analogWrite+0x18a>
    2906:	80 91 20 01 	lds	r24, 0x0120	; 0x800120 <__TEXT_REGION_LENGTH__+0x700120>
    290a:	88 60       	ori	r24, 0x08	; 8
    290c:	80 93 20 01 	sts	0x0120, r24	; 0x800120 <__TEXT_REGION_LENGTH__+0x700120>
    2910:	d0 93 2d 01 	sts	0x012D, r29	; 0x80012d <__TEXT_REGION_LENGTH__+0x70012d>
    2914:	c0 93 2c 01 	sts	0x012C, r28	; 0x80012c <__TEXT_REGION_LENGTH__+0x70012c>
    2918:	05 c0       	rjmp	.+10     	; 0x2924 <analogWrite+0x18a>
    291a:	c0 38       	cpi	r28, 0x80	; 128
    291c:	d1 05       	cpc	r29, r1
    291e:	0c f0       	brlt	.+2      	; 0x2922 <analogWrite+0x188>
    2920:	4b cf       	rjmp	.-362    	; 0x27b8 <analogWrite+0x1e>
    2922:	45 cf       	rjmp	.-374    	; 0x27ae <analogWrite+0x14>
    2924:	df 91       	pop	r29
    2926:	cf 91       	pop	r28
    2928:	1f 91       	pop	r17
    292a:	08 95       	ret

0000292c <turnOffPWM>:
    292c:	90 e0       	ldi	r25, 0x00	; 0
    292e:	fc 01       	movw	r30, r24
    2930:	31 97       	sbiw	r30, 0x01	; 1
    2932:	e2 31       	cpi	r30, 0x12	; 18
    2934:	f1 05       	cpc	r31, r1
    2936:	08 f0       	brcs	.+2      	; 0x293a <turnOffPWM+0xe>
    2938:	4e c0       	rjmp	.+156    	; 0x29d6 <turnOffPWM+0xaa>
    293a:	88 27       	eor	r24, r24
    293c:	ee 56       	subi	r30, 0x6E	; 110
    293e:	ff 4f       	sbci	r31, 0xFF	; 255
    2940:	8f 4f       	sbci	r24, 0xFF	; 255
    2942:	0c 94 25 22 	jmp	0x444a	; 0x444a <__tablejump2__>
    2946:	80 91 80 00 	lds	r24, 0x0080	; 0x800080 <__TEXT_REGION_LENGTH__+0x700080>
    294a:	8f 77       	andi	r24, 0x7F	; 127
    294c:	03 c0       	rjmp	.+6      	; 0x2954 <turnOffPWM+0x28>
    294e:	80 91 80 00 	lds	r24, 0x0080	; 0x800080 <__TEXT_REGION_LENGTH__+0x700080>
    2952:	8f 7d       	andi	r24, 0xDF	; 223
    2954:	80 93 80 00 	sts	0x0080, r24	; 0x800080 <__TEXT_REGION_LENGTH__+0x700080>
    2958:	08 95       	ret
    295a:	80 91 80 00 	lds	r24, 0x0080	; 0x800080 <__TEXT_REGION_LENGTH__+0x700080>
    295e:	87 7f       	andi	r24, 0xF7	; 247
    2960:	f9 cf       	rjmp	.-14     	; 0x2954 <turnOffPWM+0x28>
    2962:	84 b5       	in	r24, 0x24	; 36
    2964:	8f 77       	andi	r24, 0x7F	; 127
    2966:	02 c0       	rjmp	.+4      	; 0x296c <turnOffPWM+0x40>
    2968:	84 b5       	in	r24, 0x24	; 36
    296a:	8f 7d       	andi	r24, 0xDF	; 223
    296c:	84 bd       	out	0x24, r24	; 36
    296e:	08 95       	ret
    2970:	80 91 b0 00 	lds	r24, 0x00B0	; 0x8000b0 <__TEXT_REGION_LENGTH__+0x7000b0>
    2974:	8f 77       	andi	r24, 0x7F	; 127
    2976:	03 c0       	rjmp	.+6      	; 0x297e <turnOffPWM+0x52>
    2978:	80 91 b0 00 	lds	r24, 0x00B0	; 0x8000b0 <__TEXT_REGION_LENGTH__+0x7000b0>
    297c:	8f 7d       	andi	r24, 0xDF	; 223
    297e:	80 93 b0 00 	sts	0x00B0, r24	; 0x8000b0 <__TEXT_REGION_LENGTH__+0x7000b0>
    2982:	08 95       	ret
    2984:	80 91 90 00 	lds	r24, 0x0090	; 0x800090 <__TEXT_REGION_LENGTH__+0x700090>
    2988:	8f 77       	andi	r24, 0x7F	; 127
    298a:	07 c0       	rjmp	.+14     	; 0x299a <turnOffPWM+0x6e>
    298c:	80 91 90 00 	lds	r24, 0x0090	; 0x800090 <__TEXT_REGION_LENGTH__+0x700090>
    2990:	8f 7d       	andi	r24, 0xDF	; 223
    2992:	03 c0       	rjmp	.+6      	; 0x299a <turnOffPWM+0x6e>
    2994:	80 91 90 00 	lds	r24, 0x0090	; 0x800090 <__TEXT_REGION_LENGTH__+0x700090>
    2998:	87 7f       	andi	r24, 0xF7	; 247
    299a:	80 93 90 00 	sts	0x0090, r24	; 0x800090 <__TEXT_REGION_LENGTH__+0x700090>
    299e:	08 95       	ret
    29a0:	80 91 a0 00 	lds	r24, 0x00A0	; 0x8000a0 <__TEXT_REGION_LENGTH__+0x7000a0>
    29a4:	8f 77       	andi	r24, 0x7F	; 127
    29a6:	07 c0       	rjmp	.+14     	; 0x29b6 <turnOffPWM+0x8a>
    29a8:	80 91 a0 00 	lds	r24, 0x00A0	; 0x8000a0 <__TEXT_REGION_LENGTH__+0x7000a0>
    29ac:	8f 7d       	andi	r24, 0xDF	; 223
    29ae:	03 c0       	rjmp	.+6      	; 0x29b6 <turnOffPWM+0x8a>
    29b0:	80 91 a0 00 	lds	r24, 0x00A0	; 0x8000a0 <__TEXT_REGION_LENGTH__+0x7000a0>
    29b4:	87 7f       	andi	r24, 0xF7	; 247
    29b6:	80 93 a0 00 	sts	0x00A0, r24	; 0x8000a0 <__TEXT_REGION_LENGTH__+0x7000a0>
    29ba:	08 95       	ret
    29bc:	80 91 20 01 	lds	r24, 0x0120	; 0x800120 <__TEXT_REGION_LENGTH__+0x700120>
    29c0:	8f 77       	andi	r24, 0x7F	; 127
    29c2:	07 c0       	rjmp	.+14     	; 0x29d2 <turnOffPWM+0xa6>
    29c4:	80 91 20 01 	lds	r24, 0x0120	; 0x800120 <__TEXT_REGION_LENGTH__+0x700120>
    29c8:	8f 7d       	andi	r24, 0xDF	; 223
    29ca:	03 c0       	rjmp	.+6      	; 0x29d2 <turnOffPWM+0xa6>
    29cc:	80 91 20 01 	lds	r24, 0x0120	; 0x800120 <__TEXT_REGION_LENGTH__+0x700120>
    29d0:	87 7f       	andi	r24, 0xF7	; 247
    29d2:	80 93 20 01 	sts	0x0120, r24	; 0x800120 <__TEXT_REGION_LENGTH__+0x700120>
    29d6:	08 95       	ret

000029d8 <pinMode>:
    29d8:	cf 93       	push	r28
    29da:	df 93       	push	r29
    29dc:	90 e0       	ldi	r25, 0x00	; 0
    29de:	fc 01       	movw	r30, r24
    29e0:	ea 55       	subi	r30, 0x5A	; 90
    29e2:	fc 4f       	sbci	r31, 0xFC	; 252
    29e4:	24 91       	lpm	r18, Z
    29e6:	fc 01       	movw	r30, r24
    29e8:	e6 54       	subi	r30, 0x46	; 70
    29ea:	fc 4f       	sbci	r31, 0xFC	; 252
    29ec:	84 91       	lpm	r24, Z
    29ee:	88 23       	and	r24, r24
    29f0:	61 f1       	breq	.+88     	; 0x2a4a <pinMode+0x72>
    29f2:	90 e0       	ldi	r25, 0x00	; 0
    29f4:	88 0f       	add	r24, r24
    29f6:	99 1f       	adc	r25, r25
    29f8:	fc 01       	movw	r30, r24
    29fa:	ee 51       	subi	r30, 0x1E	; 30
    29fc:	fc 4f       	sbci	r31, 0xFC	; 252
    29fe:	c5 91       	lpm	r28, Z+
    2a00:	d4 91       	lpm	r29, Z
    2a02:	fc 01       	movw	r30, r24
    2a04:	e8 52       	subi	r30, 0x28	; 40
    2a06:	fc 4f       	sbci	r31, 0xFC	; 252
    2a08:	a5 91       	lpm	r26, Z+
    2a0a:	b4 91       	lpm	r27, Z
    2a0c:	61 11       	cpse	r22, r1
    2a0e:	09 c0       	rjmp	.+18     	; 0x2a22 <pinMode+0x4a>
    2a10:	9f b7       	in	r25, 0x3f	; 63
    2a12:	f8 94       	cli
    2a14:	88 81       	ld	r24, Y
    2a16:	20 95       	com	r18
    2a18:	82 23       	and	r24, r18
    2a1a:	88 83       	st	Y, r24
    2a1c:	ec 91       	ld	r30, X
    2a1e:	2e 23       	and	r18, r30
    2a20:	0b c0       	rjmp	.+22     	; 0x2a38 <pinMode+0x60>
    2a22:	62 30       	cpi	r22, 0x02	; 2
    2a24:	61 f4       	brne	.+24     	; 0x2a3e <pinMode+0x66>
    2a26:	9f b7       	in	r25, 0x3f	; 63
    2a28:	f8 94       	cli
    2a2a:	88 81       	ld	r24, Y
    2a2c:	32 2f       	mov	r19, r18
    2a2e:	30 95       	com	r19
    2a30:	83 23       	and	r24, r19
    2a32:	88 83       	st	Y, r24
    2a34:	ec 91       	ld	r30, X
    2a36:	2e 2b       	or	r18, r30
    2a38:	2c 93       	st	X, r18
    2a3a:	9f bf       	out	0x3f, r25	; 63
    2a3c:	06 c0       	rjmp	.+12     	; 0x2a4a <pinMode+0x72>
    2a3e:	8f b7       	in	r24, 0x3f	; 63
    2a40:	f8 94       	cli
    2a42:	e8 81       	ld	r30, Y
    2a44:	2e 2b       	or	r18, r30
    2a46:	28 83       	st	Y, r18
    2a48:	8f bf       	out	0x3f, r24	; 63
    2a4a:	df 91       	pop	r29
    2a4c:	cf 91       	pop	r28
    2a4e:	08 95       	ret

00002a50 <digitalWrite>:
    2a50:	1f 93       	push	r17
    2a52:	cf 93       	push	r28
    2a54:	df 93       	push	r29
    2a56:	28 2f       	mov	r18, r24
    2a58:	30 e0       	ldi	r19, 0x00	; 0
    2a5a:	f9 01       	movw	r30, r18
    2a5c:	ee 56       	subi	r30, 0x6E	; 110
    2a5e:	fc 4f       	sbci	r31, 0xFC	; 252
    2a60:	84 91       	lpm	r24, Z
    2a62:	f9 01       	movw	r30, r18
    2a64:	ea 55       	subi	r30, 0x5A	; 90
    2a66:	fc 4f       	sbci	r31, 0xFC	; 252
    2a68:	d4 91       	lpm	r29, Z
    2a6a:	f9 01       	movw	r30, r18
    2a6c:	e6 54       	subi	r30, 0x46	; 70
    2a6e:	fc 4f       	sbci	r31, 0xFC	; 252
    2a70:	c4 91       	lpm	r28, Z
    2a72:	cc 23       	and	r28, r28
    2a74:	c1 f0       	breq	.+48     	; 0x2aa6 <digitalWrite+0x56>
    2a76:	16 2f       	mov	r17, r22
    2a78:	81 11       	cpse	r24, r1
    2a7a:	0e 94 96 14 	call	0x292c	; 0x292c <turnOffPWM>
    2a7e:	ec 2f       	mov	r30, r28
    2a80:	f0 e0       	ldi	r31, 0x00	; 0
    2a82:	ee 0f       	add	r30, r30
    2a84:	ff 1f       	adc	r31, r31
    2a86:	e8 52       	subi	r30, 0x28	; 40
    2a88:	fc 4f       	sbci	r31, 0xFC	; 252
    2a8a:	a5 91       	lpm	r26, Z+
    2a8c:	b4 91       	lpm	r27, Z
    2a8e:	9f b7       	in	r25, 0x3f	; 63
    2a90:	f8 94       	cli
    2a92:	11 11       	cpse	r17, r1
    2a94:	04 c0       	rjmp	.+8      	; 0x2a9e <digitalWrite+0x4e>
    2a96:	8c 91       	ld	r24, X
    2a98:	d0 95       	com	r29
    2a9a:	d8 23       	and	r29, r24
    2a9c:	02 c0       	rjmp	.+4      	; 0x2aa2 <digitalWrite+0x52>
    2a9e:	ec 91       	ld	r30, X
    2aa0:	de 2b       	or	r29, r30
    2aa2:	dc 93       	st	X, r29
    2aa4:	9f bf       	out	0x3f, r25	; 63
    2aa6:	df 91       	pop	r29
    2aa8:	cf 91       	pop	r28
    2aaa:	1f 91       	pop	r17
    2aac:	08 95       	ret

00002aae <digitalRead>:
    2aae:	cf 93       	push	r28
    2ab0:	df 93       	push	r29
    2ab2:	28 2f       	mov	r18, r24
    2ab4:	30 e0       	ldi	r19, 0x00	; 0
    2ab6:	f9 01       	movw	r30, r18
    2ab8:	ee 56       	subi	r30, 0x6E	; 110
    2aba:	fc 4f       	sbci	r31, 0xFC	; 252
    2abc:	84 91       	lpm	r24, Z
    2abe:	f9 01       	movw	r30, r18
    2ac0:	ea 55       	subi	r30, 0x5A	; 90
    2ac2:	fc 4f       	sbci	r31, 0xFC	; 252
    2ac4:	d4 91       	lpm	r29, Z
    2ac6:	f9 01       	movw	r30, r18
    2ac8:	e6 54       	subi	r30, 0x46	; 70
    2aca:	fc 4f       	sbci	r31, 0xFC	; 252
    2acc:	c4 91       	lpm	r28, Z
    2ace:	cc 23       	and	r28, r28
    2ad0:	91 f0       	breq	.+36     	; 0x2af6 <digitalRead+0x48>
    2ad2:	81 11       	cpse	r24, r1
    2ad4:	0e 94 96 14 	call	0x292c	; 0x292c <turnOffPWM>
    2ad8:	ec 2f       	mov	r30, r28
    2ada:	f0 e0       	ldi	r31, 0x00	; 0
    2adc:	ee 0f       	add	r30, r30
    2ade:	ff 1f       	adc	r31, r31
    2ae0:	e2 53       	subi	r30, 0x32	; 50
    2ae2:	fc 4f       	sbci	r31, 0xFC	; 252
    2ae4:	a5 91       	lpm	r26, Z+
    2ae6:	b4 91       	lpm	r27, Z
    2ae8:	ec 91       	ld	r30, X
    2aea:	ed 23       	and	r30, r29
    2aec:	81 e0       	ldi	r24, 0x01	; 1
    2aee:	90 e0       	ldi	r25, 0x00	; 0
    2af0:	21 f4       	brne	.+8      	; 0x2afa <digitalRead+0x4c>
    2af2:	80 e0       	ldi	r24, 0x00	; 0
    2af4:	02 c0       	rjmp	.+4      	; 0x2afa <digitalRead+0x4c>
    2af6:	80 e0       	ldi	r24, 0x00	; 0
    2af8:	90 e0       	ldi	r25, 0x00	; 0
    2afa:	df 91       	pop	r29
    2afc:	cf 91       	pop	r28
    2afe:	08 95       	ret

00002b00 <pulseInLong>:
    2b00:	4f 92       	push	r4
    2b02:	5f 92       	push	r5
    2b04:	6f 92       	push	r6
    2b06:	7f 92       	push	r7
    2b08:	8f 92       	push	r8
    2b0a:	9f 92       	push	r9
    2b0c:	af 92       	push	r10
    2b0e:	bf 92       	push	r11
    2b10:	cf 92       	push	r12
    2b12:	df 92       	push	r13
    2b14:	ef 92       	push	r14
    2b16:	ff 92       	push	r15
    2b18:	0f 93       	push	r16
    2b1a:	1f 93       	push	r17
    2b1c:	cf 93       	push	r28
    2b1e:	df 93       	push	r29
    2b20:	49 01       	movw	r8, r18
    2b22:	5a 01       	movw	r10, r20
    2b24:	90 e0       	ldi	r25, 0x00	; 0
    2b26:	fc 01       	movw	r30, r24
    2b28:	ea 55       	subi	r30, 0x5A	; 90
    2b2a:	fc 4f       	sbci	r31, 0xFC	; 252
    2b2c:	14 91       	lpm	r17, Z
    2b2e:	fc 01       	movw	r30, r24
    2b30:	e6 54       	subi	r30, 0x46	; 70
    2b32:	fc 4f       	sbci	r31, 0xFC	; 252
    2b34:	c4 91       	lpm	r28, Z
    2b36:	66 23       	and	r22, r22
    2b38:	11 f0       	breq	.+4      	; 0x2b3e <pulseInLong+0x3e>
    2b3a:	01 2f       	mov	r16, r17
    2b3c:	01 c0       	rjmp	.+2      	; 0x2b40 <pulseInLong+0x40>
    2b3e:	00 e0       	ldi	r16, 0x00	; 0
    2b40:	0e 94 d7 12 	call	0x25ae	; 0x25ae <micros>
    2b44:	6b 01       	movw	r12, r22
    2b46:	7c 01       	movw	r14, r24
    2b48:	d0 e0       	ldi	r29, 0x00	; 0
    2b4a:	cc 0f       	add	r28, r28
    2b4c:	dd 1f       	adc	r29, r29
    2b4e:	c2 53       	subi	r28, 0x32	; 50
    2b50:	dc 4f       	sbci	r29, 0xFC	; 252
    2b52:	fe 01       	movw	r30, r28
    2b54:	a5 91       	lpm	r26, Z+
    2b56:	b4 91       	lpm	r27, Z
    2b58:	8c 91       	ld	r24, X
    2b5a:	81 23       	and	r24, r17
    2b5c:	08 13       	cpse	r16, r24
    2b5e:	1e c0       	rjmp	.+60     	; 0x2b9c <pulseInLong+0x9c>
    2b60:	0e 94 d7 12 	call	0x25ae	; 0x25ae <micros>
    2b64:	dc 01       	movw	r26, r24
    2b66:	cb 01       	movw	r24, r22
    2b68:	8c 19       	sub	r24, r12
    2b6a:	9d 09       	sbc	r25, r13
    2b6c:	ae 09       	sbc	r26, r14
    2b6e:	bf 09       	sbc	r27, r15
    2b70:	88 16       	cp	r8, r24
    2b72:	99 06       	cpc	r9, r25
    2b74:	aa 06       	cpc	r10, r26
    2b76:	bb 06       	cpc	r11, r27
    2b78:	60 f7       	brcc	.-40     	; 0x2b52 <pulseInLong+0x52>
    2b7a:	60 e0       	ldi	r22, 0x00	; 0
    2b7c:	70 e0       	ldi	r23, 0x00	; 0
    2b7e:	cb 01       	movw	r24, r22
    2b80:	33 c0       	rjmp	.+102    	; 0x2be8 <pulseInLong+0xe8>
    2b82:	0e 94 d7 12 	call	0x25ae	; 0x25ae <micros>
    2b86:	dc 01       	movw	r26, r24
    2b88:	cb 01       	movw	r24, r22
    2b8a:	8c 19       	sub	r24, r12
    2b8c:	9d 09       	sbc	r25, r13
    2b8e:	ae 09       	sbc	r26, r14
    2b90:	bf 09       	sbc	r27, r15
    2b92:	88 16       	cp	r8, r24
    2b94:	99 06       	cpc	r9, r25
    2b96:	aa 06       	cpc	r10, r26
    2b98:	bb 06       	cpc	r11, r27
    2b9a:	78 f3       	brcs	.-34     	; 0x2b7a <pulseInLong+0x7a>
    2b9c:	fe 01       	movw	r30, r28
    2b9e:	a5 91       	lpm	r26, Z+
    2ba0:	b4 91       	lpm	r27, Z
    2ba2:	8c 91       	ld	r24, X
    2ba4:	81 23       	and	r24, r17
    2ba6:	08 13       	cpse	r16, r24
    2ba8:	ec cf       	rjmp	.-40     	; 0x2b82 <pulseInLong+0x82>
    2baa:	0e 94 d7 12 	call	0x25ae	; 0x25ae <micros>
    2bae:	2b 01       	movw	r4, r22
    2bb0:	3c 01       	movw	r6, r24
    2bb2:	fe 01       	movw	r30, r28
    2bb4:	a5 91       	lpm	r26, Z+
    2bb6:	b4 91       	lpm	r27, Z
    2bb8:	8c 91       	ld	r24, X
    2bba:	81 23       	and	r24, r17
    2bbc:	08 13       	cpse	r16, r24
    2bbe:	0e c0       	rjmp	.+28     	; 0x2bdc <pulseInLong+0xdc>
    2bc0:	0e 94 d7 12 	call	0x25ae	; 0x25ae <micros>
    2bc4:	dc 01       	movw	r26, r24
    2bc6:	cb 01       	movw	r24, r22
    2bc8:	8c 19       	sub	r24, r12
    2bca:	9d 09       	sbc	r25, r13
    2bcc:	ae 09       	sbc	r26, r14
    2bce:	bf 09       	sbc	r27, r15
    2bd0:	88 16       	cp	r8, r24
    2bd2:	99 06       	cpc	r9, r25
    2bd4:	aa 06       	cpc	r10, r26
    2bd6:	bb 06       	cpc	r11, r27
    2bd8:	60 f7       	brcc	.-40     	; 0x2bb2 <pulseInLong+0xb2>
    2bda:	cf cf       	rjmp	.-98     	; 0x2b7a <pulseInLong+0x7a>
    2bdc:	0e 94 d7 12 	call	0x25ae	; 0x25ae <micros>
    2be0:	64 19       	sub	r22, r4
    2be2:	75 09       	sbc	r23, r5
    2be4:	86 09       	sbc	r24, r6
    2be6:	97 09       	sbc	r25, r7
    2be8:	df 91       	pop	r29
    2bea:	cf 91       	pop	r28
    2bec:	1f 91       	pop	r17
    2bee:	0f 91       	pop	r16
    2bf0:	ff 90       	pop	r15
    2bf2:	ef 90       	pop	r14
    2bf4:	df 90       	pop	r13
    2bf6:	cf 90       	pop	r12
    2bf8:	bf 90       	pop	r11
    2bfa:	af 90       	pop	r10
    2bfc:	9f 90       	pop	r9
    2bfe:	8f 90       	pop	r8
    2c00:	7f 90       	pop	r7
    2c02:	6f 90       	pop	r6
    2c04:	5f 90       	pop	r5
    2c06:	4f 90       	pop	r4
    2c08:	08 95       	ret

00002c0a <countPulseASM>:
    2c0a:	cf 92       	push	r12
    2c0c:	df 92       	push	r13
    2c0e:	ef 92       	push	r14
    2c10:	ff 92       	push	r15
    2c12:	0f 93       	push	r16
    2c14:	1f 93       	push	r17
    2c16:	fc 01       	movw	r30, r24
    2c18:	80 81       	ld	r24, Z
    2c1a:	86 23       	and	r24, r22
    2c1c:	84 13       	cpse	r24, r20
    2c1e:	0b c0       	rjmp	.+22     	; 0x2c36 <countPulseASM+0x2c>
    2c20:	01 50       	subi	r16, 0x01	; 1
    2c22:	11 09       	sbc	r17, r1
    2c24:	21 09       	sbc	r18, r1
    2c26:	31 09       	sbc	r19, r1
    2c28:	b9 f7       	brne	.-18     	; 0x2c18 <countPulseASM+0xe>
    2c2a:	1e c0       	rjmp	.+60     	; 0x2c68 <countPulseASM+0x5e>
    2c2c:	01 50       	subi	r16, 0x01	; 1
    2c2e:	11 09       	sbc	r17, r1
    2c30:	21 09       	sbc	r18, r1
    2c32:	31 09       	sbc	r19, r1
    2c34:	c9 f0       	breq	.+50     	; 0x2c68 <countPulseASM+0x5e>
    2c36:	80 81       	ld	r24, Z
    2c38:	86 23       	and	r24, r22
    2c3a:	48 13       	cpse	r20, r24
    2c3c:	f7 cf       	rjmp	.-18     	; 0x2c2c <countPulseASM+0x22>
    2c3e:	c1 2c       	mov	r12, r1
    2c40:	d1 2c       	mov	r13, r1
    2c42:	76 01       	movw	r14, r12
    2c44:	90 81       	ld	r25, Z
    2c46:	96 23       	and	r25, r22
    2c48:	49 13       	cpse	r20, r25
    2c4a:	0b c0       	rjmp	.+22     	; 0x2c62 <countPulseASM+0x58>
    2c4c:	8f ef       	ldi	r24, 0xFF	; 255
    2c4e:	c8 1a       	sub	r12, r24
    2c50:	d8 0a       	sbc	r13, r24
    2c52:	e8 0a       	sbc	r14, r24
    2c54:	f8 0a       	sbc	r15, r24
    2c56:	0c 15       	cp	r16, r12
    2c58:	1d 05       	cpc	r17, r13
    2c5a:	2e 05       	cpc	r18, r14
    2c5c:	3f 05       	cpc	r19, r15
    2c5e:	91 f7       	brne	.-28     	; 0x2c44 <countPulseASM+0x3a>
    2c60:	03 c0       	rjmp	.+6      	; 0x2c68 <countPulseASM+0x5e>
    2c62:	b6 01       	movw	r22, r12
    2c64:	c7 01       	movw	r24, r14
    2c66:	04 c0       	rjmp	.+8      	; 0x2c70 <countPulseASM+0x66>
    2c68:	60 e0       	ldi	r22, 0x00	; 0
    2c6a:	70 e0       	ldi	r23, 0x00	; 0
    2c6c:	80 e0       	ldi	r24, 0x00	; 0
    2c6e:	90 e0       	ldi	r25, 0x00	; 0
    2c70:	1f 91       	pop	r17
    2c72:	0f 91       	pop	r16
    2c74:	ff 90       	pop	r15
    2c76:	ef 90       	pop	r14
    2c78:	df 90       	pop	r13
    2c7a:	cf 90       	pop	r12
    2c7c:	08 95       	ret

00002c7e <pulseIn>:
    2c7e:	0f 93       	push	r16
    2c80:	1f 93       	push	r17
    2c82:	90 e0       	ldi	r25, 0x00	; 0
    2c84:	fc 01       	movw	r30, r24
    2c86:	ea 55       	subi	r30, 0x5A	; 90
    2c88:	fc 4f       	sbci	r31, 0xFC	; 252
    2c8a:	74 91       	lpm	r23, Z
    2c8c:	fc 01       	movw	r30, r24
    2c8e:	e6 54       	subi	r30, 0x46	; 70
    2c90:	fc 4f       	sbci	r31, 0xFC	; 252
    2c92:	e4 91       	lpm	r30, Z
    2c94:	66 23       	and	r22, r22
    2c96:	11 f0       	breq	.+4      	; 0x2c9c <pulseIn+0x1e>
    2c98:	67 2f       	mov	r22, r23
    2c9a:	01 c0       	rjmp	.+2      	; 0x2c9e <pulseIn+0x20>
    2c9c:	60 e0       	ldi	r22, 0x00	; 0
    2c9e:	f0 e0       	ldi	r31, 0x00	; 0
    2ca0:	ee 0f       	add	r30, r30
    2ca2:	ff 1f       	adc	r31, r31
    2ca4:	e2 53       	subi	r30, 0x32	; 50
    2ca6:	fc 4f       	sbci	r31, 0xFC	; 252
    2ca8:	85 91       	lpm	r24, Z+
    2caa:	94 91       	lpm	r25, Z
    2cac:	89 01       	movw	r16, r18
    2cae:	9a 01       	movw	r18, r20
    2cb0:	3f 70       	andi	r19, 0x0F	; 15
    2cb2:	46 2f       	mov	r20, r22
    2cb4:	67 2f       	mov	r22, r23
    2cb6:	0e 94 05 16 	call	0x2c0a	; 0x2c0a <countPulseASM>
    2cba:	61 15       	cp	r22, r1
    2cbc:	71 05       	cpc	r23, r1
    2cbe:	81 05       	cpc	r24, r1
    2cc0:	91 05       	cpc	r25, r1
    2cc2:	49 f0       	breq	.+18     	; 0x2cd6 <pulseIn+0x58>
    2cc4:	dc 01       	movw	r26, r24
    2cc6:	cb 01       	movw	r24, r22
    2cc8:	01 96       	adiw	r24, 0x01	; 1
    2cca:	a1 1d       	adc	r26, r1
    2ccc:	b1 1d       	adc	r27, r1
    2cce:	bc 01       	movw	r22, r24
    2cd0:	cd 01       	movw	r24, r26
    2cd2:	9f 70       	andi	r25, 0x0F	; 15
    2cd4:	03 c0       	rjmp	.+6      	; 0x2cdc <pulseIn+0x5e>
    2cd6:	60 e0       	ldi	r22, 0x00	; 0
    2cd8:	70 e0       	ldi	r23, 0x00	; 0
    2cda:	cb 01       	movw	r24, r22
    2cdc:	1f 91       	pop	r17
    2cde:	0f 91       	pop	r16
    2ce0:	08 95       	ret

00002ce2 <shiftIn>:
    2ce2:	cf 92       	push	r12
    2ce4:	df 92       	push	r13
    2ce6:	ef 92       	push	r14
    2ce8:	ff 92       	push	r15
    2cea:	0f 93       	push	r16
    2cec:	1f 93       	push	r17
    2cee:	cf 93       	push	r28
    2cf0:	df 93       	push	r29
    2cf2:	f8 2e       	mov	r15, r24
    2cf4:	d6 2f       	mov	r29, r22
    2cf6:	e4 2e       	mov	r14, r20
    2cf8:	07 e0       	ldi	r16, 0x07	; 7
    2cfa:	10 e0       	ldi	r17, 0x00	; 0
    2cfc:	c0 e0       	ldi	r28, 0x00	; 0
    2cfe:	87 e0       	ldi	r24, 0x07	; 7
    2d00:	c8 2e       	mov	r12, r24
    2d02:	d1 2c       	mov	r13, r1
    2d04:	61 e0       	ldi	r22, 0x01	; 1
    2d06:	8d 2f       	mov	r24, r29
    2d08:	0e 94 28 15 	call	0x2a50	; 0x2a50 <digitalWrite>
    2d0c:	8f 2d       	mov	r24, r15
    2d0e:	e1 10       	cpse	r14, r1
    2d10:	0a c0       	rjmp	.+20     	; 0x2d26 <shiftIn+0x44>
    2d12:	0e 94 57 15 	call	0x2aae	; 0x2aae <digitalRead>
    2d16:	96 01       	movw	r18, r12
    2d18:	20 1b       	sub	r18, r16
    2d1a:	31 0b       	sbc	r19, r17
    2d1c:	01 c0       	rjmp	.+2      	; 0x2d20 <shiftIn+0x3e>
    2d1e:	88 0f       	add	r24, r24
    2d20:	2a 95       	dec	r18
    2d22:	ea f7       	brpl	.-6      	; 0x2d1e <shiftIn+0x3c>
    2d24:	07 c0       	rjmp	.+14     	; 0x2d34 <shiftIn+0x52>
    2d26:	0e 94 57 15 	call	0x2aae	; 0x2aae <digitalRead>
    2d2a:	00 2e       	mov	r0, r16
    2d2c:	01 c0       	rjmp	.+2      	; 0x2d30 <shiftIn+0x4e>
    2d2e:	88 0f       	add	r24, r24
    2d30:	0a 94       	dec	r0
    2d32:	ea f7       	brpl	.-6      	; 0x2d2e <shiftIn+0x4c>
    2d34:	c8 2b       	or	r28, r24
    2d36:	60 e0       	ldi	r22, 0x00	; 0
    2d38:	8d 2f       	mov	r24, r29
    2d3a:	0e 94 28 15 	call	0x2a50	; 0x2a50 <digitalWrite>
    2d3e:	01 50       	subi	r16, 0x01	; 1
    2d40:	11 09       	sbc	r17, r1
    2d42:	00 f7       	brcc	.-64     	; 0x2d04 <shiftIn+0x22>
    2d44:	8c 2f       	mov	r24, r28
    2d46:	df 91       	pop	r29
    2d48:	cf 91       	pop	r28
    2d4a:	1f 91       	pop	r17
    2d4c:	0f 91       	pop	r16
    2d4e:	ff 90       	pop	r15
    2d50:	ef 90       	pop	r14
    2d52:	df 90       	pop	r13
    2d54:	cf 90       	pop	r12
    2d56:	08 95       	ret

00002d58 <shiftOut>:
    2d58:	bf 92       	push	r11
    2d5a:	cf 92       	push	r12
    2d5c:	df 92       	push	r13
    2d5e:	ef 92       	push	r14
    2d60:	ff 92       	push	r15
    2d62:	0f 93       	push	r16
    2d64:	1f 93       	push	r17
    2d66:	cf 93       	push	r28
    2d68:	df 93       	push	r29
    2d6a:	c8 2e       	mov	r12, r24
    2d6c:	d6 2e       	mov	r13, r22
    2d6e:	b4 2e       	mov	r11, r20
    2d70:	c7 e0       	ldi	r28, 0x07	; 7
    2d72:	d0 e0       	ldi	r29, 0x00	; 0
    2d74:	02 2f       	mov	r16, r18
    2d76:	10 e0       	ldi	r17, 0x00	; 0
    2d78:	87 e0       	ldi	r24, 0x07	; 7
    2d7a:	e8 2e       	mov	r14, r24
    2d7c:	f1 2c       	mov	r15, r1
    2d7e:	b1 10       	cpse	r11, r1
    2d80:	05 c0       	rjmp	.+10     	; 0x2d8c <shiftOut+0x34>
    2d82:	c7 01       	movw	r24, r14
    2d84:	8c 1b       	sub	r24, r28
    2d86:	9d 0b       	sbc	r25, r29
    2d88:	b8 01       	movw	r22, r16
    2d8a:	02 c0       	rjmp	.+4      	; 0x2d90 <shiftOut+0x38>
    2d8c:	b8 01       	movw	r22, r16
    2d8e:	8c 2f       	mov	r24, r28
    2d90:	02 c0       	rjmp	.+4      	; 0x2d96 <shiftOut+0x3e>
    2d92:	75 95       	asr	r23
    2d94:	67 95       	ror	r22
    2d96:	8a 95       	dec	r24
    2d98:	e2 f7       	brpl	.-8      	; 0x2d92 <shiftOut+0x3a>
    2d9a:	61 70       	andi	r22, 0x01	; 1
    2d9c:	8c 2d       	mov	r24, r12
    2d9e:	0e 94 28 15 	call	0x2a50	; 0x2a50 <digitalWrite>
    2da2:	61 e0       	ldi	r22, 0x01	; 1
    2da4:	8d 2d       	mov	r24, r13
    2da6:	0e 94 28 15 	call	0x2a50	; 0x2a50 <digitalWrite>
    2daa:	60 e0       	ldi	r22, 0x00	; 0
    2dac:	8d 2d       	mov	r24, r13
    2dae:	0e 94 28 15 	call	0x2a50	; 0x2a50 <digitalWrite>
    2db2:	21 97       	sbiw	r28, 0x01	; 1
    2db4:	20 f7       	brcc	.-56     	; 0x2d7e <shiftOut+0x26>
    2db6:	df 91       	pop	r29
    2db8:	cf 91       	pop	r28
    2dba:	1f 91       	pop	r17
    2dbc:	0f 91       	pop	r16
    2dbe:	ff 90       	pop	r15
    2dc0:	ef 90       	pop	r14
    2dc2:	df 90       	pop	r13
    2dc4:	cf 90       	pop	r12
    2dc6:	bf 90       	pop	r11
    2dc8:	08 95       	ret

00002dca <_Z10randomSeedm>:
    2dca:	61 15       	cp	r22, r1
    2dcc:	71 05       	cpc	r23, r1
    2dce:	81 05       	cpc	r24, r1
    2dd0:	91 05       	cpc	r25, r1
    2dd2:	11 f0       	breq	.+4      	; 0x2dd8 <_Z10randomSeedm+0xe>
    2dd4:	0c 94 5d 26 	jmp	0x4cba	; 0x4cba <srandom>
    2dd8:	08 95       	ret

00002dda <_Z6randoml>:
    2dda:	cf 92       	push	r12
    2ddc:	df 92       	push	r13
    2dde:	ef 92       	push	r14
    2de0:	ff 92       	push	r15
    2de2:	61 15       	cp	r22, r1
    2de4:	71 05       	cpc	r23, r1
    2de6:	81 05       	cpc	r24, r1
    2de8:	91 05       	cpc	r25, r1
    2dea:	49 f0       	breq	.+18     	; 0x2dfe <_Z6randoml+0x24>
    2dec:	6b 01       	movw	r12, r22
    2dee:	7c 01       	movw	r14, r24
    2df0:	0e 94 0f 26 	call	0x4c1e	; 0x4c1e <random>
    2df4:	a7 01       	movw	r20, r14
    2df6:	96 01       	movw	r18, r12
    2df8:	0e 94 06 22 	call	0x440c	; 0x440c <__divmodsi4>
    2dfc:	03 c0       	rjmp	.+6      	; 0x2e04 <_Z6randoml+0x2a>
    2dfe:	60 e0       	ldi	r22, 0x00	; 0
    2e00:	70 e0       	ldi	r23, 0x00	; 0
    2e02:	cb 01       	movw	r24, r22
    2e04:	ff 90       	pop	r15
    2e06:	ef 90       	pop	r14
    2e08:	df 90       	pop	r13
    2e0a:	cf 90       	pop	r12
    2e0c:	08 95       	ret

00002e0e <_Z6randomll>:
    2e0e:	cf 92       	push	r12
    2e10:	df 92       	push	r13
    2e12:	ef 92       	push	r14
    2e14:	ff 92       	push	r15
    2e16:	0f 93       	push	r16
    2e18:	1f 93       	push	r17
    2e1a:	62 17       	cp	r22, r18
    2e1c:	73 07       	cpc	r23, r19
    2e1e:	84 07       	cpc	r24, r20
    2e20:	95 07       	cpc	r25, r21
    2e22:	84 f4       	brge	.+32     	; 0x2e44 <_Z6randomll+0x36>
    2e24:	89 01       	movw	r16, r18
    2e26:	9a 01       	movw	r18, r20
    2e28:	6b 01       	movw	r12, r22
    2e2a:	7c 01       	movw	r14, r24
    2e2c:	c9 01       	movw	r24, r18
    2e2e:	b8 01       	movw	r22, r16
    2e30:	6c 19       	sub	r22, r12
    2e32:	7d 09       	sbc	r23, r13
    2e34:	8e 09       	sbc	r24, r14
    2e36:	9f 09       	sbc	r25, r15
    2e38:	0e 94 ed 16 	call	0x2dda	; 0x2dda <_Z6randoml>
    2e3c:	6c 0d       	add	r22, r12
    2e3e:	7d 1d       	adc	r23, r13
    2e40:	8e 1d       	adc	r24, r14
    2e42:	9f 1d       	adc	r25, r15
    2e44:	1f 91       	pop	r17
    2e46:	0f 91       	pop	r16
    2e48:	ff 90       	pop	r15
    2e4a:	ef 90       	pop	r14
    2e4c:	df 90       	pop	r13
    2e4e:	cf 90       	pop	r12
    2e50:	08 95       	ret

00002e52 <_Z3maplllll>:
    2e52:	4f 92       	push	r4
    2e54:	5f 92       	push	r5
    2e56:	6f 92       	push	r6
    2e58:	7f 92       	push	r7
    2e5a:	af 92       	push	r10
    2e5c:	bf 92       	push	r11
    2e5e:	cf 92       	push	r12
    2e60:	df 92       	push	r13
    2e62:	ef 92       	push	r14
    2e64:	ff 92       	push	r15
    2e66:	0f 93       	push	r16
    2e68:	1f 93       	push	r17
    2e6a:	cf 93       	push	r28
    2e6c:	df 93       	push	r29
    2e6e:	cd b7       	in	r28, 0x3d	; 61
    2e70:	de b7       	in	r29, 0x3e	; 62
    2e72:	29 01       	movw	r4, r18
    2e74:	3a 01       	movw	r6, r20
    2e76:	9b 01       	movw	r18, r22
    2e78:	ac 01       	movw	r20, r24
    2e7a:	24 19       	sub	r18, r4
    2e7c:	35 09       	sbc	r19, r5
    2e7e:	46 09       	sbc	r20, r6
    2e80:	57 09       	sbc	r21, r7
    2e82:	8a 89       	ldd	r24, Y+18	; 0x12
    2e84:	9b 89       	ldd	r25, Y+19	; 0x13
    2e86:	ac 89       	ldd	r26, Y+20	; 0x14
    2e88:	bd 89       	ldd	r27, Y+21	; 0x15
    2e8a:	bc 01       	movw	r22, r24
    2e8c:	cd 01       	movw	r24, r26
    2e8e:	6a 19       	sub	r22, r10
    2e90:	7b 09       	sbc	r23, r11
    2e92:	8c 09       	sbc	r24, r12
    2e94:	9d 09       	sbc	r25, r13
    2e96:	0e 94 d4 21 	call	0x43a8	; 0x43a8 <__mulsi3>
    2e9a:	a8 01       	movw	r20, r16
    2e9c:	97 01       	movw	r18, r14
    2e9e:	24 19       	sub	r18, r4
    2ea0:	35 09       	sbc	r19, r5
    2ea2:	46 09       	sbc	r20, r6
    2ea4:	57 09       	sbc	r21, r7
    2ea6:	0e 94 06 22 	call	0x440c	; 0x440c <__divmodsi4>
    2eaa:	ca 01       	movw	r24, r20
    2eac:	b9 01       	movw	r22, r18
    2eae:	6a 0d       	add	r22, r10
    2eb0:	7b 1d       	adc	r23, r11
    2eb2:	8c 1d       	adc	r24, r12
    2eb4:	9d 1d       	adc	r25, r13
    2eb6:	df 91       	pop	r29
    2eb8:	cf 91       	pop	r28
    2eba:	1f 91       	pop	r17
    2ebc:	0f 91       	pop	r16
    2ebe:	ff 90       	pop	r15
    2ec0:	ef 90       	pop	r14
    2ec2:	df 90       	pop	r13
    2ec4:	cf 90       	pop	r12
    2ec6:	bf 90       	pop	r11
    2ec8:	af 90       	pop	r10
    2eca:	7f 90       	pop	r7
    2ecc:	6f 90       	pop	r6
    2ece:	5f 90       	pop	r5
    2ed0:	4f 90       	pop	r4
    2ed2:	08 95       	ret

00002ed4 <_Z8makeWordj>:
    2ed4:	08 95       	ret

00002ed6 <_Z8makeWordhh>:
    2ed6:	70 e0       	ldi	r23, 0x00	; 0
    2ed8:	9b 01       	movw	r18, r22
    2eda:	38 2b       	or	r19, r24
    2edc:	c9 01       	movw	r24, r18
    2ede:	08 95       	ret

00002ee0 <_ZN6StringD1Ev>:
    2ee0:	fc 01       	movw	r30, r24
    2ee2:	80 81       	ld	r24, Z
    2ee4:	91 81       	ldd	r25, Z+1	; 0x01
    2ee6:	0c 94 3b 25 	jmp	0x4a76	; 0x4a76 <free>

00002eea <_ZN6String10invalidateEv>:
    2eea:	cf 93       	push	r28
    2eec:	df 93       	push	r29
    2eee:	ec 01       	movw	r28, r24
    2ef0:	88 81       	ld	r24, Y
    2ef2:	99 81       	ldd	r25, Y+1	; 0x01
    2ef4:	00 97       	sbiw	r24, 0x00	; 0
    2ef6:	11 f0       	breq	.+4      	; 0x2efc <_ZN6String10invalidateEv+0x12>
    2ef8:	0e 94 3b 25 	call	0x4a76	; 0x4a76 <free>
    2efc:	19 82       	std	Y+1, r1	; 0x01
    2efe:	18 82       	st	Y, r1
    2f00:	1d 82       	std	Y+5, r1	; 0x05
    2f02:	1c 82       	std	Y+4, r1	; 0x04
    2f04:	1b 82       	std	Y+3, r1	; 0x03
    2f06:	1a 82       	std	Y+2, r1	; 0x02
    2f08:	df 91       	pop	r29
    2f0a:	cf 91       	pop	r28
    2f0c:	08 95       	ret

00002f0e <_ZN6String12changeBufferEj>:
    2f0e:	0f 93       	push	r16
    2f10:	1f 93       	push	r17
    2f12:	cf 93       	push	r28
    2f14:	df 93       	push	r29
    2f16:	ec 01       	movw	r28, r24
    2f18:	8b 01       	movw	r16, r22
    2f1a:	6f 5f       	subi	r22, 0xFF	; 255
    2f1c:	7f 4f       	sbci	r23, 0xFF	; 255
    2f1e:	88 81       	ld	r24, Y
    2f20:	99 81       	ldd	r25, Y+1	; 0x01
    2f22:	0e 94 66 26 	call	0x4ccc	; 0x4ccc <realloc>
    2f26:	00 97       	sbiw	r24, 0x00	; 0
    2f28:	31 f0       	breq	.+12     	; 0x2f36 <_ZN6String12changeBufferEj+0x28>
    2f2a:	99 83       	std	Y+1, r25	; 0x01
    2f2c:	88 83       	st	Y, r24
    2f2e:	1b 83       	std	Y+3, r17	; 0x03
    2f30:	0a 83       	std	Y+2, r16	; 0x02
    2f32:	81 e0       	ldi	r24, 0x01	; 1
    2f34:	01 c0       	rjmp	.+2      	; 0x2f38 <_ZN6String12changeBufferEj+0x2a>
    2f36:	80 e0       	ldi	r24, 0x00	; 0
    2f38:	df 91       	pop	r29
    2f3a:	cf 91       	pop	r28
    2f3c:	1f 91       	pop	r17
    2f3e:	0f 91       	pop	r16
    2f40:	08 95       	ret

00002f42 <_ZN6String7reserveEj>:
    2f42:	cf 93       	push	r28
    2f44:	df 93       	push	r29
    2f46:	ec 01       	movw	r28, r24
    2f48:	88 81       	ld	r24, Y
    2f4a:	99 81       	ldd	r25, Y+1	; 0x01
    2f4c:	89 2b       	or	r24, r25
    2f4e:	29 f0       	breq	.+10     	; 0x2f5a <_ZN6String7reserveEj+0x18>
    2f50:	8a 81       	ldd	r24, Y+2	; 0x02
    2f52:	9b 81       	ldd	r25, Y+3	; 0x03
    2f54:	86 17       	cp	r24, r22
    2f56:	97 07       	cpc	r25, r23
    2f58:	60 f4       	brcc	.+24     	; 0x2f72 <_ZN6String7reserveEj+0x30>
    2f5a:	ce 01       	movw	r24, r28
    2f5c:	0e 94 87 17 	call	0x2f0e	; 0x2f0e <_ZN6String12changeBufferEj>
    2f60:	88 23       	and	r24, r24
    2f62:	41 f0       	breq	.+16     	; 0x2f74 <_ZN6String7reserveEj+0x32>
    2f64:	8c 81       	ldd	r24, Y+4	; 0x04
    2f66:	9d 81       	ldd	r25, Y+5	; 0x05
    2f68:	89 2b       	or	r24, r25
    2f6a:	19 f4       	brne	.+6      	; 0x2f72 <_ZN6String7reserveEj+0x30>
    2f6c:	e8 81       	ld	r30, Y
    2f6e:	f9 81       	ldd	r31, Y+1	; 0x01
    2f70:	10 82       	st	Z, r1
    2f72:	81 e0       	ldi	r24, 0x01	; 1
    2f74:	df 91       	pop	r29
    2f76:	cf 91       	pop	r28
    2f78:	08 95       	ret

00002f7a <_ZN6String4copyEPKcj>:
    2f7a:	ef 92       	push	r14
    2f7c:	ff 92       	push	r15
    2f7e:	0f 93       	push	r16
    2f80:	1f 93       	push	r17
    2f82:	cf 93       	push	r28
    2f84:	df 93       	push	r29
    2f86:	ec 01       	movw	r28, r24
    2f88:	7b 01       	movw	r14, r22
    2f8a:	8a 01       	movw	r16, r20
    2f8c:	ba 01       	movw	r22, r20
    2f8e:	0e 94 a1 17 	call	0x2f42	; 0x2f42 <_ZN6String7reserveEj>
    2f92:	81 11       	cpse	r24, r1
    2f94:	04 c0       	rjmp	.+8      	; 0x2f9e <_ZN6String4copyEPKcj+0x24>
    2f96:	ce 01       	movw	r24, r28
    2f98:	0e 94 75 17 	call	0x2eea	; 0x2eea <_ZN6String10invalidateEv>
    2f9c:	07 c0       	rjmp	.+14     	; 0x2fac <_ZN6String4copyEPKcj+0x32>
    2f9e:	1d 83       	std	Y+5, r17	; 0x05
    2fa0:	0c 83       	std	Y+4, r16	; 0x04
    2fa2:	b7 01       	movw	r22, r14
    2fa4:	88 81       	ld	r24, Y
    2fa6:	99 81       	ldd	r25, Y+1	; 0x01
    2fa8:	0e 94 e0 27 	call	0x4fc0	; 0x4fc0 <strcpy>
    2fac:	ce 01       	movw	r24, r28
    2fae:	df 91       	pop	r29
    2fb0:	cf 91       	pop	r28
    2fb2:	1f 91       	pop	r17
    2fb4:	0f 91       	pop	r16
    2fb6:	ff 90       	pop	r15
    2fb8:	ef 90       	pop	r14
    2fba:	08 95       	ret

00002fbc <_ZN6StringC1EPKc>:
    2fbc:	fc 01       	movw	r30, r24
    2fbe:	11 82       	std	Z+1, r1	; 0x01
    2fc0:	10 82       	st	Z, r1
    2fc2:	13 82       	std	Z+3, r1	; 0x03
    2fc4:	12 82       	std	Z+2, r1	; 0x02
    2fc6:	15 82       	std	Z+5, r1	; 0x05
    2fc8:	14 82       	std	Z+4, r1	; 0x04
    2fca:	61 15       	cp	r22, r1
    2fcc:	71 05       	cpc	r23, r1
    2fce:	51 f0       	breq	.+20     	; 0x2fe4 <_ZN6StringC1EPKc+0x28>
    2fd0:	fb 01       	movw	r30, r22
    2fd2:	01 90       	ld	r0, Z+
    2fd4:	00 20       	and	r0, r0
    2fd6:	e9 f7       	brne	.-6      	; 0x2fd2 <_ZN6StringC1EPKc+0x16>
    2fd8:	31 97       	sbiw	r30, 0x01	; 1
    2fda:	af 01       	movw	r20, r30
    2fdc:	46 1b       	sub	r20, r22
    2fde:	57 0b       	sbc	r21, r23
    2fe0:	0c 94 bd 17 	jmp	0x2f7a	; 0x2f7a <_ZN6String4copyEPKcj>
    2fe4:	08 95       	ret

00002fe6 <_ZN6String4copyEPK19__FlashStringHelperj>:
    2fe6:	ef 92       	push	r14
    2fe8:	ff 92       	push	r15
    2fea:	0f 93       	push	r16
    2fec:	1f 93       	push	r17
    2fee:	cf 93       	push	r28
    2ff0:	df 93       	push	r29
    2ff2:	ec 01       	movw	r28, r24
    2ff4:	7b 01       	movw	r14, r22
    2ff6:	8a 01       	movw	r16, r20
    2ff8:	ba 01       	movw	r22, r20
    2ffa:	0e 94 a1 17 	call	0x2f42	; 0x2f42 <_ZN6String7reserveEj>
    2ffe:	81 11       	cpse	r24, r1
    3000:	04 c0       	rjmp	.+8      	; 0x300a <_ZN6String4copyEPK19__FlashStringHelperj+0x24>
    3002:	ce 01       	movw	r24, r28
    3004:	0e 94 75 17 	call	0x2eea	; 0x2eea <_ZN6String10invalidateEv>
    3008:	07 c0       	rjmp	.+14     	; 0x3018 <_ZN6String4copyEPK19__FlashStringHelperj+0x32>
    300a:	1d 83       	std	Y+5, r17	; 0x05
    300c:	0c 83       	std	Y+4, r16	; 0x04
    300e:	b7 01       	movw	r22, r14
    3010:	88 81       	ld	r24, Y
    3012:	99 81       	ldd	r25, Y+1	; 0x01
    3014:	0e 94 94 27 	call	0x4f28	; 0x4f28 <strcpy_P>
    3018:	ce 01       	movw	r24, r28
    301a:	df 91       	pop	r29
    301c:	cf 91       	pop	r28
    301e:	1f 91       	pop	r17
    3020:	0f 91       	pop	r16
    3022:	ff 90       	pop	r15
    3024:	ef 90       	pop	r14
    3026:	08 95       	ret

00003028 <_ZN6StringaSERKS_>:
    3028:	cf 93       	push	r28
    302a:	df 93       	push	r29
    302c:	ec 01       	movw	r28, r24
    302e:	fb 01       	movw	r30, r22
    3030:	86 17       	cp	r24, r22
    3032:	97 07       	cpc	r25, r23
    3034:	61 f0       	breq	.+24     	; 0x304e <_ZN6StringaSERKS_+0x26>
    3036:	60 81       	ld	r22, Z
    3038:	71 81       	ldd	r23, Z+1	; 0x01
    303a:	61 15       	cp	r22, r1
    303c:	71 05       	cpc	r23, r1
    303e:	29 f0       	breq	.+10     	; 0x304a <_ZN6StringaSERKS_+0x22>
    3040:	44 81       	ldd	r20, Z+4	; 0x04
    3042:	55 81       	ldd	r21, Z+5	; 0x05
    3044:	0e 94 bd 17 	call	0x2f7a	; 0x2f7a <_ZN6String4copyEPKcj>
    3048:	02 c0       	rjmp	.+4      	; 0x304e <_ZN6StringaSERKS_+0x26>
    304a:	0e 94 75 17 	call	0x2eea	; 0x2eea <_ZN6String10invalidateEv>
    304e:	ce 01       	movw	r24, r28
    3050:	df 91       	pop	r29
    3052:	cf 91       	pop	r28
    3054:	08 95       	ret

00003056 <_ZN6StringC1ERKS_>:
    3056:	fc 01       	movw	r30, r24
    3058:	11 82       	std	Z+1, r1	; 0x01
    305a:	10 82       	st	Z, r1
    305c:	13 82       	std	Z+3, r1	; 0x03
    305e:	12 82       	std	Z+2, r1	; 0x02
    3060:	15 82       	std	Z+5, r1	; 0x05
    3062:	14 82       	std	Z+4, r1	; 0x04
    3064:	0c 94 14 18 	jmp	0x3028	; 0x3028 <_ZN6StringaSERKS_>

00003068 <_ZN6StringaSEPKc>:
    3068:	cf 93       	push	r28
    306a:	df 93       	push	r29
    306c:	ec 01       	movw	r28, r24
    306e:	61 15       	cp	r22, r1
    3070:	71 05       	cpc	r23, r1
    3072:	59 f0       	breq	.+22     	; 0x308a <_ZN6StringaSEPKc+0x22>
    3074:	fb 01       	movw	r30, r22
    3076:	01 90       	ld	r0, Z+
    3078:	00 20       	and	r0, r0
    307a:	e9 f7       	brne	.-6      	; 0x3076 <_ZN6StringaSEPKc+0xe>
    307c:	31 97       	sbiw	r30, 0x01	; 1
    307e:	af 01       	movw	r20, r30
    3080:	46 1b       	sub	r20, r22
    3082:	57 0b       	sbc	r21, r23
    3084:	0e 94 bd 17 	call	0x2f7a	; 0x2f7a <_ZN6String4copyEPKcj>
    3088:	02 c0       	rjmp	.+4      	; 0x308e <_ZN6StringaSEPKc+0x26>
    308a:	0e 94 75 17 	call	0x2eea	; 0x2eea <_ZN6String10invalidateEv>
    308e:	ce 01       	movw	r24, r28
    3090:	df 91       	pop	r29
    3092:	cf 91       	pop	r28
    3094:	08 95       	ret

00003096 <_ZN6StringC1Ec>:
    3096:	cf 93       	push	r28
    3098:	df 93       	push	r29
    309a:	1f 92       	push	r1
    309c:	1f 92       	push	r1
    309e:	cd b7       	in	r28, 0x3d	; 61
    30a0:	de b7       	in	r29, 0x3e	; 62
    30a2:	fc 01       	movw	r30, r24
    30a4:	11 82       	std	Z+1, r1	; 0x01
    30a6:	10 82       	st	Z, r1
    30a8:	13 82       	std	Z+3, r1	; 0x03
    30aa:	12 82       	std	Z+2, r1	; 0x02
    30ac:	15 82       	std	Z+5, r1	; 0x05
    30ae:	14 82       	std	Z+4, r1	; 0x04
    30b0:	69 83       	std	Y+1, r22	; 0x01
    30b2:	1a 82       	std	Y+2, r1	; 0x02
    30b4:	be 01       	movw	r22, r28
    30b6:	6f 5f       	subi	r22, 0xFF	; 255
    30b8:	7f 4f       	sbci	r23, 0xFF	; 255
    30ba:	0e 94 34 18 	call	0x3068	; 0x3068 <_ZN6StringaSEPKc>
    30be:	0f 90       	pop	r0
    30c0:	0f 90       	pop	r0
    30c2:	df 91       	pop	r29
    30c4:	cf 91       	pop	r28
    30c6:	08 95       	ret

000030c8 <_ZN6StringC1Ehh>:
    30c8:	0f 93       	push	r16
    30ca:	1f 93       	push	r17
    30cc:	cf 93       	push	r28
    30ce:	df 93       	push	r29
    30d0:	cd b7       	in	r28, 0x3d	; 61
    30d2:	de b7       	in	r29, 0x3e	; 62
    30d4:	29 97       	sbiw	r28, 0x09	; 9
    30d6:	0f b6       	in	r0, 0x3f	; 63
    30d8:	f8 94       	cli
    30da:	de bf       	out	0x3e, r29	; 62
    30dc:	0f be       	out	0x3f, r0	; 63
    30de:	cd bf       	out	0x3d, r28	; 61
    30e0:	8c 01       	movw	r16, r24
    30e2:	86 2f       	mov	r24, r22
    30e4:	f8 01       	movw	r30, r16
    30e6:	11 82       	std	Z+1, r1	; 0x01
    30e8:	10 82       	st	Z, r1
    30ea:	13 82       	std	Z+3, r1	; 0x03
    30ec:	12 82       	std	Z+2, r1	; 0x02
    30ee:	15 82       	std	Z+5, r1	; 0x05
    30f0:	14 82       	std	Z+4, r1	; 0x04
    30f2:	50 e0       	ldi	r21, 0x00	; 0
    30f4:	be 01       	movw	r22, r28
    30f6:	6f 5f       	subi	r22, 0xFF	; 255
    30f8:	7f 4f       	sbci	r23, 0xFF	; 255
    30fa:	90 e0       	ldi	r25, 0x00	; 0
    30fc:	0e 94 9b 28 	call	0x5136	; 0x5136 <utoa>
    3100:	be 01       	movw	r22, r28
    3102:	6f 5f       	subi	r22, 0xFF	; 255
    3104:	7f 4f       	sbci	r23, 0xFF	; 255
    3106:	c8 01       	movw	r24, r16
    3108:	0e 94 34 18 	call	0x3068	; 0x3068 <_ZN6StringaSEPKc>
    310c:	29 96       	adiw	r28, 0x09	; 9
    310e:	0f b6       	in	r0, 0x3f	; 63
    3110:	f8 94       	cli
    3112:	de bf       	out	0x3e, r29	; 62
    3114:	0f be       	out	0x3f, r0	; 63
    3116:	cd bf       	out	0x3d, r28	; 61
    3118:	df 91       	pop	r29
    311a:	cf 91       	pop	r28
    311c:	1f 91       	pop	r17
    311e:	0f 91       	pop	r16
    3120:	08 95       	ret

00003122 <_ZN6StringC1Eih>:
    3122:	0f 93       	push	r16
    3124:	1f 93       	push	r17
    3126:	cf 93       	push	r28
    3128:	df 93       	push	r29
    312a:	cd b7       	in	r28, 0x3d	; 61
    312c:	de b7       	in	r29, 0x3e	; 62
    312e:	62 97       	sbiw	r28, 0x12	; 18
    3130:	0f b6       	in	r0, 0x3f	; 63
    3132:	f8 94       	cli
    3134:	de bf       	out	0x3e, r29	; 62
    3136:	0f be       	out	0x3f, r0	; 63
    3138:	cd bf       	out	0x3d, r28	; 61
    313a:	8c 01       	movw	r16, r24
    313c:	cb 01       	movw	r24, r22
    313e:	f8 01       	movw	r30, r16
    3140:	11 82       	std	Z+1, r1	; 0x01
    3142:	10 82       	st	Z, r1
    3144:	13 82       	std	Z+3, r1	; 0x03
    3146:	12 82       	std	Z+2, r1	; 0x02
    3148:	15 82       	std	Z+5, r1	; 0x05
    314a:	14 82       	std	Z+4, r1	; 0x04
    314c:	50 e0       	ldi	r21, 0x00	; 0
    314e:	be 01       	movw	r22, r28
    3150:	6f 5f       	subi	r22, 0xFF	; 255
    3152:	7f 4f       	sbci	r23, 0xFF	; 255
    3154:	0e 94 29 28 	call	0x5052	; 0x5052 <itoa>
    3158:	be 01       	movw	r22, r28
    315a:	6f 5f       	subi	r22, 0xFF	; 255
    315c:	7f 4f       	sbci	r23, 0xFF	; 255
    315e:	c8 01       	movw	r24, r16
    3160:	0e 94 34 18 	call	0x3068	; 0x3068 <_ZN6StringaSEPKc>
    3164:	62 96       	adiw	r28, 0x12	; 18
    3166:	0f b6       	in	r0, 0x3f	; 63
    3168:	f8 94       	cli
    316a:	de bf       	out	0x3e, r29	; 62
    316c:	0f be       	out	0x3f, r0	; 63
    316e:	cd bf       	out	0x3d, r28	; 61
    3170:	df 91       	pop	r29
    3172:	cf 91       	pop	r28
    3174:	1f 91       	pop	r17
    3176:	0f 91       	pop	r16
    3178:	08 95       	ret

0000317a <_ZN6StringC1Ejh>:
    317a:	0f 93       	push	r16
    317c:	1f 93       	push	r17
    317e:	cf 93       	push	r28
    3180:	df 93       	push	r29
    3182:	cd b7       	in	r28, 0x3d	; 61
    3184:	de b7       	in	r29, 0x3e	; 62
    3186:	61 97       	sbiw	r28, 0x11	; 17
    3188:	0f b6       	in	r0, 0x3f	; 63
    318a:	f8 94       	cli
    318c:	de bf       	out	0x3e, r29	; 62
    318e:	0f be       	out	0x3f, r0	; 63
    3190:	cd bf       	out	0x3d, r28	; 61
    3192:	8c 01       	movw	r16, r24
    3194:	cb 01       	movw	r24, r22
    3196:	f8 01       	movw	r30, r16
    3198:	11 82       	std	Z+1, r1	; 0x01
    319a:	10 82       	st	Z, r1
    319c:	13 82       	std	Z+3, r1	; 0x03
    319e:	12 82       	std	Z+2, r1	; 0x02
    31a0:	15 82       	std	Z+5, r1	; 0x05
    31a2:	14 82       	std	Z+4, r1	; 0x04
    31a4:	50 e0       	ldi	r21, 0x00	; 0
    31a6:	be 01       	movw	r22, r28
    31a8:	6f 5f       	subi	r22, 0xFF	; 255
    31aa:	7f 4f       	sbci	r23, 0xFF	; 255
    31ac:	0e 94 9b 28 	call	0x5136	; 0x5136 <utoa>
    31b0:	be 01       	movw	r22, r28
    31b2:	6f 5f       	subi	r22, 0xFF	; 255
    31b4:	7f 4f       	sbci	r23, 0xFF	; 255
    31b6:	c8 01       	movw	r24, r16
    31b8:	0e 94 34 18 	call	0x3068	; 0x3068 <_ZN6StringaSEPKc>
    31bc:	61 96       	adiw	r28, 0x11	; 17
    31be:	0f b6       	in	r0, 0x3f	; 63
    31c0:	f8 94       	cli
    31c2:	de bf       	out	0x3e, r29	; 62
    31c4:	0f be       	out	0x3f, r0	; 63
    31c6:	cd bf       	out	0x3d, r28	; 61
    31c8:	df 91       	pop	r29
    31ca:	cf 91       	pop	r28
    31cc:	1f 91       	pop	r17
    31ce:	0f 91       	pop	r16
    31d0:	08 95       	ret

000031d2 <_ZN6StringC1Elh>:
    31d2:	0f 93       	push	r16
    31d4:	1f 93       	push	r17
    31d6:	cf 93       	push	r28
    31d8:	df 93       	push	r29
    31da:	cd b7       	in	r28, 0x3d	; 61
    31dc:	de b7       	in	r29, 0x3e	; 62
    31de:	a2 97       	sbiw	r28, 0x22	; 34
    31e0:	0f b6       	in	r0, 0x3f	; 63
    31e2:	f8 94       	cli
    31e4:	de bf       	out	0x3e, r29	; 62
    31e6:	0f be       	out	0x3f, r0	; 63
    31e8:	cd bf       	out	0x3d, r28	; 61
    31ea:	8c 01       	movw	r16, r24
    31ec:	cb 01       	movw	r24, r22
    31ee:	ba 01       	movw	r22, r20
    31f0:	f8 01       	movw	r30, r16
    31f2:	11 82       	std	Z+1, r1	; 0x01
    31f4:	10 82       	st	Z, r1
    31f6:	13 82       	std	Z+3, r1	; 0x03
    31f8:	12 82       	std	Z+2, r1	; 0x02
    31fa:	15 82       	std	Z+5, r1	; 0x05
    31fc:	14 82       	std	Z+4, r1	; 0x04
    31fe:	30 e0       	ldi	r19, 0x00	; 0
    3200:	ae 01       	movw	r20, r28
    3202:	4f 5f       	subi	r20, 0xFF	; 255
    3204:	5f 4f       	sbci	r21, 0xFF	; 255
    3206:	0e 94 3f 28 	call	0x507e	; 0x507e <ltoa>
    320a:	be 01       	movw	r22, r28
    320c:	6f 5f       	subi	r22, 0xFF	; 255
    320e:	7f 4f       	sbci	r23, 0xFF	; 255
    3210:	c8 01       	movw	r24, r16
    3212:	0e 94 34 18 	call	0x3068	; 0x3068 <_ZN6StringaSEPKc>
    3216:	a2 96       	adiw	r28, 0x22	; 34
    3218:	0f b6       	in	r0, 0x3f	; 63
    321a:	f8 94       	cli
    321c:	de bf       	out	0x3e, r29	; 62
    321e:	0f be       	out	0x3f, r0	; 63
    3220:	cd bf       	out	0x3d, r28	; 61
    3222:	df 91       	pop	r29
    3224:	cf 91       	pop	r28
    3226:	1f 91       	pop	r17
    3228:	0f 91       	pop	r16
    322a:	08 95       	ret

0000322c <_ZN6StringC1Emh>:
    322c:	0f 93       	push	r16
    322e:	1f 93       	push	r17
    3230:	cf 93       	push	r28
    3232:	df 93       	push	r29
    3234:	cd b7       	in	r28, 0x3d	; 61
    3236:	de b7       	in	r29, 0x3e	; 62
    3238:	a1 97       	sbiw	r28, 0x21	; 33
    323a:	0f b6       	in	r0, 0x3f	; 63
    323c:	f8 94       	cli
    323e:	de bf       	out	0x3e, r29	; 62
    3240:	0f be       	out	0x3f, r0	; 63
    3242:	cd bf       	out	0x3d, r28	; 61
    3244:	8c 01       	movw	r16, r24
    3246:	cb 01       	movw	r24, r22
    3248:	ba 01       	movw	r22, r20
    324a:	f8 01       	movw	r30, r16
    324c:	11 82       	std	Z+1, r1	; 0x01
    324e:	10 82       	st	Z, r1
    3250:	13 82       	std	Z+3, r1	; 0x03
    3252:	12 82       	std	Z+2, r1	; 0x02
    3254:	15 82       	std	Z+5, r1	; 0x05
    3256:	14 82       	std	Z+4, r1	; 0x04
    3258:	30 e0       	ldi	r19, 0x00	; 0
    325a:	ae 01       	movw	r20, r28
    325c:	4f 5f       	subi	r20, 0xFF	; 255
    325e:	5f 4f       	sbci	r21, 0xFF	; 255
    3260:	0e 94 6e 28 	call	0x50dc	; 0x50dc <ultoa>
    3264:	be 01       	movw	r22, r28
    3266:	6f 5f       	subi	r22, 0xFF	; 255
    3268:	7f 4f       	sbci	r23, 0xFF	; 255
    326a:	c8 01       	movw	r24, r16
    326c:	0e 94 34 18 	call	0x3068	; 0x3068 <_ZN6StringaSEPKc>
    3270:	a1 96       	adiw	r28, 0x21	; 33
    3272:	0f b6       	in	r0, 0x3f	; 63
    3274:	f8 94       	cli
    3276:	de bf       	out	0x3e, r29	; 62
    3278:	0f be       	out	0x3f, r0	; 63
    327a:	cd bf       	out	0x3d, r28	; 61
    327c:	df 91       	pop	r29
    327e:	cf 91       	pop	r28
    3280:	1f 91       	pop	r17
    3282:	0f 91       	pop	r16
    3284:	08 95       	ret

00003286 <_ZN6StringC1Efh>:
    3286:	ef 92       	push	r14
    3288:	ff 92       	push	r15
    328a:	0f 93       	push	r16
    328c:	1f 93       	push	r17
    328e:	cf 93       	push	r28
    3290:	df 93       	push	r29
    3292:	cd b7       	in	r28, 0x3d	; 61
    3294:	de b7       	in	r29, 0x3e	; 62
    3296:	a1 97       	sbiw	r28, 0x21	; 33
    3298:	0f b6       	in	r0, 0x3f	; 63
    329a:	f8 94       	cli
    329c:	de bf       	out	0x3e, r29	; 62
    329e:	0f be       	out	0x3f, r0	; 63
    32a0:	cd bf       	out	0x3d, r28	; 61
    32a2:	7c 01       	movw	r14, r24
    32a4:	cb 01       	movw	r24, r22
    32a6:	ba 01       	movw	r22, r20
    32a8:	f7 01       	movw	r30, r14
    32aa:	11 82       	std	Z+1, r1	; 0x01
    32ac:	10 82       	st	Z, r1
    32ae:	13 82       	std	Z+3, r1	; 0x03
    32b0:	12 82       	std	Z+2, r1	; 0x02
    32b2:	15 82       	std	Z+5, r1	; 0x05
    32b4:	14 82       	std	Z+4, r1	; 0x04
    32b6:	42 e0       	ldi	r20, 0x02	; 2
    32b8:	42 0f       	add	r20, r18
    32ba:	8e 01       	movw	r16, r28
    32bc:	0f 5f       	subi	r16, 0xFF	; 255
    32be:	1f 4f       	sbci	r17, 0xFF	; 255
    32c0:	0e 94 83 24 	call	0x4906	; 0x4906 <dtostrf>
    32c4:	bc 01       	movw	r22, r24
    32c6:	c7 01       	movw	r24, r14
    32c8:	0e 94 34 18 	call	0x3068	; 0x3068 <_ZN6StringaSEPKc>
    32cc:	a1 96       	adiw	r28, 0x21	; 33
    32ce:	0f b6       	in	r0, 0x3f	; 63
    32d0:	f8 94       	cli
    32d2:	de bf       	out	0x3e, r29	; 62
    32d4:	0f be       	out	0x3f, r0	; 63
    32d6:	cd bf       	out	0x3d, r28	; 61
    32d8:	df 91       	pop	r29
    32da:	cf 91       	pop	r28
    32dc:	1f 91       	pop	r17
    32de:	0f 91       	pop	r16
    32e0:	ff 90       	pop	r15
    32e2:	ef 90       	pop	r14
    32e4:	08 95       	ret

000032e6 <_ZN6StringC1Edh>:
    32e6:	ef 92       	push	r14
    32e8:	ff 92       	push	r15
    32ea:	0f 93       	push	r16
    32ec:	1f 93       	push	r17
    32ee:	cf 93       	push	r28
    32f0:	df 93       	push	r29
    32f2:	cd b7       	in	r28, 0x3d	; 61
    32f4:	de b7       	in	r29, 0x3e	; 62
    32f6:	a1 97       	sbiw	r28, 0x21	; 33
    32f8:	0f b6       	in	r0, 0x3f	; 63
    32fa:	f8 94       	cli
    32fc:	de bf       	out	0x3e, r29	; 62
    32fe:	0f be       	out	0x3f, r0	; 63
    3300:	cd bf       	out	0x3d, r28	; 61
    3302:	7c 01       	movw	r14, r24
    3304:	cb 01       	movw	r24, r22
    3306:	ba 01       	movw	r22, r20
    3308:	f7 01       	movw	r30, r14
    330a:	11 82       	std	Z+1, r1	; 0x01
    330c:	10 82       	st	Z, r1
    330e:	13 82       	std	Z+3, r1	; 0x03
    3310:	12 82       	std	Z+2, r1	; 0x02
    3312:	15 82       	std	Z+5, r1	; 0x05
    3314:	14 82       	std	Z+4, r1	; 0x04
    3316:	42 e0       	ldi	r20, 0x02	; 2
    3318:	42 0f       	add	r20, r18
    331a:	8e 01       	movw	r16, r28
    331c:	0f 5f       	subi	r16, 0xFF	; 255
    331e:	1f 4f       	sbci	r17, 0xFF	; 255
    3320:	0e 94 83 24 	call	0x4906	; 0x4906 <dtostrf>
    3324:	bc 01       	movw	r22, r24
    3326:	c7 01       	movw	r24, r14
    3328:	0e 94 34 18 	call	0x3068	; 0x3068 <_ZN6StringaSEPKc>
    332c:	a1 96       	adiw	r28, 0x21	; 33
    332e:	0f b6       	in	r0, 0x3f	; 63
    3330:	f8 94       	cli
    3332:	de bf       	out	0x3e, r29	; 62
    3334:	0f be       	out	0x3f, r0	; 63
    3336:	cd bf       	out	0x3d, r28	; 61
    3338:	df 91       	pop	r29
    333a:	cf 91       	pop	r28
    333c:	1f 91       	pop	r17
    333e:	0f 91       	pop	r16
    3340:	ff 90       	pop	r15
    3342:	ef 90       	pop	r14
    3344:	08 95       	ret

00003346 <_ZN6StringaSEPK19__FlashStringHelper>:
    3346:	0f 93       	push	r16
    3348:	1f 93       	push	r17
    334a:	cf 93       	push	r28
    334c:	df 93       	push	r29
    334e:	ec 01       	movw	r28, r24
    3350:	8b 01       	movw	r16, r22
    3352:	61 15       	cp	r22, r1
    3354:	71 05       	cpc	r23, r1
    3356:	49 f0       	breq	.+18     	; 0x336a <_ZN6StringaSEPK19__FlashStringHelper+0x24>
    3358:	cb 01       	movw	r24, r22
    335a:	0e 94 9b 27 	call	0x4f36	; 0x4f36 <__strlen_P>
    335e:	ac 01       	movw	r20, r24
    3360:	b8 01       	movw	r22, r16
    3362:	ce 01       	movw	r24, r28
    3364:	0e 94 f3 17 	call	0x2fe6	; 0x2fe6 <_ZN6String4copyEPK19__FlashStringHelperj>
    3368:	02 c0       	rjmp	.+4      	; 0x336e <_ZN6StringaSEPK19__FlashStringHelper+0x28>
    336a:	0e 94 75 17 	call	0x2eea	; 0x2eea <_ZN6String10invalidateEv>
    336e:	ce 01       	movw	r24, r28
    3370:	df 91       	pop	r29
    3372:	cf 91       	pop	r28
    3374:	1f 91       	pop	r17
    3376:	0f 91       	pop	r16
    3378:	08 95       	ret

0000337a <_ZN6StringC1EPK19__FlashStringHelper>:
    337a:	fc 01       	movw	r30, r24
    337c:	11 82       	std	Z+1, r1	; 0x01
    337e:	10 82       	st	Z, r1
    3380:	13 82       	std	Z+3, r1	; 0x03
    3382:	12 82       	std	Z+2, r1	; 0x02
    3384:	15 82       	std	Z+5, r1	; 0x05
    3386:	14 82       	std	Z+4, r1	; 0x04
    3388:	0c 94 a3 19 	jmp	0x3346	; 0x3346 <_ZN6StringaSEPK19__FlashStringHelper>

0000338c <_ZN6String6concatEPKcj>:
    338c:	ef 92       	push	r14
    338e:	ff 92       	push	r15
    3390:	0f 93       	push	r16
    3392:	1f 93       	push	r17
    3394:	cf 93       	push	r28
    3396:	df 93       	push	r29
    3398:	61 15       	cp	r22, r1
    339a:	71 05       	cpc	r23, r1
    339c:	11 f4       	brne	.+4      	; 0x33a2 <_ZN6String6concatEPKcj+0x16>
    339e:	80 e0       	ldi	r24, 0x00	; 0
    33a0:	1c c0       	rjmp	.+56     	; 0x33da <_ZN6String6concatEPKcj+0x4e>
    33a2:	41 15       	cp	r20, r1
    33a4:	51 05       	cpc	r21, r1
    33a6:	c1 f0       	breq	.+48     	; 0x33d8 <_ZN6String6concatEPKcj+0x4c>
    33a8:	7b 01       	movw	r14, r22
    33aa:	ec 01       	movw	r28, r24
    33ac:	8c 81       	ldd	r24, Y+4	; 0x04
    33ae:	9d 81       	ldd	r25, Y+5	; 0x05
    33b0:	8a 01       	movw	r16, r20
    33b2:	08 0f       	add	r16, r24
    33b4:	19 1f       	adc	r17, r25
    33b6:	b8 01       	movw	r22, r16
    33b8:	ce 01       	movw	r24, r28
    33ba:	0e 94 a1 17 	call	0x2f42	; 0x2f42 <_ZN6String7reserveEj>
    33be:	88 23       	and	r24, r24
    33c0:	71 f3       	breq	.-36     	; 0x339e <_ZN6String6concatEPKcj+0x12>
    33c2:	28 81       	ld	r18, Y
    33c4:	39 81       	ldd	r19, Y+1	; 0x01
    33c6:	8c 81       	ldd	r24, Y+4	; 0x04
    33c8:	9d 81       	ldd	r25, Y+5	; 0x05
    33ca:	b7 01       	movw	r22, r14
    33cc:	82 0f       	add	r24, r18
    33ce:	93 1f       	adc	r25, r19
    33d0:	0e 94 e0 27 	call	0x4fc0	; 0x4fc0 <strcpy>
    33d4:	1d 83       	std	Y+5, r17	; 0x05
    33d6:	0c 83       	std	Y+4, r16	; 0x04
    33d8:	81 e0       	ldi	r24, 0x01	; 1
    33da:	df 91       	pop	r29
    33dc:	cf 91       	pop	r28
    33de:	1f 91       	pop	r17
    33e0:	0f 91       	pop	r16
    33e2:	ff 90       	pop	r15
    33e4:	ef 90       	pop	r14
    33e6:	08 95       	ret

000033e8 <_ZN6String6concatERKS_>:
    33e8:	fb 01       	movw	r30, r22
    33ea:	44 81       	ldd	r20, Z+4	; 0x04
    33ec:	55 81       	ldd	r21, Z+5	; 0x05
    33ee:	60 81       	ld	r22, Z
    33f0:	71 81       	ldd	r23, Z+1	; 0x01
    33f2:	0c 94 c6 19 	jmp	0x338c	; 0x338c <_ZN6String6concatEPKcj>

000033f6 <_ZN6String6concatEPKc>:
    33f6:	61 15       	cp	r22, r1
    33f8:	71 05       	cpc	r23, r1
    33fa:	51 f0       	breq	.+20     	; 0x3410 <_ZN6String6concatEPKc+0x1a>
    33fc:	fb 01       	movw	r30, r22
    33fe:	01 90       	ld	r0, Z+
    3400:	00 20       	and	r0, r0
    3402:	e9 f7       	brne	.-6      	; 0x33fe <_ZN6String6concatEPKc+0x8>
    3404:	31 97       	sbiw	r30, 0x01	; 1
    3406:	af 01       	movw	r20, r30
    3408:	46 1b       	sub	r20, r22
    340a:	57 0b       	sbc	r21, r23
    340c:	0c 94 c6 19 	jmp	0x338c	; 0x338c <_ZN6String6concatEPKcj>
    3410:	80 e0       	ldi	r24, 0x00	; 0
    3412:	08 95       	ret

00003414 <_ZN6String6concatEc>:
    3414:	cf 93       	push	r28
    3416:	df 93       	push	r29
    3418:	1f 92       	push	r1
    341a:	1f 92       	push	r1
    341c:	cd b7       	in	r28, 0x3d	; 61
    341e:	de b7       	in	r29, 0x3e	; 62
    3420:	69 83       	std	Y+1, r22	; 0x01
    3422:	1a 82       	std	Y+2, r1	; 0x02
    3424:	41 e0       	ldi	r20, 0x01	; 1
    3426:	50 e0       	ldi	r21, 0x00	; 0
    3428:	be 01       	movw	r22, r28
    342a:	6f 5f       	subi	r22, 0xFF	; 255
    342c:	7f 4f       	sbci	r23, 0xFF	; 255
    342e:	0e 94 c6 19 	call	0x338c	; 0x338c <_ZN6String6concatEPKcj>
    3432:	0f 90       	pop	r0
    3434:	0f 90       	pop	r0
    3436:	df 91       	pop	r29
    3438:	cf 91       	pop	r28
    343a:	08 95       	ret

0000343c <_ZN6String6concatEh>:
    343c:	ef 92       	push	r14
    343e:	ff 92       	push	r15
    3440:	0f 93       	push	r16
    3442:	1f 93       	push	r17
    3444:	cf 93       	push	r28
    3446:	df 93       	push	r29
    3448:	00 d0       	rcall	.+0      	; 0x344a <_ZN6String6concatEh+0xe>
    344a:	1f 92       	push	r1
    344c:	cd b7       	in	r28, 0x3d	; 61
    344e:	de b7       	in	r29, 0x3e	; 62
    3450:	7c 01       	movw	r14, r24
    3452:	86 2f       	mov	r24, r22
    3454:	4a e0       	ldi	r20, 0x0A	; 10
    3456:	50 e0       	ldi	r21, 0x00	; 0
    3458:	8e 01       	movw	r16, r28
    345a:	0f 5f       	subi	r16, 0xFF	; 255
    345c:	1f 4f       	sbci	r17, 0xFF	; 255
    345e:	b8 01       	movw	r22, r16
    3460:	90 e0       	ldi	r25, 0x00	; 0
    3462:	0e 94 29 28 	call	0x5052	; 0x5052 <itoa>
    3466:	f8 01       	movw	r30, r16
    3468:	01 90       	ld	r0, Z+
    346a:	00 20       	and	r0, r0
    346c:	e9 f7       	brne	.-6      	; 0x3468 <_ZN6String6concatEh+0x2c>
    346e:	31 97       	sbiw	r30, 0x01	; 1
    3470:	af 01       	movw	r20, r30
    3472:	40 1b       	sub	r20, r16
    3474:	51 0b       	sbc	r21, r17
    3476:	b8 01       	movw	r22, r16
    3478:	c7 01       	movw	r24, r14
    347a:	0e 94 c6 19 	call	0x338c	; 0x338c <_ZN6String6concatEPKcj>
    347e:	0f 90       	pop	r0
    3480:	0f 90       	pop	r0
    3482:	0f 90       	pop	r0
    3484:	0f 90       	pop	r0
    3486:	df 91       	pop	r29
    3488:	cf 91       	pop	r28
    348a:	1f 91       	pop	r17
    348c:	0f 91       	pop	r16
    348e:	ff 90       	pop	r15
    3490:	ef 90       	pop	r14
    3492:	08 95       	ret

00003494 <_ZN6String6concatEi>:
    3494:	ef 92       	push	r14
    3496:	ff 92       	push	r15
    3498:	0f 93       	push	r16
    349a:	1f 93       	push	r17
    349c:	cf 93       	push	r28
    349e:	df 93       	push	r29
    34a0:	cd b7       	in	r28, 0x3d	; 61
    34a2:	de b7       	in	r29, 0x3e	; 62
    34a4:	28 97       	sbiw	r28, 0x08	; 8
    34a6:	0f b6       	in	r0, 0x3f	; 63
    34a8:	f8 94       	cli
    34aa:	de bf       	out	0x3e, r29	; 62
    34ac:	0f be       	out	0x3f, r0	; 63
    34ae:	cd bf       	out	0x3d, r28	; 61
    34b0:	7c 01       	movw	r14, r24
    34b2:	cb 01       	movw	r24, r22
    34b4:	4a e0       	ldi	r20, 0x0A	; 10
    34b6:	50 e0       	ldi	r21, 0x00	; 0
    34b8:	8e 01       	movw	r16, r28
    34ba:	0f 5f       	subi	r16, 0xFF	; 255
    34bc:	1f 4f       	sbci	r17, 0xFF	; 255
    34be:	b8 01       	movw	r22, r16
    34c0:	0e 94 29 28 	call	0x5052	; 0x5052 <itoa>
    34c4:	f8 01       	movw	r30, r16
    34c6:	01 90       	ld	r0, Z+
    34c8:	00 20       	and	r0, r0
    34ca:	e9 f7       	brne	.-6      	; 0x34c6 <_ZN6String6concatEi+0x32>
    34cc:	31 97       	sbiw	r30, 0x01	; 1
    34ce:	af 01       	movw	r20, r30
    34d0:	40 1b       	sub	r20, r16
    34d2:	51 0b       	sbc	r21, r17
    34d4:	b8 01       	movw	r22, r16
    34d6:	c7 01       	movw	r24, r14
    34d8:	0e 94 c6 19 	call	0x338c	; 0x338c <_ZN6String6concatEPKcj>
    34dc:	28 96       	adiw	r28, 0x08	; 8
    34de:	0f b6       	in	r0, 0x3f	; 63
    34e0:	f8 94       	cli
    34e2:	de bf       	out	0x3e, r29	; 62
    34e4:	0f be       	out	0x3f, r0	; 63
    34e6:	cd bf       	out	0x3d, r28	; 61
    34e8:	df 91       	pop	r29
    34ea:	cf 91       	pop	r28
    34ec:	1f 91       	pop	r17
    34ee:	0f 91       	pop	r16
    34f0:	ff 90       	pop	r15
    34f2:	ef 90       	pop	r14
    34f4:	08 95       	ret

000034f6 <_ZN6String6concatEj>:
    34f6:	ef 92       	push	r14
    34f8:	ff 92       	push	r15
    34fa:	0f 93       	push	r16
    34fc:	1f 93       	push	r17
    34fe:	cf 93       	push	r28
    3500:	df 93       	push	r29
    3502:	cd b7       	in	r28, 0x3d	; 61
    3504:	de b7       	in	r29, 0x3e	; 62
    3506:	27 97       	sbiw	r28, 0x07	; 7
    3508:	0f b6       	in	r0, 0x3f	; 63
    350a:	f8 94       	cli
    350c:	de bf       	out	0x3e, r29	; 62
    350e:	0f be       	out	0x3f, r0	; 63
    3510:	cd bf       	out	0x3d, r28	; 61
    3512:	7c 01       	movw	r14, r24
    3514:	cb 01       	movw	r24, r22
    3516:	4a e0       	ldi	r20, 0x0A	; 10
    3518:	50 e0       	ldi	r21, 0x00	; 0
    351a:	8e 01       	movw	r16, r28
    351c:	0f 5f       	subi	r16, 0xFF	; 255
    351e:	1f 4f       	sbci	r17, 0xFF	; 255
    3520:	b8 01       	movw	r22, r16
    3522:	0e 94 9b 28 	call	0x5136	; 0x5136 <utoa>
    3526:	f8 01       	movw	r30, r16
    3528:	01 90       	ld	r0, Z+
    352a:	00 20       	and	r0, r0
    352c:	e9 f7       	brne	.-6      	; 0x3528 <_ZN6String6concatEj+0x32>
    352e:	31 97       	sbiw	r30, 0x01	; 1
    3530:	af 01       	movw	r20, r30
    3532:	40 1b       	sub	r20, r16
    3534:	51 0b       	sbc	r21, r17
    3536:	b8 01       	movw	r22, r16
    3538:	c7 01       	movw	r24, r14
    353a:	0e 94 c6 19 	call	0x338c	; 0x338c <_ZN6String6concatEPKcj>
    353e:	27 96       	adiw	r28, 0x07	; 7
    3540:	0f b6       	in	r0, 0x3f	; 63
    3542:	f8 94       	cli
    3544:	de bf       	out	0x3e, r29	; 62
    3546:	0f be       	out	0x3f, r0	; 63
    3548:	cd bf       	out	0x3d, r28	; 61
    354a:	df 91       	pop	r29
    354c:	cf 91       	pop	r28
    354e:	1f 91       	pop	r17
    3550:	0f 91       	pop	r16
    3552:	ff 90       	pop	r15
    3554:	ef 90       	pop	r14
    3556:	08 95       	ret

00003558 <_ZN6String6concatEl>:
    3558:	ef 92       	push	r14
    355a:	ff 92       	push	r15
    355c:	0f 93       	push	r16
    355e:	1f 93       	push	r17
    3560:	cf 93       	push	r28
    3562:	df 93       	push	r29
    3564:	cd b7       	in	r28, 0x3d	; 61
    3566:	de b7       	in	r29, 0x3e	; 62
    3568:	2e 97       	sbiw	r28, 0x0e	; 14
    356a:	0f b6       	in	r0, 0x3f	; 63
    356c:	f8 94       	cli
    356e:	de bf       	out	0x3e, r29	; 62
    3570:	0f be       	out	0x3f, r0	; 63
    3572:	cd bf       	out	0x3d, r28	; 61
    3574:	7c 01       	movw	r14, r24
    3576:	cb 01       	movw	r24, r22
    3578:	ba 01       	movw	r22, r20
    357a:	2a e0       	ldi	r18, 0x0A	; 10
    357c:	30 e0       	ldi	r19, 0x00	; 0
    357e:	8e 01       	movw	r16, r28
    3580:	0f 5f       	subi	r16, 0xFF	; 255
    3582:	1f 4f       	sbci	r17, 0xFF	; 255
    3584:	a8 01       	movw	r20, r16
    3586:	0e 94 3f 28 	call	0x507e	; 0x507e <ltoa>
    358a:	f8 01       	movw	r30, r16
    358c:	01 90       	ld	r0, Z+
    358e:	00 20       	and	r0, r0
    3590:	e9 f7       	brne	.-6      	; 0x358c <_ZN6String6concatEl+0x34>
    3592:	31 97       	sbiw	r30, 0x01	; 1
    3594:	af 01       	movw	r20, r30
    3596:	40 1b       	sub	r20, r16
    3598:	51 0b       	sbc	r21, r17
    359a:	b8 01       	movw	r22, r16
    359c:	c7 01       	movw	r24, r14
    359e:	0e 94 c6 19 	call	0x338c	; 0x338c <_ZN6String6concatEPKcj>
    35a2:	2e 96       	adiw	r28, 0x0e	; 14
    35a4:	0f b6       	in	r0, 0x3f	; 63
    35a6:	f8 94       	cli
    35a8:	de bf       	out	0x3e, r29	; 62
    35aa:	0f be       	out	0x3f, r0	; 63
    35ac:	cd bf       	out	0x3d, r28	; 61
    35ae:	df 91       	pop	r29
    35b0:	cf 91       	pop	r28
    35b2:	1f 91       	pop	r17
    35b4:	0f 91       	pop	r16
    35b6:	ff 90       	pop	r15
    35b8:	ef 90       	pop	r14
    35ba:	08 95       	ret

000035bc <_ZN6String6concatEm>:
    35bc:	ef 92       	push	r14
    35be:	ff 92       	push	r15
    35c0:	0f 93       	push	r16
    35c2:	1f 93       	push	r17
    35c4:	cf 93       	push	r28
    35c6:	df 93       	push	r29
    35c8:	cd b7       	in	r28, 0x3d	; 61
    35ca:	de b7       	in	r29, 0x3e	; 62
    35cc:	2d 97       	sbiw	r28, 0x0d	; 13
    35ce:	0f b6       	in	r0, 0x3f	; 63
    35d0:	f8 94       	cli
    35d2:	de bf       	out	0x3e, r29	; 62
    35d4:	0f be       	out	0x3f, r0	; 63
    35d6:	cd bf       	out	0x3d, r28	; 61
    35d8:	7c 01       	movw	r14, r24
    35da:	cb 01       	movw	r24, r22
    35dc:	ba 01       	movw	r22, r20
    35de:	2a e0       	ldi	r18, 0x0A	; 10
    35e0:	30 e0       	ldi	r19, 0x00	; 0
    35e2:	8e 01       	movw	r16, r28
    35e4:	0f 5f       	subi	r16, 0xFF	; 255
    35e6:	1f 4f       	sbci	r17, 0xFF	; 255
    35e8:	a8 01       	movw	r20, r16
    35ea:	0e 94 6e 28 	call	0x50dc	; 0x50dc <ultoa>
    35ee:	f8 01       	movw	r30, r16
    35f0:	01 90       	ld	r0, Z+
    35f2:	00 20       	and	r0, r0
    35f4:	e9 f7       	brne	.-6      	; 0x35f0 <_ZN6String6concatEm+0x34>
    35f6:	31 97       	sbiw	r30, 0x01	; 1
    35f8:	af 01       	movw	r20, r30
    35fa:	40 1b       	sub	r20, r16
    35fc:	51 0b       	sbc	r21, r17
    35fe:	b8 01       	movw	r22, r16
    3600:	c7 01       	movw	r24, r14
    3602:	0e 94 c6 19 	call	0x338c	; 0x338c <_ZN6String6concatEPKcj>
    3606:	2d 96       	adiw	r28, 0x0d	; 13
    3608:	0f b6       	in	r0, 0x3f	; 63
    360a:	f8 94       	cli
    360c:	de bf       	out	0x3e, r29	; 62
    360e:	0f be       	out	0x3f, r0	; 63
    3610:	cd bf       	out	0x3d, r28	; 61
    3612:	df 91       	pop	r29
    3614:	cf 91       	pop	r28
    3616:	1f 91       	pop	r17
    3618:	0f 91       	pop	r16
    361a:	ff 90       	pop	r15
    361c:	ef 90       	pop	r14
    361e:	08 95       	ret

00003620 <_ZN6String6concatEf>:
    3620:	ef 92       	push	r14
    3622:	ff 92       	push	r15
    3624:	0f 93       	push	r16
    3626:	1f 93       	push	r17
    3628:	cf 93       	push	r28
    362a:	df 93       	push	r29
    362c:	cd b7       	in	r28, 0x3d	; 61
    362e:	de b7       	in	r29, 0x3e	; 62
    3630:	64 97       	sbiw	r28, 0x14	; 20
    3632:	0f b6       	in	r0, 0x3f	; 63
    3634:	f8 94       	cli
    3636:	de bf       	out	0x3e, r29	; 62
    3638:	0f be       	out	0x3f, r0	; 63
    363a:	cd bf       	out	0x3d, r28	; 61
    363c:	7c 01       	movw	r14, r24
    363e:	cb 01       	movw	r24, r22
    3640:	ba 01       	movw	r22, r20
    3642:	8e 01       	movw	r16, r28
    3644:	0f 5f       	subi	r16, 0xFF	; 255
    3646:	1f 4f       	sbci	r17, 0xFF	; 255
    3648:	22 e0       	ldi	r18, 0x02	; 2
    364a:	44 e0       	ldi	r20, 0x04	; 4
    364c:	0e 94 83 24 	call	0x4906	; 0x4906 <dtostrf>
    3650:	fc 01       	movw	r30, r24
    3652:	01 90       	ld	r0, Z+
    3654:	00 20       	and	r0, r0
    3656:	e9 f7       	brne	.-6      	; 0x3652 <_ZN6String6concatEf+0x32>
    3658:	31 97       	sbiw	r30, 0x01	; 1
    365a:	af 01       	movw	r20, r30
    365c:	48 1b       	sub	r20, r24
    365e:	59 0b       	sbc	r21, r25
    3660:	bc 01       	movw	r22, r24
    3662:	c7 01       	movw	r24, r14
    3664:	0e 94 c6 19 	call	0x338c	; 0x338c <_ZN6String6concatEPKcj>
    3668:	64 96       	adiw	r28, 0x14	; 20
    366a:	0f b6       	in	r0, 0x3f	; 63
    366c:	f8 94       	cli
    366e:	de bf       	out	0x3e, r29	; 62
    3670:	0f be       	out	0x3f, r0	; 63
    3672:	cd bf       	out	0x3d, r28	; 61
    3674:	df 91       	pop	r29
    3676:	cf 91       	pop	r28
    3678:	1f 91       	pop	r17
    367a:	0f 91       	pop	r16
    367c:	ff 90       	pop	r15
    367e:	ef 90       	pop	r14
    3680:	08 95       	ret

00003682 <_ZN6String6concatEd>:
    3682:	ef 92       	push	r14
    3684:	ff 92       	push	r15
    3686:	0f 93       	push	r16
    3688:	1f 93       	push	r17
    368a:	cf 93       	push	r28
    368c:	df 93       	push	r29
    368e:	cd b7       	in	r28, 0x3d	; 61
    3690:	de b7       	in	r29, 0x3e	; 62
    3692:	64 97       	sbiw	r28, 0x14	; 20
    3694:	0f b6       	in	r0, 0x3f	; 63
    3696:	f8 94       	cli
    3698:	de bf       	out	0x3e, r29	; 62
    369a:	0f be       	out	0x3f, r0	; 63
    369c:	cd bf       	out	0x3d, r28	; 61
    369e:	7c 01       	movw	r14, r24
    36a0:	cb 01       	movw	r24, r22
    36a2:	ba 01       	movw	r22, r20
    36a4:	8e 01       	movw	r16, r28
    36a6:	0f 5f       	subi	r16, 0xFF	; 255
    36a8:	1f 4f       	sbci	r17, 0xFF	; 255
    36aa:	22 e0       	ldi	r18, 0x02	; 2
    36ac:	44 e0       	ldi	r20, 0x04	; 4
    36ae:	0e 94 83 24 	call	0x4906	; 0x4906 <dtostrf>
    36b2:	fc 01       	movw	r30, r24
    36b4:	01 90       	ld	r0, Z+
    36b6:	00 20       	and	r0, r0
    36b8:	e9 f7       	brne	.-6      	; 0x36b4 <_ZN6String6concatEd+0x32>
    36ba:	31 97       	sbiw	r30, 0x01	; 1
    36bc:	af 01       	movw	r20, r30
    36be:	48 1b       	sub	r20, r24
    36c0:	59 0b       	sbc	r21, r25
    36c2:	bc 01       	movw	r22, r24
    36c4:	c7 01       	movw	r24, r14
    36c6:	0e 94 c6 19 	call	0x338c	; 0x338c <_ZN6String6concatEPKcj>
    36ca:	64 96       	adiw	r28, 0x14	; 20
    36cc:	0f b6       	in	r0, 0x3f	; 63
    36ce:	f8 94       	cli
    36d0:	de bf       	out	0x3e, r29	; 62
    36d2:	0f be       	out	0x3f, r0	; 63
    36d4:	cd bf       	out	0x3d, r28	; 61
    36d6:	df 91       	pop	r29
    36d8:	cf 91       	pop	r28
    36da:	1f 91       	pop	r17
    36dc:	0f 91       	pop	r16
    36de:	ff 90       	pop	r15
    36e0:	ef 90       	pop	r14
    36e2:	08 95       	ret

000036e4 <_ZN6String6concatEPK19__FlashStringHelper>:
    36e4:	ef 92       	push	r14
    36e6:	ff 92       	push	r15
    36e8:	0f 93       	push	r16
    36ea:	1f 93       	push	r17
    36ec:	cf 93       	push	r28
    36ee:	df 93       	push	r29
    36f0:	61 15       	cp	r22, r1
    36f2:	71 05       	cpc	r23, r1
    36f4:	11 f4       	brne	.+4      	; 0x36fa <_ZN6String6concatEPK19__FlashStringHelper+0x16>
    36f6:	80 e0       	ldi	r24, 0x00	; 0
    36f8:	1e c0       	rjmp	.+60     	; 0x3736 <_ZN6String6concatEPK19__FlashStringHelper+0x52>
    36fa:	8b 01       	movw	r16, r22
    36fc:	ec 01       	movw	r28, r24
    36fe:	cb 01       	movw	r24, r22
    3700:	0e 94 9b 27 	call	0x4f36	; 0x4f36 <__strlen_P>
    3704:	00 97       	sbiw	r24, 0x00	; 0
    3706:	b1 f0       	breq	.+44     	; 0x3734 <_ZN6String6concatEPK19__FlashStringHelper+0x50>
    3708:	2c 81       	ldd	r18, Y+4	; 0x04
    370a:	3d 81       	ldd	r19, Y+5	; 0x05
    370c:	7c 01       	movw	r14, r24
    370e:	e2 0e       	add	r14, r18
    3710:	f3 1e       	adc	r15, r19
    3712:	b7 01       	movw	r22, r14
    3714:	ce 01       	movw	r24, r28
    3716:	0e 94 a1 17 	call	0x2f42	; 0x2f42 <_ZN6String7reserveEj>
    371a:	88 23       	and	r24, r24
    371c:	61 f3       	breq	.-40     	; 0x36f6 <_ZN6String6concatEPK19__FlashStringHelper+0x12>
    371e:	28 81       	ld	r18, Y
    3720:	39 81       	ldd	r19, Y+1	; 0x01
    3722:	8c 81       	ldd	r24, Y+4	; 0x04
    3724:	9d 81       	ldd	r25, Y+5	; 0x05
    3726:	b8 01       	movw	r22, r16
    3728:	82 0f       	add	r24, r18
    372a:	93 1f       	adc	r25, r19
    372c:	0e 94 94 27 	call	0x4f28	; 0x4f28 <strcpy_P>
    3730:	fd 82       	std	Y+5, r15	; 0x05
    3732:	ec 82       	std	Y+4, r14	; 0x04
    3734:	81 e0       	ldi	r24, 0x01	; 1
    3736:	df 91       	pop	r29
    3738:	cf 91       	pop	r28
    373a:	1f 91       	pop	r17
    373c:	0f 91       	pop	r16
    373e:	ff 90       	pop	r15
    3740:	ef 90       	pop	r14
    3742:	08 95       	ret

00003744 <_ZplRK15StringSumHelperRK6String>:
    3744:	cf 93       	push	r28
    3746:	df 93       	push	r29
    3748:	ec 01       	movw	r28, r24
    374a:	fb 01       	movw	r30, r22
    374c:	44 81       	ldd	r20, Z+4	; 0x04
    374e:	55 81       	ldd	r21, Z+5	; 0x05
    3750:	60 81       	ld	r22, Z
    3752:	71 81       	ldd	r23, Z+1	; 0x01
    3754:	0e 94 c6 19 	call	0x338c	; 0x338c <_ZN6String6concatEPKcj>
    3758:	81 11       	cpse	r24, r1
    375a:	03 c0       	rjmp	.+6      	; 0x3762 <_ZplRK15StringSumHelperRK6String+0x1e>
    375c:	ce 01       	movw	r24, r28
    375e:	0e 94 75 17 	call	0x2eea	; 0x2eea <_ZN6String10invalidateEv>
    3762:	ce 01       	movw	r24, r28
    3764:	df 91       	pop	r29
    3766:	cf 91       	pop	r28
    3768:	08 95       	ret

0000376a <_ZplRK15StringSumHelperPKc>:
    376a:	cf 93       	push	r28
    376c:	df 93       	push	r29
    376e:	ec 01       	movw	r28, r24
    3770:	61 15       	cp	r22, r1
    3772:	71 05       	cpc	r23, r1
    3774:	61 f0       	breq	.+24     	; 0x378e <_ZplRK15StringSumHelperPKc+0x24>
    3776:	fb 01       	movw	r30, r22
    3778:	01 90       	ld	r0, Z+
    377a:	00 20       	and	r0, r0
    377c:	e9 f7       	brne	.-6      	; 0x3778 <_ZplRK15StringSumHelperPKc+0xe>
    377e:	31 97       	sbiw	r30, 0x01	; 1
    3780:	af 01       	movw	r20, r30
    3782:	46 1b       	sub	r20, r22
    3784:	57 0b       	sbc	r21, r23
    3786:	0e 94 c6 19 	call	0x338c	; 0x338c <_ZN6String6concatEPKcj>
    378a:	81 11       	cpse	r24, r1
    378c:	03 c0       	rjmp	.+6      	; 0x3794 <_ZplRK15StringSumHelperPKc+0x2a>
    378e:	ce 01       	movw	r24, r28
    3790:	0e 94 75 17 	call	0x2eea	; 0x2eea <_ZN6String10invalidateEv>
    3794:	ce 01       	movw	r24, r28
    3796:	df 91       	pop	r29
    3798:	cf 91       	pop	r28
    379a:	08 95       	ret

0000379c <_ZplRK15StringSumHelperc>:
    379c:	cf 93       	push	r28
    379e:	df 93       	push	r29
    37a0:	ec 01       	movw	r28, r24
    37a2:	0e 94 0a 1a 	call	0x3414	; 0x3414 <_ZN6String6concatEc>
    37a6:	81 11       	cpse	r24, r1
    37a8:	03 c0       	rjmp	.+6      	; 0x37b0 <_ZplRK15StringSumHelperc+0x14>
    37aa:	ce 01       	movw	r24, r28
    37ac:	0e 94 75 17 	call	0x2eea	; 0x2eea <_ZN6String10invalidateEv>
    37b0:	ce 01       	movw	r24, r28
    37b2:	df 91       	pop	r29
    37b4:	cf 91       	pop	r28
    37b6:	08 95       	ret

000037b8 <_ZplRK15StringSumHelperh>:
    37b8:	cf 93       	push	r28
    37ba:	df 93       	push	r29
    37bc:	ec 01       	movw	r28, r24
    37be:	0e 94 1e 1a 	call	0x343c	; 0x343c <_ZN6String6concatEh>
    37c2:	81 11       	cpse	r24, r1
    37c4:	03 c0       	rjmp	.+6      	; 0x37cc <_ZplRK15StringSumHelperh+0x14>
    37c6:	ce 01       	movw	r24, r28
    37c8:	0e 94 75 17 	call	0x2eea	; 0x2eea <_ZN6String10invalidateEv>
    37cc:	ce 01       	movw	r24, r28
    37ce:	df 91       	pop	r29
    37d0:	cf 91       	pop	r28
    37d2:	08 95       	ret

000037d4 <_ZplRK15StringSumHelperi>:
    37d4:	cf 93       	push	r28
    37d6:	df 93       	push	r29
    37d8:	ec 01       	movw	r28, r24
    37da:	0e 94 4a 1a 	call	0x3494	; 0x3494 <_ZN6String6concatEi>
    37de:	81 11       	cpse	r24, r1
    37e0:	03 c0       	rjmp	.+6      	; 0x37e8 <_ZplRK15StringSumHelperi+0x14>
    37e2:	ce 01       	movw	r24, r28
    37e4:	0e 94 75 17 	call	0x2eea	; 0x2eea <_ZN6String10invalidateEv>
    37e8:	ce 01       	movw	r24, r28
    37ea:	df 91       	pop	r29
    37ec:	cf 91       	pop	r28
    37ee:	08 95       	ret

000037f0 <_ZplRK15StringSumHelperj>:
    37f0:	cf 93       	push	r28
    37f2:	df 93       	push	r29
    37f4:	ec 01       	movw	r28, r24
    37f6:	0e 94 7b 1a 	call	0x34f6	; 0x34f6 <_ZN6String6concatEj>
    37fa:	81 11       	cpse	r24, r1
    37fc:	03 c0       	rjmp	.+6      	; 0x3804 <_ZplRK15StringSumHelperj+0x14>
    37fe:	ce 01       	movw	r24, r28
    3800:	0e 94 75 17 	call	0x2eea	; 0x2eea <_ZN6String10invalidateEv>
    3804:	ce 01       	movw	r24, r28
    3806:	df 91       	pop	r29
    3808:	cf 91       	pop	r28
    380a:	08 95       	ret

0000380c <_ZplRK15StringSumHelperl>:
    380c:	cf 93       	push	r28
    380e:	df 93       	push	r29
    3810:	ec 01       	movw	r28, r24
    3812:	0e 94 ac 1a 	call	0x3558	; 0x3558 <_ZN6String6concatEl>
    3816:	81 11       	cpse	r24, r1
    3818:	03 c0       	rjmp	.+6      	; 0x3820 <_ZplRK15StringSumHelperl+0x14>
    381a:	ce 01       	movw	r24, r28
    381c:	0e 94 75 17 	call	0x2eea	; 0x2eea <_ZN6String10invalidateEv>
    3820:	ce 01       	movw	r24, r28
    3822:	df 91       	pop	r29
    3824:	cf 91       	pop	r28
    3826:	08 95       	ret

00003828 <_ZplRK15StringSumHelperm>:
    3828:	cf 93       	push	r28
    382a:	df 93       	push	r29
    382c:	ec 01       	movw	r28, r24
    382e:	0e 94 de 1a 	call	0x35bc	; 0x35bc <_ZN6String6concatEm>
    3832:	81 11       	cpse	r24, r1
    3834:	03 c0       	rjmp	.+6      	; 0x383c <_ZplRK15StringSumHelperm+0x14>
    3836:	ce 01       	movw	r24, r28
    3838:	0e 94 75 17 	call	0x2eea	; 0x2eea <_ZN6String10invalidateEv>
    383c:	ce 01       	movw	r24, r28
    383e:	df 91       	pop	r29
    3840:	cf 91       	pop	r28
    3842:	08 95       	ret

00003844 <_ZplRK15StringSumHelperf>:
    3844:	cf 93       	push	r28
    3846:	df 93       	push	r29
    3848:	ec 01       	movw	r28, r24
    384a:	0e 94 10 1b 	call	0x3620	; 0x3620 <_ZN6String6concatEf>
    384e:	81 11       	cpse	r24, r1
    3850:	03 c0       	rjmp	.+6      	; 0x3858 <_ZplRK15StringSumHelperf+0x14>
    3852:	ce 01       	movw	r24, r28
    3854:	0e 94 75 17 	call	0x2eea	; 0x2eea <_ZN6String10invalidateEv>
    3858:	ce 01       	movw	r24, r28
    385a:	df 91       	pop	r29
    385c:	cf 91       	pop	r28
    385e:	08 95       	ret

00003860 <_ZplRK15StringSumHelperd>:
    3860:	cf 93       	push	r28
    3862:	df 93       	push	r29
    3864:	ec 01       	movw	r28, r24
    3866:	0e 94 41 1b 	call	0x3682	; 0x3682 <_ZN6String6concatEd>
    386a:	81 11       	cpse	r24, r1
    386c:	03 c0       	rjmp	.+6      	; 0x3874 <_ZplRK15StringSumHelperd+0x14>
    386e:	ce 01       	movw	r24, r28
    3870:	0e 94 75 17 	call	0x2eea	; 0x2eea <_ZN6String10invalidateEv>
    3874:	ce 01       	movw	r24, r28
    3876:	df 91       	pop	r29
    3878:	cf 91       	pop	r28
    387a:	08 95       	ret

0000387c <_ZplRK15StringSumHelperPK19__FlashStringHelper>:
    387c:	cf 93       	push	r28
    387e:	df 93       	push	r29
    3880:	ec 01       	movw	r28, r24
    3882:	0e 94 72 1b 	call	0x36e4	; 0x36e4 <_ZN6String6concatEPK19__FlashStringHelper>
    3886:	81 11       	cpse	r24, r1
    3888:	03 c0       	rjmp	.+6      	; 0x3890 <_ZplRK15StringSumHelperPK19__FlashStringHelper+0x14>
    388a:	ce 01       	movw	r24, r28
    388c:	0e 94 75 17 	call	0x2eea	; 0x2eea <_ZN6String10invalidateEv>
    3890:	ce 01       	movw	r24, r28
    3892:	df 91       	pop	r29
    3894:	cf 91       	pop	r28
    3896:	08 95       	ret

00003898 <_ZNK6String9compareToERKS_>:
    3898:	cf 93       	push	r28
    389a:	df 93       	push	r29
    389c:	dc 01       	movw	r26, r24
    389e:	ed 91       	ld	r30, X+
    38a0:	fc 91       	ld	r31, X
    38a2:	eb 01       	movw	r28, r22
    38a4:	a8 81       	ld	r26, Y
    38a6:	b9 81       	ldd	r27, Y+1	; 0x01
    38a8:	30 97       	sbiw	r30, 0x00	; 0
    38aa:	11 f0       	breq	.+4      	; 0x38b0 <_ZNK6String9compareToERKS_+0x18>
    38ac:	10 97       	sbiw	r26, 0x00	; 0
    38ae:	c9 f4       	brne	.+50     	; 0x38e2 <_ZNK6String9compareToERKS_+0x4a>
    38b0:	10 97       	sbiw	r26, 0x00	; 0
    38b2:	59 f0       	breq	.+22     	; 0x38ca <_ZNK6String9compareToERKS_+0x32>
    38b4:	eb 01       	movw	r28, r22
    38b6:	2c 81       	ldd	r18, Y+4	; 0x04
    38b8:	3d 81       	ldd	r19, Y+5	; 0x05
    38ba:	23 2b       	or	r18, r19
    38bc:	31 f0       	breq	.+12     	; 0x38ca <_ZNK6String9compareToERKS_+0x32>
    38be:	8c 91       	ld	r24, X
    38c0:	90 e0       	ldi	r25, 0x00	; 0
    38c2:	91 95       	neg	r25
    38c4:	81 95       	neg	r24
    38c6:	91 09       	sbc	r25, r1
    38c8:	14 c0       	rjmp	.+40     	; 0x38f2 <_ZNK6String9compareToERKS_+0x5a>
    38ca:	30 97       	sbiw	r30, 0x00	; 0
    38cc:	81 f0       	breq	.+32     	; 0x38ee <_ZNK6String9compareToERKS_+0x56>
    38ce:	dc 01       	movw	r26, r24
    38d0:	14 96       	adiw	r26, 0x04	; 4
    38d2:	8d 91       	ld	r24, X+
    38d4:	9c 91       	ld	r25, X
    38d6:	15 97       	sbiw	r26, 0x05	; 5
    38d8:	89 2b       	or	r24, r25
    38da:	49 f0       	breq	.+18     	; 0x38ee <_ZNK6String9compareToERKS_+0x56>
    38dc:	80 81       	ld	r24, Z
    38de:	90 e0       	ldi	r25, 0x00	; 0
    38e0:	08 c0       	rjmp	.+16     	; 0x38f2 <_ZNK6String9compareToERKS_+0x5a>
    38e2:	bd 01       	movw	r22, r26
    38e4:	cf 01       	movw	r24, r30
    38e6:	df 91       	pop	r29
    38e8:	cf 91       	pop	r28
    38ea:	0c 94 d7 27 	jmp	0x4fae	; 0x4fae <strcmp>
    38ee:	80 e0       	ldi	r24, 0x00	; 0
    38f0:	90 e0       	ldi	r25, 0x00	; 0
    38f2:	df 91       	pop	r29
    38f4:	cf 91       	pop	r28
    38f6:	08 95       	ret

000038f8 <_ZNK6String6equalsERKS_>:
    38f8:	fc 01       	movw	r30, r24
    38fa:	44 81       	ldd	r20, Z+4	; 0x04
    38fc:	55 81       	ldd	r21, Z+5	; 0x05
    38fe:	fb 01       	movw	r30, r22
    3900:	24 81       	ldd	r18, Z+4	; 0x04
    3902:	35 81       	ldd	r19, Z+5	; 0x05
    3904:	42 17       	cp	r20, r18
    3906:	53 07       	cpc	r21, r19
    3908:	29 f4       	brne	.+10     	; 0x3914 <_ZNK6String6equalsERKS_+0x1c>
    390a:	0e 94 4c 1c 	call	0x3898	; 0x3898 <_ZNK6String9compareToERKS_>
    390e:	21 e0       	ldi	r18, 0x01	; 1
    3910:	89 2b       	or	r24, r25
    3912:	09 f0       	breq	.+2      	; 0x3916 <_ZNK6String6equalsERKS_+0x1e>
    3914:	20 e0       	ldi	r18, 0x00	; 0
    3916:	82 2f       	mov	r24, r18
    3918:	08 95       	ret

0000391a <_ZNK6String6equalsEPKc>:
    391a:	fc 01       	movw	r30, r24
    391c:	24 81       	ldd	r18, Z+4	; 0x04
    391e:	35 81       	ldd	r19, Z+5	; 0x05
    3920:	23 2b       	or	r18, r19
    3922:	31 f4       	brne	.+12     	; 0x3930 <_ZNK6String6equalsEPKc+0x16>
    3924:	21 e0       	ldi	r18, 0x01	; 1
    3926:	61 15       	cp	r22, r1
    3928:	71 05       	cpc	r23, r1
    392a:	a1 f0       	breq	.+40     	; 0x3954 <_ZNK6String6equalsEPKc+0x3a>
    392c:	fb 01       	movw	r30, r22
    392e:	08 c0       	rjmp	.+16     	; 0x3940 <_ZNK6String6equalsEPKc+0x26>
    3930:	fc 01       	movw	r30, r24
    3932:	80 81       	ld	r24, Z
    3934:	91 81       	ldd	r25, Z+1	; 0x01
    3936:	61 15       	cp	r22, r1
    3938:	71 05       	cpc	r23, r1
    393a:	31 f4       	brne	.+12     	; 0x3948 <_ZNK6String6equalsEPKc+0x2e>
    393c:	21 e0       	ldi	r18, 0x01	; 1
    393e:	fc 01       	movw	r30, r24
    3940:	80 81       	ld	r24, Z
    3942:	88 23       	and	r24, r24
    3944:	39 f0       	breq	.+14     	; 0x3954 <_ZNK6String6equalsEPKc+0x3a>
    3946:	05 c0       	rjmp	.+10     	; 0x3952 <_ZNK6String6equalsEPKc+0x38>
    3948:	0e 94 d7 27 	call	0x4fae	; 0x4fae <strcmp>
    394c:	21 e0       	ldi	r18, 0x01	; 1
    394e:	89 2b       	or	r24, r25
    3950:	09 f0       	breq	.+2      	; 0x3954 <_ZNK6String6equalsEPKc+0x3a>
    3952:	20 e0       	ldi	r18, 0x00	; 0
    3954:	82 2f       	mov	r24, r18
    3956:	08 95       	ret

00003958 <_ZNK6StringltERKS_>:
    3958:	0e 94 4c 1c 	call	0x3898	; 0x3898 <_ZNK6String9compareToERKS_>
    395c:	89 2f       	mov	r24, r25
    395e:	88 1f       	adc	r24, r24
    3960:	88 27       	eor	r24, r24
    3962:	88 1f       	adc	r24, r24
    3964:	08 95       	ret

00003966 <_ZNK6StringgtERKS_>:
    3966:	0e 94 4c 1c 	call	0x3898	; 0x3898 <_ZNK6String9compareToERKS_>
    396a:	21 e0       	ldi	r18, 0x01	; 1
    396c:	18 16       	cp	r1, r24
    396e:	19 06       	cpc	r1, r25
    3970:	0c f0       	brlt	.+2      	; 0x3974 <_ZNK6StringgtERKS_+0xe>
    3972:	20 e0       	ldi	r18, 0x00	; 0
    3974:	82 2f       	mov	r24, r18
    3976:	08 95       	ret

00003978 <_ZNK6StringleERKS_>:
    3978:	0e 94 4c 1c 	call	0x3898	; 0x3898 <_ZNK6String9compareToERKS_>
    397c:	21 e0       	ldi	r18, 0x01	; 1
    397e:	18 16       	cp	r1, r24
    3980:	19 06       	cpc	r1, r25
    3982:	0c f4       	brge	.+2      	; 0x3986 <_ZNK6StringleERKS_+0xe>
    3984:	20 e0       	ldi	r18, 0x00	; 0
    3986:	82 2f       	mov	r24, r18
    3988:	08 95       	ret

0000398a <_ZNK6StringgeERKS_>:
    398a:	0e 94 4c 1c 	call	0x3898	; 0x3898 <_ZNK6String9compareToERKS_>
    398e:	89 2f       	mov	r24, r25
    3990:	80 95       	com	r24
    3992:	88 1f       	adc	r24, r24
    3994:	88 27       	eor	r24, r24
    3996:	88 1f       	adc	r24, r24
    3998:	08 95       	ret

0000399a <_ZNK6String16equalsIgnoreCaseERKS_>:
    399a:	ef 92       	push	r14
    399c:	ff 92       	push	r15
    399e:	0f 93       	push	r16
    39a0:	1f 93       	push	r17
    39a2:	cf 93       	push	r28
    39a4:	df 93       	push	r29
    39a6:	86 17       	cp	r24, r22
    39a8:	97 07       	cpc	r25, r23
    39aa:	31 f1       	breq	.+76     	; 0x39f8 <_ZNK6String16equalsIgnoreCaseERKS_+0x5e>
    39ac:	fc 01       	movw	r30, r24
    39ae:	24 81       	ldd	r18, Z+4	; 0x04
    39b0:	35 81       	ldd	r19, Z+5	; 0x05
    39b2:	fb 01       	movw	r30, r22
    39b4:	44 81       	ldd	r20, Z+4	; 0x04
    39b6:	55 81       	ldd	r21, Z+5	; 0x05
    39b8:	24 17       	cp	r18, r20
    39ba:	35 07       	cpc	r19, r21
    39bc:	d9 f4       	brne	.+54     	; 0x39f4 <_ZNK6String16equalsIgnoreCaseERKS_+0x5a>
    39be:	23 2b       	or	r18, r19
    39c0:	d9 f0       	breq	.+54     	; 0x39f8 <_ZNK6String16equalsIgnoreCaseERKS_+0x5e>
    39c2:	dc 01       	movw	r26, r24
    39c4:	0d 91       	ld	r16, X+
    39c6:	1c 91       	ld	r17, X
    39c8:	c0 81       	ld	r28, Z
    39ca:	d1 81       	ldd	r29, Z+1	; 0x01
    39cc:	f8 01       	movw	r30, r16
    39ce:	81 91       	ld	r24, Z+
    39d0:	8f 01       	movw	r16, r30
    39d2:	88 23       	and	r24, r24
    39d4:	89 f0       	breq	.+34     	; 0x39f8 <_ZNK6String16equalsIgnoreCaseERKS_+0x5e>
    39d6:	08 2e       	mov	r0, r24
    39d8:	00 0c       	add	r0, r0
    39da:	99 0b       	sbc	r25, r25
    39dc:	0e 94 84 27 	call	0x4f08	; 0x4f08 <tolower>
    39e0:	7c 01       	movw	r14, r24
    39e2:	89 91       	ld	r24, Y+
    39e4:	08 2e       	mov	r0, r24
    39e6:	00 0c       	add	r0, r0
    39e8:	99 0b       	sbc	r25, r25
    39ea:	0e 94 84 27 	call	0x4f08	; 0x4f08 <tolower>
    39ee:	e8 16       	cp	r14, r24
    39f0:	f9 06       	cpc	r15, r25
    39f2:	61 f3       	breq	.-40     	; 0x39cc <_ZNK6String16equalsIgnoreCaseERKS_+0x32>
    39f4:	80 e0       	ldi	r24, 0x00	; 0
    39f6:	01 c0       	rjmp	.+2      	; 0x39fa <_ZNK6String16equalsIgnoreCaseERKS_+0x60>
    39f8:	81 e0       	ldi	r24, 0x01	; 1
    39fa:	df 91       	pop	r29
    39fc:	cf 91       	pop	r28
    39fe:	1f 91       	pop	r17
    3a00:	0f 91       	pop	r16
    3a02:	ff 90       	pop	r15
    3a04:	ef 90       	pop	r14
    3a06:	08 95       	ret

00003a08 <_ZNK6String10startsWithERKS_j>:
    3a08:	db 01       	movw	r26, r22
    3a0a:	14 96       	adiw	r26, 0x04	; 4
    3a0c:	ed 91       	ld	r30, X+
    3a0e:	fc 91       	ld	r31, X
    3a10:	15 97       	sbiw	r26, 0x05	; 5
    3a12:	dc 01       	movw	r26, r24
    3a14:	14 96       	adiw	r26, 0x04	; 4
    3a16:	2d 91       	ld	r18, X+
    3a18:	3c 91       	ld	r19, X
    3a1a:	15 97       	sbiw	r26, 0x05	; 5
    3a1c:	2e 1b       	sub	r18, r30
    3a1e:	3f 0b       	sbc	r19, r31
    3a20:	24 17       	cp	r18, r20
    3a22:	35 07       	cpc	r19, r21
    3a24:	a0 f0       	brcs	.+40     	; 0x3a4e <_ZNK6String10startsWithERKS_j+0x46>
    3a26:	2d 91       	ld	r18, X+
    3a28:	3c 91       	ld	r19, X
    3a2a:	21 15       	cp	r18, r1
    3a2c:	31 05       	cpc	r19, r1
    3a2e:	79 f0       	breq	.+30     	; 0x3a4e <_ZNK6String10startsWithERKS_j+0x46>
    3a30:	db 01       	movw	r26, r22
    3a32:	6d 91       	ld	r22, X+
    3a34:	7c 91       	ld	r23, X
    3a36:	61 15       	cp	r22, r1
    3a38:	71 05       	cpc	r23, r1
    3a3a:	49 f0       	breq	.+18     	; 0x3a4e <_ZNK6String10startsWithERKS_j+0x46>
    3a3c:	ca 01       	movw	r24, r20
    3a3e:	af 01       	movw	r20, r30
    3a40:	82 0f       	add	r24, r18
    3a42:	93 1f       	adc	r25, r19
    3a44:	0e 94 e7 27 	call	0x4fce	; 0x4fce <strncmp>
    3a48:	21 e0       	ldi	r18, 0x01	; 1
    3a4a:	89 2b       	or	r24, r25
    3a4c:	09 f0       	breq	.+2      	; 0x3a50 <_ZNK6String10startsWithERKS_j+0x48>
    3a4e:	20 e0       	ldi	r18, 0x00	; 0
    3a50:	82 2f       	mov	r24, r18
    3a52:	08 95       	ret

00003a54 <_ZNK6String10startsWithERKS_>:
    3a54:	fc 01       	movw	r30, r24
    3a56:	44 81       	ldd	r20, Z+4	; 0x04
    3a58:	55 81       	ldd	r21, Z+5	; 0x05
    3a5a:	fb 01       	movw	r30, r22
    3a5c:	24 81       	ldd	r18, Z+4	; 0x04
    3a5e:	35 81       	ldd	r19, Z+5	; 0x05
    3a60:	42 17       	cp	r20, r18
    3a62:	53 07       	cpc	r21, r19
    3a64:	20 f0       	brcs	.+8      	; 0x3a6e <_ZNK6String10startsWithERKS_+0x1a>
    3a66:	40 e0       	ldi	r20, 0x00	; 0
    3a68:	50 e0       	ldi	r21, 0x00	; 0
    3a6a:	0c 94 04 1d 	jmp	0x3a08	; 0x3a08 <_ZNK6String10startsWithERKS_j>
    3a6e:	80 e0       	ldi	r24, 0x00	; 0
    3a70:	08 95       	ret

00003a72 <_ZNK6String8endsWithERKS_>:
    3a72:	fc 01       	movw	r30, r24
    3a74:	24 81       	ldd	r18, Z+4	; 0x04
    3a76:	35 81       	ldd	r19, Z+5	; 0x05
    3a78:	fb 01       	movw	r30, r22
    3a7a:	44 81       	ldd	r20, Z+4	; 0x04
    3a7c:	55 81       	ldd	r21, Z+5	; 0x05
    3a7e:	24 17       	cp	r18, r20
    3a80:	35 07       	cpc	r19, r21
    3a82:	a0 f0       	brcs	.+40     	; 0x3aac <_ZNK6String8endsWithERKS_+0x3a>
    3a84:	fc 01       	movw	r30, r24
    3a86:	80 81       	ld	r24, Z
    3a88:	91 81       	ldd	r25, Z+1	; 0x01
    3a8a:	00 97       	sbiw	r24, 0x00	; 0
    3a8c:	79 f0       	breq	.+30     	; 0x3aac <_ZNK6String8endsWithERKS_+0x3a>
    3a8e:	fb 01       	movw	r30, r22
    3a90:	60 81       	ld	r22, Z
    3a92:	71 81       	ldd	r23, Z+1	; 0x01
    3a94:	61 15       	cp	r22, r1
    3a96:	71 05       	cpc	r23, r1
    3a98:	49 f0       	breq	.+18     	; 0x3aac <_ZNK6String8endsWithERKS_+0x3a>
    3a9a:	24 1b       	sub	r18, r20
    3a9c:	35 0b       	sbc	r19, r21
    3a9e:	82 0f       	add	r24, r18
    3aa0:	93 1f       	adc	r25, r19
    3aa2:	0e 94 d7 27 	call	0x4fae	; 0x4fae <strcmp>
    3aa6:	21 e0       	ldi	r18, 0x01	; 1
    3aa8:	89 2b       	or	r24, r25
    3aaa:	09 f0       	breq	.+2      	; 0x3aae <_ZNK6String8endsWithERKS_+0x3c>
    3aac:	20 e0       	ldi	r18, 0x00	; 0
    3aae:	82 2f       	mov	r24, r18
    3ab0:	08 95       	ret

00003ab2 <_ZN6String9setCharAtEjc>:
    3ab2:	fc 01       	movw	r30, r24
    3ab4:	24 81       	ldd	r18, Z+4	; 0x04
    3ab6:	35 81       	ldd	r19, Z+5	; 0x05
    3ab8:	62 17       	cp	r22, r18
    3aba:	73 07       	cpc	r23, r19
    3abc:	30 f4       	brcc	.+12     	; 0x3aca <_ZN6String9setCharAtEjc+0x18>
    3abe:	80 81       	ld	r24, Z
    3ac0:	91 81       	ldd	r25, Z+1	; 0x01
    3ac2:	fc 01       	movw	r30, r24
    3ac4:	e6 0f       	add	r30, r22
    3ac6:	f7 1f       	adc	r31, r23
    3ac8:	40 83       	st	Z, r20
    3aca:	08 95       	ret

00003acc <_ZN6StringixEj>:
    3acc:	fc 01       	movw	r30, r24
    3ace:	24 81       	ldd	r18, Z+4	; 0x04
    3ad0:	35 81       	ldd	r19, Z+5	; 0x05
    3ad2:	62 17       	cp	r22, r18
    3ad4:	73 07       	cpc	r23, r19
    3ad6:	20 f4       	brcc	.+8      	; 0x3ae0 <_ZN6StringixEj+0x14>
    3ad8:	80 81       	ld	r24, Z
    3ada:	91 81       	ldd	r25, Z+1	; 0x01
    3adc:	00 97       	sbiw	r24, 0x00	; 0
    3ade:	29 f4       	brne	.+10     	; 0x3aea <_ZN6StringixEj+0x1e>
    3ae0:	10 92 fb 04 	sts	0x04FB, r1	; 0x8004fb <_ZZN6StringixEjE19dummy_writable_char>
    3ae4:	8b ef       	ldi	r24, 0xFB	; 251
    3ae6:	94 e0       	ldi	r25, 0x04	; 4
    3ae8:	08 95       	ret
    3aea:	86 0f       	add	r24, r22
    3aec:	97 1f       	adc	r25, r23
    3aee:	08 95       	ret

00003af0 <_ZNK6StringixEj>:
    3af0:	fc 01       	movw	r30, r24
    3af2:	24 81       	ldd	r18, Z+4	; 0x04
    3af4:	35 81       	ldd	r19, Z+5	; 0x05
    3af6:	62 17       	cp	r22, r18
    3af8:	73 07       	cpc	r23, r19
    3afa:	48 f4       	brcc	.+18     	; 0x3b0e <_ZNK6StringixEj+0x1e>
    3afc:	80 81       	ld	r24, Z
    3afe:	91 81       	ldd	r25, Z+1	; 0x01
    3b00:	00 97       	sbiw	r24, 0x00	; 0
    3b02:	29 f0       	breq	.+10     	; 0x3b0e <_ZNK6StringixEj+0x1e>
    3b04:	fc 01       	movw	r30, r24
    3b06:	e6 0f       	add	r30, r22
    3b08:	f7 1f       	adc	r31, r23
    3b0a:	80 81       	ld	r24, Z
    3b0c:	08 95       	ret
    3b0e:	80 e0       	ldi	r24, 0x00	; 0
    3b10:	08 95       	ret

00003b12 <_ZNK6String6charAtEj>:
    3b12:	0c 94 78 1d 	jmp	0x3af0	; 0x3af0 <_ZNK6StringixEj>

00003b16 <_ZNK6String8getBytesEPhjj>:
    3b16:	0f 93       	push	r16
    3b18:	1f 93       	push	r17
    3b1a:	cf 93       	push	r28
    3b1c:	df 93       	push	r29
    3b1e:	41 15       	cp	r20, r1
    3b20:	51 05       	cpc	r21, r1
    3b22:	19 f1       	breq	.+70     	; 0x3b6a <_ZNK6String8getBytesEPhjj+0x54>
    3b24:	61 15       	cp	r22, r1
    3b26:	71 05       	cpc	r23, r1
    3b28:	01 f1       	breq	.+64     	; 0x3b6a <_ZNK6String8getBytesEPhjj+0x54>
    3b2a:	dc 01       	movw	r26, r24
    3b2c:	14 96       	adiw	r26, 0x04	; 4
    3b2e:	ed 91       	ld	r30, X+
    3b30:	fc 91       	ld	r31, X
    3b32:	15 97       	sbiw	r26, 0x05	; 5
    3b34:	2e 17       	cp	r18, r30
    3b36:	3f 07       	cpc	r19, r31
    3b38:	18 f0       	brcs	.+6      	; 0x3b40 <_ZNK6String8getBytesEPhjj+0x2a>
    3b3a:	fb 01       	movw	r30, r22
    3b3c:	10 82       	st	Z, r1
    3b3e:	15 c0       	rjmp	.+42     	; 0x3b6a <_ZNK6String8getBytesEPhjj+0x54>
    3b40:	e2 1b       	sub	r30, r18
    3b42:	f3 0b       	sbc	r31, r19
    3b44:	ea 01       	movw	r28, r20
    3b46:	21 97       	sbiw	r28, 0x01	; 1
    3b48:	ec 17       	cp	r30, r28
    3b4a:	fd 07       	cpc	r31, r29
    3b4c:	08 f4       	brcc	.+2      	; 0x3b50 <_ZNK6String8getBytesEPhjj+0x3a>
    3b4e:	ef 01       	movw	r28, r30
    3b50:	8b 01       	movw	r16, r22
    3b52:	fc 01       	movw	r30, r24
    3b54:	60 81       	ld	r22, Z
    3b56:	71 81       	ldd	r23, Z+1	; 0x01
    3b58:	62 0f       	add	r22, r18
    3b5a:	73 1f       	adc	r23, r19
    3b5c:	ae 01       	movw	r20, r28
    3b5e:	c8 01       	movw	r24, r16
    3b60:	0e 94 f5 27 	call	0x4fea	; 0x4fea <strncpy>
    3b64:	c0 0f       	add	r28, r16
    3b66:	d1 1f       	adc	r29, r17
    3b68:	18 82       	st	Y, r1
    3b6a:	df 91       	pop	r29
    3b6c:	cf 91       	pop	r28
    3b6e:	1f 91       	pop	r17
    3b70:	0f 91       	pop	r16
    3b72:	08 95       	ret

00003b74 <_ZNK6String7indexOfEcj>:
    3b74:	cf 93       	push	r28
    3b76:	df 93       	push	r29
    3b78:	fc 01       	movw	r30, r24
    3b7a:	24 81       	ldd	r18, Z+4	; 0x04
    3b7c:	35 81       	ldd	r19, Z+5	; 0x05
    3b7e:	42 17       	cp	r20, r18
    3b80:	53 07       	cpc	r21, r19
    3b82:	78 f4       	brcc	.+30     	; 0x3ba2 <_ZNK6String7indexOfEcj+0x2e>
    3b84:	c0 81       	ld	r28, Z
    3b86:	d1 81       	ldd	r29, Z+1	; 0x01
    3b88:	06 2e       	mov	r0, r22
    3b8a:	00 0c       	add	r0, r0
    3b8c:	77 0b       	sbc	r23, r23
    3b8e:	ce 01       	movw	r24, r28
    3b90:	84 0f       	add	r24, r20
    3b92:	95 1f       	adc	r25, r21
    3b94:	0e 94 cc 27 	call	0x4f98	; 0x4f98 <strchr>
    3b98:	00 97       	sbiw	r24, 0x00	; 0
    3b9a:	19 f0       	breq	.+6      	; 0x3ba2 <_ZNK6String7indexOfEcj+0x2e>
    3b9c:	8c 1b       	sub	r24, r28
    3b9e:	9d 0b       	sbc	r25, r29
    3ba0:	02 c0       	rjmp	.+4      	; 0x3ba6 <_ZNK6String7indexOfEcj+0x32>
    3ba2:	8f ef       	ldi	r24, 0xFF	; 255
    3ba4:	9f ef       	ldi	r25, 0xFF	; 255
    3ba6:	df 91       	pop	r29
    3ba8:	cf 91       	pop	r28
    3baa:	08 95       	ret

00003bac <_ZNK6String7indexOfEc>:
    3bac:	40 e0       	ldi	r20, 0x00	; 0
    3bae:	50 e0       	ldi	r21, 0x00	; 0
    3bb0:	0c 94 ba 1d 	jmp	0x3b74	; 0x3b74 <_ZNK6String7indexOfEcj>

00003bb4 <_ZNK6String7indexOfERKS_j>:
    3bb4:	cf 93       	push	r28
    3bb6:	df 93       	push	r29
    3bb8:	fc 01       	movw	r30, r24
    3bba:	24 81       	ldd	r18, Z+4	; 0x04
    3bbc:	35 81       	ldd	r19, Z+5	; 0x05
    3bbe:	42 17       	cp	r20, r18
    3bc0:	53 07       	cpc	r21, r19
    3bc2:	80 f4       	brcc	.+32     	; 0x3be4 <_ZNK6String7indexOfERKS_j+0x30>
    3bc4:	fb 01       	movw	r30, r22
    3bc6:	dc 01       	movw	r26, r24
    3bc8:	cd 91       	ld	r28, X+
    3bca:	dc 91       	ld	r29, X
    3bcc:	60 81       	ld	r22, Z
    3bce:	71 81       	ldd	r23, Z+1	; 0x01
    3bd0:	ce 01       	movw	r24, r28
    3bd2:	84 0f       	add	r24, r20
    3bd4:	95 1f       	adc	r25, r21
    3bd6:	0e 94 0f 28 	call	0x501e	; 0x501e <strstr>
    3bda:	00 97       	sbiw	r24, 0x00	; 0
    3bdc:	19 f0       	breq	.+6      	; 0x3be4 <_ZNK6String7indexOfERKS_j+0x30>
    3bde:	8c 1b       	sub	r24, r28
    3be0:	9d 0b       	sbc	r25, r29
    3be2:	02 c0       	rjmp	.+4      	; 0x3be8 <_ZNK6String7indexOfERKS_j+0x34>
    3be4:	8f ef       	ldi	r24, 0xFF	; 255
    3be6:	9f ef       	ldi	r25, 0xFF	; 255
    3be8:	df 91       	pop	r29
    3bea:	cf 91       	pop	r28
    3bec:	08 95       	ret

00003bee <_ZNK6String7indexOfERKS_>:
    3bee:	40 e0       	ldi	r20, 0x00	; 0
    3bf0:	50 e0       	ldi	r21, 0x00	; 0
    3bf2:	0c 94 da 1d 	jmp	0x3bb4	; 0x3bb4 <_ZNK6String7indexOfERKS_j>

00003bf6 <_ZNK6String11lastIndexOfEcj>:
    3bf6:	df 92       	push	r13
    3bf8:	ef 92       	push	r14
    3bfa:	ff 92       	push	r15
    3bfc:	0f 93       	push	r16
    3bfe:	1f 93       	push	r17
    3c00:	cf 93       	push	r28
    3c02:	df 93       	push	r29
    3c04:	dc 01       	movw	r26, r24
    3c06:	14 96       	adiw	r26, 0x04	; 4
    3c08:	2d 91       	ld	r18, X+
    3c0a:	3c 91       	ld	r19, X
    3c0c:	15 97       	sbiw	r26, 0x05	; 5
    3c0e:	42 17       	cp	r20, r18
    3c10:	53 07       	cpc	r21, r19
    3c12:	18 f0       	brcs	.+6      	; 0x3c1a <_ZNK6String11lastIndexOfEcj+0x24>
    3c14:	8f ef       	ldi	r24, 0xFF	; 255
    3c16:	9f ef       	ldi	r25, 0xFF	; 255
    3c18:	1d c0       	rjmp	.+58     	; 0x3c54 <_ZNK6String11lastIndexOfEcj+0x5e>
    3c1a:	8c 01       	movw	r16, r24
    3c1c:	ea 01       	movw	r28, r20
    3c1e:	21 96       	adiw	r28, 0x01	; 1
    3c20:	dc 01       	movw	r26, r24
    3c22:	ed 91       	ld	r30, X+
    3c24:	fc 91       	ld	r31, X
    3c26:	11 97       	sbiw	r26, 0x01	; 1
    3c28:	ec 0f       	add	r30, r28
    3c2a:	fd 1f       	adc	r31, r29
    3c2c:	d0 80       	ld	r13, Z
    3c2e:	10 82       	st	Z, r1
    3c30:	ed 90       	ld	r14, X+
    3c32:	fc 90       	ld	r15, X
    3c34:	06 2e       	mov	r0, r22
    3c36:	00 0c       	add	r0, r0
    3c38:	77 0b       	sbc	r23, r23
    3c3a:	c7 01       	movw	r24, r14
    3c3c:	0e 94 04 28 	call	0x5008	; 0x5008 <strrchr>
    3c40:	ce 0d       	add	r28, r14
    3c42:	df 1d       	adc	r29, r15
    3c44:	d8 82       	st	Y, r13
    3c46:	00 97       	sbiw	r24, 0x00	; 0
    3c48:	29 f3       	breq	.-54     	; 0x3c14 <_ZNK6String11lastIndexOfEcj+0x1e>
    3c4a:	f8 01       	movw	r30, r16
    3c4c:	20 81       	ld	r18, Z
    3c4e:	31 81       	ldd	r19, Z+1	; 0x01
    3c50:	82 1b       	sub	r24, r18
    3c52:	93 0b       	sbc	r25, r19
    3c54:	df 91       	pop	r29
    3c56:	cf 91       	pop	r28
    3c58:	1f 91       	pop	r17
    3c5a:	0f 91       	pop	r16
    3c5c:	ff 90       	pop	r15
    3c5e:	ef 90       	pop	r14
    3c60:	df 90       	pop	r13
    3c62:	08 95       	ret

00003c64 <_ZNK6String11lastIndexOfEc>:
    3c64:	fc 01       	movw	r30, r24
    3c66:	44 81       	ldd	r20, Z+4	; 0x04
    3c68:	55 81       	ldd	r21, Z+5	; 0x05
    3c6a:	41 50       	subi	r20, 0x01	; 1
    3c6c:	51 09       	sbc	r21, r1
    3c6e:	0c 94 fb 1d 	jmp	0x3bf6	; 0x3bf6 <_ZNK6String11lastIndexOfEcj>

00003c72 <_ZNK6String11lastIndexOfERKS_j>:
    3c72:	af 92       	push	r10
    3c74:	bf 92       	push	r11
    3c76:	cf 92       	push	r12
    3c78:	df 92       	push	r13
    3c7a:	ef 92       	push	r14
    3c7c:	ff 92       	push	r15
    3c7e:	0f 93       	push	r16
    3c80:	1f 93       	push	r17
    3c82:	cf 93       	push	r28
    3c84:	df 93       	push	r29
    3c86:	7b 01       	movw	r14, r22
    3c88:	8a 01       	movw	r16, r20
    3c8a:	fb 01       	movw	r30, r22
    3c8c:	44 81       	ldd	r20, Z+4	; 0x04
    3c8e:	55 81       	ldd	r21, Z+5	; 0x05
    3c90:	41 15       	cp	r20, r1
    3c92:	51 05       	cpc	r21, r1
    3c94:	61 f1       	breq	.+88     	; 0x3cee <_ZNK6String11lastIndexOfERKS_j+0x7c>
    3c96:	fc 01       	movw	r30, r24
    3c98:	24 81       	ldd	r18, Z+4	; 0x04
    3c9a:	35 81       	ldd	r19, Z+5	; 0x05
    3c9c:	21 15       	cp	r18, r1
    3c9e:	31 05       	cpc	r19, r1
    3ca0:	31 f1       	breq	.+76     	; 0x3cee <_ZNK6String11lastIndexOfERKS_j+0x7c>
    3ca2:	24 17       	cp	r18, r20
    3ca4:	35 07       	cpc	r19, r21
    3ca6:	18 f1       	brcs	.+70     	; 0x3cee <_ZNK6String11lastIndexOfERKS_j+0x7c>
    3ca8:	02 17       	cp	r16, r18
    3caa:	13 07       	cpc	r17, r19
    3cac:	18 f0       	brcs	.+6      	; 0x3cb4 <_ZNK6String11lastIndexOfERKS_j+0x42>
    3cae:	89 01       	movw	r16, r18
    3cb0:	01 50       	subi	r16, 0x01	; 1
    3cb2:	11 09       	sbc	r17, r1
    3cb4:	fc 01       	movw	r30, r24
    3cb6:	a0 80       	ld	r10, Z
    3cb8:	b1 80       	ldd	r11, Z+1	; 0x01
    3cba:	c5 01       	movw	r24, r10
    3cbc:	df ef       	ldi	r29, 0xFF	; 255
    3cbe:	cf ef       	ldi	r28, 0xFF	; 255
    3cc0:	65 01       	movw	r12, r10
    3cc2:	c0 0e       	add	r12, r16
    3cc4:	d1 1e       	adc	r13, r17
    3cc6:	c8 16       	cp	r12, r24
    3cc8:	d9 06       	cpc	r13, r25
    3cca:	a0 f0       	brcs	.+40     	; 0x3cf4 <_ZNK6String11lastIndexOfERKS_j+0x82>
    3ccc:	f7 01       	movw	r30, r14
    3cce:	60 81       	ld	r22, Z
    3cd0:	71 81       	ldd	r23, Z+1	; 0x01
    3cd2:	0e 94 0f 28 	call	0x501e	; 0x501e <strstr>
    3cd6:	00 97       	sbiw	r24, 0x00	; 0
    3cd8:	69 f0       	breq	.+26     	; 0x3cf4 <_ZNK6String11lastIndexOfERKS_j+0x82>
    3cda:	9c 01       	movw	r18, r24
    3cdc:	2a 19       	sub	r18, r10
    3cde:	3b 09       	sbc	r19, r11
    3ce0:	02 17       	cp	r16, r18
    3ce2:	13 07       	cpc	r17, r19
    3ce4:	10 f0       	brcs	.+4      	; 0x3cea <_ZNK6String11lastIndexOfERKS_j+0x78>
    3ce6:	d2 2f       	mov	r29, r18
    3ce8:	c3 2f       	mov	r28, r19
    3cea:	01 96       	adiw	r24, 0x01	; 1
    3cec:	ec cf       	rjmp	.-40     	; 0x3cc6 <_ZNK6String11lastIndexOfERKS_j+0x54>
    3cee:	8f ef       	ldi	r24, 0xFF	; 255
    3cf0:	9f ef       	ldi	r25, 0xFF	; 255
    3cf2:	02 c0       	rjmp	.+4      	; 0x3cf8 <_ZNK6String11lastIndexOfERKS_j+0x86>
    3cf4:	8d 2f       	mov	r24, r29
    3cf6:	9c 2f       	mov	r25, r28
    3cf8:	df 91       	pop	r29
    3cfa:	cf 91       	pop	r28
    3cfc:	1f 91       	pop	r17
    3cfe:	0f 91       	pop	r16
    3d00:	ff 90       	pop	r15
    3d02:	ef 90       	pop	r14
    3d04:	df 90       	pop	r13
    3d06:	cf 90       	pop	r12
    3d08:	bf 90       	pop	r11
    3d0a:	af 90       	pop	r10
    3d0c:	08 95       	ret

00003d0e <_ZNK6String11lastIndexOfERKS_>:
    3d0e:	fc 01       	movw	r30, r24
    3d10:	44 81       	ldd	r20, Z+4	; 0x04
    3d12:	55 81       	ldd	r21, Z+5	; 0x05
    3d14:	fb 01       	movw	r30, r22
    3d16:	24 81       	ldd	r18, Z+4	; 0x04
    3d18:	35 81       	ldd	r19, Z+5	; 0x05
    3d1a:	42 1b       	sub	r20, r18
    3d1c:	53 0b       	sbc	r21, r19
    3d1e:	0c 94 39 1e 	jmp	0x3c72	; 0x3c72 <_ZNK6String11lastIndexOfERKS_j>

00003d22 <_ZNK6String9substringEjj>:
    3d22:	bf 92       	push	r11
    3d24:	cf 92       	push	r12
    3d26:	df 92       	push	r13
    3d28:	ef 92       	push	r14
    3d2a:	ff 92       	push	r15
    3d2c:	0f 93       	push	r16
    3d2e:	1f 93       	push	r17
    3d30:	cf 93       	push	r28
    3d32:	df 93       	push	r29
    3d34:	7c 01       	movw	r14, r24
    3d36:	6b 01       	movw	r12, r22
    3d38:	8a 01       	movw	r16, r20
    3d3a:	e9 01       	movw	r28, r18
    3d3c:	24 17       	cp	r18, r20
    3d3e:	35 07       	cpc	r19, r21
    3d40:	20 f4       	brcc	.+8      	; 0x3d4a <_ZNK6String9substringEjj+0x28>
    3d42:	81 2f       	mov	r24, r17
    3d44:	89 01       	movw	r16, r18
    3d46:	c4 2f       	mov	r28, r20
    3d48:	d8 2f       	mov	r29, r24
    3d4a:	67 e3       	ldi	r22, 0x37	; 55
    3d4c:	72 e0       	ldi	r23, 0x02	; 2
    3d4e:	c7 01       	movw	r24, r14
    3d50:	0e 94 de 17 	call	0x2fbc	; 0x2fbc <_ZN6StringC1EPKc>
    3d54:	d6 01       	movw	r26, r12
    3d56:	14 96       	adiw	r26, 0x04	; 4
    3d58:	8d 91       	ld	r24, X+
    3d5a:	9c 91       	ld	r25, X
    3d5c:	15 97       	sbiw	r26, 0x05	; 5
    3d5e:	08 17       	cp	r16, r24
    3d60:	19 07       	cpc	r17, r25
    3d62:	c8 f4       	brcc	.+50     	; 0x3d96 <_ZNK6String9substringEjj+0x74>
    3d64:	8c 17       	cp	r24, r28
    3d66:	9d 07       	cpc	r25, r29
    3d68:	08 f4       	brcc	.+2      	; 0x3d6c <_ZNK6String9substringEjj+0x4a>
    3d6a:	ec 01       	movw	r28, r24
    3d6c:	d6 01       	movw	r26, r12
    3d6e:	ed 91       	ld	r30, X+
    3d70:	fc 91       	ld	r31, X
    3d72:	11 97       	sbiw	r26, 0x01	; 1
    3d74:	ec 0f       	add	r30, r28
    3d76:	fd 1f       	adc	r31, r29
    3d78:	b0 80       	ld	r11, Z
    3d7a:	10 82       	st	Z, r1
    3d7c:	6d 91       	ld	r22, X+
    3d7e:	7c 91       	ld	r23, X
    3d80:	60 0f       	add	r22, r16
    3d82:	71 1f       	adc	r23, r17
    3d84:	c7 01       	movw	r24, r14
    3d86:	0e 94 34 18 	call	0x3068	; 0x3068 <_ZN6StringaSEPKc>
    3d8a:	d6 01       	movw	r26, r12
    3d8c:	ed 91       	ld	r30, X+
    3d8e:	fc 91       	ld	r31, X
    3d90:	ec 0f       	add	r30, r28
    3d92:	fd 1f       	adc	r31, r29
    3d94:	b0 82       	st	Z, r11
    3d96:	c7 01       	movw	r24, r14
    3d98:	df 91       	pop	r29
    3d9a:	cf 91       	pop	r28
    3d9c:	1f 91       	pop	r17
    3d9e:	0f 91       	pop	r16
    3da0:	ff 90       	pop	r15
    3da2:	ef 90       	pop	r14
    3da4:	df 90       	pop	r13
    3da6:	cf 90       	pop	r12
    3da8:	bf 90       	pop	r11
    3daa:	08 95       	ret

00003dac <_ZN6String7replaceEcc>:
    3dac:	dc 01       	movw	r26, r24
    3dae:	ed 91       	ld	r30, X+
    3db0:	fc 91       	ld	r31, X
    3db2:	30 97       	sbiw	r30, 0x00	; 0
    3db4:	41 f0       	breq	.+16     	; 0x3dc6 <_ZN6String7replaceEcc+0x1a>
    3db6:	80 81       	ld	r24, Z
    3db8:	88 23       	and	r24, r24
    3dba:	29 f0       	breq	.+10     	; 0x3dc6 <_ZN6String7replaceEcc+0x1a>
    3dbc:	86 13       	cpse	r24, r22
    3dbe:	01 c0       	rjmp	.+2      	; 0x3dc2 <_ZN6String7replaceEcc+0x16>
    3dc0:	40 83       	st	Z, r20
    3dc2:	31 96       	adiw	r30, 0x01	; 1
    3dc4:	f8 cf       	rjmp	.-16     	; 0x3db6 <_ZN6String7replaceEcc+0xa>
    3dc6:	08 95       	ret

00003dc8 <_ZN6String7replaceERKS_S1_>:
    3dc8:	2f 92       	push	r2
    3dca:	3f 92       	push	r3
    3dcc:	4f 92       	push	r4
    3dce:	5f 92       	push	r5
    3dd0:	6f 92       	push	r6
    3dd2:	7f 92       	push	r7
    3dd4:	8f 92       	push	r8
    3dd6:	9f 92       	push	r9
    3dd8:	af 92       	push	r10
    3dda:	bf 92       	push	r11
    3ddc:	cf 92       	push	r12
    3dde:	df 92       	push	r13
    3de0:	ef 92       	push	r14
    3de2:	ff 92       	push	r15
    3de4:	0f 93       	push	r16
    3de6:	1f 93       	push	r17
    3de8:	cf 93       	push	r28
    3dea:	df 93       	push	r29
    3dec:	fc 01       	movw	r30, r24
    3dee:	44 80       	ldd	r4, Z+4	; 0x04
    3df0:	55 80       	ldd	r5, Z+5	; 0x05
    3df2:	41 14       	cp	r4, r1
    3df4:	51 04       	cpc	r5, r1
    3df6:	09 f4       	brne	.+2      	; 0x3dfa <_ZN6String7replaceERKS_S1_+0x32>
    3df8:	ce c0       	rjmp	.+412    	; 0x3f96 <_ZN6String7replaceERKS_S1_+0x1ce>
    3dfa:	fb 01       	movw	r30, r22
    3dfc:	84 80       	ldd	r8, Z+4	; 0x04
    3dfe:	95 80       	ldd	r9, Z+5	; 0x05
    3e00:	81 14       	cp	r8, r1
    3e02:	91 04       	cpc	r9, r1
    3e04:	09 f4       	brne	.+2      	; 0x3e08 <_ZN6String7replaceERKS_S1_+0x40>
    3e06:	c7 c0       	rjmp	.+398    	; 0x3f96 <_ZN6String7replaceERKS_S1_+0x1ce>
    3e08:	7a 01       	movw	r14, r20
    3e0a:	6b 01       	movw	r12, r22
    3e0c:	8c 01       	movw	r16, r24
    3e0e:	fa 01       	movw	r30, r20
    3e10:	64 80       	ldd	r6, Z+4	; 0x04
    3e12:	75 80       	ldd	r7, Z+5	; 0x05
    3e14:	68 18       	sub	r6, r8
    3e16:	79 08       	sbc	r7, r9
    3e18:	fc 01       	movw	r30, r24
    3e1a:	c0 81       	ld	r28, Z
    3e1c:	d1 81       	ldd	r29, Z+1	; 0x01
    3e1e:	61 14       	cp	r6, r1
    3e20:	71 04       	cpc	r7, r1
    3e22:	b9 f4       	brne	.+46     	; 0x3e52 <_ZN6String7replaceERKS_S1_+0x8a>
    3e24:	f6 01       	movw	r30, r12
    3e26:	60 81       	ld	r22, Z
    3e28:	71 81       	ldd	r23, Z+1	; 0x01
    3e2a:	ce 01       	movw	r24, r28
    3e2c:	0e 94 0f 28 	call	0x501e	; 0x501e <strstr>
    3e30:	ec 01       	movw	r28, r24
    3e32:	00 97       	sbiw	r24, 0x00	; 0
    3e34:	09 f4       	brne	.+2      	; 0x3e38 <_ZN6String7replaceERKS_S1_+0x70>
    3e36:	af c0       	rjmp	.+350    	; 0x3f96 <_ZN6String7replaceERKS_S1_+0x1ce>
    3e38:	f7 01       	movw	r30, r14
    3e3a:	60 81       	ld	r22, Z
    3e3c:	71 81       	ldd	r23, Z+1	; 0x01
    3e3e:	44 81       	ldd	r20, Z+4	; 0x04
    3e40:	55 81       	ldd	r21, Z+5	; 0x05
    3e42:	0e 94 b1 27 	call	0x4f62	; 0x4f62 <memcpy>
    3e46:	f7 01       	movw	r30, r14
    3e48:	84 81       	ldd	r24, Z+4	; 0x04
    3e4a:	95 81       	ldd	r25, Z+5	; 0x05
    3e4c:	c8 0f       	add	r28, r24
    3e4e:	d9 1f       	adc	r29, r25
    3e50:	e9 cf       	rjmp	.-46     	; 0x3e24 <_ZN6String7replaceERKS_S1_+0x5c>
    3e52:	77 fe       	sbrs	r7, 7
    3e54:	44 c0       	rjmp	.+136    	; 0x3ede <_ZN6String7replaceERKS_S1_+0x116>
    3e56:	5e 01       	movw	r10, r28
    3e58:	f6 01       	movw	r30, r12
    3e5a:	60 81       	ld	r22, Z
    3e5c:	71 81       	ldd	r23, Z+1	; 0x01
    3e5e:	c5 01       	movw	r24, r10
    3e60:	0e 94 0f 28 	call	0x501e	; 0x501e <strstr>
    3e64:	2c 01       	movw	r4, r24
    3e66:	00 97       	sbiw	r24, 0x00	; 0
    3e68:	21 f1       	breq	.+72     	; 0x3eb2 <_ZN6String7replaceERKS_S1_+0xea>
    3e6a:	4c 01       	movw	r8, r24
    3e6c:	8a 18       	sub	r8, r10
    3e6e:	9b 08       	sbc	r9, r11
    3e70:	a4 01       	movw	r20, r8
    3e72:	b5 01       	movw	r22, r10
    3e74:	ce 01       	movw	r24, r28
    3e76:	0e 94 b1 27 	call	0x4f62	; 0x4f62 <memcpy>
    3e7a:	c8 0d       	add	r28, r8
    3e7c:	d9 1d       	adc	r29, r9
    3e7e:	f7 01       	movw	r30, r14
    3e80:	60 81       	ld	r22, Z
    3e82:	71 81       	ldd	r23, Z+1	; 0x01
    3e84:	44 81       	ldd	r20, Z+4	; 0x04
    3e86:	55 81       	ldd	r21, Z+5	; 0x05
    3e88:	ce 01       	movw	r24, r28
    3e8a:	0e 94 b1 27 	call	0x4f62	; 0x4f62 <memcpy>
    3e8e:	f7 01       	movw	r30, r14
    3e90:	84 81       	ldd	r24, Z+4	; 0x04
    3e92:	95 81       	ldd	r25, Z+5	; 0x05
    3e94:	c8 0f       	add	r28, r24
    3e96:	d9 1f       	adc	r29, r25
    3e98:	f6 01       	movw	r30, r12
    3e9a:	a4 80       	ldd	r10, Z+4	; 0x04
    3e9c:	b5 80       	ldd	r11, Z+5	; 0x05
    3e9e:	a4 0c       	add	r10, r4
    3ea0:	b5 1c       	adc	r11, r5
    3ea2:	f8 01       	movw	r30, r16
    3ea4:	84 81       	ldd	r24, Z+4	; 0x04
    3ea6:	95 81       	ldd	r25, Z+5	; 0x05
    3ea8:	86 0d       	add	r24, r6
    3eaa:	97 1d       	adc	r25, r7
    3eac:	95 83       	std	Z+5, r25	; 0x05
    3eae:	84 83       	std	Z+4, r24	; 0x04
    3eb0:	d3 cf       	rjmp	.-90     	; 0x3e58 <_ZN6String7replaceERKS_S1_+0x90>
    3eb2:	b5 01       	movw	r22, r10
    3eb4:	ce 01       	movw	r24, r28
    3eb6:	df 91       	pop	r29
    3eb8:	cf 91       	pop	r28
    3eba:	1f 91       	pop	r17
    3ebc:	0f 91       	pop	r16
    3ebe:	ff 90       	pop	r15
    3ec0:	ef 90       	pop	r14
    3ec2:	df 90       	pop	r13
    3ec4:	cf 90       	pop	r12
    3ec6:	bf 90       	pop	r11
    3ec8:	af 90       	pop	r10
    3eca:	9f 90       	pop	r9
    3ecc:	8f 90       	pop	r8
    3ece:	7f 90       	pop	r7
    3ed0:	6f 90       	pop	r6
    3ed2:	5f 90       	pop	r5
    3ed4:	4f 90       	pop	r4
    3ed6:	3f 90       	pop	r3
    3ed8:	2f 90       	pop	r2
    3eda:	0c 94 e0 27 	jmp	0x4fc0	; 0x4fc0 <strcpy>
    3ede:	fb 01       	movw	r30, r22
    3ee0:	20 80       	ld	r2, Z
    3ee2:	31 80       	ldd	r3, Z+1	; 0x01
    3ee4:	52 01       	movw	r10, r4
    3ee6:	b1 01       	movw	r22, r2
    3ee8:	ce 01       	movw	r24, r28
    3eea:	0e 94 0f 28 	call	0x501e	; 0x501e <strstr>
    3eee:	00 97       	sbiw	r24, 0x00	; 0
    3ef0:	31 f0       	breq	.+12     	; 0x3efe <_ZN6String7replaceERKS_S1_+0x136>
    3ef2:	ec 01       	movw	r28, r24
    3ef4:	c8 0d       	add	r28, r8
    3ef6:	d9 1d       	adc	r29, r9
    3ef8:	a6 0c       	add	r10, r6
    3efa:	b7 1c       	adc	r11, r7
    3efc:	f4 cf       	rjmp	.-24     	; 0x3ee6 <_ZN6String7replaceERKS_S1_+0x11e>
    3efe:	a4 14       	cp	r10, r4
    3f00:	b5 04       	cpc	r11, r5
    3f02:	09 f4       	brne	.+2      	; 0x3f06 <_ZN6String7replaceERKS_S1_+0x13e>
    3f04:	48 c0       	rjmp	.+144    	; 0x3f96 <_ZN6String7replaceERKS_S1_+0x1ce>
    3f06:	f8 01       	movw	r30, r16
    3f08:	82 81       	ldd	r24, Z+2	; 0x02
    3f0a:	93 81       	ldd	r25, Z+3	; 0x03
    3f0c:	8a 15       	cp	r24, r10
    3f0e:	9b 05       	cpc	r25, r11
    3f10:	30 f4       	brcc	.+12     	; 0x3f1e <_ZN6String7replaceERKS_S1_+0x156>
    3f12:	b5 01       	movw	r22, r10
    3f14:	c8 01       	movw	r24, r16
    3f16:	0e 94 87 17 	call	0x2f0e	; 0x2f0e <_ZN6String12changeBufferEj>
    3f1a:	88 23       	and	r24, r24
    3f1c:	e1 f1       	breq	.+120    	; 0x3f96 <_ZN6String7replaceERKS_S1_+0x1ce>
    3f1e:	f8 01       	movw	r30, r16
    3f20:	44 81       	ldd	r20, Z+4	; 0x04
    3f22:	55 81       	ldd	r21, Z+5	; 0x05
    3f24:	41 50       	subi	r20, 0x01	; 1
    3f26:	51 09       	sbc	r21, r1
    3f28:	57 fd       	sbrc	r21, 7
    3f2a:	35 c0       	rjmp	.+106    	; 0x3f96 <_ZN6String7replaceERKS_S1_+0x1ce>
    3f2c:	b6 01       	movw	r22, r12
    3f2e:	c8 01       	movw	r24, r16
    3f30:	0e 94 39 1e 	call	0x3c72	; 0x3c72 <_ZNK6String11lastIndexOfERKS_j>
    3f34:	ec 01       	movw	r28, r24
    3f36:	97 fd       	sbrc	r25, 7
    3f38:	2e c0       	rjmp	.+92     	; 0x3f96 <_ZN6String7replaceERKS_S1_+0x1ce>
    3f3a:	f6 01       	movw	r30, r12
    3f3c:	24 81       	ldd	r18, Z+4	; 0x04
    3f3e:	35 81       	ldd	r19, Z+5	; 0x05
    3f40:	28 0f       	add	r18, r24
    3f42:	39 1f       	adc	r19, r25
    3f44:	f8 01       	movw	r30, r16
    3f46:	80 81       	ld	r24, Z
    3f48:	91 81       	ldd	r25, Z+1	; 0x01
    3f4a:	82 0f       	add	r24, r18
    3f4c:	93 1f       	adc	r25, r19
    3f4e:	44 81       	ldd	r20, Z+4	; 0x04
    3f50:	55 81       	ldd	r21, Z+5	; 0x05
    3f52:	42 1b       	sub	r20, r18
    3f54:	53 0b       	sbc	r21, r19
    3f56:	bc 01       	movw	r22, r24
    3f58:	86 0d       	add	r24, r6
    3f5a:	97 1d       	adc	r25, r7
    3f5c:	0e 94 ba 27 	call	0x4f74	; 0x4f74 <memmove>
    3f60:	f8 01       	movw	r30, r16
    3f62:	84 81       	ldd	r24, Z+4	; 0x04
    3f64:	95 81       	ldd	r25, Z+5	; 0x05
    3f66:	86 0d       	add	r24, r6
    3f68:	97 1d       	adc	r25, r7
    3f6a:	95 83       	std	Z+5, r25	; 0x05
    3f6c:	84 83       	std	Z+4, r24	; 0x04
    3f6e:	20 81       	ld	r18, Z
    3f70:	31 81       	ldd	r19, Z+1	; 0x01
    3f72:	f9 01       	movw	r30, r18
    3f74:	e8 0f       	add	r30, r24
    3f76:	f9 1f       	adc	r31, r25
    3f78:	10 82       	st	Z, r1
    3f7a:	f8 01       	movw	r30, r16
    3f7c:	80 81       	ld	r24, Z
    3f7e:	91 81       	ldd	r25, Z+1	; 0x01
    3f80:	f7 01       	movw	r30, r14
    3f82:	60 81       	ld	r22, Z
    3f84:	71 81       	ldd	r23, Z+1	; 0x01
    3f86:	44 81       	ldd	r20, Z+4	; 0x04
    3f88:	55 81       	ldd	r21, Z+5	; 0x05
    3f8a:	8c 0f       	add	r24, r28
    3f8c:	9d 1f       	adc	r25, r29
    3f8e:	0e 94 b1 27 	call	0x4f62	; 0x4f62 <memcpy>
    3f92:	ae 01       	movw	r20, r28
    3f94:	c7 cf       	rjmp	.-114    	; 0x3f24 <_ZN6String7replaceERKS_S1_+0x15c>
    3f96:	df 91       	pop	r29
    3f98:	cf 91       	pop	r28
    3f9a:	1f 91       	pop	r17
    3f9c:	0f 91       	pop	r16
    3f9e:	ff 90       	pop	r15
    3fa0:	ef 90       	pop	r14
    3fa2:	df 90       	pop	r13
    3fa4:	cf 90       	pop	r12
    3fa6:	bf 90       	pop	r11
    3fa8:	af 90       	pop	r10
    3faa:	9f 90       	pop	r9
    3fac:	8f 90       	pop	r8
    3fae:	7f 90       	pop	r7
    3fb0:	6f 90       	pop	r6
    3fb2:	5f 90       	pop	r5
    3fb4:	4f 90       	pop	r4
    3fb6:	3f 90       	pop	r3
    3fb8:	2f 90       	pop	r2
    3fba:	08 95       	ret

00003fbc <_ZN6String6removeEjj>:
    3fbc:	cf 93       	push	r28
    3fbe:	df 93       	push	r29
    3fc0:	dc 01       	movw	r26, r24
    3fc2:	14 96       	adiw	r26, 0x04	; 4
    3fc4:	ed 91       	ld	r30, X+
    3fc6:	fc 91       	ld	r31, X
    3fc8:	15 97       	sbiw	r26, 0x05	; 5
    3fca:	6e 17       	cp	r22, r30
    3fcc:	7f 07       	cpc	r23, r31
    3fce:	30 f5       	brcc	.+76     	; 0x401c <_ZN6String6removeEjj+0x60>
    3fd0:	41 15       	cp	r20, r1
    3fd2:	51 05       	cpc	r21, r1
    3fd4:	19 f1       	breq	.+70     	; 0x401c <_ZN6String6removeEjj+0x60>
    3fd6:	df 01       	movw	r26, r30
    3fd8:	a6 1b       	sub	r26, r22
    3fda:	b7 0b       	sbc	r27, r23
    3fdc:	9a 01       	movw	r18, r20
    3fde:	a4 17       	cp	r26, r20
    3fe0:	b5 07       	cpc	r27, r21
    3fe2:	08 f4       	brcc	.+2      	; 0x3fe6 <_ZN6String6removeEjj+0x2a>
    3fe4:	9d 01       	movw	r18, r26
    3fe6:	db 01       	movw	r26, r22
    3fe8:	ec 01       	movw	r28, r24
    3fea:	88 81       	ld	r24, Y
    3fec:	99 81       	ldd	r25, Y+1	; 0x01
    3fee:	e2 1b       	sub	r30, r18
    3ff0:	f3 0b       	sbc	r31, r19
    3ff2:	fd 83       	std	Y+5, r31	; 0x05
    3ff4:	ec 83       	std	Y+4, r30	; 0x04
    3ff6:	af 01       	movw	r20, r30
    3ff8:	46 1b       	sub	r20, r22
    3ffa:	57 0b       	sbc	r21, r23
    3ffc:	26 0f       	add	r18, r22
    3ffe:	37 1f       	adc	r19, r23
    4000:	bc 01       	movw	r22, r24
    4002:	62 0f       	add	r22, r18
    4004:	73 1f       	adc	r23, r19
    4006:	8a 0f       	add	r24, r26
    4008:	9b 1f       	adc	r25, r27
    400a:	0e 94 f5 27 	call	0x4fea	; 0x4fea <strncpy>
    400e:	e8 81       	ld	r30, Y
    4010:	f9 81       	ldd	r31, Y+1	; 0x01
    4012:	8c 81       	ldd	r24, Y+4	; 0x04
    4014:	9d 81       	ldd	r25, Y+5	; 0x05
    4016:	e8 0f       	add	r30, r24
    4018:	f9 1f       	adc	r31, r25
    401a:	10 82       	st	Z, r1
    401c:	df 91       	pop	r29
    401e:	cf 91       	pop	r28
    4020:	08 95       	ret

00004022 <_ZN6String6removeEj>:
    4022:	4f ef       	ldi	r20, 0xFF	; 255
    4024:	5f ef       	ldi	r21, 0xFF	; 255
    4026:	0c 94 de 1f 	jmp	0x3fbc	; 0x3fbc <_ZN6String6removeEjj>

0000402a <_ZN6String11toLowerCaseEv>:
    402a:	cf 93       	push	r28
    402c:	df 93       	push	r29
    402e:	fc 01       	movw	r30, r24
    4030:	c0 81       	ld	r28, Z
    4032:	d1 81       	ldd	r29, Z+1	; 0x01
    4034:	20 97       	sbiw	r28, 0x00	; 0
    4036:	51 f0       	breq	.+20     	; 0x404c <_ZN6String11toLowerCaseEv+0x22>
    4038:	88 81       	ld	r24, Y
    403a:	88 23       	and	r24, r24
    403c:	39 f0       	breq	.+14     	; 0x404c <_ZN6String11toLowerCaseEv+0x22>
    403e:	08 2e       	mov	r0, r24
    4040:	00 0c       	add	r0, r0
    4042:	99 0b       	sbc	r25, r25
    4044:	0e 94 84 27 	call	0x4f08	; 0x4f08 <tolower>
    4048:	89 93       	st	Y+, r24
    404a:	f6 cf       	rjmp	.-20     	; 0x4038 <_ZN6String11toLowerCaseEv+0xe>
    404c:	df 91       	pop	r29
    404e:	cf 91       	pop	r28
    4050:	08 95       	ret

00004052 <_ZN6String11toUpperCaseEv>:
    4052:	cf 93       	push	r28
    4054:	df 93       	push	r29
    4056:	fc 01       	movw	r30, r24
    4058:	c0 81       	ld	r28, Z
    405a:	d1 81       	ldd	r29, Z+1	; 0x01
    405c:	20 97       	sbiw	r28, 0x00	; 0
    405e:	51 f0       	breq	.+20     	; 0x4074 <_ZN6String11toUpperCaseEv+0x22>
    4060:	88 81       	ld	r24, Y
    4062:	88 23       	and	r24, r24
    4064:	39 f0       	breq	.+14     	; 0x4074 <_ZN6String11toUpperCaseEv+0x22>
    4066:	08 2e       	mov	r0, r24
    4068:	00 0c       	add	r0, r0
    406a:	99 0b       	sbc	r25, r25
    406c:	0e 94 8c 27 	call	0x4f18	; 0x4f18 <toupper>
    4070:	89 93       	st	Y+, r24
    4072:	f6 cf       	rjmp	.-20     	; 0x4060 <_ZN6String11toUpperCaseEv+0xe>
    4074:	df 91       	pop	r29
    4076:	cf 91       	pop	r28
    4078:	08 95       	ret

0000407a <_ZN6String4trimEv>:
    407a:	af 92       	push	r10
    407c:	bf 92       	push	r11
    407e:	cf 92       	push	r12
    4080:	df 92       	push	r13
    4082:	ef 92       	push	r14
    4084:	ff 92       	push	r15
    4086:	0f 93       	push	r16
    4088:	1f 93       	push	r17
    408a:	cf 93       	push	r28
    408c:	df 93       	push	r29
    408e:	dc 01       	movw	r26, r24
    4090:	cd 90       	ld	r12, X+
    4092:	dc 90       	ld	r13, X
    4094:	11 97       	sbiw	r26, 0x01	; 1
    4096:	c1 14       	cp	r12, r1
    4098:	d1 04       	cpc	r13, r1
    409a:	09 f4       	brne	.+2      	; 0x409e <_ZN6String4trimEv+0x24>
    409c:	43 c0       	rjmp	.+134    	; 0x4124 <_ZN6String4trimEv+0xaa>
    409e:	14 96       	adiw	r26, 0x04	; 4
    40a0:	cd 91       	ld	r28, X+
    40a2:	dc 91       	ld	r29, X
    40a4:	15 97       	sbiw	r26, 0x05	; 5
    40a6:	20 97       	sbiw	r28, 0x00	; 0
    40a8:	e9 f1       	breq	.+122    	; 0x4124 <_ZN6String4trimEv+0xaa>
    40aa:	8c 01       	movw	r16, r24
    40ac:	76 01       	movw	r14, r12
    40ae:	57 01       	movw	r10, r14
    40b0:	bf ef       	ldi	r27, 0xFF	; 255
    40b2:	ab 1a       	sub	r10, r27
    40b4:	bb 0a       	sbc	r11, r27
    40b6:	f7 01       	movw	r30, r14
    40b8:	80 81       	ld	r24, Z
    40ba:	08 2e       	mov	r0, r24
    40bc:	00 0c       	add	r0, r0
    40be:	99 0b       	sbc	r25, r25
    40c0:	0e 94 7b 27 	call	0x4ef6	; 0x4ef6 <isspace>
    40c4:	89 2b       	or	r24, r25
    40c6:	11 f0       	breq	.+4      	; 0x40cc <_ZN6String4trimEv+0x52>
    40c8:	75 01       	movw	r14, r10
    40ca:	f1 cf       	rjmp	.-30     	; 0x40ae <_ZN6String4trimEv+0x34>
    40cc:	21 97       	sbiw	r28, 0x01	; 1
    40ce:	cc 0d       	add	r28, r12
    40d0:	dd 1d       	adc	r29, r13
    40d2:	88 81       	ld	r24, Y
    40d4:	08 2e       	mov	r0, r24
    40d6:	00 0c       	add	r0, r0
    40d8:	99 0b       	sbc	r25, r25
    40da:	0e 94 7b 27 	call	0x4ef6	; 0x4ef6 <isspace>
    40de:	89 2b       	or	r24, r25
    40e0:	29 f0       	breq	.+10     	; 0x40ec <_ZN6String4trimEv+0x72>
    40e2:	ce 15       	cp	r28, r14
    40e4:	df 05       	cpc	r29, r15
    40e6:	10 f0       	brcs	.+4      	; 0x40ec <_ZN6String4trimEv+0x72>
    40e8:	21 97       	sbiw	r28, 0x01	; 1
    40ea:	f3 cf       	rjmp	.-26     	; 0x40d2 <_ZN6String4trimEv+0x58>
    40ec:	ae 01       	movw	r20, r28
    40ee:	4f 5f       	subi	r20, 0xFF	; 255
    40f0:	5f 4f       	sbci	r21, 0xFF	; 255
    40f2:	4e 19       	sub	r20, r14
    40f4:	5f 09       	sbc	r21, r15
    40f6:	d8 01       	movw	r26, r16
    40f8:	15 96       	adiw	r26, 0x05	; 5
    40fa:	5c 93       	st	X, r21
    40fc:	4e 93       	st	-X, r20
    40fe:	14 97       	sbiw	r26, 0x04	; 4
    4100:	ce 14       	cp	r12, r14
    4102:	df 04       	cpc	r13, r15
    4104:	20 f4       	brcc	.+8      	; 0x410e <_ZN6String4trimEv+0x94>
    4106:	b7 01       	movw	r22, r14
    4108:	c6 01       	movw	r24, r12
    410a:	0e 94 b1 27 	call	0x4f62	; 0x4f62 <memcpy>
    410e:	d8 01       	movw	r26, r16
    4110:	ed 91       	ld	r30, X+
    4112:	fc 91       	ld	r31, X
    4114:	11 97       	sbiw	r26, 0x01	; 1
    4116:	14 96       	adiw	r26, 0x04	; 4
    4118:	8d 91       	ld	r24, X+
    411a:	9c 91       	ld	r25, X
    411c:	15 97       	sbiw	r26, 0x05	; 5
    411e:	e8 0f       	add	r30, r24
    4120:	f9 1f       	adc	r31, r25
    4122:	10 82       	st	Z, r1
    4124:	df 91       	pop	r29
    4126:	cf 91       	pop	r28
    4128:	1f 91       	pop	r17
    412a:	0f 91       	pop	r16
    412c:	ff 90       	pop	r15
    412e:	ef 90       	pop	r14
    4130:	df 90       	pop	r13
    4132:	cf 90       	pop	r12
    4134:	bf 90       	pop	r11
    4136:	af 90       	pop	r10
    4138:	08 95       	ret

0000413a <_ZNK6String5toIntEv>:
    413a:	fc 01       	movw	r30, r24
    413c:	80 81       	ld	r24, Z
    413e:	91 81       	ldd	r25, Z+1	; 0x01
    4140:	00 97       	sbiw	r24, 0x00	; 0
    4142:	11 f0       	breq	.+4      	; 0x4148 <_ZNK6String5toIntEv+0xe>
    4144:	0c 94 54 27 	jmp	0x4ea8	; 0x4ea8 <atol>
    4148:	60 e0       	ldi	r22, 0x00	; 0
    414a:	70 e0       	ldi	r23, 0x00	; 0
    414c:	cb 01       	movw	r24, r22
    414e:	08 95       	ret

00004150 <_ZNK6String8toDoubleEv>:
    4150:	fc 01       	movw	r30, r24
    4152:	80 81       	ld	r24, Z
    4154:	91 81       	ldd	r25, Z+1	; 0x01
    4156:	00 97       	sbiw	r24, 0x00	; 0
    4158:	11 f0       	breq	.+4      	; 0x415e <_ZNK6String8toDoubleEv+0xe>
    415a:	0c 94 50 27 	jmp	0x4ea0	; 0x4ea0 <atof>
    415e:	60 e0       	ldi	r22, 0x00	; 0
    4160:	70 e0       	ldi	r23, 0x00	; 0
    4162:	cb 01       	movw	r24, r22
    4164:	08 95       	ret

00004166 <_ZNK6String7toFloatEv>:
    4166:	0c 94 a8 20 	jmp	0x4150	; 0x4150 <_ZNK6String8toDoubleEv>

0000416a <_Z12HWReadInputsPh>:
    416a:	fc 01       	movw	r30, r24
    416c:	90 81       	ld	r25, Z
    416e:	90 95       	com	r25
    4170:	90 83       	st	Z, r25
    4172:	08 95       	ret

00004174 <_Z14HWWriteOutputsPh>:
    4174:	4a e0       	ldi	r20, 0x0A	; 10
    4176:	50 e0       	ldi	r21, 0x00	; 0
    4178:	fc 01       	movw	r30, r24
    417a:	60 81       	ld	r22, Z
    417c:	84 e5       	ldi	r24, 0x54	; 84
    417e:	92 e0       	ldi	r25, 0x02	; 2
    4180:	0c 94 62 07 	jmp	0xec4	; 0xec4 <_ZN5Print7printlnEhi>

00004184 <_Z12MainFunctionv>:
    4184:	82 e1       	ldi	r24, 0x12	; 18
    4186:	92 e0       	ldi	r25, 0x02	; 2
    4188:	0e 94 b5 20 	call	0x416a	; 0x416a <_Z12HWReadInputsPh>
    418c:	82 e1       	ldi	r24, 0x12	; 18
    418e:	92 e0       	ldi	r25, 0x02	; 2
    4190:	0c 94 ba 20 	jmp	0x4174	; 0x4174 <_Z14HWWriteOutputsPh>

00004194 <setup>:
    4194:	26 e0       	ldi	r18, 0x06	; 6
    4196:	40 e8       	ldi	r20, 0x80	; 128
    4198:	55 e2       	ldi	r21, 0x25	; 37
    419a:	60 e0       	ldi	r22, 0x00	; 0
    419c:	70 e0       	ldi	r23, 0x00	; 0
    419e:	84 e5       	ldi	r24, 0x54	; 84
    41a0:	92 e0       	ldi	r25, 0x02	; 2
    41a2:	0c 94 3c 03 	jmp	0x678	; 0x678 <_ZN14HardwareSerial5beginEmh>

000041a6 <loop>:
    41a6:	0e 94 c2 20 	call	0x4184	; 0x4184 <_Z12MainFunctionv>
    41aa:	64 ef       	ldi	r22, 0xF4	; 244
    41ac:	71 e0       	ldi	r23, 0x01	; 1
    41ae:	80 e0       	ldi	r24, 0x00	; 0
    41b0:	90 e0       	ldi	r25, 0x00	; 0
    41b2:	0c 94 fc 12 	jmp	0x25f8	; 0x25f8 <delay>

000041b6 <SWReadInputs>:
    41b6:	fc 01       	movw	r30, r24
    41b8:	90 81       	ld	r25, Z
    41ba:	90 95       	com	r25
    41bc:	90 83       	st	Z, r25
    41be:	08 95       	ret

000041c0 <SWWriteOutputs>:
    41c0:	fc 01       	movw	r30, r24
    41c2:	80 81       	ld	r24, Z
    41c4:	1f 92       	push	r1
    41c6:	8f 93       	push	r24
    41c8:	80 e5       	ldi	r24, 0x50	; 80
    41ca:	92 e0       	ldi	r25, 0x02	; 2
    41cc:	9f 93       	push	r25
    41ce:	8f 93       	push	r24
    41d0:	0e 94 c0 28 	call	0x5180	; 0x5180 <printf>
    41d4:	0f 90       	pop	r0
    41d6:	0f 90       	pop	r0
    41d8:	0f 90       	pop	r0
    41da:	0f 90       	pop	r0
    41dc:	08 95       	ret

000041de <_ZN5Print17availableForWriteEv>:
    41de:	80 e0       	ldi	r24, 0x00	; 0
    41e0:	90 e0       	ldi	r25, 0x00	; 0
    41e2:	08 95       	ret

000041e4 <_ZN5Print5flushEv>:
    41e4:	08 95       	ret

000041e6 <_GLOBAL__sub_I___vector_25>:
    41e6:	e4 e5       	ldi	r30, 0x54	; 84
    41e8:	f2 e0       	ldi	r31, 0x02	; 2
    41ea:	13 82       	std	Z+3, r1	; 0x03
    41ec:	12 82       	std	Z+2, r1	; 0x02
    41ee:	88 ee       	ldi	r24, 0xE8	; 232
    41f0:	93 e0       	ldi	r25, 0x03	; 3
    41f2:	a0 e0       	ldi	r26, 0x00	; 0
    41f4:	b0 e0       	ldi	r27, 0x00	; 0
    41f6:	84 83       	std	Z+4, r24	; 0x04
    41f8:	95 83       	std	Z+5, r25	; 0x05
    41fa:	a6 83       	std	Z+6, r26	; 0x06
    41fc:	b7 83       	std	Z+7, r27	; 0x07
    41fe:	81 e2       	ldi	r24, 0x21	; 33
    4200:	92 e0       	ldi	r25, 0x02	; 2
    4202:	91 83       	std	Z+1, r25	; 0x01
    4204:	80 83       	st	Z, r24
    4206:	85 ec       	ldi	r24, 0xC5	; 197
    4208:	90 e0       	ldi	r25, 0x00	; 0
    420a:	95 87       	std	Z+13, r25	; 0x0d
    420c:	84 87       	std	Z+12, r24	; 0x0c
    420e:	84 ec       	ldi	r24, 0xC4	; 196
    4210:	90 e0       	ldi	r25, 0x00	; 0
    4212:	97 87       	std	Z+15, r25	; 0x0f
    4214:	86 87       	std	Z+14, r24	; 0x0e
    4216:	80 ec       	ldi	r24, 0xC0	; 192
    4218:	90 e0       	ldi	r25, 0x00	; 0
    421a:	91 8b       	std	Z+17, r25	; 0x11
    421c:	80 8b       	std	Z+16, r24	; 0x10
    421e:	81 ec       	ldi	r24, 0xC1	; 193
    4220:	90 e0       	ldi	r25, 0x00	; 0
    4222:	93 8b       	std	Z+19, r25	; 0x13
    4224:	82 8b       	std	Z+18, r24	; 0x12
    4226:	82 ec       	ldi	r24, 0xC2	; 194
    4228:	90 e0       	ldi	r25, 0x00	; 0
    422a:	95 8b       	std	Z+21, r25	; 0x15
    422c:	84 8b       	std	Z+20, r24	; 0x14
    422e:	86 ec       	ldi	r24, 0xC6	; 198
    4230:	90 e0       	ldi	r25, 0x00	; 0
    4232:	97 8b       	std	Z+23, r25	; 0x17
    4234:	86 8b       	std	Z+22, r24	; 0x16
    4236:	11 8e       	std	Z+25, r1	; 0x19
    4238:	12 8e       	std	Z+26, r1	; 0x1a
    423a:	13 8e       	std	Z+27, r1	; 0x1b
    423c:	14 8e       	std	Z+28, r1	; 0x1c
    423e:	08 95       	ret

00004240 <_GLOBAL__sub_I___vector_36>:
    4240:	e1 ef       	ldi	r30, 0xF1	; 241
    4242:	f2 e0       	ldi	r31, 0x02	; 2
    4244:	13 82       	std	Z+3, r1	; 0x03
    4246:	12 82       	std	Z+2, r1	; 0x02
    4248:	88 ee       	ldi	r24, 0xE8	; 232
    424a:	93 e0       	ldi	r25, 0x03	; 3
    424c:	a0 e0       	ldi	r26, 0x00	; 0
    424e:	b0 e0       	ldi	r27, 0x00	; 0
    4250:	84 83       	std	Z+4, r24	; 0x04
    4252:	95 83       	std	Z+5, r25	; 0x05
    4254:	a6 83       	std	Z+6, r26	; 0x06
    4256:	b7 83       	std	Z+7, r27	; 0x07
    4258:	81 e2       	ldi	r24, 0x21	; 33
    425a:	92 e0       	ldi	r25, 0x02	; 2
    425c:	91 83       	std	Z+1, r25	; 0x01
    425e:	80 83       	st	Z, r24
    4260:	8d ec       	ldi	r24, 0xCD	; 205
    4262:	90 e0       	ldi	r25, 0x00	; 0
    4264:	95 87       	std	Z+13, r25	; 0x0d
    4266:	84 87       	std	Z+12, r24	; 0x0c
    4268:	8c ec       	ldi	r24, 0xCC	; 204
    426a:	90 e0       	ldi	r25, 0x00	; 0
    426c:	97 87       	std	Z+15, r25	; 0x0f
    426e:	86 87       	std	Z+14, r24	; 0x0e
    4270:	88 ec       	ldi	r24, 0xC8	; 200
    4272:	90 e0       	ldi	r25, 0x00	; 0
    4274:	91 8b       	std	Z+17, r25	; 0x11
    4276:	80 8b       	std	Z+16, r24	; 0x10
    4278:	89 ec       	ldi	r24, 0xC9	; 201
    427a:	90 e0       	ldi	r25, 0x00	; 0
    427c:	93 8b       	std	Z+19, r25	; 0x13
    427e:	82 8b       	std	Z+18, r24	; 0x12
    4280:	8a ec       	ldi	r24, 0xCA	; 202
    4282:	90 e0       	ldi	r25, 0x00	; 0
    4284:	95 8b       	std	Z+21, r25	; 0x15
    4286:	84 8b       	std	Z+20, r24	; 0x14
    4288:	8e ec       	ldi	r24, 0xCE	; 206
    428a:	90 e0       	ldi	r25, 0x00	; 0
    428c:	97 8b       	std	Z+23, r25	; 0x17
    428e:	86 8b       	std	Z+22, r24	; 0x16
    4290:	11 8e       	std	Z+25, r1	; 0x19
    4292:	12 8e       	std	Z+26, r1	; 0x1a
    4294:	13 8e       	std	Z+27, r1	; 0x1b
    4296:	14 8e       	std	Z+28, r1	; 0x1c
    4298:	08 95       	ret

0000429a <_GLOBAL__sub_I___vector_51>:
    429a:	ee e8       	ldi	r30, 0x8E	; 142
    429c:	f3 e0       	ldi	r31, 0x03	; 3
    429e:	13 82       	std	Z+3, r1	; 0x03
    42a0:	12 82       	std	Z+2, r1	; 0x02
    42a2:	88 ee       	ldi	r24, 0xE8	; 232
    42a4:	93 e0       	ldi	r25, 0x03	; 3
    42a6:	a0 e0       	ldi	r26, 0x00	; 0
    42a8:	b0 e0       	ldi	r27, 0x00	; 0
    42aa:	84 83       	std	Z+4, r24	; 0x04
    42ac:	95 83       	std	Z+5, r25	; 0x05
    42ae:	a6 83       	std	Z+6, r26	; 0x06
    42b0:	b7 83       	std	Z+7, r27	; 0x07
    42b2:	81 e2       	ldi	r24, 0x21	; 33
    42b4:	92 e0       	ldi	r25, 0x02	; 2
    42b6:	91 83       	std	Z+1, r25	; 0x01
    42b8:	80 83       	st	Z, r24
    42ba:	85 ed       	ldi	r24, 0xD5	; 213
    42bc:	90 e0       	ldi	r25, 0x00	; 0
    42be:	95 87       	std	Z+13, r25	; 0x0d
    42c0:	84 87       	std	Z+12, r24	; 0x0c
    42c2:	84 ed       	ldi	r24, 0xD4	; 212
    42c4:	90 e0       	ldi	r25, 0x00	; 0
    42c6:	97 87       	std	Z+15, r25	; 0x0f
    42c8:	86 87       	std	Z+14, r24	; 0x0e
    42ca:	80 ed       	ldi	r24, 0xD0	; 208
    42cc:	90 e0       	ldi	r25, 0x00	; 0
    42ce:	91 8b       	std	Z+17, r25	; 0x11
    42d0:	80 8b       	std	Z+16, r24	; 0x10
    42d2:	81 ed       	ldi	r24, 0xD1	; 209
    42d4:	90 e0       	ldi	r25, 0x00	; 0
    42d6:	93 8b       	std	Z+19, r25	; 0x13
    42d8:	82 8b       	std	Z+18, r24	; 0x12
    42da:	82 ed       	ldi	r24, 0xD2	; 210
    42dc:	90 e0       	ldi	r25, 0x00	; 0
    42de:	95 8b       	std	Z+21, r25	; 0x15
    42e0:	84 8b       	std	Z+20, r24	; 0x14
    42e2:	86 ed       	ldi	r24, 0xD6	; 214
    42e4:	90 e0       	ldi	r25, 0x00	; 0
    42e6:	97 8b       	std	Z+23, r25	; 0x17
    42e8:	86 8b       	std	Z+22, r24	; 0x16
    42ea:	11 8e       	std	Z+25, r1	; 0x19
    42ec:	12 8e       	std	Z+26, r1	; 0x1a
    42ee:	13 8e       	std	Z+27, r1	; 0x1b
    42f0:	14 8e       	std	Z+28, r1	; 0x1c
    42f2:	08 95       	ret

000042f4 <_GLOBAL__sub_I___vector_54>:
    42f4:	eb e2       	ldi	r30, 0x2B	; 43
    42f6:	f4 e0       	ldi	r31, 0x04	; 4
    42f8:	13 82       	std	Z+3, r1	; 0x03
    42fa:	12 82       	std	Z+2, r1	; 0x02
    42fc:	88 ee       	ldi	r24, 0xE8	; 232
    42fe:	93 e0       	ldi	r25, 0x03	; 3
    4300:	a0 e0       	ldi	r26, 0x00	; 0
    4302:	b0 e0       	ldi	r27, 0x00	; 0
    4304:	84 83       	std	Z+4, r24	; 0x04
    4306:	95 83       	std	Z+5, r25	; 0x05
    4308:	a6 83       	std	Z+6, r26	; 0x06
    430a:	b7 83       	std	Z+7, r27	; 0x07
    430c:	81 e2       	ldi	r24, 0x21	; 33
    430e:	92 e0       	ldi	r25, 0x02	; 2
    4310:	91 83       	std	Z+1, r25	; 0x01
    4312:	80 83       	st	Z, r24
    4314:	85 e3       	ldi	r24, 0x35	; 53
    4316:	91 e0       	ldi	r25, 0x01	; 1
    4318:	95 87       	std	Z+13, r25	; 0x0d
    431a:	84 87       	std	Z+12, r24	; 0x0c
    431c:	84 e3       	ldi	r24, 0x34	; 52
    431e:	91 e0       	ldi	r25, 0x01	; 1
    4320:	97 87       	std	Z+15, r25	; 0x0f
    4322:	86 87       	std	Z+14, r24	; 0x0e
    4324:	80 e3       	ldi	r24, 0x30	; 48
    4326:	91 e0       	ldi	r25, 0x01	; 1
    4328:	91 8b       	std	Z+17, r25	; 0x11
    432a:	80 8b       	std	Z+16, r24	; 0x10
    432c:	81 e3       	ldi	r24, 0x31	; 49
    432e:	91 e0       	ldi	r25, 0x01	; 1
    4330:	93 8b       	std	Z+19, r25	; 0x13
    4332:	82 8b       	std	Z+18, r24	; 0x12
    4334:	82 e3       	ldi	r24, 0x32	; 50
    4336:	91 e0       	ldi	r25, 0x01	; 1
    4338:	95 8b       	std	Z+21, r25	; 0x15
    433a:	84 8b       	std	Z+20, r24	; 0x14
    433c:	86 e3       	ldi	r24, 0x36	; 54
    433e:	91 e0       	ldi	r25, 0x01	; 1
    4340:	97 8b       	std	Z+23, r25	; 0x17
    4342:	86 8b       	std	Z+22, r24	; 0x16
    4344:	11 8e       	std	Z+25, r1	; 0x19
    4346:	12 8e       	std	Z+26, r1	; 0x1a
    4348:	13 8e       	std	Z+27, r1	; 0x1b
    434a:	14 8e       	std	Z+28, r1	; 0x1c
    434c:	08 95       	ret

0000434e <_GLOBAL__sub_I__ZN9IPAddressC2Ev>:
    434e:	08 95       	ret

00004350 <main>:
    4350:	0e 94 43 13 	call	0x2686	; 0x2686 <init>
    4354:	0e 94 2e 06 	call	0xc5c	; 0xc5c <initVariant>
    4358:	0e 94 ca 20 	call	0x4194	; 0x4194 <setup>
    435c:	ce e6       	ldi	r28, 0x6E	; 110
    435e:	d2 e0       	ldi	r29, 0x02	; 2
    4360:	0e 94 d3 20 	call	0x41a6	; 0x41a6 <loop>
    4364:	20 97       	sbiw	r28, 0x00	; 0
    4366:	e1 f3       	breq	.-8      	; 0x4360 <main+0x10>
    4368:	0e 94 6e 02 	call	0x4dc	; 0x4dc <_Z14serialEventRunv>
    436c:	f9 cf       	rjmp	.-14     	; 0x4360 <main+0x10>

0000436e <_ZN5Print5writeEPKc>:
    436e:	61 15       	cp	r22, r1
    4370:	71 05       	cpc	r23, r1
    4372:	79 f0       	breq	.+30     	; 0x4392 <_ZN5Print5writeEPKc+0x24>
    4374:	fb 01       	movw	r30, r22
    4376:	01 90       	ld	r0, Z+
    4378:	00 20       	and	r0, r0
    437a:	e9 f7       	brne	.-6      	; 0x4376 <_ZN5Print5writeEPKc+0x8>
    437c:	31 97       	sbiw	r30, 0x01	; 1
    437e:	af 01       	movw	r20, r30
    4380:	46 1b       	sub	r20, r22
    4382:	57 0b       	sbc	r21, r23
    4384:	dc 01       	movw	r26, r24
    4386:	ed 91       	ld	r30, X+
    4388:	fc 91       	ld	r31, X
    438a:	02 80       	ldd	r0, Z+2	; 0x02
    438c:	f3 81       	ldd	r31, Z+3	; 0x03
    438e:	e0 2d       	mov	r30, r0
    4390:	19 94       	eijmp
    4392:	80 e0       	ldi	r24, 0x00	; 0
    4394:	90 e0       	ldi	r25, 0x00	; 0
    4396:	08 95       	ret
    4398:	0c 94 29 28 	jmp	0x5052	; 0x5052 <itoa>
    439c:	0c 94 3f 28 	jmp	0x507e	; 0x507e <ltoa>
    43a0:	0c 94 9b 28 	jmp	0x5136	; 0x5136 <utoa>
    43a4:	0c 94 6e 28 	jmp	0x50dc	; 0x50dc <ultoa>

000043a8 <__mulsi3>:
    43a8:	db 01       	movw	r26, r22
    43aa:	8f 93       	push	r24
    43ac:	9f 93       	push	r25
    43ae:	0e 94 2d 22 	call	0x445a	; 0x445a <__muluhisi3>
    43b2:	bf 91       	pop	r27
    43b4:	af 91       	pop	r26
    43b6:	a2 9f       	mul	r26, r18
    43b8:	80 0d       	add	r24, r0
    43ba:	91 1d       	adc	r25, r1
    43bc:	a3 9f       	mul	r26, r19
    43be:	90 0d       	add	r25, r0
    43c0:	b2 9f       	mul	r27, r18
    43c2:	90 0d       	add	r25, r0
    43c4:	11 24       	eor	r1, r1
    43c6:	08 95       	ret

000043c8 <__udivmodsi4>:
    43c8:	a1 e2       	ldi	r26, 0x21	; 33
    43ca:	1a 2e       	mov	r1, r26
    43cc:	aa 1b       	sub	r26, r26
    43ce:	bb 1b       	sub	r27, r27
    43d0:	fd 01       	movw	r30, r26
    43d2:	0d c0       	rjmp	.+26     	; 0x43ee <__udivmodsi4_ep>

000043d4 <__udivmodsi4_loop>:
    43d4:	aa 1f       	adc	r26, r26
    43d6:	bb 1f       	adc	r27, r27
    43d8:	ee 1f       	adc	r30, r30
    43da:	ff 1f       	adc	r31, r31
    43dc:	a2 17       	cp	r26, r18
    43de:	b3 07       	cpc	r27, r19
    43e0:	e4 07       	cpc	r30, r20
    43e2:	f5 07       	cpc	r31, r21
    43e4:	20 f0       	brcs	.+8      	; 0x43ee <__udivmodsi4_ep>
    43e6:	a2 1b       	sub	r26, r18
    43e8:	b3 0b       	sbc	r27, r19
    43ea:	e4 0b       	sbc	r30, r20
    43ec:	f5 0b       	sbc	r31, r21

000043ee <__udivmodsi4_ep>:
    43ee:	66 1f       	adc	r22, r22
    43f0:	77 1f       	adc	r23, r23
    43f2:	88 1f       	adc	r24, r24
    43f4:	99 1f       	adc	r25, r25
    43f6:	1a 94       	dec	r1
    43f8:	69 f7       	brne	.-38     	; 0x43d4 <__udivmodsi4_loop>
    43fa:	60 95       	com	r22
    43fc:	70 95       	com	r23
    43fe:	80 95       	com	r24
    4400:	90 95       	com	r25
    4402:	9b 01       	movw	r18, r22
    4404:	ac 01       	movw	r20, r24
    4406:	bd 01       	movw	r22, r26
    4408:	cf 01       	movw	r24, r30
    440a:	08 95       	ret

0000440c <__divmodsi4>:
    440c:	05 2e       	mov	r0, r21
    440e:	97 fb       	bst	r25, 7
    4410:	1e f4       	brtc	.+6      	; 0x4418 <__divmodsi4+0xc>
    4412:	00 94       	com	r0
    4414:	0e 94 1d 22 	call	0x443a	; 0x443a <__negsi2>
    4418:	57 fd       	sbrc	r21, 7
    441a:	07 d0       	rcall	.+14     	; 0x442a <__divmodsi4_neg2>
    441c:	0e 94 e4 21 	call	0x43c8	; 0x43c8 <__udivmodsi4>
    4420:	07 fc       	sbrc	r0, 7
    4422:	03 d0       	rcall	.+6      	; 0x442a <__divmodsi4_neg2>
    4424:	4e f4       	brtc	.+18     	; 0x4438 <__divmodsi4_exit>
    4426:	0c 94 1d 22 	jmp	0x443a	; 0x443a <__negsi2>

0000442a <__divmodsi4_neg2>:
    442a:	50 95       	com	r21
    442c:	40 95       	com	r20
    442e:	30 95       	com	r19
    4430:	21 95       	neg	r18
    4432:	3f 4f       	sbci	r19, 0xFF	; 255
    4434:	4f 4f       	sbci	r20, 0xFF	; 255
    4436:	5f 4f       	sbci	r21, 0xFF	; 255

00004438 <__divmodsi4_exit>:
    4438:	08 95       	ret

0000443a <__negsi2>:
    443a:	90 95       	com	r25
    443c:	80 95       	com	r24
    443e:	70 95       	com	r23
    4440:	61 95       	neg	r22
    4442:	7f 4f       	sbci	r23, 0xFF	; 255
    4444:	8f 4f       	sbci	r24, 0xFF	; 255
    4446:	9f 4f       	sbci	r25, 0xFF	; 255
    4448:	08 95       	ret

0000444a <__tablejump2__>:
    444a:	ee 0f       	add	r30, r30
    444c:	ff 1f       	adc	r31, r31
    444e:	88 1f       	adc	r24, r24
    4450:	8b bf       	out	0x3b, r24	; 59
    4452:	07 90       	elpm	r0, Z+
    4454:	f6 91       	elpm	r31, Z
    4456:	e0 2d       	mov	r30, r0
    4458:	19 94       	eijmp

0000445a <__muluhisi3>:
    445a:	0e 94 38 22 	call	0x4470	; 0x4470 <__umulhisi3>
    445e:	a5 9f       	mul	r26, r21
    4460:	90 0d       	add	r25, r0
    4462:	b4 9f       	mul	r27, r20
    4464:	90 0d       	add	r25, r0
    4466:	a4 9f       	mul	r26, r20
    4468:	80 0d       	add	r24, r0
    446a:	91 1d       	adc	r25, r1
    446c:	11 24       	eor	r1, r1
    446e:	08 95       	ret

00004470 <__umulhisi3>:
    4470:	a2 9f       	mul	r26, r18
    4472:	b0 01       	movw	r22, r0
    4474:	b3 9f       	mul	r27, r19
    4476:	c0 01       	movw	r24, r0
    4478:	a3 9f       	mul	r26, r19
    447a:	70 0d       	add	r23, r0
    447c:	81 1d       	adc	r24, r1
    447e:	11 24       	eor	r1, r1
    4480:	91 1d       	adc	r25, r1
    4482:	b2 9f       	mul	r27, r18
    4484:	70 0d       	add	r23, r0
    4486:	81 1d       	adc	r24, r1
    4488:	11 24       	eor	r1, r1
    448a:	91 1d       	adc	r25, r1
    448c:	08 95       	ret

0000448e <__subsf3>:
    448e:	50 58       	subi	r21, 0x80	; 128

00004490 <__addsf3>:
    4490:	bb 27       	eor	r27, r27
    4492:	aa 27       	eor	r26, r26
    4494:	0e 94 5f 22 	call	0x44be	; 0x44be <__addsf3x>
    4498:	0c 94 d2 23 	jmp	0x47a4	; 0x47a4 <__fp_round>
    449c:	0e 94 c4 23 	call	0x4788	; 0x4788 <__fp_pscA>
    44a0:	38 f0       	brcs	.+14     	; 0x44b0 <__addsf3+0x20>
    44a2:	0e 94 cb 23 	call	0x4796	; 0x4796 <__fp_pscB>
    44a6:	20 f0       	brcs	.+8      	; 0x44b0 <__addsf3+0x20>
    44a8:	39 f4       	brne	.+14     	; 0x44b8 <__addsf3+0x28>
    44aa:	9f 3f       	cpi	r25, 0xFF	; 255
    44ac:	19 f4       	brne	.+6      	; 0x44b4 <__addsf3+0x24>
    44ae:	26 f4       	brtc	.+8      	; 0x44b8 <__addsf3+0x28>
    44b0:	0c 94 c1 23 	jmp	0x4782	; 0x4782 <__fp_nan>
    44b4:	0e f4       	brtc	.+2      	; 0x44b8 <__addsf3+0x28>
    44b6:	e0 95       	com	r30
    44b8:	e7 fb       	bst	r30, 7
    44ba:	0c 94 bb 23 	jmp	0x4776	; 0x4776 <__fp_inf>

000044be <__addsf3x>:
    44be:	e9 2f       	mov	r30, r25
    44c0:	0e 94 e3 23 	call	0x47c6	; 0x47c6 <__fp_split3>
    44c4:	58 f3       	brcs	.-42     	; 0x449c <__addsf3+0xc>
    44c6:	ba 17       	cp	r27, r26
    44c8:	62 07       	cpc	r22, r18
    44ca:	73 07       	cpc	r23, r19
    44cc:	84 07       	cpc	r24, r20
    44ce:	95 07       	cpc	r25, r21
    44d0:	20 f0       	brcs	.+8      	; 0x44da <__addsf3x+0x1c>
    44d2:	79 f4       	brne	.+30     	; 0x44f2 <__addsf3x+0x34>
    44d4:	a6 f5       	brtc	.+104    	; 0x453e <__addsf3x+0x80>
    44d6:	0c 94 05 24 	jmp	0x480a	; 0x480a <__fp_zero>
    44da:	0e f4       	brtc	.+2      	; 0x44de <__addsf3x+0x20>
    44dc:	e0 95       	com	r30
    44de:	0b 2e       	mov	r0, r27
    44e0:	ba 2f       	mov	r27, r26
    44e2:	a0 2d       	mov	r26, r0
    44e4:	0b 01       	movw	r0, r22
    44e6:	b9 01       	movw	r22, r18
    44e8:	90 01       	movw	r18, r0
    44ea:	0c 01       	movw	r0, r24
    44ec:	ca 01       	movw	r24, r20
    44ee:	a0 01       	movw	r20, r0
    44f0:	11 24       	eor	r1, r1
    44f2:	ff 27       	eor	r31, r31
    44f4:	59 1b       	sub	r21, r25
    44f6:	99 f0       	breq	.+38     	; 0x451e <__addsf3x+0x60>
    44f8:	59 3f       	cpi	r21, 0xF9	; 249
    44fa:	50 f4       	brcc	.+20     	; 0x4510 <__addsf3x+0x52>
    44fc:	50 3e       	cpi	r21, 0xE0	; 224
    44fe:	68 f1       	brcs	.+90     	; 0x455a <__addsf3x+0x9c>
    4500:	1a 16       	cp	r1, r26
    4502:	f0 40       	sbci	r31, 0x00	; 0
    4504:	a2 2f       	mov	r26, r18
    4506:	23 2f       	mov	r18, r19
    4508:	34 2f       	mov	r19, r20
    450a:	44 27       	eor	r20, r20
    450c:	58 5f       	subi	r21, 0xF8	; 248
    450e:	f3 cf       	rjmp	.-26     	; 0x44f6 <__addsf3x+0x38>
    4510:	46 95       	lsr	r20
    4512:	37 95       	ror	r19
    4514:	27 95       	ror	r18
    4516:	a7 95       	ror	r26
    4518:	f0 40       	sbci	r31, 0x00	; 0
    451a:	53 95       	inc	r21
    451c:	c9 f7       	brne	.-14     	; 0x4510 <__addsf3x+0x52>
    451e:	7e f4       	brtc	.+30     	; 0x453e <__addsf3x+0x80>
    4520:	1f 16       	cp	r1, r31
    4522:	ba 0b       	sbc	r27, r26
    4524:	62 0b       	sbc	r22, r18
    4526:	73 0b       	sbc	r23, r19
    4528:	84 0b       	sbc	r24, r20
    452a:	ba f0       	brmi	.+46     	; 0x455a <__addsf3x+0x9c>
    452c:	91 50       	subi	r25, 0x01	; 1
    452e:	a1 f0       	breq	.+40     	; 0x4558 <__addsf3x+0x9a>
    4530:	ff 0f       	add	r31, r31
    4532:	bb 1f       	adc	r27, r27
    4534:	66 1f       	adc	r22, r22
    4536:	77 1f       	adc	r23, r23
    4538:	88 1f       	adc	r24, r24
    453a:	c2 f7       	brpl	.-16     	; 0x452c <__addsf3x+0x6e>
    453c:	0e c0       	rjmp	.+28     	; 0x455a <__addsf3x+0x9c>
    453e:	ba 0f       	add	r27, r26
    4540:	62 1f       	adc	r22, r18
    4542:	73 1f       	adc	r23, r19
    4544:	84 1f       	adc	r24, r20
    4546:	48 f4       	brcc	.+18     	; 0x455a <__addsf3x+0x9c>
    4548:	87 95       	ror	r24
    454a:	77 95       	ror	r23
    454c:	67 95       	ror	r22
    454e:	b7 95       	ror	r27
    4550:	f7 95       	ror	r31
    4552:	9e 3f       	cpi	r25, 0xFE	; 254
    4554:	08 f0       	brcs	.+2      	; 0x4558 <__addsf3x+0x9a>
    4556:	b0 cf       	rjmp	.-160    	; 0x44b8 <__addsf3+0x28>
    4558:	93 95       	inc	r25
    455a:	88 0f       	add	r24, r24
    455c:	08 f0       	brcs	.+2      	; 0x4560 <__addsf3x+0xa2>
    455e:	99 27       	eor	r25, r25
    4560:	ee 0f       	add	r30, r30
    4562:	97 95       	ror	r25
    4564:	87 95       	ror	r24
    4566:	08 95       	ret

00004568 <__cmpsf2>:
    4568:	0e 94 97 23 	call	0x472e	; 0x472e <__fp_cmp>
    456c:	08 f4       	brcc	.+2      	; 0x4570 <__cmpsf2+0x8>
    456e:	81 e0       	ldi	r24, 0x01	; 1
    4570:	08 95       	ret

00004572 <__divsf3>:
    4572:	0e 94 cd 22 	call	0x459a	; 0x459a <__divsf3x>
    4576:	0c 94 d2 23 	jmp	0x47a4	; 0x47a4 <__fp_round>
    457a:	0e 94 cb 23 	call	0x4796	; 0x4796 <__fp_pscB>
    457e:	58 f0       	brcs	.+22     	; 0x4596 <__divsf3+0x24>
    4580:	0e 94 c4 23 	call	0x4788	; 0x4788 <__fp_pscA>
    4584:	40 f0       	brcs	.+16     	; 0x4596 <__divsf3+0x24>
    4586:	29 f4       	brne	.+10     	; 0x4592 <__divsf3+0x20>
    4588:	5f 3f       	cpi	r21, 0xFF	; 255
    458a:	29 f0       	breq	.+10     	; 0x4596 <__divsf3+0x24>
    458c:	0c 94 bb 23 	jmp	0x4776	; 0x4776 <__fp_inf>
    4590:	51 11       	cpse	r21, r1
    4592:	0c 94 06 24 	jmp	0x480c	; 0x480c <__fp_szero>
    4596:	0c 94 c1 23 	jmp	0x4782	; 0x4782 <__fp_nan>

0000459a <__divsf3x>:
    459a:	0e 94 e3 23 	call	0x47c6	; 0x47c6 <__fp_split3>
    459e:	68 f3       	brcs	.-38     	; 0x457a <__divsf3+0x8>

000045a0 <__divsf3_pse>:
    45a0:	99 23       	and	r25, r25
    45a2:	b1 f3       	breq	.-20     	; 0x4590 <__divsf3+0x1e>
    45a4:	55 23       	and	r21, r21
    45a6:	91 f3       	breq	.-28     	; 0x458c <__divsf3+0x1a>
    45a8:	95 1b       	sub	r25, r21
    45aa:	55 0b       	sbc	r21, r21
    45ac:	bb 27       	eor	r27, r27
    45ae:	aa 27       	eor	r26, r26
    45b0:	62 17       	cp	r22, r18
    45b2:	73 07       	cpc	r23, r19
    45b4:	84 07       	cpc	r24, r20
    45b6:	38 f0       	brcs	.+14     	; 0x45c6 <__divsf3_pse+0x26>
    45b8:	9f 5f       	subi	r25, 0xFF	; 255
    45ba:	5f 4f       	sbci	r21, 0xFF	; 255
    45bc:	22 0f       	add	r18, r18
    45be:	33 1f       	adc	r19, r19
    45c0:	44 1f       	adc	r20, r20
    45c2:	aa 1f       	adc	r26, r26
    45c4:	a9 f3       	breq	.-22     	; 0x45b0 <__divsf3_pse+0x10>
    45c6:	35 d0       	rcall	.+106    	; 0x4632 <__divsf3_pse+0x92>
    45c8:	0e 2e       	mov	r0, r30
    45ca:	3a f0       	brmi	.+14     	; 0x45da <__divsf3_pse+0x3a>
    45cc:	e0 e8       	ldi	r30, 0x80	; 128
    45ce:	32 d0       	rcall	.+100    	; 0x4634 <__divsf3_pse+0x94>
    45d0:	91 50       	subi	r25, 0x01	; 1
    45d2:	50 40       	sbci	r21, 0x00	; 0
    45d4:	e6 95       	lsr	r30
    45d6:	00 1c       	adc	r0, r0
    45d8:	ca f7       	brpl	.-14     	; 0x45cc <__divsf3_pse+0x2c>
    45da:	2b d0       	rcall	.+86     	; 0x4632 <__divsf3_pse+0x92>
    45dc:	fe 2f       	mov	r31, r30
    45de:	29 d0       	rcall	.+82     	; 0x4632 <__divsf3_pse+0x92>
    45e0:	66 0f       	add	r22, r22
    45e2:	77 1f       	adc	r23, r23
    45e4:	88 1f       	adc	r24, r24
    45e6:	bb 1f       	adc	r27, r27
    45e8:	26 17       	cp	r18, r22
    45ea:	37 07       	cpc	r19, r23
    45ec:	48 07       	cpc	r20, r24
    45ee:	ab 07       	cpc	r26, r27
    45f0:	b0 e8       	ldi	r27, 0x80	; 128
    45f2:	09 f0       	breq	.+2      	; 0x45f6 <__divsf3_pse+0x56>
    45f4:	bb 0b       	sbc	r27, r27
    45f6:	80 2d       	mov	r24, r0
    45f8:	bf 01       	movw	r22, r30
    45fa:	ff 27       	eor	r31, r31
    45fc:	93 58       	subi	r25, 0x83	; 131
    45fe:	5f 4f       	sbci	r21, 0xFF	; 255
    4600:	3a f0       	brmi	.+14     	; 0x4610 <__divsf3_pse+0x70>
    4602:	9e 3f       	cpi	r25, 0xFE	; 254
    4604:	51 05       	cpc	r21, r1
    4606:	78 f0       	brcs	.+30     	; 0x4626 <__divsf3_pse+0x86>
    4608:	0c 94 bb 23 	jmp	0x4776	; 0x4776 <__fp_inf>
    460c:	0c 94 06 24 	jmp	0x480c	; 0x480c <__fp_szero>
    4610:	5f 3f       	cpi	r21, 0xFF	; 255
    4612:	e4 f3       	brlt	.-8      	; 0x460c <__divsf3_pse+0x6c>
    4614:	98 3e       	cpi	r25, 0xE8	; 232
    4616:	d4 f3       	brlt	.-12     	; 0x460c <__divsf3_pse+0x6c>
    4618:	86 95       	lsr	r24
    461a:	77 95       	ror	r23
    461c:	67 95       	ror	r22
    461e:	b7 95       	ror	r27
    4620:	f7 95       	ror	r31
    4622:	9f 5f       	subi	r25, 0xFF	; 255
    4624:	c9 f7       	brne	.-14     	; 0x4618 <__divsf3_pse+0x78>
    4626:	88 0f       	add	r24, r24
    4628:	91 1d       	adc	r25, r1
    462a:	96 95       	lsr	r25
    462c:	87 95       	ror	r24
    462e:	97 f9       	bld	r25, 7
    4630:	08 95       	ret
    4632:	e1 e0       	ldi	r30, 0x01	; 1
    4634:	66 0f       	add	r22, r22
    4636:	77 1f       	adc	r23, r23
    4638:	88 1f       	adc	r24, r24
    463a:	bb 1f       	adc	r27, r27
    463c:	62 17       	cp	r22, r18
    463e:	73 07       	cpc	r23, r19
    4640:	84 07       	cpc	r24, r20
    4642:	ba 07       	cpc	r27, r26
    4644:	20 f0       	brcs	.+8      	; 0x464e <__divsf3_pse+0xae>
    4646:	62 1b       	sub	r22, r18
    4648:	73 0b       	sbc	r23, r19
    464a:	84 0b       	sbc	r24, r20
    464c:	ba 0b       	sbc	r27, r26
    464e:	ee 1f       	adc	r30, r30
    4650:	88 f7       	brcc	.-30     	; 0x4634 <__divsf3_pse+0x94>
    4652:	e0 95       	com	r30
    4654:	08 95       	ret

00004656 <__fixunssfsi>:
    4656:	0e 94 eb 23 	call	0x47d6	; 0x47d6 <__fp_splitA>
    465a:	88 f0       	brcs	.+34     	; 0x467e <__fixunssfsi+0x28>
    465c:	9f 57       	subi	r25, 0x7F	; 127
    465e:	98 f0       	brcs	.+38     	; 0x4686 <__fixunssfsi+0x30>
    4660:	b9 2f       	mov	r27, r25
    4662:	99 27       	eor	r25, r25
    4664:	b7 51       	subi	r27, 0x17	; 23
    4666:	b0 f0       	brcs	.+44     	; 0x4694 <__fixunssfsi+0x3e>
    4668:	e1 f0       	breq	.+56     	; 0x46a2 <__fixunssfsi+0x4c>
    466a:	66 0f       	add	r22, r22
    466c:	77 1f       	adc	r23, r23
    466e:	88 1f       	adc	r24, r24
    4670:	99 1f       	adc	r25, r25
    4672:	1a f0       	brmi	.+6      	; 0x467a <__fixunssfsi+0x24>
    4674:	ba 95       	dec	r27
    4676:	c9 f7       	brne	.-14     	; 0x466a <__fixunssfsi+0x14>
    4678:	14 c0       	rjmp	.+40     	; 0x46a2 <__fixunssfsi+0x4c>
    467a:	b1 30       	cpi	r27, 0x01	; 1
    467c:	91 f0       	breq	.+36     	; 0x46a2 <__fixunssfsi+0x4c>
    467e:	0e 94 05 24 	call	0x480a	; 0x480a <__fp_zero>
    4682:	b1 e0       	ldi	r27, 0x01	; 1
    4684:	08 95       	ret
    4686:	0c 94 05 24 	jmp	0x480a	; 0x480a <__fp_zero>
    468a:	67 2f       	mov	r22, r23
    468c:	78 2f       	mov	r23, r24
    468e:	88 27       	eor	r24, r24
    4690:	b8 5f       	subi	r27, 0xF8	; 248
    4692:	39 f0       	breq	.+14     	; 0x46a2 <__fixunssfsi+0x4c>
    4694:	b9 3f       	cpi	r27, 0xF9	; 249
    4696:	cc f3       	brlt	.-14     	; 0x468a <__fixunssfsi+0x34>
    4698:	86 95       	lsr	r24
    469a:	77 95       	ror	r23
    469c:	67 95       	ror	r22
    469e:	b3 95       	inc	r27
    46a0:	d9 f7       	brne	.-10     	; 0x4698 <__fixunssfsi+0x42>
    46a2:	3e f4       	brtc	.+14     	; 0x46b2 <__fixunssfsi+0x5c>
    46a4:	90 95       	com	r25
    46a6:	80 95       	com	r24
    46a8:	70 95       	com	r23
    46aa:	61 95       	neg	r22
    46ac:	7f 4f       	sbci	r23, 0xFF	; 255
    46ae:	8f 4f       	sbci	r24, 0xFF	; 255
    46b0:	9f 4f       	sbci	r25, 0xFF	; 255
    46b2:	08 95       	ret

000046b4 <__floatunsisf>:
    46b4:	e8 94       	clt
    46b6:	09 c0       	rjmp	.+18     	; 0x46ca <__floatsisf+0x12>

000046b8 <__floatsisf>:
    46b8:	97 fb       	bst	r25, 7
    46ba:	3e f4       	brtc	.+14     	; 0x46ca <__floatsisf+0x12>
    46bc:	90 95       	com	r25
    46be:	80 95       	com	r24
    46c0:	70 95       	com	r23
    46c2:	61 95       	neg	r22
    46c4:	7f 4f       	sbci	r23, 0xFF	; 255
    46c6:	8f 4f       	sbci	r24, 0xFF	; 255
    46c8:	9f 4f       	sbci	r25, 0xFF	; 255
    46ca:	99 23       	and	r25, r25
    46cc:	a9 f0       	breq	.+42     	; 0x46f8 <__floatsisf+0x40>
    46ce:	f9 2f       	mov	r31, r25
    46d0:	96 e9       	ldi	r25, 0x96	; 150
    46d2:	bb 27       	eor	r27, r27
    46d4:	93 95       	inc	r25
    46d6:	f6 95       	lsr	r31
    46d8:	87 95       	ror	r24
    46da:	77 95       	ror	r23
    46dc:	67 95       	ror	r22
    46de:	b7 95       	ror	r27
    46e0:	f1 11       	cpse	r31, r1
    46e2:	f8 cf       	rjmp	.-16     	; 0x46d4 <__floatsisf+0x1c>
    46e4:	fa f4       	brpl	.+62     	; 0x4724 <__floatsisf+0x6c>
    46e6:	bb 0f       	add	r27, r27
    46e8:	11 f4       	brne	.+4      	; 0x46ee <__floatsisf+0x36>
    46ea:	60 ff       	sbrs	r22, 0
    46ec:	1b c0       	rjmp	.+54     	; 0x4724 <__floatsisf+0x6c>
    46ee:	6f 5f       	subi	r22, 0xFF	; 255
    46f0:	7f 4f       	sbci	r23, 0xFF	; 255
    46f2:	8f 4f       	sbci	r24, 0xFF	; 255
    46f4:	9f 4f       	sbci	r25, 0xFF	; 255
    46f6:	16 c0       	rjmp	.+44     	; 0x4724 <__floatsisf+0x6c>
    46f8:	88 23       	and	r24, r24
    46fa:	11 f0       	breq	.+4      	; 0x4700 <__floatsisf+0x48>
    46fc:	96 e9       	ldi	r25, 0x96	; 150
    46fe:	11 c0       	rjmp	.+34     	; 0x4722 <__floatsisf+0x6a>
    4700:	77 23       	and	r23, r23
    4702:	21 f0       	breq	.+8      	; 0x470c <__floatsisf+0x54>
    4704:	9e e8       	ldi	r25, 0x8E	; 142
    4706:	87 2f       	mov	r24, r23
    4708:	76 2f       	mov	r23, r22
    470a:	05 c0       	rjmp	.+10     	; 0x4716 <__floatsisf+0x5e>
    470c:	66 23       	and	r22, r22
    470e:	71 f0       	breq	.+28     	; 0x472c <__floatsisf+0x74>
    4710:	96 e8       	ldi	r25, 0x86	; 134
    4712:	86 2f       	mov	r24, r22
    4714:	70 e0       	ldi	r23, 0x00	; 0
    4716:	60 e0       	ldi	r22, 0x00	; 0
    4718:	2a f0       	brmi	.+10     	; 0x4724 <__floatsisf+0x6c>
    471a:	9a 95       	dec	r25
    471c:	66 0f       	add	r22, r22
    471e:	77 1f       	adc	r23, r23
    4720:	88 1f       	adc	r24, r24
    4722:	da f7       	brpl	.-10     	; 0x471a <__floatsisf+0x62>
    4724:	88 0f       	add	r24, r24
    4726:	96 95       	lsr	r25
    4728:	87 95       	ror	r24
    472a:	97 f9       	bld	r25, 7
    472c:	08 95       	ret

0000472e <__fp_cmp>:
    472e:	99 0f       	add	r25, r25
    4730:	00 08       	sbc	r0, r0
    4732:	55 0f       	add	r21, r21
    4734:	aa 0b       	sbc	r26, r26
    4736:	e0 e8       	ldi	r30, 0x80	; 128
    4738:	fe ef       	ldi	r31, 0xFE	; 254
    473a:	16 16       	cp	r1, r22
    473c:	17 06       	cpc	r1, r23
    473e:	e8 07       	cpc	r30, r24
    4740:	f9 07       	cpc	r31, r25
    4742:	c0 f0       	brcs	.+48     	; 0x4774 <__fp_cmp+0x46>
    4744:	12 16       	cp	r1, r18
    4746:	13 06       	cpc	r1, r19
    4748:	e4 07       	cpc	r30, r20
    474a:	f5 07       	cpc	r31, r21
    474c:	98 f0       	brcs	.+38     	; 0x4774 <__fp_cmp+0x46>
    474e:	62 1b       	sub	r22, r18
    4750:	73 0b       	sbc	r23, r19
    4752:	84 0b       	sbc	r24, r20
    4754:	95 0b       	sbc	r25, r21
    4756:	39 f4       	brne	.+14     	; 0x4766 <__fp_cmp+0x38>
    4758:	0a 26       	eor	r0, r26
    475a:	61 f0       	breq	.+24     	; 0x4774 <__fp_cmp+0x46>
    475c:	23 2b       	or	r18, r19
    475e:	24 2b       	or	r18, r20
    4760:	25 2b       	or	r18, r21
    4762:	21 f4       	brne	.+8      	; 0x476c <__fp_cmp+0x3e>
    4764:	08 95       	ret
    4766:	0a 26       	eor	r0, r26
    4768:	09 f4       	brne	.+2      	; 0x476c <__fp_cmp+0x3e>
    476a:	a1 40       	sbci	r26, 0x01	; 1
    476c:	a6 95       	lsr	r26
    476e:	8f ef       	ldi	r24, 0xFF	; 255
    4770:	81 1d       	adc	r24, r1
    4772:	81 1d       	adc	r24, r1
    4774:	08 95       	ret

00004776 <__fp_inf>:
    4776:	97 f9       	bld	r25, 7
    4778:	9f 67       	ori	r25, 0x7F	; 127
    477a:	80 e8       	ldi	r24, 0x80	; 128
    477c:	70 e0       	ldi	r23, 0x00	; 0
    477e:	60 e0       	ldi	r22, 0x00	; 0
    4780:	08 95       	ret

00004782 <__fp_nan>:
    4782:	9f ef       	ldi	r25, 0xFF	; 255
    4784:	80 ec       	ldi	r24, 0xC0	; 192
    4786:	08 95       	ret

00004788 <__fp_pscA>:
    4788:	00 24       	eor	r0, r0
    478a:	0a 94       	dec	r0
    478c:	16 16       	cp	r1, r22
    478e:	17 06       	cpc	r1, r23
    4790:	18 06       	cpc	r1, r24
    4792:	09 06       	cpc	r0, r25
    4794:	08 95       	ret

00004796 <__fp_pscB>:
    4796:	00 24       	eor	r0, r0
    4798:	0a 94       	dec	r0
    479a:	12 16       	cp	r1, r18
    479c:	13 06       	cpc	r1, r19
    479e:	14 06       	cpc	r1, r20
    47a0:	05 06       	cpc	r0, r21
    47a2:	08 95       	ret

000047a4 <__fp_round>:
    47a4:	09 2e       	mov	r0, r25
    47a6:	03 94       	inc	r0
    47a8:	00 0c       	add	r0, r0
    47aa:	11 f4       	brne	.+4      	; 0x47b0 <__fp_round+0xc>
    47ac:	88 23       	and	r24, r24
    47ae:	52 f0       	brmi	.+20     	; 0x47c4 <__fp_round+0x20>
    47b0:	bb 0f       	add	r27, r27
    47b2:	40 f4       	brcc	.+16     	; 0x47c4 <__fp_round+0x20>
    47b4:	bf 2b       	or	r27, r31
    47b6:	11 f4       	brne	.+4      	; 0x47bc <__fp_round+0x18>
    47b8:	60 ff       	sbrs	r22, 0
    47ba:	04 c0       	rjmp	.+8      	; 0x47c4 <__fp_round+0x20>
    47bc:	6f 5f       	subi	r22, 0xFF	; 255
    47be:	7f 4f       	sbci	r23, 0xFF	; 255
    47c0:	8f 4f       	sbci	r24, 0xFF	; 255
    47c2:	9f 4f       	sbci	r25, 0xFF	; 255
    47c4:	08 95       	ret

000047c6 <__fp_split3>:
    47c6:	57 fd       	sbrc	r21, 7
    47c8:	90 58       	subi	r25, 0x80	; 128
    47ca:	44 0f       	add	r20, r20
    47cc:	55 1f       	adc	r21, r21
    47ce:	59 f0       	breq	.+22     	; 0x47e6 <__fp_splitA+0x10>
    47d0:	5f 3f       	cpi	r21, 0xFF	; 255
    47d2:	71 f0       	breq	.+28     	; 0x47f0 <__fp_splitA+0x1a>
    47d4:	47 95       	ror	r20

000047d6 <__fp_splitA>:
    47d6:	88 0f       	add	r24, r24
    47d8:	97 fb       	bst	r25, 7
    47da:	99 1f       	adc	r25, r25
    47dc:	61 f0       	breq	.+24     	; 0x47f6 <__fp_splitA+0x20>
    47de:	9f 3f       	cpi	r25, 0xFF	; 255
    47e0:	79 f0       	breq	.+30     	; 0x4800 <__fp_splitA+0x2a>
    47e2:	87 95       	ror	r24
    47e4:	08 95       	ret
    47e6:	12 16       	cp	r1, r18
    47e8:	13 06       	cpc	r1, r19
    47ea:	14 06       	cpc	r1, r20
    47ec:	55 1f       	adc	r21, r21
    47ee:	f2 cf       	rjmp	.-28     	; 0x47d4 <__fp_split3+0xe>
    47f0:	46 95       	lsr	r20
    47f2:	f1 df       	rcall	.-30     	; 0x47d6 <__fp_splitA>
    47f4:	08 c0       	rjmp	.+16     	; 0x4806 <__fp_splitA+0x30>
    47f6:	16 16       	cp	r1, r22
    47f8:	17 06       	cpc	r1, r23
    47fa:	18 06       	cpc	r1, r24
    47fc:	99 1f       	adc	r25, r25
    47fe:	f1 cf       	rjmp	.-30     	; 0x47e2 <__fp_splitA+0xc>
    4800:	86 95       	lsr	r24
    4802:	71 05       	cpc	r23, r1
    4804:	61 05       	cpc	r22, r1
    4806:	08 94       	sec
    4808:	08 95       	ret

0000480a <__fp_zero>:
    480a:	e8 94       	clt

0000480c <__fp_szero>:
    480c:	bb 27       	eor	r27, r27
    480e:	66 27       	eor	r22, r22
    4810:	77 27       	eor	r23, r23
    4812:	cb 01       	movw	r24, r22
    4814:	97 f9       	bld	r25, 7
    4816:	08 95       	ret

00004818 <__gesf2>:
    4818:	0e 94 97 23 	call	0x472e	; 0x472e <__fp_cmp>
    481c:	08 f4       	brcc	.+2      	; 0x4820 <__gesf2+0x8>
    481e:	8f ef       	ldi	r24, 0xFF	; 255
    4820:	08 95       	ret

00004822 <__mulsf3>:
    4822:	0e 94 24 24 	call	0x4848	; 0x4848 <__mulsf3x>
    4826:	0c 94 d2 23 	jmp	0x47a4	; 0x47a4 <__fp_round>
    482a:	0e 94 c4 23 	call	0x4788	; 0x4788 <__fp_pscA>
    482e:	38 f0       	brcs	.+14     	; 0x483e <__mulsf3+0x1c>
    4830:	0e 94 cb 23 	call	0x4796	; 0x4796 <__fp_pscB>
    4834:	20 f0       	brcs	.+8      	; 0x483e <__mulsf3+0x1c>
    4836:	95 23       	and	r25, r21
    4838:	11 f0       	breq	.+4      	; 0x483e <__mulsf3+0x1c>
    483a:	0c 94 bb 23 	jmp	0x4776	; 0x4776 <__fp_inf>
    483e:	0c 94 c1 23 	jmp	0x4782	; 0x4782 <__fp_nan>
    4842:	11 24       	eor	r1, r1
    4844:	0c 94 06 24 	jmp	0x480c	; 0x480c <__fp_szero>

00004848 <__mulsf3x>:
    4848:	0e 94 e3 23 	call	0x47c6	; 0x47c6 <__fp_split3>
    484c:	70 f3       	brcs	.-36     	; 0x482a <__mulsf3+0x8>

0000484e <__mulsf3_pse>:
    484e:	95 9f       	mul	r25, r21
    4850:	c1 f3       	breq	.-16     	; 0x4842 <__mulsf3+0x20>
    4852:	95 0f       	add	r25, r21
    4854:	50 e0       	ldi	r21, 0x00	; 0
    4856:	55 1f       	adc	r21, r21
    4858:	62 9f       	mul	r22, r18
    485a:	f0 01       	movw	r30, r0
    485c:	72 9f       	mul	r23, r18
    485e:	bb 27       	eor	r27, r27
    4860:	f0 0d       	add	r31, r0
    4862:	b1 1d       	adc	r27, r1
    4864:	63 9f       	mul	r22, r19
    4866:	aa 27       	eor	r26, r26
    4868:	f0 0d       	add	r31, r0
    486a:	b1 1d       	adc	r27, r1
    486c:	aa 1f       	adc	r26, r26
    486e:	64 9f       	mul	r22, r20
    4870:	66 27       	eor	r22, r22
    4872:	b0 0d       	add	r27, r0
    4874:	a1 1d       	adc	r26, r1
    4876:	66 1f       	adc	r22, r22
    4878:	82 9f       	mul	r24, r18
    487a:	22 27       	eor	r18, r18
    487c:	b0 0d       	add	r27, r0
    487e:	a1 1d       	adc	r26, r1
    4880:	62 1f       	adc	r22, r18
    4882:	73 9f       	mul	r23, r19
    4884:	b0 0d       	add	r27, r0
    4886:	a1 1d       	adc	r26, r1
    4888:	62 1f       	adc	r22, r18
    488a:	83 9f       	mul	r24, r19
    488c:	a0 0d       	add	r26, r0
    488e:	61 1d       	adc	r22, r1
    4890:	22 1f       	adc	r18, r18
    4892:	74 9f       	mul	r23, r20
    4894:	33 27       	eor	r19, r19
    4896:	a0 0d       	add	r26, r0
    4898:	61 1d       	adc	r22, r1
    489a:	23 1f       	adc	r18, r19
    489c:	84 9f       	mul	r24, r20
    489e:	60 0d       	add	r22, r0
    48a0:	21 1d       	adc	r18, r1
    48a2:	82 2f       	mov	r24, r18
    48a4:	76 2f       	mov	r23, r22
    48a6:	6a 2f       	mov	r22, r26
    48a8:	11 24       	eor	r1, r1
    48aa:	9f 57       	subi	r25, 0x7F	; 127
    48ac:	50 40       	sbci	r21, 0x00	; 0
    48ae:	9a f0       	brmi	.+38     	; 0x48d6 <__mulsf3_pse+0x88>
    48b0:	f1 f0       	breq	.+60     	; 0x48ee <__mulsf3_pse+0xa0>
    48b2:	88 23       	and	r24, r24
    48b4:	4a f0       	brmi	.+18     	; 0x48c8 <__mulsf3_pse+0x7a>
    48b6:	ee 0f       	add	r30, r30
    48b8:	ff 1f       	adc	r31, r31
    48ba:	bb 1f       	adc	r27, r27
    48bc:	66 1f       	adc	r22, r22
    48be:	77 1f       	adc	r23, r23
    48c0:	88 1f       	adc	r24, r24
    48c2:	91 50       	subi	r25, 0x01	; 1
    48c4:	50 40       	sbci	r21, 0x00	; 0
    48c6:	a9 f7       	brne	.-22     	; 0x48b2 <__mulsf3_pse+0x64>
    48c8:	9e 3f       	cpi	r25, 0xFE	; 254
    48ca:	51 05       	cpc	r21, r1
    48cc:	80 f0       	brcs	.+32     	; 0x48ee <__mulsf3_pse+0xa0>
    48ce:	0c 94 bb 23 	jmp	0x4776	; 0x4776 <__fp_inf>
    48d2:	0c 94 06 24 	jmp	0x480c	; 0x480c <__fp_szero>
    48d6:	5f 3f       	cpi	r21, 0xFF	; 255
    48d8:	e4 f3       	brlt	.-8      	; 0x48d2 <__mulsf3_pse+0x84>
    48da:	98 3e       	cpi	r25, 0xE8	; 232
    48dc:	d4 f3       	brlt	.-12     	; 0x48d2 <__mulsf3_pse+0x84>
    48de:	86 95       	lsr	r24
    48e0:	77 95       	ror	r23
    48e2:	67 95       	ror	r22
    48e4:	b7 95       	ror	r27
    48e6:	f7 95       	ror	r31
    48e8:	e7 95       	ror	r30
    48ea:	9f 5f       	subi	r25, 0xFF	; 255
    48ec:	c1 f7       	brne	.-16     	; 0x48de <__mulsf3_pse+0x90>
    48ee:	fe 2b       	or	r31, r30
    48f0:	88 0f       	add	r24, r24
    48f2:	91 1d       	adc	r25, r1
    48f4:	96 95       	lsr	r25
    48f6:	87 95       	ror	r24
    48f8:	97 f9       	bld	r25, 7
    48fa:	08 95       	ret

000048fc <__unordsf2>:
    48fc:	0e 94 97 23 	call	0x472e	; 0x472e <__fp_cmp>
    4900:	88 0b       	sbc	r24, r24
    4902:	99 0b       	sbc	r25, r25
    4904:	08 95       	ret

00004906 <dtostrf>:
    4906:	ef 92       	push	r14
    4908:	0f 93       	push	r16
    490a:	1f 93       	push	r17
    490c:	cf 93       	push	r28
    490e:	df 93       	push	r29
    4910:	e8 01       	movw	r28, r16
    4912:	47 fd       	sbrc	r20, 7
    4914:	02 c0       	rjmp	.+4      	; 0x491a <dtostrf+0x14>
    4916:	34 e0       	ldi	r19, 0x04	; 4
    4918:	01 c0       	rjmp	.+2      	; 0x491c <dtostrf+0x16>
    491a:	34 e1       	ldi	r19, 0x14	; 20
    491c:	04 2e       	mov	r0, r20
    491e:	00 0c       	add	r0, r0
    4920:	55 0b       	sbc	r21, r21
    4922:	57 ff       	sbrs	r21, 7
    4924:	03 c0       	rjmp	.+6      	; 0x492c <dtostrf+0x26>
    4926:	51 95       	neg	r21
    4928:	41 95       	neg	r20
    492a:	51 09       	sbc	r21, r1
    492c:	e3 2e       	mov	r14, r19
    492e:	02 2f       	mov	r16, r18
    4930:	24 2f       	mov	r18, r20
    4932:	ae 01       	movw	r20, r28
    4934:	0e 94 de 2a 	call	0x55bc	; 0x55bc <dtoa_prf>
    4938:	ce 01       	movw	r24, r28
    493a:	df 91       	pop	r29
    493c:	cf 91       	pop	r28
    493e:	1f 91       	pop	r17
    4940:	0f 91       	pop	r16
    4942:	ef 90       	pop	r14
    4944:	08 95       	ret

00004946 <malloc>:
    4946:	0f 93       	push	r16
    4948:	1f 93       	push	r17
    494a:	cf 93       	push	r28
    494c:	df 93       	push	r29
    494e:	82 30       	cpi	r24, 0x02	; 2
    4950:	91 05       	cpc	r25, r1
    4952:	10 f4       	brcc	.+4      	; 0x4958 <malloc+0x12>
    4954:	82 e0       	ldi	r24, 0x02	; 2
    4956:	90 e0       	ldi	r25, 0x00	; 0
    4958:	e0 91 fe 04 	lds	r30, 0x04FE	; 0x8004fe <__flp>
    495c:	f0 91 ff 04 	lds	r31, 0x04FF	; 0x8004ff <__flp+0x1>
    4960:	20 e0       	ldi	r18, 0x00	; 0
    4962:	30 e0       	ldi	r19, 0x00	; 0
    4964:	a0 e0       	ldi	r26, 0x00	; 0
    4966:	b0 e0       	ldi	r27, 0x00	; 0
    4968:	30 97       	sbiw	r30, 0x00	; 0
    496a:	19 f1       	breq	.+70     	; 0x49b2 <malloc+0x6c>
    496c:	40 81       	ld	r20, Z
    496e:	51 81       	ldd	r21, Z+1	; 0x01
    4970:	02 81       	ldd	r16, Z+2	; 0x02
    4972:	13 81       	ldd	r17, Z+3	; 0x03
    4974:	48 17       	cp	r20, r24
    4976:	59 07       	cpc	r21, r25
    4978:	c8 f0       	brcs	.+50     	; 0x49ac <malloc+0x66>
    497a:	84 17       	cp	r24, r20
    497c:	95 07       	cpc	r25, r21
    497e:	69 f4       	brne	.+26     	; 0x499a <malloc+0x54>
    4980:	10 97       	sbiw	r26, 0x00	; 0
    4982:	31 f0       	breq	.+12     	; 0x4990 <malloc+0x4a>
    4984:	12 96       	adiw	r26, 0x02	; 2
    4986:	0c 93       	st	X, r16
    4988:	12 97       	sbiw	r26, 0x02	; 2
    498a:	13 96       	adiw	r26, 0x03	; 3
    498c:	1c 93       	st	X, r17
    498e:	27 c0       	rjmp	.+78     	; 0x49de <malloc+0x98>
    4990:	00 93 fe 04 	sts	0x04FE, r16	; 0x8004fe <__flp>
    4994:	10 93 ff 04 	sts	0x04FF, r17	; 0x8004ff <__flp+0x1>
    4998:	22 c0       	rjmp	.+68     	; 0x49de <malloc+0x98>
    499a:	21 15       	cp	r18, r1
    499c:	31 05       	cpc	r19, r1
    499e:	19 f0       	breq	.+6      	; 0x49a6 <malloc+0x60>
    49a0:	42 17       	cp	r20, r18
    49a2:	53 07       	cpc	r21, r19
    49a4:	18 f4       	brcc	.+6      	; 0x49ac <malloc+0x66>
    49a6:	9a 01       	movw	r18, r20
    49a8:	bd 01       	movw	r22, r26
    49aa:	ef 01       	movw	r28, r30
    49ac:	df 01       	movw	r26, r30
    49ae:	f8 01       	movw	r30, r16
    49b0:	db cf       	rjmp	.-74     	; 0x4968 <malloc+0x22>
    49b2:	21 15       	cp	r18, r1
    49b4:	31 05       	cpc	r19, r1
    49b6:	f9 f0       	breq	.+62     	; 0x49f6 <malloc+0xb0>
    49b8:	28 1b       	sub	r18, r24
    49ba:	39 0b       	sbc	r19, r25
    49bc:	24 30       	cpi	r18, 0x04	; 4
    49be:	31 05       	cpc	r19, r1
    49c0:	80 f4       	brcc	.+32     	; 0x49e2 <malloc+0x9c>
    49c2:	8a 81       	ldd	r24, Y+2	; 0x02
    49c4:	9b 81       	ldd	r25, Y+3	; 0x03
    49c6:	61 15       	cp	r22, r1
    49c8:	71 05       	cpc	r23, r1
    49ca:	21 f0       	breq	.+8      	; 0x49d4 <malloc+0x8e>
    49cc:	fb 01       	movw	r30, r22
    49ce:	93 83       	std	Z+3, r25	; 0x03
    49d0:	82 83       	std	Z+2, r24	; 0x02
    49d2:	04 c0       	rjmp	.+8      	; 0x49dc <malloc+0x96>
    49d4:	90 93 ff 04 	sts	0x04FF, r25	; 0x8004ff <__flp+0x1>
    49d8:	80 93 fe 04 	sts	0x04FE, r24	; 0x8004fe <__flp>
    49dc:	fe 01       	movw	r30, r28
    49de:	32 96       	adiw	r30, 0x02	; 2
    49e0:	44 c0       	rjmp	.+136    	; 0x4a6a <malloc+0x124>
    49e2:	fe 01       	movw	r30, r28
    49e4:	e2 0f       	add	r30, r18
    49e6:	f3 1f       	adc	r31, r19
    49e8:	81 93       	st	Z+, r24
    49ea:	91 93       	st	Z+, r25
    49ec:	22 50       	subi	r18, 0x02	; 2
    49ee:	31 09       	sbc	r19, r1
    49f0:	39 83       	std	Y+1, r19	; 0x01
    49f2:	28 83       	st	Y, r18
    49f4:	3a c0       	rjmp	.+116    	; 0x4a6a <malloc+0x124>
    49f6:	20 91 fc 04 	lds	r18, 0x04FC	; 0x8004fc <__brkval>
    49fa:	30 91 fd 04 	lds	r19, 0x04FD	; 0x8004fd <__brkval+0x1>
    49fe:	23 2b       	or	r18, r19
    4a00:	41 f4       	brne	.+16     	; 0x4a12 <malloc+0xcc>
    4a02:	20 91 15 02 	lds	r18, 0x0215	; 0x800215 <__malloc_heap_start>
    4a06:	30 91 16 02 	lds	r19, 0x0216	; 0x800216 <__malloc_heap_start+0x1>
    4a0a:	30 93 fd 04 	sts	0x04FD, r19	; 0x8004fd <__brkval+0x1>
    4a0e:	20 93 fc 04 	sts	0x04FC, r18	; 0x8004fc <__brkval>
    4a12:	20 91 13 02 	lds	r18, 0x0213	; 0x800213 <__malloc_heap_end>
    4a16:	30 91 14 02 	lds	r19, 0x0214	; 0x800214 <__malloc_heap_end+0x1>
    4a1a:	21 15       	cp	r18, r1
    4a1c:	31 05       	cpc	r19, r1
    4a1e:	41 f4       	brne	.+16     	; 0x4a30 <malloc+0xea>
    4a20:	2d b7       	in	r18, 0x3d	; 61
    4a22:	3e b7       	in	r19, 0x3e	; 62
    4a24:	40 91 17 02 	lds	r20, 0x0217	; 0x800217 <__malloc_margin>
    4a28:	50 91 18 02 	lds	r21, 0x0218	; 0x800218 <__malloc_margin+0x1>
    4a2c:	24 1b       	sub	r18, r20
    4a2e:	35 0b       	sbc	r19, r21
    4a30:	e0 91 fc 04 	lds	r30, 0x04FC	; 0x8004fc <__brkval>
    4a34:	f0 91 fd 04 	lds	r31, 0x04FD	; 0x8004fd <__brkval+0x1>
    4a38:	e2 17       	cp	r30, r18
    4a3a:	f3 07       	cpc	r31, r19
    4a3c:	a0 f4       	brcc	.+40     	; 0x4a66 <malloc+0x120>
    4a3e:	2e 1b       	sub	r18, r30
    4a40:	3f 0b       	sbc	r19, r31
    4a42:	28 17       	cp	r18, r24
    4a44:	39 07       	cpc	r19, r25
    4a46:	78 f0       	brcs	.+30     	; 0x4a66 <malloc+0x120>
    4a48:	ac 01       	movw	r20, r24
    4a4a:	4e 5f       	subi	r20, 0xFE	; 254
    4a4c:	5f 4f       	sbci	r21, 0xFF	; 255
    4a4e:	24 17       	cp	r18, r20
    4a50:	35 07       	cpc	r19, r21
    4a52:	48 f0       	brcs	.+18     	; 0x4a66 <malloc+0x120>
    4a54:	4e 0f       	add	r20, r30
    4a56:	5f 1f       	adc	r21, r31
    4a58:	50 93 fd 04 	sts	0x04FD, r21	; 0x8004fd <__brkval+0x1>
    4a5c:	40 93 fc 04 	sts	0x04FC, r20	; 0x8004fc <__brkval>
    4a60:	81 93       	st	Z+, r24
    4a62:	91 93       	st	Z+, r25
    4a64:	02 c0       	rjmp	.+4      	; 0x4a6a <malloc+0x124>
    4a66:	e0 e0       	ldi	r30, 0x00	; 0
    4a68:	f0 e0       	ldi	r31, 0x00	; 0
    4a6a:	cf 01       	movw	r24, r30
    4a6c:	df 91       	pop	r29
    4a6e:	cf 91       	pop	r28
    4a70:	1f 91       	pop	r17
    4a72:	0f 91       	pop	r16
    4a74:	08 95       	ret

00004a76 <free>:
    4a76:	cf 93       	push	r28
    4a78:	df 93       	push	r29
    4a7a:	00 97       	sbiw	r24, 0x00	; 0
    4a7c:	09 f4       	brne	.+2      	; 0x4a80 <free+0xa>
    4a7e:	81 c0       	rjmp	.+258    	; 0x4b82 <free+0x10c>
    4a80:	fc 01       	movw	r30, r24
    4a82:	32 97       	sbiw	r30, 0x02	; 2
    4a84:	13 82       	std	Z+3, r1	; 0x03
    4a86:	12 82       	std	Z+2, r1	; 0x02
    4a88:	a0 91 fe 04 	lds	r26, 0x04FE	; 0x8004fe <__flp>
    4a8c:	b0 91 ff 04 	lds	r27, 0x04FF	; 0x8004ff <__flp+0x1>
    4a90:	10 97       	sbiw	r26, 0x00	; 0
    4a92:	81 f4       	brne	.+32     	; 0x4ab4 <free+0x3e>
    4a94:	20 81       	ld	r18, Z
    4a96:	31 81       	ldd	r19, Z+1	; 0x01
    4a98:	82 0f       	add	r24, r18
    4a9a:	93 1f       	adc	r25, r19
    4a9c:	20 91 fc 04 	lds	r18, 0x04FC	; 0x8004fc <__brkval>
    4aa0:	30 91 fd 04 	lds	r19, 0x04FD	; 0x8004fd <__brkval+0x1>
    4aa4:	28 17       	cp	r18, r24
    4aa6:	39 07       	cpc	r19, r25
    4aa8:	51 f5       	brne	.+84     	; 0x4afe <free+0x88>
    4aaa:	f0 93 fd 04 	sts	0x04FD, r31	; 0x8004fd <__brkval+0x1>
    4aae:	e0 93 fc 04 	sts	0x04FC, r30	; 0x8004fc <__brkval>
    4ab2:	67 c0       	rjmp	.+206    	; 0x4b82 <free+0x10c>
    4ab4:	ed 01       	movw	r28, r26
    4ab6:	20 e0       	ldi	r18, 0x00	; 0
    4ab8:	30 e0       	ldi	r19, 0x00	; 0
    4aba:	ce 17       	cp	r28, r30
    4abc:	df 07       	cpc	r29, r31
    4abe:	40 f4       	brcc	.+16     	; 0x4ad0 <free+0x5a>
    4ac0:	4a 81       	ldd	r20, Y+2	; 0x02
    4ac2:	5b 81       	ldd	r21, Y+3	; 0x03
    4ac4:	9e 01       	movw	r18, r28
    4ac6:	41 15       	cp	r20, r1
    4ac8:	51 05       	cpc	r21, r1
    4aca:	f1 f0       	breq	.+60     	; 0x4b08 <free+0x92>
    4acc:	ea 01       	movw	r28, r20
    4ace:	f5 cf       	rjmp	.-22     	; 0x4aba <free+0x44>
    4ad0:	d3 83       	std	Z+3, r29	; 0x03
    4ad2:	c2 83       	std	Z+2, r28	; 0x02
    4ad4:	40 81       	ld	r20, Z
    4ad6:	51 81       	ldd	r21, Z+1	; 0x01
    4ad8:	84 0f       	add	r24, r20
    4ada:	95 1f       	adc	r25, r21
    4adc:	c8 17       	cp	r28, r24
    4ade:	d9 07       	cpc	r29, r25
    4ae0:	59 f4       	brne	.+22     	; 0x4af8 <free+0x82>
    4ae2:	88 81       	ld	r24, Y
    4ae4:	99 81       	ldd	r25, Y+1	; 0x01
    4ae6:	84 0f       	add	r24, r20
    4ae8:	95 1f       	adc	r25, r21
    4aea:	02 96       	adiw	r24, 0x02	; 2
    4aec:	91 83       	std	Z+1, r25	; 0x01
    4aee:	80 83       	st	Z, r24
    4af0:	8a 81       	ldd	r24, Y+2	; 0x02
    4af2:	9b 81       	ldd	r25, Y+3	; 0x03
    4af4:	93 83       	std	Z+3, r25	; 0x03
    4af6:	82 83       	std	Z+2, r24	; 0x02
    4af8:	21 15       	cp	r18, r1
    4afa:	31 05       	cpc	r19, r1
    4afc:	29 f4       	brne	.+10     	; 0x4b08 <free+0x92>
    4afe:	f0 93 ff 04 	sts	0x04FF, r31	; 0x8004ff <__flp+0x1>
    4b02:	e0 93 fe 04 	sts	0x04FE, r30	; 0x8004fe <__flp>
    4b06:	3d c0       	rjmp	.+122    	; 0x4b82 <free+0x10c>
    4b08:	e9 01       	movw	r28, r18
    4b0a:	fb 83       	std	Y+3, r31	; 0x03
    4b0c:	ea 83       	std	Y+2, r30	; 0x02
    4b0e:	49 91       	ld	r20, Y+
    4b10:	59 91       	ld	r21, Y+
    4b12:	c4 0f       	add	r28, r20
    4b14:	d5 1f       	adc	r29, r21
    4b16:	ec 17       	cp	r30, r28
    4b18:	fd 07       	cpc	r31, r29
    4b1a:	61 f4       	brne	.+24     	; 0x4b34 <free+0xbe>
    4b1c:	80 81       	ld	r24, Z
    4b1e:	91 81       	ldd	r25, Z+1	; 0x01
    4b20:	84 0f       	add	r24, r20
    4b22:	95 1f       	adc	r25, r21
    4b24:	02 96       	adiw	r24, 0x02	; 2
    4b26:	e9 01       	movw	r28, r18
    4b28:	99 83       	std	Y+1, r25	; 0x01
    4b2a:	88 83       	st	Y, r24
    4b2c:	82 81       	ldd	r24, Z+2	; 0x02
    4b2e:	93 81       	ldd	r25, Z+3	; 0x03
    4b30:	9b 83       	std	Y+3, r25	; 0x03
    4b32:	8a 83       	std	Y+2, r24	; 0x02
    4b34:	e0 e0       	ldi	r30, 0x00	; 0
    4b36:	f0 e0       	ldi	r31, 0x00	; 0
    4b38:	12 96       	adiw	r26, 0x02	; 2
    4b3a:	8d 91       	ld	r24, X+
    4b3c:	9c 91       	ld	r25, X
    4b3e:	13 97       	sbiw	r26, 0x03	; 3
    4b40:	00 97       	sbiw	r24, 0x00	; 0
    4b42:	19 f0       	breq	.+6      	; 0x4b4a <free+0xd4>
    4b44:	fd 01       	movw	r30, r26
    4b46:	dc 01       	movw	r26, r24
    4b48:	f7 cf       	rjmp	.-18     	; 0x4b38 <free+0xc2>
    4b4a:	8d 91       	ld	r24, X+
    4b4c:	9c 91       	ld	r25, X
    4b4e:	11 97       	sbiw	r26, 0x01	; 1
    4b50:	9d 01       	movw	r18, r26
    4b52:	2e 5f       	subi	r18, 0xFE	; 254
    4b54:	3f 4f       	sbci	r19, 0xFF	; 255
    4b56:	82 0f       	add	r24, r18
    4b58:	93 1f       	adc	r25, r19
    4b5a:	20 91 fc 04 	lds	r18, 0x04FC	; 0x8004fc <__brkval>
    4b5e:	30 91 fd 04 	lds	r19, 0x04FD	; 0x8004fd <__brkval+0x1>
    4b62:	28 17       	cp	r18, r24
    4b64:	39 07       	cpc	r19, r25
    4b66:	69 f4       	brne	.+26     	; 0x4b82 <free+0x10c>
    4b68:	30 97       	sbiw	r30, 0x00	; 0
    4b6a:	29 f4       	brne	.+10     	; 0x4b76 <free+0x100>
    4b6c:	10 92 ff 04 	sts	0x04FF, r1	; 0x8004ff <__flp+0x1>
    4b70:	10 92 fe 04 	sts	0x04FE, r1	; 0x8004fe <__flp>
    4b74:	02 c0       	rjmp	.+4      	; 0x4b7a <free+0x104>
    4b76:	13 82       	std	Z+3, r1	; 0x03
    4b78:	12 82       	std	Z+2, r1	; 0x02
    4b7a:	b0 93 fd 04 	sts	0x04FD, r27	; 0x8004fd <__brkval+0x1>
    4b7e:	a0 93 fc 04 	sts	0x04FC, r26	; 0x8004fc <__brkval>
    4b82:	df 91       	pop	r29
    4b84:	cf 91       	pop	r28
    4b86:	08 95       	ret

00004b88 <random_r>:
    4b88:	8f 92       	push	r8
    4b8a:	9f 92       	push	r9
    4b8c:	af 92       	push	r10
    4b8e:	bf 92       	push	r11
    4b90:	cf 92       	push	r12
    4b92:	df 92       	push	r13
    4b94:	ef 92       	push	r14
    4b96:	ff 92       	push	r15
    4b98:	cf 93       	push	r28
    4b9a:	df 93       	push	r29
    4b9c:	ec 01       	movw	r28, r24
    4b9e:	68 81       	ld	r22, Y
    4ba0:	79 81       	ldd	r23, Y+1	; 0x01
    4ba2:	8a 81       	ldd	r24, Y+2	; 0x02
    4ba4:	9b 81       	ldd	r25, Y+3	; 0x03
    4ba6:	61 15       	cp	r22, r1
    4ba8:	71 05       	cpc	r23, r1
    4baa:	81 05       	cpc	r24, r1
    4bac:	91 05       	cpc	r25, r1
    4bae:	21 f4       	brne	.+8      	; 0x4bb8 <random_r+0x30>
    4bb0:	64 e2       	ldi	r22, 0x24	; 36
    4bb2:	79 ed       	ldi	r23, 0xD9	; 217
    4bb4:	8b e5       	ldi	r24, 0x5B	; 91
    4bb6:	97 e0       	ldi	r25, 0x07	; 7
    4bb8:	2d e1       	ldi	r18, 0x1D	; 29
    4bba:	33 ef       	ldi	r19, 0xF3	; 243
    4bbc:	41 e0       	ldi	r20, 0x01	; 1
    4bbe:	50 e0       	ldi	r21, 0x00	; 0
    4bc0:	0e 94 06 22 	call	0x440c	; 0x440c <__divmodsi4>
    4bc4:	49 01       	movw	r8, r18
    4bc6:	5a 01       	movw	r10, r20
    4bc8:	9b 01       	movw	r18, r22
    4bca:	ac 01       	movw	r20, r24
    4bcc:	a7 ea       	ldi	r26, 0xA7	; 167
    4bce:	b1 e4       	ldi	r27, 0x41	; 65
    4bd0:	0e 94 2d 22 	call	0x445a	; 0x445a <__muluhisi3>
    4bd4:	6b 01       	movw	r12, r22
    4bd6:	7c 01       	movw	r14, r24
    4bd8:	ac ee       	ldi	r26, 0xEC	; 236
    4bda:	b4 ef       	ldi	r27, 0xF4	; 244
    4bdc:	a5 01       	movw	r20, r10
    4bde:	94 01       	movw	r18, r8
    4be0:	0e 94 67 2f 	call	0x5ece	; 0x5ece <__mulohisi3>
    4be4:	dc 01       	movw	r26, r24
    4be6:	cb 01       	movw	r24, r22
    4be8:	8c 0d       	add	r24, r12
    4bea:	9d 1d       	adc	r25, r13
    4bec:	ae 1d       	adc	r26, r14
    4bee:	bf 1d       	adc	r27, r15
    4bf0:	b7 ff       	sbrs	r27, 7
    4bf2:	03 c0       	rjmp	.+6      	; 0x4bfa <random_r+0x72>
    4bf4:	01 97       	sbiw	r24, 0x01	; 1
    4bf6:	a1 09       	sbc	r26, r1
    4bf8:	b0 48       	sbci	r27, 0x80	; 128
    4bfa:	88 83       	st	Y, r24
    4bfc:	99 83       	std	Y+1, r25	; 0x01
    4bfe:	aa 83       	std	Y+2, r26	; 0x02
    4c00:	bb 83       	std	Y+3, r27	; 0x03
    4c02:	bc 01       	movw	r22, r24
    4c04:	cd 01       	movw	r24, r26
    4c06:	9f 77       	andi	r25, 0x7F	; 127
    4c08:	df 91       	pop	r29
    4c0a:	cf 91       	pop	r28
    4c0c:	ff 90       	pop	r15
    4c0e:	ef 90       	pop	r14
    4c10:	df 90       	pop	r13
    4c12:	cf 90       	pop	r12
    4c14:	bf 90       	pop	r11
    4c16:	af 90       	pop	r10
    4c18:	9f 90       	pop	r9
    4c1a:	8f 90       	pop	r8
    4c1c:	08 95       	ret

00004c1e <random>:
    4c1e:	8f 92       	push	r8
    4c20:	9f 92       	push	r9
    4c22:	af 92       	push	r10
    4c24:	bf 92       	push	r11
    4c26:	cf 92       	push	r12
    4c28:	df 92       	push	r13
    4c2a:	ef 92       	push	r14
    4c2c:	ff 92       	push	r15
    4c2e:	60 91 19 02 	lds	r22, 0x0219	; 0x800219 <next>
    4c32:	70 91 1a 02 	lds	r23, 0x021A	; 0x80021a <next+0x1>
    4c36:	80 91 1b 02 	lds	r24, 0x021B	; 0x80021b <next+0x2>
    4c3a:	90 91 1c 02 	lds	r25, 0x021C	; 0x80021c <next+0x3>
    4c3e:	61 15       	cp	r22, r1
    4c40:	71 05       	cpc	r23, r1
    4c42:	81 05       	cpc	r24, r1
    4c44:	91 05       	cpc	r25, r1
    4c46:	21 f4       	brne	.+8      	; 0x4c50 <random+0x32>
    4c48:	64 e2       	ldi	r22, 0x24	; 36
    4c4a:	79 ed       	ldi	r23, 0xD9	; 217
    4c4c:	8b e5       	ldi	r24, 0x5B	; 91
    4c4e:	97 e0       	ldi	r25, 0x07	; 7
    4c50:	2d e1       	ldi	r18, 0x1D	; 29
    4c52:	33 ef       	ldi	r19, 0xF3	; 243
    4c54:	41 e0       	ldi	r20, 0x01	; 1
    4c56:	50 e0       	ldi	r21, 0x00	; 0
    4c58:	0e 94 06 22 	call	0x440c	; 0x440c <__divmodsi4>
    4c5c:	49 01       	movw	r8, r18
    4c5e:	5a 01       	movw	r10, r20
    4c60:	9b 01       	movw	r18, r22
    4c62:	ac 01       	movw	r20, r24
    4c64:	a7 ea       	ldi	r26, 0xA7	; 167
    4c66:	b1 e4       	ldi	r27, 0x41	; 65
    4c68:	0e 94 2d 22 	call	0x445a	; 0x445a <__muluhisi3>
    4c6c:	6b 01       	movw	r12, r22
    4c6e:	7c 01       	movw	r14, r24
    4c70:	ac ee       	ldi	r26, 0xEC	; 236
    4c72:	b4 ef       	ldi	r27, 0xF4	; 244
    4c74:	a5 01       	movw	r20, r10
    4c76:	94 01       	movw	r18, r8
    4c78:	0e 94 67 2f 	call	0x5ece	; 0x5ece <__mulohisi3>
    4c7c:	dc 01       	movw	r26, r24
    4c7e:	cb 01       	movw	r24, r22
    4c80:	8c 0d       	add	r24, r12
    4c82:	9d 1d       	adc	r25, r13
    4c84:	ae 1d       	adc	r26, r14
    4c86:	bf 1d       	adc	r27, r15
    4c88:	b7 ff       	sbrs	r27, 7
    4c8a:	03 c0       	rjmp	.+6      	; 0x4c92 <random+0x74>
    4c8c:	01 97       	sbiw	r24, 0x01	; 1
    4c8e:	a1 09       	sbc	r26, r1
    4c90:	b0 48       	sbci	r27, 0x80	; 128
    4c92:	80 93 19 02 	sts	0x0219, r24	; 0x800219 <next>
    4c96:	90 93 1a 02 	sts	0x021A, r25	; 0x80021a <next+0x1>
    4c9a:	a0 93 1b 02 	sts	0x021B, r26	; 0x80021b <next+0x2>
    4c9e:	b0 93 1c 02 	sts	0x021C, r27	; 0x80021c <next+0x3>
    4ca2:	bc 01       	movw	r22, r24
    4ca4:	cd 01       	movw	r24, r26
    4ca6:	9f 77       	andi	r25, 0x7F	; 127
    4ca8:	ff 90       	pop	r15
    4caa:	ef 90       	pop	r14
    4cac:	df 90       	pop	r13
    4cae:	cf 90       	pop	r12
    4cb0:	bf 90       	pop	r11
    4cb2:	af 90       	pop	r10
    4cb4:	9f 90       	pop	r9
    4cb6:	8f 90       	pop	r8
    4cb8:	08 95       	ret

00004cba <srandom>:
    4cba:	60 93 19 02 	sts	0x0219, r22	; 0x800219 <next>
    4cbe:	70 93 1a 02 	sts	0x021A, r23	; 0x80021a <next+0x1>
    4cc2:	80 93 1b 02 	sts	0x021B, r24	; 0x80021b <next+0x2>
    4cc6:	90 93 1c 02 	sts	0x021C, r25	; 0x80021c <next+0x3>
    4cca:	08 95       	ret

00004ccc <realloc>:
    4ccc:	6f 92       	push	r6
    4cce:	7f 92       	push	r7
    4cd0:	8f 92       	push	r8
    4cd2:	9f 92       	push	r9
    4cd4:	af 92       	push	r10
    4cd6:	bf 92       	push	r11
    4cd8:	cf 92       	push	r12
    4cda:	df 92       	push	r13
    4cdc:	ef 92       	push	r14
    4cde:	ff 92       	push	r15
    4ce0:	0f 93       	push	r16
    4ce2:	1f 93       	push	r17
    4ce4:	cf 93       	push	r28
    4ce6:	df 93       	push	r29
    4ce8:	00 97       	sbiw	r24, 0x00	; 0
    4cea:	89 f4       	brne	.+34     	; 0x4d0e <realloc+0x42>
    4cec:	cb 01       	movw	r24, r22
    4cee:	df 91       	pop	r29
    4cf0:	cf 91       	pop	r28
    4cf2:	1f 91       	pop	r17
    4cf4:	0f 91       	pop	r16
    4cf6:	ff 90       	pop	r15
    4cf8:	ef 90       	pop	r14
    4cfa:	df 90       	pop	r13
    4cfc:	cf 90       	pop	r12
    4cfe:	bf 90       	pop	r11
    4d00:	af 90       	pop	r10
    4d02:	9f 90       	pop	r9
    4d04:	8f 90       	pop	r8
    4d06:	7f 90       	pop	r7
    4d08:	6f 90       	pop	r6
    4d0a:	0c 94 a3 24 	jmp	0x4946	; 0x4946 <malloc>
    4d0e:	fc 01       	movw	r30, r24
    4d10:	e6 0f       	add	r30, r22
    4d12:	f7 1f       	adc	r31, r23
    4d14:	9c 01       	movw	r18, r24
    4d16:	22 50       	subi	r18, 0x02	; 2
    4d18:	31 09       	sbc	r19, r1
    4d1a:	e2 17       	cp	r30, r18
    4d1c:	f3 07       	cpc	r31, r19
    4d1e:	08 f4       	brcc	.+2      	; 0x4d22 <realloc+0x56>
    4d20:	a9 c0       	rjmp	.+338    	; 0x4e74 <realloc+0x1a8>
    4d22:	ec 01       	movw	r28, r24
    4d24:	d9 01       	movw	r26, r18
    4d26:	0d 91       	ld	r16, X+
    4d28:	1c 91       	ld	r17, X
    4d2a:	11 97       	sbiw	r26, 0x01	; 1
    4d2c:	06 17       	cp	r16, r22
    4d2e:	17 07       	cpc	r17, r23
    4d30:	b0 f0       	brcs	.+44     	; 0x4d5e <realloc+0x92>
    4d32:	05 30       	cpi	r16, 0x05	; 5
    4d34:	11 05       	cpc	r17, r1
    4d36:	08 f4       	brcc	.+2      	; 0x4d3a <realloc+0x6e>
    4d38:	9b c0       	rjmp	.+310    	; 0x4e70 <realloc+0x1a4>
    4d3a:	c8 01       	movw	r24, r16
    4d3c:	04 97       	sbiw	r24, 0x04	; 4
    4d3e:	86 17       	cp	r24, r22
    4d40:	97 07       	cpc	r25, r23
    4d42:	08 f4       	brcc	.+2      	; 0x4d46 <realloc+0x7a>
    4d44:	95 c0       	rjmp	.+298    	; 0x4e70 <realloc+0x1a4>
    4d46:	02 50       	subi	r16, 0x02	; 2
    4d48:	11 09       	sbc	r17, r1
    4d4a:	06 1b       	sub	r16, r22
    4d4c:	17 0b       	sbc	r17, r23
    4d4e:	01 93       	st	Z+, r16
    4d50:	11 93       	st	Z+, r17
    4d52:	6d 93       	st	X+, r22
    4d54:	7c 93       	st	X, r23
    4d56:	cf 01       	movw	r24, r30
    4d58:	0e 94 3b 25 	call	0x4a76	; 0x4a76 <free>
    4d5c:	89 c0       	rjmp	.+274    	; 0x4e70 <realloc+0x1a4>
    4d5e:	5b 01       	movw	r10, r22
    4d60:	a0 1a       	sub	r10, r16
    4d62:	b1 0a       	sbc	r11, r17
    4d64:	4c 01       	movw	r8, r24
    4d66:	80 0e       	add	r8, r16
    4d68:	91 1e       	adc	r9, r17
    4d6a:	a0 91 fe 04 	lds	r26, 0x04FE	; 0x8004fe <__flp>
    4d6e:	b0 91 ff 04 	lds	r27, 0x04FF	; 0x8004ff <__flp+0x1>
    4d72:	61 2c       	mov	r6, r1
    4d74:	71 2c       	mov	r7, r1
    4d76:	e1 2c       	mov	r14, r1
    4d78:	f1 2c       	mov	r15, r1
    4d7a:	10 97       	sbiw	r26, 0x00	; 0
    4d7c:	09 f4       	brne	.+2      	; 0x4d80 <realloc+0xb4>
    4d7e:	46 c0       	rjmp	.+140    	; 0x4e0c <realloc+0x140>
    4d80:	8d 91       	ld	r24, X+
    4d82:	9c 91       	ld	r25, X
    4d84:	11 97       	sbiw	r26, 0x01	; 1
    4d86:	a8 15       	cp	r26, r8
    4d88:	b9 05       	cpc	r27, r9
    4d8a:	b1 f5       	brne	.+108    	; 0x4df8 <realloc+0x12c>
    4d8c:	6c 01       	movw	r12, r24
    4d8e:	42 e0       	ldi	r20, 0x02	; 2
    4d90:	c4 0e       	add	r12, r20
    4d92:	d1 1c       	adc	r13, r1
    4d94:	ca 14       	cp	r12, r10
    4d96:	db 04       	cpc	r13, r11
    4d98:	78 f1       	brcs	.+94     	; 0x4df8 <realloc+0x12c>
    4d9a:	4c 01       	movw	r8, r24
    4d9c:	8a 18       	sub	r8, r10
    4d9e:	9b 08       	sbc	r9, r11
    4da0:	64 01       	movw	r12, r8
    4da2:	42 e0       	ldi	r20, 0x02	; 2
    4da4:	c4 0e       	add	r12, r20
    4da6:	d1 1c       	adc	r13, r1
    4da8:	12 96       	adiw	r26, 0x02	; 2
    4daa:	bc 90       	ld	r11, X
    4dac:	12 97       	sbiw	r26, 0x02	; 2
    4dae:	13 96       	adiw	r26, 0x03	; 3
    4db0:	ac 91       	ld	r26, X
    4db2:	b5 e0       	ldi	r27, 0x05	; 5
    4db4:	cb 16       	cp	r12, r27
    4db6:	d1 04       	cpc	r13, r1
    4db8:	40 f0       	brcs	.+16     	; 0x4dca <realloc+0xfe>
    4dba:	b2 82       	std	Z+2, r11	; 0x02
    4dbc:	a3 83       	std	Z+3, r26	; 0x03
    4dbe:	91 82       	std	Z+1, r9	; 0x01
    4dc0:	80 82       	st	Z, r8
    4dc2:	d9 01       	movw	r26, r18
    4dc4:	6d 93       	st	X+, r22
    4dc6:	7c 93       	st	X, r23
    4dc8:	09 c0       	rjmp	.+18     	; 0x4ddc <realloc+0x110>
    4dca:	0e 5f       	subi	r16, 0xFE	; 254
    4dcc:	1f 4f       	sbci	r17, 0xFF	; 255
    4dce:	80 0f       	add	r24, r16
    4dd0:	91 1f       	adc	r25, r17
    4dd2:	f9 01       	movw	r30, r18
    4dd4:	91 83       	std	Z+1, r25	; 0x01
    4dd6:	80 83       	st	Z, r24
    4dd8:	eb 2d       	mov	r30, r11
    4dda:	fa 2f       	mov	r31, r26
    4ddc:	e1 14       	cp	r14, r1
    4dde:	f1 04       	cpc	r15, r1
    4de0:	31 f0       	breq	.+12     	; 0x4dee <realloc+0x122>
    4de2:	d7 01       	movw	r26, r14
    4de4:	13 96       	adiw	r26, 0x03	; 3
    4de6:	fc 93       	st	X, r31
    4de8:	ee 93       	st	-X, r30
    4dea:	12 97       	sbiw	r26, 0x02	; 2
    4dec:	41 c0       	rjmp	.+130    	; 0x4e70 <realloc+0x1a4>
    4dee:	f0 93 ff 04 	sts	0x04FF, r31	; 0x8004ff <__flp+0x1>
    4df2:	e0 93 fe 04 	sts	0x04FE, r30	; 0x8004fe <__flp>
    4df6:	3c c0       	rjmp	.+120    	; 0x4e70 <realloc+0x1a4>
    4df8:	68 16       	cp	r6, r24
    4dfa:	79 06       	cpc	r7, r25
    4dfc:	08 f4       	brcc	.+2      	; 0x4e00 <realloc+0x134>
    4dfe:	3c 01       	movw	r6, r24
    4e00:	7d 01       	movw	r14, r26
    4e02:	12 96       	adiw	r26, 0x02	; 2
    4e04:	0d 90       	ld	r0, X+
    4e06:	bc 91       	ld	r27, X
    4e08:	a0 2d       	mov	r26, r0
    4e0a:	b7 cf       	rjmp	.-146    	; 0x4d7a <realloc+0xae>
    4e0c:	80 91 fc 04 	lds	r24, 0x04FC	; 0x8004fc <__brkval>
    4e10:	90 91 fd 04 	lds	r25, 0x04FD	; 0x8004fd <__brkval+0x1>
    4e14:	88 16       	cp	r8, r24
    4e16:	99 06       	cpc	r9, r25
    4e18:	e1 f4       	brne	.+56     	; 0x4e52 <realloc+0x186>
    4e1a:	66 16       	cp	r6, r22
    4e1c:	77 06       	cpc	r7, r23
    4e1e:	c8 f4       	brcc	.+50     	; 0x4e52 <realloc+0x186>
    4e20:	80 91 13 02 	lds	r24, 0x0213	; 0x800213 <__malloc_heap_end>
    4e24:	90 91 14 02 	lds	r25, 0x0214	; 0x800214 <__malloc_heap_end+0x1>
    4e28:	00 97       	sbiw	r24, 0x00	; 0
    4e2a:	41 f4       	brne	.+16     	; 0x4e3c <realloc+0x170>
    4e2c:	8d b7       	in	r24, 0x3d	; 61
    4e2e:	9e b7       	in	r25, 0x3e	; 62
    4e30:	40 91 17 02 	lds	r20, 0x0217	; 0x800217 <__malloc_margin>
    4e34:	50 91 18 02 	lds	r21, 0x0218	; 0x800218 <__malloc_margin+0x1>
    4e38:	84 1b       	sub	r24, r20
    4e3a:	95 0b       	sbc	r25, r21
    4e3c:	e8 17       	cp	r30, r24
    4e3e:	f9 07       	cpc	r31, r25
    4e40:	c8 f4       	brcc	.+50     	; 0x4e74 <realloc+0x1a8>
    4e42:	f0 93 fd 04 	sts	0x04FD, r31	; 0x8004fd <__brkval+0x1>
    4e46:	e0 93 fc 04 	sts	0x04FC, r30	; 0x8004fc <__brkval>
    4e4a:	f9 01       	movw	r30, r18
    4e4c:	71 83       	std	Z+1, r23	; 0x01
    4e4e:	60 83       	st	Z, r22
    4e50:	0f c0       	rjmp	.+30     	; 0x4e70 <realloc+0x1a4>
    4e52:	cb 01       	movw	r24, r22
    4e54:	0e 94 a3 24 	call	0x4946	; 0x4946 <malloc>
    4e58:	7c 01       	movw	r14, r24
    4e5a:	00 97       	sbiw	r24, 0x00	; 0
    4e5c:	59 f0       	breq	.+22     	; 0x4e74 <realloc+0x1a8>
    4e5e:	a8 01       	movw	r20, r16
    4e60:	be 01       	movw	r22, r28
    4e62:	0e 94 b1 27 	call	0x4f62	; 0x4f62 <memcpy>
    4e66:	ce 01       	movw	r24, r28
    4e68:	0e 94 3b 25 	call	0x4a76	; 0x4a76 <free>
    4e6c:	c7 01       	movw	r24, r14
    4e6e:	04 c0       	rjmp	.+8      	; 0x4e78 <realloc+0x1ac>
    4e70:	ce 01       	movw	r24, r28
    4e72:	02 c0       	rjmp	.+4      	; 0x4e78 <realloc+0x1ac>
    4e74:	80 e0       	ldi	r24, 0x00	; 0
    4e76:	90 e0       	ldi	r25, 0x00	; 0
    4e78:	df 91       	pop	r29
    4e7a:	cf 91       	pop	r28
    4e7c:	1f 91       	pop	r17
    4e7e:	0f 91       	pop	r16
    4e80:	ff 90       	pop	r15
    4e82:	ef 90       	pop	r14
    4e84:	df 90       	pop	r13
    4e86:	cf 90       	pop	r12
    4e88:	bf 90       	pop	r11
    4e8a:	af 90       	pop	r10
    4e8c:	9f 90       	pop	r9
    4e8e:	8f 90       	pop	r8
    4e90:	7f 90       	pop	r7
    4e92:	6f 90       	pop	r6
    4e94:	08 95       	ret

00004e96 <abort>:
    4e96:	81 e0       	ldi	r24, 0x01	; 1
    4e98:	90 e0       	ldi	r25, 0x00	; 0
    4e9a:	f8 94       	cli
    4e9c:	0c 94 6c 2f 	jmp	0x5ed8	; 0x5ed8 <_exit>

00004ea0 <atof>:
    4ea0:	66 27       	eor	r22, r22
    4ea2:	77 27       	eor	r23, r23
    4ea4:	0c 94 55 2c 	jmp	0x58aa	; 0x58aa <strtod>

00004ea8 <atol>:
    4ea8:	1f 93       	push	r17
    4eaa:	fc 01       	movw	r30, r24
    4eac:	99 27       	eor	r25, r25
    4eae:	88 27       	eor	r24, r24
    4eb0:	bc 01       	movw	r22, r24
    4eb2:	e8 94       	clt
    4eb4:	11 91       	ld	r17, Z+
    4eb6:	10 32       	cpi	r17, 0x20	; 32
    4eb8:	e9 f3       	breq	.-6      	; 0x4eb4 <atol+0xc>
    4eba:	19 30       	cpi	r17, 0x09	; 9
    4ebc:	10 f0       	brcs	.+4      	; 0x4ec2 <atol+0x1a>
    4ebe:	1e 30       	cpi	r17, 0x0E	; 14
    4ec0:	c8 f3       	brcs	.-14     	; 0x4eb4 <atol+0xc>
    4ec2:	1b 32       	cpi	r17, 0x2B	; 43
    4ec4:	51 f0       	breq	.+20     	; 0x4eda <atol+0x32>
    4ec6:	1d 32       	cpi	r17, 0x2D	; 45
    4ec8:	49 f4       	brne	.+18     	; 0x4edc <atol+0x34>
    4eca:	68 94       	set
    4ecc:	06 c0       	rjmp	.+12     	; 0x4eda <atol+0x32>
    4ece:	0e 94 59 28 	call	0x50b2	; 0x50b2 <__mulsi_const_10>
    4ed2:	61 0f       	add	r22, r17
    4ed4:	71 1d       	adc	r23, r1
    4ed6:	81 1d       	adc	r24, r1
    4ed8:	91 1d       	adc	r25, r1
    4eda:	11 91       	ld	r17, Z+
    4edc:	10 53       	subi	r17, 0x30	; 48
    4ede:	1a 30       	cpi	r17, 0x0A	; 10
    4ee0:	b0 f3       	brcs	.-20     	; 0x4ece <atol+0x26>
    4ee2:	3e f4       	brtc	.+14     	; 0x4ef2 <atol+0x4a>
    4ee4:	90 95       	com	r25
    4ee6:	80 95       	com	r24
    4ee8:	70 95       	com	r23
    4eea:	61 95       	neg	r22
    4eec:	7f 4f       	sbci	r23, 0xFF	; 255
    4eee:	8f 4f       	sbci	r24, 0xFF	; 255
    4ef0:	9f 4f       	sbci	r25, 0xFF	; 255
    4ef2:	1f 91       	pop	r17
    4ef4:	08 95       	ret

00004ef6 <isspace>:
    4ef6:	91 11       	cpse	r25, r1
    4ef8:	0c 94 89 2e 	jmp	0x5d12	; 0x5d12 <__ctype_isfalse>
    4efc:	80 32       	cpi	r24, 0x20	; 32
    4efe:	19 f0       	breq	.+6      	; 0x4f06 <isspace+0x10>
    4f00:	89 50       	subi	r24, 0x09	; 9
    4f02:	85 50       	subi	r24, 0x05	; 5
    4f04:	c8 f7       	brcc	.-14     	; 0x4ef8 <isspace+0x2>
    4f06:	08 95       	ret

00004f08 <tolower>:
    4f08:	91 11       	cpse	r25, r1
    4f0a:	08 95       	ret
    4f0c:	81 54       	subi	r24, 0x41	; 65
    4f0e:	8a 51       	subi	r24, 0x1A	; 26
    4f10:	08 f4       	brcc	.+2      	; 0x4f14 <tolower+0xc>
    4f12:	80 5e       	subi	r24, 0xE0	; 224
    4f14:	85 5a       	subi	r24, 0xA5	; 165
    4f16:	08 95       	ret

00004f18 <toupper>:
    4f18:	91 11       	cpse	r25, r1
    4f1a:	08 95       	ret
    4f1c:	81 56       	subi	r24, 0x61	; 97
    4f1e:	8a 51       	subi	r24, 0x1A	; 26
    4f20:	08 f4       	brcc	.+2      	; 0x4f24 <toupper+0xc>
    4f22:	80 52       	subi	r24, 0x20	; 32
    4f24:	85 58       	subi	r24, 0x85	; 133
    4f26:	08 95       	ret

00004f28 <strcpy_P>:
    4f28:	fb 01       	movw	r30, r22
    4f2a:	dc 01       	movw	r26, r24
    4f2c:	05 90       	lpm	r0, Z+
    4f2e:	0d 92       	st	X+, r0
    4f30:	00 20       	and	r0, r0
    4f32:	e1 f7       	brne	.-8      	; 0x4f2c <strcpy_P+0x4>
    4f34:	08 95       	ret

00004f36 <__strlen_P>:
    4f36:	fc 01       	movw	r30, r24
    4f38:	05 90       	lpm	r0, Z+
    4f3a:	00 20       	and	r0, r0
    4f3c:	e9 f7       	brne	.-6      	; 0x4f38 <__strlen_P+0x2>
    4f3e:	80 95       	com	r24
    4f40:	90 95       	com	r25
    4f42:	8e 0f       	add	r24, r30
    4f44:	9f 1f       	adc	r25, r31
    4f46:	08 95       	ret

00004f48 <memcmp>:
    4f48:	fb 01       	movw	r30, r22
    4f4a:	dc 01       	movw	r26, r24
    4f4c:	04 c0       	rjmp	.+8      	; 0x4f56 <memcmp+0xe>
    4f4e:	8d 91       	ld	r24, X+
    4f50:	01 90       	ld	r0, Z+
    4f52:	80 19       	sub	r24, r0
    4f54:	21 f4       	brne	.+8      	; 0x4f5e <memcmp+0x16>
    4f56:	41 50       	subi	r20, 0x01	; 1
    4f58:	50 40       	sbci	r21, 0x00	; 0
    4f5a:	c8 f7       	brcc	.-14     	; 0x4f4e <memcmp+0x6>
    4f5c:	88 1b       	sub	r24, r24
    4f5e:	99 0b       	sbc	r25, r25
    4f60:	08 95       	ret

00004f62 <memcpy>:
    4f62:	fb 01       	movw	r30, r22
    4f64:	dc 01       	movw	r26, r24
    4f66:	02 c0       	rjmp	.+4      	; 0x4f6c <memcpy+0xa>
    4f68:	01 90       	ld	r0, Z+
    4f6a:	0d 92       	st	X+, r0
    4f6c:	41 50       	subi	r20, 0x01	; 1
    4f6e:	50 40       	sbci	r21, 0x00	; 0
    4f70:	d8 f7       	brcc	.-10     	; 0x4f68 <memcpy+0x6>
    4f72:	08 95       	ret

00004f74 <memmove>:
    4f74:	68 17       	cp	r22, r24
    4f76:	79 07       	cpc	r23, r25
    4f78:	68 f4       	brcc	.+26     	; 0x4f94 <memmove+0x20>
    4f7a:	fb 01       	movw	r30, r22
    4f7c:	dc 01       	movw	r26, r24
    4f7e:	e4 0f       	add	r30, r20
    4f80:	f5 1f       	adc	r31, r21
    4f82:	a4 0f       	add	r26, r20
    4f84:	b5 1f       	adc	r27, r21
    4f86:	02 c0       	rjmp	.+4      	; 0x4f8c <memmove+0x18>
    4f88:	02 90       	ld	r0, -Z
    4f8a:	0e 92       	st	-X, r0
    4f8c:	41 50       	subi	r20, 0x01	; 1
    4f8e:	50 40       	sbci	r21, 0x00	; 0
    4f90:	d8 f7       	brcc	.-10     	; 0x4f88 <memmove+0x14>
    4f92:	08 95       	ret
    4f94:	0c 94 b1 27 	jmp	0x4f62	; 0x4f62 <memcpy>

00004f98 <strchr>:
    4f98:	fc 01       	movw	r30, r24
    4f9a:	81 91       	ld	r24, Z+
    4f9c:	86 17       	cp	r24, r22
    4f9e:	21 f0       	breq	.+8      	; 0x4fa8 <strchr+0x10>
    4fa0:	88 23       	and	r24, r24
    4fa2:	d9 f7       	brne	.-10     	; 0x4f9a <strchr+0x2>
    4fa4:	99 27       	eor	r25, r25
    4fa6:	08 95       	ret
    4fa8:	31 97       	sbiw	r30, 0x01	; 1
    4faa:	cf 01       	movw	r24, r30
    4fac:	08 95       	ret

00004fae <strcmp>:
    4fae:	fb 01       	movw	r30, r22
    4fb0:	dc 01       	movw	r26, r24
    4fb2:	8d 91       	ld	r24, X+
    4fb4:	01 90       	ld	r0, Z+
    4fb6:	80 19       	sub	r24, r0
    4fb8:	01 10       	cpse	r0, r1
    4fba:	d9 f3       	breq	.-10     	; 0x4fb2 <strcmp+0x4>
    4fbc:	99 0b       	sbc	r25, r25
    4fbe:	08 95       	ret

00004fc0 <strcpy>:
    4fc0:	fb 01       	movw	r30, r22
    4fc2:	dc 01       	movw	r26, r24
    4fc4:	01 90       	ld	r0, Z+
    4fc6:	0d 92       	st	X+, r0
    4fc8:	00 20       	and	r0, r0
    4fca:	e1 f7       	brne	.-8      	; 0x4fc4 <strcpy+0x4>
    4fcc:	08 95       	ret

00004fce <strncmp>:
    4fce:	fb 01       	movw	r30, r22
    4fd0:	dc 01       	movw	r26, r24
    4fd2:	41 50       	subi	r20, 0x01	; 1
    4fd4:	50 40       	sbci	r21, 0x00	; 0
    4fd6:	30 f0       	brcs	.+12     	; 0x4fe4 <strncmp+0x16>
    4fd8:	8d 91       	ld	r24, X+
    4fda:	01 90       	ld	r0, Z+
    4fdc:	80 19       	sub	r24, r0
    4fde:	19 f4       	brne	.+6      	; 0x4fe6 <strncmp+0x18>
    4fe0:	00 20       	and	r0, r0
    4fe2:	b9 f7       	brne	.-18     	; 0x4fd2 <strncmp+0x4>
    4fe4:	88 1b       	sub	r24, r24
    4fe6:	99 0b       	sbc	r25, r25
    4fe8:	08 95       	ret

00004fea <strncpy>:
    4fea:	fb 01       	movw	r30, r22
    4fec:	dc 01       	movw	r26, r24
    4fee:	41 50       	subi	r20, 0x01	; 1
    4ff0:	50 40       	sbci	r21, 0x00	; 0
    4ff2:	48 f0       	brcs	.+18     	; 0x5006 <strncpy+0x1c>
    4ff4:	01 90       	ld	r0, Z+
    4ff6:	0d 92       	st	X+, r0
    4ff8:	00 20       	and	r0, r0
    4ffa:	c9 f7       	brne	.-14     	; 0x4fee <strncpy+0x4>
    4ffc:	01 c0       	rjmp	.+2      	; 0x5000 <strncpy+0x16>
    4ffe:	1d 92       	st	X+, r1
    5000:	41 50       	subi	r20, 0x01	; 1
    5002:	50 40       	sbci	r21, 0x00	; 0
    5004:	e0 f7       	brcc	.-8      	; 0x4ffe <strncpy+0x14>
    5006:	08 95       	ret

00005008 <strrchr>:
    5008:	fc 01       	movw	r30, r24
    500a:	81 e0       	ldi	r24, 0x01	; 1
    500c:	90 e0       	ldi	r25, 0x00	; 0
    500e:	01 90       	ld	r0, Z+
    5010:	06 16       	cp	r0, r22
    5012:	09 f4       	brne	.+2      	; 0x5016 <strrchr+0xe>
    5014:	cf 01       	movw	r24, r30
    5016:	00 20       	and	r0, r0
    5018:	d1 f7       	brne	.-12     	; 0x500e <strrchr+0x6>
    501a:	01 97       	sbiw	r24, 0x01	; 1
    501c:	08 95       	ret

0000501e <strstr>:
    501e:	fb 01       	movw	r30, r22
    5020:	51 91       	ld	r21, Z+
    5022:	55 23       	and	r21, r21
    5024:	a9 f0       	breq	.+42     	; 0x5050 <strstr+0x32>
    5026:	bf 01       	movw	r22, r30
    5028:	dc 01       	movw	r26, r24
    502a:	4d 91       	ld	r20, X+
    502c:	45 17       	cp	r20, r21
    502e:	41 11       	cpse	r20, r1
    5030:	e1 f7       	brne	.-8      	; 0x502a <strstr+0xc>
    5032:	59 f4       	brne	.+22     	; 0x504a <strstr+0x2c>
    5034:	cd 01       	movw	r24, r26
    5036:	01 90       	ld	r0, Z+
    5038:	00 20       	and	r0, r0
    503a:	49 f0       	breq	.+18     	; 0x504e <strstr+0x30>
    503c:	4d 91       	ld	r20, X+
    503e:	40 15       	cp	r20, r0
    5040:	41 11       	cpse	r20, r1
    5042:	c9 f3       	breq	.-14     	; 0x5036 <strstr+0x18>
    5044:	fb 01       	movw	r30, r22
    5046:	41 11       	cpse	r20, r1
    5048:	ef cf       	rjmp	.-34     	; 0x5028 <strstr+0xa>
    504a:	81 e0       	ldi	r24, 0x01	; 1
    504c:	90 e0       	ldi	r25, 0x00	; 0
    504e:	01 97       	sbiw	r24, 0x01	; 1
    5050:	08 95       	ret

00005052 <itoa>:
    5052:	45 32       	cpi	r20, 0x25	; 37
    5054:	51 05       	cpc	r21, r1
    5056:	20 f4       	brcc	.+8      	; 0x5060 <itoa+0xe>
    5058:	42 30       	cpi	r20, 0x02	; 2
    505a:	10 f0       	brcs	.+4      	; 0x5060 <itoa+0xe>
    505c:	0c 94 34 28 	jmp	0x5068	; 0x5068 <__itoa_ncheck>
    5060:	fb 01       	movw	r30, r22
    5062:	10 82       	st	Z, r1
    5064:	cb 01       	movw	r24, r22
    5066:	08 95       	ret

00005068 <__itoa_ncheck>:
    5068:	bb 27       	eor	r27, r27
    506a:	4a 30       	cpi	r20, 0x0A	; 10
    506c:	31 f4       	brne	.+12     	; 0x507a <__itoa_ncheck+0x12>
    506e:	99 23       	and	r25, r25
    5070:	22 f4       	brpl	.+8      	; 0x507a <__itoa_ncheck+0x12>
    5072:	bd e2       	ldi	r27, 0x2D	; 45
    5074:	90 95       	com	r25
    5076:	81 95       	neg	r24
    5078:	9f 4f       	sbci	r25, 0xFF	; 255
    507a:	0c 94 a7 28 	jmp	0x514e	; 0x514e <__utoa_common>

0000507e <ltoa>:
    507e:	25 32       	cpi	r18, 0x25	; 37
    5080:	31 05       	cpc	r19, r1
    5082:	20 f4       	brcc	.+8      	; 0x508c <ltoa+0xe>
    5084:	22 30       	cpi	r18, 0x02	; 2
    5086:	10 f0       	brcs	.+4      	; 0x508c <ltoa+0xe>
    5088:	0c 94 4a 28 	jmp	0x5094	; 0x5094 <__ltoa_ncheck>
    508c:	fa 01       	movw	r30, r20
    508e:	10 82       	st	Z, r1
    5090:	ca 01       	movw	r24, r20
    5092:	08 95       	ret

00005094 <__ltoa_ncheck>:
    5094:	bb 27       	eor	r27, r27
    5096:	2a 30       	cpi	r18, 0x0A	; 10
    5098:	51 f4       	brne	.+20     	; 0x50ae <__ltoa_ncheck+0x1a>
    509a:	99 23       	and	r25, r25
    509c:	42 f4       	brpl	.+16     	; 0x50ae <__ltoa_ncheck+0x1a>
    509e:	bd e2       	ldi	r27, 0x2D	; 45
    50a0:	90 95       	com	r25
    50a2:	80 95       	com	r24
    50a4:	70 95       	com	r23
    50a6:	61 95       	neg	r22
    50a8:	7f 4f       	sbci	r23, 0xFF	; 255
    50aa:	8f 4f       	sbci	r24, 0xFF	; 255
    50ac:	9f 4f       	sbci	r25, 0xFF	; 255
    50ae:	0c 94 7a 28 	jmp	0x50f4	; 0x50f4 <__ultoa_common>

000050b2 <__mulsi_const_10>:
    50b2:	59 2f       	mov	r21, r25
    50b4:	48 2f       	mov	r20, r24
    50b6:	37 2f       	mov	r19, r23
    50b8:	26 2f       	mov	r18, r22
    50ba:	66 0f       	add	r22, r22
    50bc:	77 1f       	adc	r23, r23
    50be:	88 1f       	adc	r24, r24
    50c0:	99 1f       	adc	r25, r25
    50c2:	66 0f       	add	r22, r22
    50c4:	77 1f       	adc	r23, r23
    50c6:	88 1f       	adc	r24, r24
    50c8:	99 1f       	adc	r25, r25
    50ca:	62 0f       	add	r22, r18
    50cc:	73 1f       	adc	r23, r19
    50ce:	84 1f       	adc	r24, r20
    50d0:	95 1f       	adc	r25, r21
    50d2:	66 0f       	add	r22, r22
    50d4:	77 1f       	adc	r23, r23
    50d6:	88 1f       	adc	r24, r24
    50d8:	99 1f       	adc	r25, r25
    50da:	08 95       	ret

000050dc <ultoa>:
    50dc:	25 32       	cpi	r18, 0x25	; 37
    50de:	31 05       	cpc	r19, r1
    50e0:	20 f4       	brcc	.+8      	; 0x50ea <ultoa+0xe>
    50e2:	22 30       	cpi	r18, 0x02	; 2
    50e4:	10 f0       	brcs	.+4      	; 0x50ea <ultoa+0xe>
    50e6:	0c 94 79 28 	jmp	0x50f2	; 0x50f2 <__ultoa_ncheck>
    50ea:	fa 01       	movw	r30, r20
    50ec:	10 82       	st	Z, r1
    50ee:	ca 01       	movw	r24, r20
    50f0:	08 95       	ret

000050f2 <__ultoa_ncheck>:
    50f2:	bb 27       	eor	r27, r27

000050f4 <__ultoa_common>:
    50f4:	fa 01       	movw	r30, r20
    50f6:	a6 2f       	mov	r26, r22
    50f8:	62 17       	cp	r22, r18
    50fa:	71 05       	cpc	r23, r1
    50fc:	81 05       	cpc	r24, r1
    50fe:	91 05       	cpc	r25, r1
    5100:	33 0b       	sbc	r19, r19
    5102:	30 fb       	bst	r19, 0
    5104:	66 f0       	brts	.+24     	; 0x511e <__ultoa_common+0x2a>
    5106:	aa 27       	eor	r26, r26
    5108:	66 0f       	add	r22, r22
    510a:	77 1f       	adc	r23, r23
    510c:	88 1f       	adc	r24, r24
    510e:	99 1f       	adc	r25, r25
    5110:	aa 1f       	adc	r26, r26
    5112:	a2 17       	cp	r26, r18
    5114:	10 f0       	brcs	.+4      	; 0x511a <__ultoa_common+0x26>
    5116:	a2 1b       	sub	r26, r18
    5118:	63 95       	inc	r22
    511a:	38 50       	subi	r19, 0x08	; 8
    511c:	a9 f7       	brne	.-22     	; 0x5108 <__ultoa_common+0x14>
    511e:	a0 5d       	subi	r26, 0xD0	; 208
    5120:	aa 33       	cpi	r26, 0x3A	; 58
    5122:	08 f0       	brcs	.+2      	; 0x5126 <__ultoa_common+0x32>
    5124:	a9 5d       	subi	r26, 0xD9	; 217
    5126:	a1 93       	st	Z+, r26
    5128:	36 f7       	brtc	.-52     	; 0x50f6 <__ultoa_common+0x2>
    512a:	b1 11       	cpse	r27, r1
    512c:	b1 93       	st	Z+, r27
    512e:	10 82       	st	Z, r1
    5130:	ca 01       	movw	r24, r20
    5132:	0c 94 ba 2e 	jmp	0x5d74	; 0x5d74 <strrev>

00005136 <utoa>:
    5136:	45 32       	cpi	r20, 0x25	; 37
    5138:	51 05       	cpc	r21, r1
    513a:	20 f4       	brcc	.+8      	; 0x5144 <utoa+0xe>
    513c:	42 30       	cpi	r20, 0x02	; 2
    513e:	10 f0       	brcs	.+4      	; 0x5144 <utoa+0xe>
    5140:	0c 94 a6 28 	jmp	0x514c	; 0x514c <__utoa_ncheck>
    5144:	fb 01       	movw	r30, r22
    5146:	10 82       	st	Z, r1
    5148:	cb 01       	movw	r24, r22
    514a:	08 95       	ret

0000514c <__utoa_ncheck>:
    514c:	bb 27       	eor	r27, r27

0000514e <__utoa_common>:
    514e:	fb 01       	movw	r30, r22
    5150:	55 27       	eor	r21, r21
    5152:	aa 27       	eor	r26, r26
    5154:	88 0f       	add	r24, r24
    5156:	99 1f       	adc	r25, r25
    5158:	aa 1f       	adc	r26, r26
    515a:	a4 17       	cp	r26, r20
    515c:	10 f0       	brcs	.+4      	; 0x5162 <__utoa_common+0x14>
    515e:	a4 1b       	sub	r26, r20
    5160:	83 95       	inc	r24
    5162:	50 51       	subi	r21, 0x10	; 16
    5164:	b9 f7       	brne	.-18     	; 0x5154 <__utoa_common+0x6>
    5166:	a0 5d       	subi	r26, 0xD0	; 208
    5168:	aa 33       	cpi	r26, 0x3A	; 58
    516a:	08 f0       	brcs	.+2      	; 0x516e <__utoa_common+0x20>
    516c:	a9 5d       	subi	r26, 0xD9	; 217
    516e:	a1 93       	st	Z+, r26
    5170:	00 97       	sbiw	r24, 0x00	; 0
    5172:	79 f7       	brne	.-34     	; 0x5152 <__utoa_common+0x4>
    5174:	b1 11       	cpse	r27, r1
    5176:	b1 93       	st	Z+, r27
    5178:	11 92       	st	Z+, r1
    517a:	cb 01       	movw	r24, r22
    517c:	0c 94 ba 2e 	jmp	0x5d74	; 0x5d74 <strrev>

00005180 <printf>:
    5180:	cf 93       	push	r28
    5182:	df 93       	push	r29
    5184:	cd b7       	in	r28, 0x3d	; 61
    5186:	de b7       	in	r29, 0x3e	; 62
    5188:	ae 01       	movw	r20, r28
    518a:	4a 5f       	subi	r20, 0xFA	; 250
    518c:	5f 4f       	sbci	r21, 0xFF	; 255
    518e:	fa 01       	movw	r30, r20
    5190:	61 91       	ld	r22, Z+
    5192:	71 91       	ld	r23, Z+
    5194:	af 01       	movw	r20, r30
    5196:	80 91 02 05 	lds	r24, 0x0502	; 0x800502 <__iob+0x2>
    519a:	90 91 03 05 	lds	r25, 0x0503	; 0x800503 <__iob+0x3>
    519e:	0e 94 d4 28 	call	0x51a8	; 0x51a8 <vfprintf>
    51a2:	df 91       	pop	r29
    51a4:	cf 91       	pop	r28
    51a6:	08 95       	ret

000051a8 <vfprintf>:
    51a8:	2f 92       	push	r2
    51aa:	3f 92       	push	r3
    51ac:	4f 92       	push	r4
    51ae:	5f 92       	push	r5
    51b0:	6f 92       	push	r6
    51b2:	7f 92       	push	r7
    51b4:	8f 92       	push	r8
    51b6:	9f 92       	push	r9
    51b8:	af 92       	push	r10
    51ba:	bf 92       	push	r11
    51bc:	cf 92       	push	r12
    51be:	df 92       	push	r13
    51c0:	ef 92       	push	r14
    51c2:	ff 92       	push	r15
    51c4:	0f 93       	push	r16
    51c6:	1f 93       	push	r17
    51c8:	cf 93       	push	r28
    51ca:	df 93       	push	r29
    51cc:	cd b7       	in	r28, 0x3d	; 61
    51ce:	de b7       	in	r29, 0x3e	; 62
    51d0:	2b 97       	sbiw	r28, 0x0b	; 11
    51d2:	0f b6       	in	r0, 0x3f	; 63
    51d4:	f8 94       	cli
    51d6:	de bf       	out	0x3e, r29	; 62
    51d8:	0f be       	out	0x3f, r0	; 63
    51da:	cd bf       	out	0x3d, r28	; 61
    51dc:	6c 01       	movw	r12, r24
    51de:	7b 01       	movw	r14, r22
    51e0:	8a 01       	movw	r16, r20
    51e2:	fc 01       	movw	r30, r24
    51e4:	17 82       	std	Z+7, r1	; 0x07
    51e6:	16 82       	std	Z+6, r1	; 0x06
    51e8:	83 81       	ldd	r24, Z+3	; 0x03
    51ea:	81 ff       	sbrs	r24, 1
    51ec:	cc c1       	rjmp	.+920    	; 0x5586 <vfprintf+0x3de>
    51ee:	ce 01       	movw	r24, r28
    51f0:	01 96       	adiw	r24, 0x01	; 1
    51f2:	3c 01       	movw	r6, r24
    51f4:	f6 01       	movw	r30, r12
    51f6:	93 81       	ldd	r25, Z+3	; 0x03
    51f8:	f7 01       	movw	r30, r14
    51fa:	93 fd       	sbrc	r25, 3
    51fc:	85 91       	lpm	r24, Z+
    51fe:	93 ff       	sbrs	r25, 3
    5200:	81 91       	ld	r24, Z+
    5202:	7f 01       	movw	r14, r30
    5204:	88 23       	and	r24, r24
    5206:	09 f4       	brne	.+2      	; 0x520a <vfprintf+0x62>
    5208:	ba c1       	rjmp	.+884    	; 0x557e <vfprintf+0x3d6>
    520a:	85 32       	cpi	r24, 0x25	; 37
    520c:	39 f4       	brne	.+14     	; 0x521c <vfprintf+0x74>
    520e:	93 fd       	sbrc	r25, 3
    5210:	85 91       	lpm	r24, Z+
    5212:	93 ff       	sbrs	r25, 3
    5214:	81 91       	ld	r24, Z+
    5216:	7f 01       	movw	r14, r30
    5218:	85 32       	cpi	r24, 0x25	; 37
    521a:	29 f4       	brne	.+10     	; 0x5226 <vfprintf+0x7e>
    521c:	b6 01       	movw	r22, r12
    521e:	90 e0       	ldi	r25, 0x00	; 0
    5220:	0e 94 ca 2e 	call	0x5d94	; 0x5d94 <fputc>
    5224:	e7 cf       	rjmp	.-50     	; 0x51f4 <vfprintf+0x4c>
    5226:	91 2c       	mov	r9, r1
    5228:	21 2c       	mov	r2, r1
    522a:	31 2c       	mov	r3, r1
    522c:	ff e1       	ldi	r31, 0x1F	; 31
    522e:	f3 15       	cp	r31, r3
    5230:	d8 f0       	brcs	.+54     	; 0x5268 <vfprintf+0xc0>
    5232:	8b 32       	cpi	r24, 0x2B	; 43
    5234:	79 f0       	breq	.+30     	; 0x5254 <vfprintf+0xac>
    5236:	38 f4       	brcc	.+14     	; 0x5246 <vfprintf+0x9e>
    5238:	80 32       	cpi	r24, 0x20	; 32
    523a:	79 f0       	breq	.+30     	; 0x525a <vfprintf+0xb2>
    523c:	83 32       	cpi	r24, 0x23	; 35
    523e:	a1 f4       	brne	.+40     	; 0x5268 <vfprintf+0xc0>
    5240:	23 2d       	mov	r18, r3
    5242:	20 61       	ori	r18, 0x10	; 16
    5244:	1d c0       	rjmp	.+58     	; 0x5280 <vfprintf+0xd8>
    5246:	8d 32       	cpi	r24, 0x2D	; 45
    5248:	61 f0       	breq	.+24     	; 0x5262 <vfprintf+0xba>
    524a:	80 33       	cpi	r24, 0x30	; 48
    524c:	69 f4       	brne	.+26     	; 0x5268 <vfprintf+0xc0>
    524e:	23 2d       	mov	r18, r3
    5250:	21 60       	ori	r18, 0x01	; 1
    5252:	16 c0       	rjmp	.+44     	; 0x5280 <vfprintf+0xd8>
    5254:	83 2d       	mov	r24, r3
    5256:	82 60       	ori	r24, 0x02	; 2
    5258:	38 2e       	mov	r3, r24
    525a:	e3 2d       	mov	r30, r3
    525c:	e4 60       	ori	r30, 0x04	; 4
    525e:	3e 2e       	mov	r3, r30
    5260:	2a c0       	rjmp	.+84     	; 0x52b6 <vfprintf+0x10e>
    5262:	f3 2d       	mov	r31, r3
    5264:	f8 60       	ori	r31, 0x08	; 8
    5266:	1d c0       	rjmp	.+58     	; 0x52a2 <vfprintf+0xfa>
    5268:	37 fc       	sbrc	r3, 7
    526a:	2d c0       	rjmp	.+90     	; 0x52c6 <vfprintf+0x11e>
    526c:	20 ed       	ldi	r18, 0xD0	; 208
    526e:	28 0f       	add	r18, r24
    5270:	2a 30       	cpi	r18, 0x0A	; 10
    5272:	40 f0       	brcs	.+16     	; 0x5284 <vfprintf+0xdc>
    5274:	8e 32       	cpi	r24, 0x2E	; 46
    5276:	b9 f4       	brne	.+46     	; 0x52a6 <vfprintf+0xfe>
    5278:	36 fc       	sbrc	r3, 6
    527a:	81 c1       	rjmp	.+770    	; 0x557e <vfprintf+0x3d6>
    527c:	23 2d       	mov	r18, r3
    527e:	20 64       	ori	r18, 0x40	; 64
    5280:	32 2e       	mov	r3, r18
    5282:	19 c0       	rjmp	.+50     	; 0x52b6 <vfprintf+0x10e>
    5284:	36 fe       	sbrs	r3, 6
    5286:	06 c0       	rjmp	.+12     	; 0x5294 <vfprintf+0xec>
    5288:	8a e0       	ldi	r24, 0x0A	; 10
    528a:	98 9e       	mul	r9, r24
    528c:	20 0d       	add	r18, r0
    528e:	11 24       	eor	r1, r1
    5290:	92 2e       	mov	r9, r18
    5292:	11 c0       	rjmp	.+34     	; 0x52b6 <vfprintf+0x10e>
    5294:	ea e0       	ldi	r30, 0x0A	; 10
    5296:	2e 9e       	mul	r2, r30
    5298:	20 0d       	add	r18, r0
    529a:	11 24       	eor	r1, r1
    529c:	22 2e       	mov	r2, r18
    529e:	f3 2d       	mov	r31, r3
    52a0:	f0 62       	ori	r31, 0x20	; 32
    52a2:	3f 2e       	mov	r3, r31
    52a4:	08 c0       	rjmp	.+16     	; 0x52b6 <vfprintf+0x10e>
    52a6:	8c 36       	cpi	r24, 0x6C	; 108
    52a8:	21 f4       	brne	.+8      	; 0x52b2 <vfprintf+0x10a>
    52aa:	83 2d       	mov	r24, r3
    52ac:	80 68       	ori	r24, 0x80	; 128
    52ae:	38 2e       	mov	r3, r24
    52b0:	02 c0       	rjmp	.+4      	; 0x52b6 <vfprintf+0x10e>
    52b2:	88 36       	cpi	r24, 0x68	; 104
    52b4:	41 f4       	brne	.+16     	; 0x52c6 <vfprintf+0x11e>
    52b6:	f7 01       	movw	r30, r14
    52b8:	93 fd       	sbrc	r25, 3
    52ba:	85 91       	lpm	r24, Z+
    52bc:	93 ff       	sbrs	r25, 3
    52be:	81 91       	ld	r24, Z+
    52c0:	7f 01       	movw	r14, r30
    52c2:	81 11       	cpse	r24, r1
    52c4:	b3 cf       	rjmp	.-154    	; 0x522c <vfprintf+0x84>
    52c6:	98 2f       	mov	r25, r24
    52c8:	9f 7d       	andi	r25, 0xDF	; 223
    52ca:	95 54       	subi	r25, 0x45	; 69
    52cc:	93 30       	cpi	r25, 0x03	; 3
    52ce:	28 f4       	brcc	.+10     	; 0x52da <vfprintf+0x132>
    52d0:	0c 5f       	subi	r16, 0xFC	; 252
    52d2:	1f 4f       	sbci	r17, 0xFF	; 255
    52d4:	9f e3       	ldi	r25, 0x3F	; 63
    52d6:	99 83       	std	Y+1, r25	; 0x01
    52d8:	0d c0       	rjmp	.+26     	; 0x52f4 <vfprintf+0x14c>
    52da:	83 36       	cpi	r24, 0x63	; 99
    52dc:	31 f0       	breq	.+12     	; 0x52ea <vfprintf+0x142>
    52de:	83 37       	cpi	r24, 0x73	; 115
    52e0:	71 f0       	breq	.+28     	; 0x52fe <vfprintf+0x156>
    52e2:	83 35       	cpi	r24, 0x53	; 83
    52e4:	09 f0       	breq	.+2      	; 0x52e8 <vfprintf+0x140>
    52e6:	59 c0       	rjmp	.+178    	; 0x539a <vfprintf+0x1f2>
    52e8:	21 c0       	rjmp	.+66     	; 0x532c <vfprintf+0x184>
    52ea:	f8 01       	movw	r30, r16
    52ec:	80 81       	ld	r24, Z
    52ee:	89 83       	std	Y+1, r24	; 0x01
    52f0:	0e 5f       	subi	r16, 0xFE	; 254
    52f2:	1f 4f       	sbci	r17, 0xFF	; 255
    52f4:	88 24       	eor	r8, r8
    52f6:	83 94       	inc	r8
    52f8:	91 2c       	mov	r9, r1
    52fa:	53 01       	movw	r10, r6
    52fc:	13 c0       	rjmp	.+38     	; 0x5324 <vfprintf+0x17c>
    52fe:	28 01       	movw	r4, r16
    5300:	f2 e0       	ldi	r31, 0x02	; 2
    5302:	4f 0e       	add	r4, r31
    5304:	51 1c       	adc	r5, r1
    5306:	f8 01       	movw	r30, r16
    5308:	a0 80       	ld	r10, Z
    530a:	b1 80       	ldd	r11, Z+1	; 0x01
    530c:	36 fe       	sbrs	r3, 6
    530e:	03 c0       	rjmp	.+6      	; 0x5316 <vfprintf+0x16e>
    5310:	69 2d       	mov	r22, r9
    5312:	70 e0       	ldi	r23, 0x00	; 0
    5314:	02 c0       	rjmp	.+4      	; 0x531a <vfprintf+0x172>
    5316:	6f ef       	ldi	r22, 0xFF	; 255
    5318:	7f ef       	ldi	r23, 0xFF	; 255
    531a:	c5 01       	movw	r24, r10
    531c:	0e 94 af 2e 	call	0x5d5e	; 0x5d5e <strnlen>
    5320:	4c 01       	movw	r8, r24
    5322:	82 01       	movw	r16, r4
    5324:	f3 2d       	mov	r31, r3
    5326:	ff 77       	andi	r31, 0x7F	; 127
    5328:	3f 2e       	mov	r3, r31
    532a:	16 c0       	rjmp	.+44     	; 0x5358 <vfprintf+0x1b0>
    532c:	28 01       	movw	r4, r16
    532e:	22 e0       	ldi	r18, 0x02	; 2
    5330:	42 0e       	add	r4, r18
    5332:	51 1c       	adc	r5, r1
    5334:	f8 01       	movw	r30, r16
    5336:	a0 80       	ld	r10, Z
    5338:	b1 80       	ldd	r11, Z+1	; 0x01
    533a:	36 fe       	sbrs	r3, 6
    533c:	03 c0       	rjmp	.+6      	; 0x5344 <vfprintf+0x19c>
    533e:	69 2d       	mov	r22, r9
    5340:	70 e0       	ldi	r23, 0x00	; 0
    5342:	02 c0       	rjmp	.+4      	; 0x5348 <vfprintf+0x1a0>
    5344:	6f ef       	ldi	r22, 0xFF	; 255
    5346:	7f ef       	ldi	r23, 0xFF	; 255
    5348:	c5 01       	movw	r24, r10
    534a:	0e 94 a4 2e 	call	0x5d48	; 0x5d48 <strnlen_P>
    534e:	4c 01       	movw	r8, r24
    5350:	f3 2d       	mov	r31, r3
    5352:	f0 68       	ori	r31, 0x80	; 128
    5354:	3f 2e       	mov	r3, r31
    5356:	82 01       	movw	r16, r4
    5358:	33 fc       	sbrc	r3, 3
    535a:	1b c0       	rjmp	.+54     	; 0x5392 <vfprintf+0x1ea>
    535c:	82 2d       	mov	r24, r2
    535e:	90 e0       	ldi	r25, 0x00	; 0
    5360:	88 16       	cp	r8, r24
    5362:	99 06       	cpc	r9, r25
    5364:	b0 f4       	brcc	.+44     	; 0x5392 <vfprintf+0x1ea>
    5366:	b6 01       	movw	r22, r12
    5368:	80 e2       	ldi	r24, 0x20	; 32
    536a:	90 e0       	ldi	r25, 0x00	; 0
    536c:	0e 94 ca 2e 	call	0x5d94	; 0x5d94 <fputc>
    5370:	2a 94       	dec	r2
    5372:	f4 cf       	rjmp	.-24     	; 0x535c <vfprintf+0x1b4>
    5374:	f5 01       	movw	r30, r10
    5376:	37 fc       	sbrc	r3, 7
    5378:	85 91       	lpm	r24, Z+
    537a:	37 fe       	sbrs	r3, 7
    537c:	81 91       	ld	r24, Z+
    537e:	5f 01       	movw	r10, r30
    5380:	b6 01       	movw	r22, r12
    5382:	90 e0       	ldi	r25, 0x00	; 0
    5384:	0e 94 ca 2e 	call	0x5d94	; 0x5d94 <fputc>
    5388:	21 10       	cpse	r2, r1
    538a:	2a 94       	dec	r2
    538c:	21 e0       	ldi	r18, 0x01	; 1
    538e:	82 1a       	sub	r8, r18
    5390:	91 08       	sbc	r9, r1
    5392:	81 14       	cp	r8, r1
    5394:	91 04       	cpc	r9, r1
    5396:	71 f7       	brne	.-36     	; 0x5374 <vfprintf+0x1cc>
    5398:	e8 c0       	rjmp	.+464    	; 0x556a <vfprintf+0x3c2>
    539a:	84 36       	cpi	r24, 0x64	; 100
    539c:	11 f0       	breq	.+4      	; 0x53a2 <vfprintf+0x1fa>
    539e:	89 36       	cpi	r24, 0x69	; 105
    53a0:	41 f5       	brne	.+80     	; 0x53f2 <vfprintf+0x24a>
    53a2:	f8 01       	movw	r30, r16
    53a4:	37 fe       	sbrs	r3, 7
    53a6:	07 c0       	rjmp	.+14     	; 0x53b6 <vfprintf+0x20e>
    53a8:	60 81       	ld	r22, Z
    53aa:	71 81       	ldd	r23, Z+1	; 0x01
    53ac:	82 81       	ldd	r24, Z+2	; 0x02
    53ae:	93 81       	ldd	r25, Z+3	; 0x03
    53b0:	0c 5f       	subi	r16, 0xFC	; 252
    53b2:	1f 4f       	sbci	r17, 0xFF	; 255
    53b4:	08 c0       	rjmp	.+16     	; 0x53c6 <vfprintf+0x21e>
    53b6:	60 81       	ld	r22, Z
    53b8:	71 81       	ldd	r23, Z+1	; 0x01
    53ba:	07 2e       	mov	r0, r23
    53bc:	00 0c       	add	r0, r0
    53be:	88 0b       	sbc	r24, r24
    53c0:	99 0b       	sbc	r25, r25
    53c2:	0e 5f       	subi	r16, 0xFE	; 254
    53c4:	1f 4f       	sbci	r17, 0xFF	; 255
    53c6:	f3 2d       	mov	r31, r3
    53c8:	ff 76       	andi	r31, 0x6F	; 111
    53ca:	3f 2e       	mov	r3, r31
    53cc:	97 ff       	sbrs	r25, 7
    53ce:	09 c0       	rjmp	.+18     	; 0x53e2 <vfprintf+0x23a>
    53d0:	90 95       	com	r25
    53d2:	80 95       	com	r24
    53d4:	70 95       	com	r23
    53d6:	61 95       	neg	r22
    53d8:	7f 4f       	sbci	r23, 0xFF	; 255
    53da:	8f 4f       	sbci	r24, 0xFF	; 255
    53dc:	9f 4f       	sbci	r25, 0xFF	; 255
    53de:	f0 68       	ori	r31, 0x80	; 128
    53e0:	3f 2e       	mov	r3, r31
    53e2:	2a e0       	ldi	r18, 0x0A	; 10
    53e4:	30 e0       	ldi	r19, 0x00	; 0
    53e6:	a3 01       	movw	r20, r6
    53e8:	0e 94 06 2f 	call	0x5e0c	; 0x5e0c <__ultoa_invert>
    53ec:	88 2e       	mov	r8, r24
    53ee:	86 18       	sub	r8, r6
    53f0:	45 c0       	rjmp	.+138    	; 0x547c <vfprintf+0x2d4>
    53f2:	85 37       	cpi	r24, 0x75	; 117
    53f4:	31 f4       	brne	.+12     	; 0x5402 <vfprintf+0x25a>
    53f6:	23 2d       	mov	r18, r3
    53f8:	2f 7e       	andi	r18, 0xEF	; 239
    53fa:	b2 2e       	mov	r11, r18
    53fc:	2a e0       	ldi	r18, 0x0A	; 10
    53fe:	30 e0       	ldi	r19, 0x00	; 0
    5400:	25 c0       	rjmp	.+74     	; 0x544c <vfprintf+0x2a4>
    5402:	93 2d       	mov	r25, r3
    5404:	99 7f       	andi	r25, 0xF9	; 249
    5406:	b9 2e       	mov	r11, r25
    5408:	8f 36       	cpi	r24, 0x6F	; 111
    540a:	c1 f0       	breq	.+48     	; 0x543c <vfprintf+0x294>
    540c:	18 f4       	brcc	.+6      	; 0x5414 <vfprintf+0x26c>
    540e:	88 35       	cpi	r24, 0x58	; 88
    5410:	79 f0       	breq	.+30     	; 0x5430 <vfprintf+0x288>
    5412:	b5 c0       	rjmp	.+362    	; 0x557e <vfprintf+0x3d6>
    5414:	80 37       	cpi	r24, 0x70	; 112
    5416:	19 f0       	breq	.+6      	; 0x541e <vfprintf+0x276>
    5418:	88 37       	cpi	r24, 0x78	; 120
    541a:	21 f0       	breq	.+8      	; 0x5424 <vfprintf+0x27c>
    541c:	b0 c0       	rjmp	.+352    	; 0x557e <vfprintf+0x3d6>
    541e:	e9 2f       	mov	r30, r25
    5420:	e0 61       	ori	r30, 0x10	; 16
    5422:	be 2e       	mov	r11, r30
    5424:	b4 fe       	sbrs	r11, 4
    5426:	0d c0       	rjmp	.+26     	; 0x5442 <vfprintf+0x29a>
    5428:	fb 2d       	mov	r31, r11
    542a:	f4 60       	ori	r31, 0x04	; 4
    542c:	bf 2e       	mov	r11, r31
    542e:	09 c0       	rjmp	.+18     	; 0x5442 <vfprintf+0x29a>
    5430:	34 fe       	sbrs	r3, 4
    5432:	0a c0       	rjmp	.+20     	; 0x5448 <vfprintf+0x2a0>
    5434:	29 2f       	mov	r18, r25
    5436:	26 60       	ori	r18, 0x06	; 6
    5438:	b2 2e       	mov	r11, r18
    543a:	06 c0       	rjmp	.+12     	; 0x5448 <vfprintf+0x2a0>
    543c:	28 e0       	ldi	r18, 0x08	; 8
    543e:	30 e0       	ldi	r19, 0x00	; 0
    5440:	05 c0       	rjmp	.+10     	; 0x544c <vfprintf+0x2a4>
    5442:	20 e1       	ldi	r18, 0x10	; 16
    5444:	30 e0       	ldi	r19, 0x00	; 0
    5446:	02 c0       	rjmp	.+4      	; 0x544c <vfprintf+0x2a4>
    5448:	20 e1       	ldi	r18, 0x10	; 16
    544a:	32 e0       	ldi	r19, 0x02	; 2
    544c:	f8 01       	movw	r30, r16
    544e:	b7 fe       	sbrs	r11, 7
    5450:	07 c0       	rjmp	.+14     	; 0x5460 <vfprintf+0x2b8>
    5452:	60 81       	ld	r22, Z
    5454:	71 81       	ldd	r23, Z+1	; 0x01
    5456:	82 81       	ldd	r24, Z+2	; 0x02
    5458:	93 81       	ldd	r25, Z+3	; 0x03
    545a:	0c 5f       	subi	r16, 0xFC	; 252
    545c:	1f 4f       	sbci	r17, 0xFF	; 255
    545e:	06 c0       	rjmp	.+12     	; 0x546c <vfprintf+0x2c4>
    5460:	60 81       	ld	r22, Z
    5462:	71 81       	ldd	r23, Z+1	; 0x01
    5464:	80 e0       	ldi	r24, 0x00	; 0
    5466:	90 e0       	ldi	r25, 0x00	; 0
    5468:	0e 5f       	subi	r16, 0xFE	; 254
    546a:	1f 4f       	sbci	r17, 0xFF	; 255
    546c:	a3 01       	movw	r20, r6
    546e:	0e 94 06 2f 	call	0x5e0c	; 0x5e0c <__ultoa_invert>
    5472:	88 2e       	mov	r8, r24
    5474:	86 18       	sub	r8, r6
    5476:	fb 2d       	mov	r31, r11
    5478:	ff 77       	andi	r31, 0x7F	; 127
    547a:	3f 2e       	mov	r3, r31
    547c:	36 fe       	sbrs	r3, 6
    547e:	0d c0       	rjmp	.+26     	; 0x549a <vfprintf+0x2f2>
    5480:	23 2d       	mov	r18, r3
    5482:	2e 7f       	andi	r18, 0xFE	; 254
    5484:	a2 2e       	mov	r10, r18
    5486:	89 14       	cp	r8, r9
    5488:	58 f4       	brcc	.+22     	; 0x54a0 <vfprintf+0x2f8>
    548a:	34 fe       	sbrs	r3, 4
    548c:	0b c0       	rjmp	.+22     	; 0x54a4 <vfprintf+0x2fc>
    548e:	32 fc       	sbrc	r3, 2
    5490:	09 c0       	rjmp	.+18     	; 0x54a4 <vfprintf+0x2fc>
    5492:	83 2d       	mov	r24, r3
    5494:	8e 7e       	andi	r24, 0xEE	; 238
    5496:	a8 2e       	mov	r10, r24
    5498:	05 c0       	rjmp	.+10     	; 0x54a4 <vfprintf+0x2fc>
    549a:	b8 2c       	mov	r11, r8
    549c:	a3 2c       	mov	r10, r3
    549e:	03 c0       	rjmp	.+6      	; 0x54a6 <vfprintf+0x2fe>
    54a0:	b8 2c       	mov	r11, r8
    54a2:	01 c0       	rjmp	.+2      	; 0x54a6 <vfprintf+0x2fe>
    54a4:	b9 2c       	mov	r11, r9
    54a6:	a4 fe       	sbrs	r10, 4
    54a8:	0f c0       	rjmp	.+30     	; 0x54c8 <vfprintf+0x320>
    54aa:	fe 01       	movw	r30, r28
    54ac:	e8 0d       	add	r30, r8
    54ae:	f1 1d       	adc	r31, r1
    54b0:	80 81       	ld	r24, Z
    54b2:	80 33       	cpi	r24, 0x30	; 48
    54b4:	21 f4       	brne	.+8      	; 0x54be <vfprintf+0x316>
    54b6:	9a 2d       	mov	r25, r10
    54b8:	99 7e       	andi	r25, 0xE9	; 233
    54ba:	a9 2e       	mov	r10, r25
    54bc:	09 c0       	rjmp	.+18     	; 0x54d0 <vfprintf+0x328>
    54be:	a2 fe       	sbrs	r10, 2
    54c0:	06 c0       	rjmp	.+12     	; 0x54ce <vfprintf+0x326>
    54c2:	b3 94       	inc	r11
    54c4:	b3 94       	inc	r11
    54c6:	04 c0       	rjmp	.+8      	; 0x54d0 <vfprintf+0x328>
    54c8:	8a 2d       	mov	r24, r10
    54ca:	86 78       	andi	r24, 0x86	; 134
    54cc:	09 f0       	breq	.+2      	; 0x54d0 <vfprintf+0x328>
    54ce:	b3 94       	inc	r11
    54d0:	a3 fc       	sbrc	r10, 3
    54d2:	11 c0       	rjmp	.+34     	; 0x54f6 <vfprintf+0x34e>
    54d4:	a0 fe       	sbrs	r10, 0
    54d6:	06 c0       	rjmp	.+12     	; 0x54e4 <vfprintf+0x33c>
    54d8:	b2 14       	cp	r11, r2
    54da:	88 f4       	brcc	.+34     	; 0x54fe <vfprintf+0x356>
    54dc:	28 0c       	add	r2, r8
    54de:	92 2c       	mov	r9, r2
    54e0:	9b 18       	sub	r9, r11
    54e2:	0e c0       	rjmp	.+28     	; 0x5500 <vfprintf+0x358>
    54e4:	b2 14       	cp	r11, r2
    54e6:	60 f4       	brcc	.+24     	; 0x5500 <vfprintf+0x358>
    54e8:	b6 01       	movw	r22, r12
    54ea:	80 e2       	ldi	r24, 0x20	; 32
    54ec:	90 e0       	ldi	r25, 0x00	; 0
    54ee:	0e 94 ca 2e 	call	0x5d94	; 0x5d94 <fputc>
    54f2:	b3 94       	inc	r11
    54f4:	f7 cf       	rjmp	.-18     	; 0x54e4 <vfprintf+0x33c>
    54f6:	b2 14       	cp	r11, r2
    54f8:	18 f4       	brcc	.+6      	; 0x5500 <vfprintf+0x358>
    54fa:	2b 18       	sub	r2, r11
    54fc:	02 c0       	rjmp	.+4      	; 0x5502 <vfprintf+0x35a>
    54fe:	98 2c       	mov	r9, r8
    5500:	21 2c       	mov	r2, r1
    5502:	a4 fe       	sbrs	r10, 4
    5504:	10 c0       	rjmp	.+32     	; 0x5526 <vfprintf+0x37e>
    5506:	b6 01       	movw	r22, r12
    5508:	80 e3       	ldi	r24, 0x30	; 48
    550a:	90 e0       	ldi	r25, 0x00	; 0
    550c:	0e 94 ca 2e 	call	0x5d94	; 0x5d94 <fputc>
    5510:	a2 fe       	sbrs	r10, 2
    5512:	17 c0       	rjmp	.+46     	; 0x5542 <vfprintf+0x39a>
    5514:	a1 fc       	sbrc	r10, 1
    5516:	03 c0       	rjmp	.+6      	; 0x551e <vfprintf+0x376>
    5518:	88 e7       	ldi	r24, 0x78	; 120
    551a:	90 e0       	ldi	r25, 0x00	; 0
    551c:	02 c0       	rjmp	.+4      	; 0x5522 <vfprintf+0x37a>
    551e:	88 e5       	ldi	r24, 0x58	; 88
    5520:	90 e0       	ldi	r25, 0x00	; 0
    5522:	b6 01       	movw	r22, r12
    5524:	0c c0       	rjmp	.+24     	; 0x553e <vfprintf+0x396>
    5526:	8a 2d       	mov	r24, r10
    5528:	86 78       	andi	r24, 0x86	; 134
    552a:	59 f0       	breq	.+22     	; 0x5542 <vfprintf+0x39a>
    552c:	a1 fe       	sbrs	r10, 1
    552e:	02 c0       	rjmp	.+4      	; 0x5534 <vfprintf+0x38c>
    5530:	8b e2       	ldi	r24, 0x2B	; 43
    5532:	01 c0       	rjmp	.+2      	; 0x5536 <vfprintf+0x38e>
    5534:	80 e2       	ldi	r24, 0x20	; 32
    5536:	a7 fc       	sbrc	r10, 7
    5538:	8d e2       	ldi	r24, 0x2D	; 45
    553a:	b6 01       	movw	r22, r12
    553c:	90 e0       	ldi	r25, 0x00	; 0
    553e:	0e 94 ca 2e 	call	0x5d94	; 0x5d94 <fputc>
    5542:	89 14       	cp	r8, r9
    5544:	38 f4       	brcc	.+14     	; 0x5554 <vfprintf+0x3ac>
    5546:	b6 01       	movw	r22, r12
    5548:	80 e3       	ldi	r24, 0x30	; 48
    554a:	90 e0       	ldi	r25, 0x00	; 0
    554c:	0e 94 ca 2e 	call	0x5d94	; 0x5d94 <fputc>
    5550:	9a 94       	dec	r9
    5552:	f7 cf       	rjmp	.-18     	; 0x5542 <vfprintf+0x39a>
    5554:	8a 94       	dec	r8
    5556:	f3 01       	movw	r30, r6
    5558:	e8 0d       	add	r30, r8
    555a:	f1 1d       	adc	r31, r1
    555c:	80 81       	ld	r24, Z
    555e:	b6 01       	movw	r22, r12
    5560:	90 e0       	ldi	r25, 0x00	; 0
    5562:	0e 94 ca 2e 	call	0x5d94	; 0x5d94 <fputc>
    5566:	81 10       	cpse	r8, r1
    5568:	f5 cf       	rjmp	.-22     	; 0x5554 <vfprintf+0x3ac>
    556a:	22 20       	and	r2, r2
    556c:	09 f4       	brne	.+2      	; 0x5570 <vfprintf+0x3c8>
    556e:	42 ce       	rjmp	.-892    	; 0x51f4 <vfprintf+0x4c>
    5570:	b6 01       	movw	r22, r12
    5572:	80 e2       	ldi	r24, 0x20	; 32
    5574:	90 e0       	ldi	r25, 0x00	; 0
    5576:	0e 94 ca 2e 	call	0x5d94	; 0x5d94 <fputc>
    557a:	2a 94       	dec	r2
    557c:	f6 cf       	rjmp	.-20     	; 0x556a <vfprintf+0x3c2>
    557e:	f6 01       	movw	r30, r12
    5580:	86 81       	ldd	r24, Z+6	; 0x06
    5582:	97 81       	ldd	r25, Z+7	; 0x07
    5584:	02 c0       	rjmp	.+4      	; 0x558a <vfprintf+0x3e2>
    5586:	8f ef       	ldi	r24, 0xFF	; 255
    5588:	9f ef       	ldi	r25, 0xFF	; 255
    558a:	2b 96       	adiw	r28, 0x0b	; 11
    558c:	0f b6       	in	r0, 0x3f	; 63
    558e:	f8 94       	cli
    5590:	de bf       	out	0x3e, r29	; 62
    5592:	0f be       	out	0x3f, r0	; 63
    5594:	cd bf       	out	0x3d, r28	; 61
    5596:	df 91       	pop	r29
    5598:	cf 91       	pop	r28
    559a:	1f 91       	pop	r17
    559c:	0f 91       	pop	r16
    559e:	ff 90       	pop	r15
    55a0:	ef 90       	pop	r14
    55a2:	df 90       	pop	r13
    55a4:	cf 90       	pop	r12
    55a6:	bf 90       	pop	r11
    55a8:	af 90       	pop	r10
    55aa:	9f 90       	pop	r9
    55ac:	8f 90       	pop	r8
    55ae:	7f 90       	pop	r7
    55b0:	6f 90       	pop	r6
    55b2:	5f 90       	pop	r5
    55b4:	4f 90       	pop	r4
    55b6:	3f 90       	pop	r3
    55b8:	2f 90       	pop	r2
    55ba:	08 95       	ret

000055bc <dtoa_prf>:
    55bc:	8f 92       	push	r8
    55be:	9f 92       	push	r9
    55c0:	af 92       	push	r10
    55c2:	bf 92       	push	r11
    55c4:	cf 92       	push	r12
    55c6:	df 92       	push	r13
    55c8:	ef 92       	push	r14
    55ca:	ff 92       	push	r15
    55cc:	0f 93       	push	r16
    55ce:	1f 93       	push	r17
    55d0:	cf 93       	push	r28
    55d2:	df 93       	push	r29
    55d4:	cd b7       	in	r28, 0x3d	; 61
    55d6:	de b7       	in	r29, 0x3e	; 62
    55d8:	29 97       	sbiw	r28, 0x09	; 9
    55da:	0f b6       	in	r0, 0x3f	; 63
    55dc:	f8 94       	cli
    55de:	de bf       	out	0x3e, r29	; 62
    55e0:	0f be       	out	0x3f, r0	; 63
    55e2:	cd bf       	out	0x3d, r28	; 61
    55e4:	6a 01       	movw	r12, r20
    55e6:	12 2f       	mov	r17, r18
    55e8:	b0 2e       	mov	r11, r16
    55ea:	2b e3       	ldi	r18, 0x3B	; 59
    55ec:	20 17       	cp	r18, r16
    55ee:	20 f0       	brcs	.+8      	; 0x55f8 <dtoa_prf+0x3c>
    55f0:	ff 24       	eor	r15, r15
    55f2:	f3 94       	inc	r15
    55f4:	f0 0e       	add	r15, r16
    55f6:	02 c0       	rjmp	.+4      	; 0x55fc <dtoa_prf+0x40>
    55f8:	2c e3       	ldi	r18, 0x3C	; 60
    55fa:	f2 2e       	mov	r15, r18
    55fc:	0f 2d       	mov	r16, r15
    55fe:	27 e0       	ldi	r18, 0x07	; 7
    5600:	ae 01       	movw	r20, r28
    5602:	4f 5f       	subi	r20, 0xFF	; 255
    5604:	5f 4f       	sbci	r21, 0xFF	; 255
    5606:	0e 94 b1 2d 	call	0x5b62	; 0x5b62 <__ftoa_engine>
    560a:	bc 01       	movw	r22, r24
    560c:	49 81       	ldd	r20, Y+1	; 0x01
    560e:	84 2f       	mov	r24, r20
    5610:	89 70       	andi	r24, 0x09	; 9
    5612:	81 30       	cpi	r24, 0x01	; 1
    5614:	31 f0       	breq	.+12     	; 0x5622 <dtoa_prf+0x66>
    5616:	e1 fc       	sbrc	r14, 1
    5618:	06 c0       	rjmp	.+12     	; 0x5626 <dtoa_prf+0x6a>
    561a:	e0 fe       	sbrs	r14, 0
    561c:	06 c0       	rjmp	.+12     	; 0x562a <dtoa_prf+0x6e>
    561e:	90 e2       	ldi	r25, 0x20	; 32
    5620:	05 c0       	rjmp	.+10     	; 0x562c <dtoa_prf+0x70>
    5622:	9d e2       	ldi	r25, 0x2D	; 45
    5624:	03 c0       	rjmp	.+6      	; 0x562c <dtoa_prf+0x70>
    5626:	9b e2       	ldi	r25, 0x2B	; 43
    5628:	01 c0       	rjmp	.+2      	; 0x562c <dtoa_prf+0x70>
    562a:	90 e0       	ldi	r25, 0x00	; 0
    562c:	5e 2d       	mov	r21, r14
    562e:	50 71       	andi	r21, 0x10	; 16
    5630:	43 ff       	sbrs	r20, 3
    5632:	3c c0       	rjmp	.+120    	; 0x56ac <dtoa_prf+0xf0>
    5634:	91 11       	cpse	r25, r1
    5636:	02 c0       	rjmp	.+4      	; 0x563c <dtoa_prf+0x80>
    5638:	83 e0       	ldi	r24, 0x03	; 3
    563a:	01 c0       	rjmp	.+2      	; 0x563e <dtoa_prf+0x82>
    563c:	84 e0       	ldi	r24, 0x04	; 4
    563e:	81 17       	cp	r24, r17
    5640:	18 f4       	brcc	.+6      	; 0x5648 <dtoa_prf+0x8c>
    5642:	21 2f       	mov	r18, r17
    5644:	28 1b       	sub	r18, r24
    5646:	01 c0       	rjmp	.+2      	; 0x564a <dtoa_prf+0x8e>
    5648:	20 e0       	ldi	r18, 0x00	; 0
    564a:	51 11       	cpse	r21, r1
    564c:	0b c0       	rjmp	.+22     	; 0x5664 <dtoa_prf+0xa8>
    564e:	f6 01       	movw	r30, r12
    5650:	82 2f       	mov	r24, r18
    5652:	30 e2       	ldi	r19, 0x20	; 32
    5654:	88 23       	and	r24, r24
    5656:	19 f0       	breq	.+6      	; 0x565e <dtoa_prf+0xa2>
    5658:	31 93       	st	Z+, r19
    565a:	81 50       	subi	r24, 0x01	; 1
    565c:	fb cf       	rjmp	.-10     	; 0x5654 <dtoa_prf+0x98>
    565e:	c2 0e       	add	r12, r18
    5660:	d1 1c       	adc	r13, r1
    5662:	20 e0       	ldi	r18, 0x00	; 0
    5664:	99 23       	and	r25, r25
    5666:	29 f0       	breq	.+10     	; 0x5672 <dtoa_prf+0xb6>
    5668:	d6 01       	movw	r26, r12
    566a:	9c 93       	st	X, r25
    566c:	f6 01       	movw	r30, r12
    566e:	31 96       	adiw	r30, 0x01	; 1
    5670:	6f 01       	movw	r12, r30
    5672:	c6 01       	movw	r24, r12
    5674:	03 96       	adiw	r24, 0x03	; 3
    5676:	e2 fe       	sbrs	r14, 2
    5678:	0a c0       	rjmp	.+20     	; 0x568e <dtoa_prf+0xd2>
    567a:	3e e4       	ldi	r19, 0x4E	; 78
    567c:	d6 01       	movw	r26, r12
    567e:	3c 93       	st	X, r19
    5680:	41 e4       	ldi	r20, 0x41	; 65
    5682:	11 96       	adiw	r26, 0x01	; 1
    5684:	4c 93       	st	X, r20
    5686:	11 97       	sbiw	r26, 0x01	; 1
    5688:	12 96       	adiw	r26, 0x02	; 2
    568a:	3c 93       	st	X, r19
    568c:	06 c0       	rjmp	.+12     	; 0x569a <dtoa_prf+0xde>
    568e:	3e e6       	ldi	r19, 0x6E	; 110
    5690:	f6 01       	movw	r30, r12
    5692:	30 83       	st	Z, r19
    5694:	41 e6       	ldi	r20, 0x61	; 97
    5696:	41 83       	std	Z+1, r20	; 0x01
    5698:	32 83       	std	Z+2, r19	; 0x02
    569a:	fc 01       	movw	r30, r24
    569c:	32 2f       	mov	r19, r18
    569e:	40 e2       	ldi	r20, 0x20	; 32
    56a0:	33 23       	and	r19, r19
    56a2:	09 f4       	brne	.+2      	; 0x56a6 <dtoa_prf+0xea>
    56a4:	42 c0       	rjmp	.+132    	; 0x572a <dtoa_prf+0x16e>
    56a6:	41 93       	st	Z+, r20
    56a8:	31 50       	subi	r19, 0x01	; 1
    56aa:	fa cf       	rjmp	.-12     	; 0x56a0 <dtoa_prf+0xe4>
    56ac:	42 ff       	sbrs	r20, 2
    56ae:	44 c0       	rjmp	.+136    	; 0x5738 <dtoa_prf+0x17c>
    56b0:	91 11       	cpse	r25, r1
    56b2:	02 c0       	rjmp	.+4      	; 0x56b8 <dtoa_prf+0xfc>
    56b4:	83 e0       	ldi	r24, 0x03	; 3
    56b6:	01 c0       	rjmp	.+2      	; 0x56ba <dtoa_prf+0xfe>
    56b8:	84 e0       	ldi	r24, 0x04	; 4
    56ba:	81 17       	cp	r24, r17
    56bc:	18 f4       	brcc	.+6      	; 0x56c4 <dtoa_prf+0x108>
    56be:	21 2f       	mov	r18, r17
    56c0:	28 1b       	sub	r18, r24
    56c2:	01 c0       	rjmp	.+2      	; 0x56c6 <dtoa_prf+0x10a>
    56c4:	20 e0       	ldi	r18, 0x00	; 0
    56c6:	51 11       	cpse	r21, r1
    56c8:	0b c0       	rjmp	.+22     	; 0x56e0 <dtoa_prf+0x124>
    56ca:	f6 01       	movw	r30, r12
    56cc:	82 2f       	mov	r24, r18
    56ce:	30 e2       	ldi	r19, 0x20	; 32
    56d0:	88 23       	and	r24, r24
    56d2:	19 f0       	breq	.+6      	; 0x56da <dtoa_prf+0x11e>
    56d4:	31 93       	st	Z+, r19
    56d6:	81 50       	subi	r24, 0x01	; 1
    56d8:	fb cf       	rjmp	.-10     	; 0x56d0 <dtoa_prf+0x114>
    56da:	c2 0e       	add	r12, r18
    56dc:	d1 1c       	adc	r13, r1
    56de:	20 e0       	ldi	r18, 0x00	; 0
    56e0:	99 23       	and	r25, r25
    56e2:	29 f0       	breq	.+10     	; 0x56ee <dtoa_prf+0x132>
    56e4:	d6 01       	movw	r26, r12
    56e6:	9c 93       	st	X, r25
    56e8:	f6 01       	movw	r30, r12
    56ea:	31 96       	adiw	r30, 0x01	; 1
    56ec:	6f 01       	movw	r12, r30
    56ee:	c6 01       	movw	r24, r12
    56f0:	03 96       	adiw	r24, 0x03	; 3
    56f2:	e2 fe       	sbrs	r14, 2
    56f4:	0b c0       	rjmp	.+22     	; 0x570c <dtoa_prf+0x150>
    56f6:	39 e4       	ldi	r19, 0x49	; 73
    56f8:	d6 01       	movw	r26, r12
    56fa:	3c 93       	st	X, r19
    56fc:	3e e4       	ldi	r19, 0x4E	; 78
    56fe:	11 96       	adiw	r26, 0x01	; 1
    5700:	3c 93       	st	X, r19
    5702:	11 97       	sbiw	r26, 0x01	; 1
    5704:	36 e4       	ldi	r19, 0x46	; 70
    5706:	12 96       	adiw	r26, 0x02	; 2
    5708:	3c 93       	st	X, r19
    570a:	07 c0       	rjmp	.+14     	; 0x571a <dtoa_prf+0x15e>
    570c:	39 e6       	ldi	r19, 0x69	; 105
    570e:	f6 01       	movw	r30, r12
    5710:	30 83       	st	Z, r19
    5712:	3e e6       	ldi	r19, 0x6E	; 110
    5714:	31 83       	std	Z+1, r19	; 0x01
    5716:	36 e6       	ldi	r19, 0x66	; 102
    5718:	32 83       	std	Z+2, r19	; 0x02
    571a:	fc 01       	movw	r30, r24
    571c:	32 2f       	mov	r19, r18
    571e:	40 e2       	ldi	r20, 0x20	; 32
    5720:	33 23       	and	r19, r19
    5722:	19 f0       	breq	.+6      	; 0x572a <dtoa_prf+0x16e>
    5724:	41 93       	st	Z+, r20
    5726:	31 50       	subi	r19, 0x01	; 1
    5728:	fb cf       	rjmp	.-10     	; 0x5720 <dtoa_prf+0x164>
    572a:	fc 01       	movw	r30, r24
    572c:	e2 0f       	add	r30, r18
    572e:	f1 1d       	adc	r31, r1
    5730:	10 82       	st	Z, r1
    5732:	8e ef       	ldi	r24, 0xFE	; 254
    5734:	9f ef       	ldi	r25, 0xFF	; 255
    5736:	a6 c0       	rjmp	.+332    	; 0x5884 <dtoa_prf+0x2c8>
    5738:	21 e0       	ldi	r18, 0x01	; 1
    573a:	30 e0       	ldi	r19, 0x00	; 0
    573c:	91 11       	cpse	r25, r1
    573e:	02 c0       	rjmp	.+4      	; 0x5744 <dtoa_prf+0x188>
    5740:	20 e0       	ldi	r18, 0x00	; 0
    5742:	30 e0       	ldi	r19, 0x00	; 0
    5744:	16 16       	cp	r1, r22
    5746:	17 06       	cpc	r1, r23
    5748:	1c f4       	brge	.+6      	; 0x5750 <dtoa_prf+0x194>
    574a:	fb 01       	movw	r30, r22
    574c:	31 96       	adiw	r30, 0x01	; 1
    574e:	02 c0       	rjmp	.+4      	; 0x5754 <dtoa_prf+0x198>
    5750:	e1 e0       	ldi	r30, 0x01	; 1
    5752:	f0 e0       	ldi	r31, 0x00	; 0
    5754:	2e 0f       	add	r18, r30
    5756:	3f 1f       	adc	r19, r31
    5758:	bb 20       	and	r11, r11
    575a:	21 f0       	breq	.+8      	; 0x5764 <dtoa_prf+0x1a8>
    575c:	eb 2d       	mov	r30, r11
    575e:	f0 e0       	ldi	r31, 0x00	; 0
    5760:	31 96       	adiw	r30, 0x01	; 1
    5762:	02 c0       	rjmp	.+4      	; 0x5768 <dtoa_prf+0x1ac>
    5764:	e0 e0       	ldi	r30, 0x00	; 0
    5766:	f0 e0       	ldi	r31, 0x00	; 0
    5768:	2e 0f       	add	r18, r30
    576a:	3f 1f       	adc	r19, r31
    576c:	e1 2f       	mov	r30, r17
    576e:	f0 e0       	ldi	r31, 0x00	; 0
    5770:	2e 17       	cp	r18, r30
    5772:	3f 07       	cpc	r19, r31
    5774:	1c f4       	brge	.+6      	; 0x577c <dtoa_prf+0x1c0>
    5776:	12 1b       	sub	r17, r18
    5778:	21 2f       	mov	r18, r17
    577a:	01 c0       	rjmp	.+2      	; 0x577e <dtoa_prf+0x1c2>
    577c:	20 e0       	ldi	r18, 0x00	; 0
    577e:	8e 2d       	mov	r24, r14
    5780:	88 71       	andi	r24, 0x18	; 24
    5782:	59 f4       	brne	.+22     	; 0x579a <dtoa_prf+0x1de>
    5784:	f6 01       	movw	r30, r12
    5786:	82 2f       	mov	r24, r18
    5788:	30 e2       	ldi	r19, 0x20	; 32
    578a:	88 23       	and	r24, r24
    578c:	19 f0       	breq	.+6      	; 0x5794 <dtoa_prf+0x1d8>
    578e:	31 93       	st	Z+, r19
    5790:	81 50       	subi	r24, 0x01	; 1
    5792:	fb cf       	rjmp	.-10     	; 0x578a <dtoa_prf+0x1ce>
    5794:	c2 0e       	add	r12, r18
    5796:	d1 1c       	adc	r13, r1
    5798:	20 e0       	ldi	r18, 0x00	; 0
    579a:	99 23       	and	r25, r25
    579c:	29 f0       	breq	.+10     	; 0x57a8 <dtoa_prf+0x1ec>
    579e:	d6 01       	movw	r26, r12
    57a0:	9c 93       	st	X, r25
    57a2:	f6 01       	movw	r30, r12
    57a4:	31 96       	adiw	r30, 0x01	; 1
    57a6:	6f 01       	movw	r12, r30
    57a8:	51 11       	cpse	r21, r1
    57aa:	0b c0       	rjmp	.+22     	; 0x57c2 <dtoa_prf+0x206>
    57ac:	f6 01       	movw	r30, r12
    57ae:	82 2f       	mov	r24, r18
    57b0:	90 e3       	ldi	r25, 0x30	; 48
    57b2:	88 23       	and	r24, r24
    57b4:	19 f0       	breq	.+6      	; 0x57bc <dtoa_prf+0x200>
    57b6:	91 93       	st	Z+, r25
    57b8:	81 50       	subi	r24, 0x01	; 1
    57ba:	fb cf       	rjmp	.-10     	; 0x57b2 <dtoa_prf+0x1f6>
    57bc:	c2 0e       	add	r12, r18
    57be:	d1 1c       	adc	r13, r1
    57c0:	20 e0       	ldi	r18, 0x00	; 0
    57c2:	0f 2d       	mov	r16, r15
    57c4:	06 0f       	add	r16, r22
    57c6:	9a 81       	ldd	r25, Y+2	; 0x02
    57c8:	34 2f       	mov	r19, r20
    57ca:	30 71       	andi	r19, 0x10	; 16
    57cc:	44 ff       	sbrs	r20, 4
    57ce:	03 c0       	rjmp	.+6      	; 0x57d6 <dtoa_prf+0x21a>
    57d0:	91 33       	cpi	r25, 0x31	; 49
    57d2:	09 f4       	brne	.+2      	; 0x57d6 <dtoa_prf+0x21a>
    57d4:	01 50       	subi	r16, 0x01	; 1
    57d6:	10 16       	cp	r1, r16
    57d8:	24 f4       	brge	.+8      	; 0x57e2 <dtoa_prf+0x226>
    57da:	09 30       	cpi	r16, 0x09	; 9
    57dc:	18 f0       	brcs	.+6      	; 0x57e4 <dtoa_prf+0x228>
    57de:	08 e0       	ldi	r16, 0x08	; 8
    57e0:	01 c0       	rjmp	.+2      	; 0x57e4 <dtoa_prf+0x228>
    57e2:	01 e0       	ldi	r16, 0x01	; 1
    57e4:	ab 01       	movw	r20, r22
    57e6:	77 ff       	sbrs	r23, 7
    57e8:	02 c0       	rjmp	.+4      	; 0x57ee <dtoa_prf+0x232>
    57ea:	40 e0       	ldi	r20, 0x00	; 0
    57ec:	50 e0       	ldi	r21, 0x00	; 0
    57ee:	fb 01       	movw	r30, r22
    57f0:	e4 1b       	sub	r30, r20
    57f2:	f5 0b       	sbc	r31, r21
    57f4:	a1 e0       	ldi	r26, 0x01	; 1
    57f6:	b0 e0       	ldi	r27, 0x00	; 0
    57f8:	ac 0f       	add	r26, r28
    57fa:	bd 1f       	adc	r27, r29
    57fc:	ea 0f       	add	r30, r26
    57fe:	fb 1f       	adc	r31, r27
    5800:	8e e2       	ldi	r24, 0x2E	; 46
    5802:	a8 2e       	mov	r10, r24
    5804:	4b 01       	movw	r8, r22
    5806:	80 1a       	sub	r8, r16
    5808:	91 08       	sbc	r9, r1
    580a:	0b 2d       	mov	r16, r11
    580c:	10 e0       	ldi	r17, 0x00	; 0
    580e:	11 95       	neg	r17
    5810:	01 95       	neg	r16
    5812:	11 09       	sbc	r17, r1
    5814:	4f 3f       	cpi	r20, 0xFF	; 255
    5816:	bf ef       	ldi	r27, 0xFF	; 255
    5818:	5b 07       	cpc	r21, r27
    581a:	21 f4       	brne	.+8      	; 0x5824 <dtoa_prf+0x268>
    581c:	d6 01       	movw	r26, r12
    581e:	ac 92       	st	X, r10
    5820:	11 96       	adiw	r26, 0x01	; 1
    5822:	6d 01       	movw	r12, r26
    5824:	64 17       	cp	r22, r20
    5826:	75 07       	cpc	r23, r21
    5828:	2c f0       	brlt	.+10     	; 0x5834 <dtoa_prf+0x278>
    582a:	84 16       	cp	r8, r20
    582c:	95 06       	cpc	r9, r21
    582e:	14 f4       	brge	.+4      	; 0x5834 <dtoa_prf+0x278>
    5830:	81 81       	ldd	r24, Z+1	; 0x01
    5832:	01 c0       	rjmp	.+2      	; 0x5836 <dtoa_prf+0x27a>
    5834:	80 e3       	ldi	r24, 0x30	; 48
    5836:	41 50       	subi	r20, 0x01	; 1
    5838:	51 09       	sbc	r21, r1
    583a:	31 96       	adiw	r30, 0x01	; 1
    583c:	d6 01       	movw	r26, r12
    583e:	11 96       	adiw	r26, 0x01	; 1
    5840:	7d 01       	movw	r14, r26
    5842:	40 17       	cp	r20, r16
    5844:	51 07       	cpc	r21, r17
    5846:	24 f0       	brlt	.+8      	; 0x5850 <dtoa_prf+0x294>
    5848:	d6 01       	movw	r26, r12
    584a:	8c 93       	st	X, r24
    584c:	67 01       	movw	r12, r14
    584e:	e2 cf       	rjmp	.-60     	; 0x5814 <dtoa_prf+0x258>
    5850:	64 17       	cp	r22, r20
    5852:	75 07       	cpc	r23, r21
    5854:	39 f4       	brne	.+14     	; 0x5864 <dtoa_prf+0x2a8>
    5856:	96 33       	cpi	r25, 0x36	; 54
    5858:	20 f4       	brcc	.+8      	; 0x5862 <dtoa_prf+0x2a6>
    585a:	95 33       	cpi	r25, 0x35	; 53
    585c:	19 f4       	brne	.+6      	; 0x5864 <dtoa_prf+0x2a8>
    585e:	31 11       	cpse	r19, r1
    5860:	01 c0       	rjmp	.+2      	; 0x5864 <dtoa_prf+0x2a8>
    5862:	81 e3       	ldi	r24, 0x31	; 49
    5864:	f6 01       	movw	r30, r12
    5866:	80 83       	st	Z, r24
    5868:	f7 01       	movw	r30, r14
    586a:	82 2f       	mov	r24, r18
    586c:	90 e2       	ldi	r25, 0x20	; 32
    586e:	88 23       	and	r24, r24
    5870:	19 f0       	breq	.+6      	; 0x5878 <dtoa_prf+0x2bc>
    5872:	91 93       	st	Z+, r25
    5874:	81 50       	subi	r24, 0x01	; 1
    5876:	fb cf       	rjmp	.-10     	; 0x586e <dtoa_prf+0x2b2>
    5878:	f7 01       	movw	r30, r14
    587a:	e2 0f       	add	r30, r18
    587c:	f1 1d       	adc	r31, r1
    587e:	10 82       	st	Z, r1
    5880:	80 e0       	ldi	r24, 0x00	; 0
    5882:	90 e0       	ldi	r25, 0x00	; 0
    5884:	29 96       	adiw	r28, 0x09	; 9
    5886:	0f b6       	in	r0, 0x3f	; 63
    5888:	f8 94       	cli
    588a:	de bf       	out	0x3e, r29	; 62
    588c:	0f be       	out	0x3f, r0	; 63
    588e:	cd bf       	out	0x3d, r28	; 61
    5890:	df 91       	pop	r29
    5892:	cf 91       	pop	r28
    5894:	1f 91       	pop	r17
    5896:	0f 91       	pop	r16
    5898:	ff 90       	pop	r15
    589a:	ef 90       	pop	r14
    589c:	df 90       	pop	r13
    589e:	cf 90       	pop	r12
    58a0:	bf 90       	pop	r11
    58a2:	af 90       	pop	r10
    58a4:	9f 90       	pop	r9
    58a6:	8f 90       	pop	r8
    58a8:	08 95       	ret

000058aa <strtod>:
    58aa:	8f 92       	push	r8
    58ac:	9f 92       	push	r9
    58ae:	af 92       	push	r10
    58b0:	bf 92       	push	r11
    58b2:	cf 92       	push	r12
    58b4:	df 92       	push	r13
    58b6:	ef 92       	push	r14
    58b8:	ff 92       	push	r15
    58ba:	0f 93       	push	r16
    58bc:	1f 93       	push	r17
    58be:	cf 93       	push	r28
    58c0:	df 93       	push	r29
    58c2:	ec 01       	movw	r28, r24
    58c4:	6b 01       	movw	r12, r22
    58c6:	61 15       	cp	r22, r1
    58c8:	71 05       	cpc	r23, r1
    58ca:	19 f0       	breq	.+6      	; 0x58d2 <strtod+0x28>
    58cc:	fb 01       	movw	r30, r22
    58ce:	91 83       	std	Z+1, r25	; 0x01
    58d0:	80 83       	st	Z, r24
    58d2:	7e 01       	movw	r14, r28
    58d4:	ff ef       	ldi	r31, 0xFF	; 255
    58d6:	ef 1a       	sub	r14, r31
    58d8:	ff 0a       	sbc	r15, r31
    58da:	08 81       	ld	r16, Y
    58dc:	80 2f       	mov	r24, r16
    58de:	90 e0       	ldi	r25, 0x00	; 0
    58e0:	0e 94 7b 27 	call	0x4ef6	; 0x4ef6 <isspace>
    58e4:	89 2b       	or	r24, r25
    58e6:	11 f0       	breq	.+4      	; 0x58ec <strtod+0x42>
    58e8:	e7 01       	movw	r28, r14
    58ea:	f3 cf       	rjmp	.-26     	; 0x58d2 <strtod+0x28>
    58ec:	0d 32       	cpi	r16, 0x2D	; 45
    58ee:	39 f4       	brne	.+14     	; 0x58fe <strtod+0x54>
    58f0:	7e 01       	movw	r14, r28
    58f2:	82 e0       	ldi	r24, 0x02	; 2
    58f4:	e8 0e       	add	r14, r24
    58f6:	f1 1c       	adc	r15, r1
    58f8:	09 81       	ldd	r16, Y+1	; 0x01
    58fa:	11 e0       	ldi	r17, 0x01	; 1
    58fc:	08 c0       	rjmp	.+16     	; 0x590e <strtod+0x64>
    58fe:	0b 32       	cpi	r16, 0x2B	; 43
    5900:	29 f4       	brne	.+10     	; 0x590c <strtod+0x62>
    5902:	7e 01       	movw	r14, r28
    5904:	92 e0       	ldi	r25, 0x02	; 2
    5906:	e9 0e       	add	r14, r25
    5908:	f1 1c       	adc	r15, r1
    590a:	09 81       	ldd	r16, Y+1	; 0x01
    590c:	10 e0       	ldi	r17, 0x00	; 0
    590e:	e7 01       	movw	r28, r14
    5910:	21 97       	sbiw	r28, 0x01	; 1
    5912:	43 e0       	ldi	r20, 0x03	; 3
    5914:	50 e0       	ldi	r21, 0x00	; 0
    5916:	64 e6       	ldi	r22, 0x64	; 100
    5918:	72 e0       	ldi	r23, 0x02	; 2
    591a:	ce 01       	movw	r24, r28
    591c:	0e 94 8c 2e 	call	0x5d18	; 0x5d18 <strncasecmp_P>
    5920:	89 2b       	or	r24, r25
    5922:	c1 f4       	brne	.+48     	; 0x5954 <strtod+0xaa>
    5924:	23 96       	adiw	r28, 0x03	; 3
    5926:	45 e0       	ldi	r20, 0x05	; 5
    5928:	50 e0       	ldi	r21, 0x00	; 0
    592a:	6f e5       	ldi	r22, 0x5F	; 95
    592c:	72 e0       	ldi	r23, 0x02	; 2
    592e:	ce 01       	movw	r24, r28
    5930:	0e 94 8c 2e 	call	0x5d18	; 0x5d18 <strncasecmp_P>
    5934:	89 2b       	or	r24, r25
    5936:	09 f4       	brne	.+2      	; 0x593a <strtod+0x90>
    5938:	25 96       	adiw	r28, 0x05	; 5
    593a:	c1 14       	cp	r12, r1
    593c:	d1 04       	cpc	r13, r1
    593e:	19 f0       	breq	.+6      	; 0x5946 <strtod+0x9c>
    5940:	f6 01       	movw	r30, r12
    5942:	d1 83       	std	Z+1, r29	; 0x01
    5944:	c0 83       	st	Z, r28
    5946:	11 11       	cpse	r17, r1
    5948:	f6 c0       	rjmp	.+492    	; 0x5b36 <strtod+0x28c>
    594a:	60 e0       	ldi	r22, 0x00	; 0
    594c:	70 e0       	ldi	r23, 0x00	; 0
    594e:	80 e8       	ldi	r24, 0x80	; 128
    5950:	9f e7       	ldi	r25, 0x7F	; 127
    5952:	fa c0       	rjmp	.+500    	; 0x5b48 <strtod+0x29e>
    5954:	43 e0       	ldi	r20, 0x03	; 3
    5956:	50 e0       	ldi	r21, 0x00	; 0
    5958:	6c e5       	ldi	r22, 0x5C	; 92
    595a:	72 e0       	ldi	r23, 0x02	; 2
    595c:	ce 01       	movw	r24, r28
    595e:	0e 94 8c 2e 	call	0x5d18	; 0x5d18 <strncasecmp_P>
    5962:	89 2b       	or	r24, r25
    5964:	59 f4       	brne	.+22     	; 0x597c <strtod+0xd2>
    5966:	c1 14       	cp	r12, r1
    5968:	d1 04       	cpc	r13, r1
    596a:	09 f4       	brne	.+2      	; 0x596e <strtod+0xc4>
    596c:	e9 c0       	rjmp	.+466    	; 0x5b40 <strtod+0x296>
    596e:	f2 e0       	ldi	r31, 0x02	; 2
    5970:	ef 0e       	add	r14, r31
    5972:	f1 1c       	adc	r15, r1
    5974:	f6 01       	movw	r30, r12
    5976:	f1 82       	std	Z+1, r15	; 0x01
    5978:	e0 82       	st	Z, r14
    597a:	e2 c0       	rjmp	.+452    	; 0x5b40 <strtod+0x296>
    597c:	20 e0       	ldi	r18, 0x00	; 0
    597e:	30 e0       	ldi	r19, 0x00	; 0
    5980:	a9 01       	movw	r20, r18
    5982:	c0 e0       	ldi	r28, 0x00	; 0
    5984:	d0 e0       	ldi	r29, 0x00	; 0
    5986:	f7 01       	movw	r30, r14
    5988:	60 ed       	ldi	r22, 0xD0	; 208
    598a:	a6 2e       	mov	r10, r22
    598c:	a0 0e       	add	r10, r16
    598e:	89 e0       	ldi	r24, 0x09	; 9
    5990:	8a 15       	cp	r24, r10
    5992:	30 f1       	brcs	.+76     	; 0x59e0 <strtod+0x136>
    5994:	91 2f       	mov	r25, r17
    5996:	92 60       	ori	r25, 0x02	; 2
    5998:	b9 2e       	mov	r11, r25
    599a:	81 2f       	mov	r24, r17
    599c:	88 70       	andi	r24, 0x08	; 8
    599e:	12 ff       	sbrs	r17, 2
    59a0:	04 c0       	rjmp	.+8      	; 0x59aa <strtod+0x100>
    59a2:	81 11       	cpse	r24, r1
    59a4:	24 c0       	rjmp	.+72     	; 0x59ee <strtod+0x144>
    59a6:	21 96       	adiw	r28, 0x01	; 1
    59a8:	22 c0       	rjmp	.+68     	; 0x59ee <strtod+0x144>
    59aa:	81 11       	cpse	r24, r1
    59ac:	21 97       	sbiw	r28, 0x01	; 1
    59ae:	a5 e0       	ldi	r26, 0x05	; 5
    59b0:	b0 e0       	ldi	r27, 0x00	; 0
    59b2:	0e 94 2d 22 	call	0x445a	; 0x445a <__muluhisi3>
    59b6:	dc 01       	movw	r26, r24
    59b8:	cb 01       	movw	r24, r22
    59ba:	88 0f       	add	r24, r24
    59bc:	99 1f       	adc	r25, r25
    59be:	aa 1f       	adc	r26, r26
    59c0:	bb 1f       	adc	r27, r27
    59c2:	9c 01       	movw	r18, r24
    59c4:	ad 01       	movw	r20, r26
    59c6:	2a 0d       	add	r18, r10
    59c8:	31 1d       	adc	r19, r1
    59ca:	41 1d       	adc	r20, r1
    59cc:	51 1d       	adc	r21, r1
    59ce:	28 39       	cpi	r18, 0x98	; 152
    59d0:	89 e9       	ldi	r24, 0x99	; 153
    59d2:	38 07       	cpc	r19, r24
    59d4:	48 07       	cpc	r20, r24
    59d6:	89 e1       	ldi	r24, 0x19	; 25
    59d8:	58 07       	cpc	r21, r24
    59da:	48 f0       	brcs	.+18     	; 0x59ee <strtod+0x144>
    59dc:	16 60       	ori	r17, 0x06	; 6
    59de:	06 c0       	rjmp	.+12     	; 0x59ec <strtod+0x142>
    59e0:	9e ef       	ldi	r25, 0xFE	; 254
    59e2:	a9 12       	cpse	r10, r25
    59e4:	0a c0       	rjmp	.+20     	; 0x59fa <strtod+0x150>
    59e6:	13 fd       	sbrc	r17, 3
    59e8:	40 c0       	rjmp	.+128    	; 0x5a6a <strtod+0x1c0>
    59ea:	18 60       	ori	r17, 0x08	; 8
    59ec:	b1 2e       	mov	r11, r17
    59ee:	8f ef       	ldi	r24, 0xFF	; 255
    59f0:	e8 1a       	sub	r14, r24
    59f2:	f8 0a       	sbc	r15, r24
    59f4:	00 81       	ld	r16, Z
    59f6:	1b 2d       	mov	r17, r11
    59f8:	c6 cf       	rjmp	.-116    	; 0x5986 <strtod+0xdc>
    59fa:	80 2f       	mov	r24, r16
    59fc:	8f 7d       	andi	r24, 0xDF	; 223
    59fe:	85 34       	cpi	r24, 0x45	; 69
    5a00:	a1 f5       	brne	.+104    	; 0x5a6a <strtod+0x1c0>
    5a02:	80 81       	ld	r24, Z
    5a04:	8d 32       	cpi	r24, 0x2D	; 45
    5a06:	11 f4       	brne	.+4      	; 0x5a0c <strtod+0x162>
    5a08:	10 61       	ori	r17, 0x10	; 16
    5a0a:	06 c0       	rjmp	.+12     	; 0x5a18 <strtod+0x16e>
    5a0c:	8b 32       	cpi	r24, 0x2B	; 43
    5a0e:	21 f0       	breq	.+8      	; 0x5a18 <strtod+0x16e>
    5a10:	31 96       	adiw	r30, 0x01	; 1
    5a12:	61 e0       	ldi	r22, 0x01	; 1
    5a14:	70 e0       	ldi	r23, 0x00	; 0
    5a16:	04 c0       	rjmp	.+8      	; 0x5a20 <strtod+0x176>
    5a18:	81 81       	ldd	r24, Z+1	; 0x01
    5a1a:	32 96       	adiw	r30, 0x02	; 2
    5a1c:	62 e0       	ldi	r22, 0x02	; 2
    5a1e:	70 e0       	ldi	r23, 0x00	; 0
    5a20:	80 53       	subi	r24, 0x30	; 48
    5a22:	8a 30       	cpi	r24, 0x0A	; 10
    5a24:	18 f0       	brcs	.+6      	; 0x5a2c <strtod+0x182>
    5a26:	e6 1b       	sub	r30, r22
    5a28:	f7 0b       	sbc	r31, r23
    5a2a:	1f c0       	rjmp	.+62     	; 0x5a6a <strtod+0x1c0>
    5a2c:	60 e0       	ldi	r22, 0x00	; 0
    5a2e:	70 e0       	ldi	r23, 0x00	; 0
    5a30:	60 38       	cpi	r22, 0x80	; 128
    5a32:	9c e0       	ldi	r25, 0x0C	; 12
    5a34:	79 07       	cpc	r23, r25
    5a36:	5c f4       	brge	.+22     	; 0x5a4e <strtod+0x1a4>
    5a38:	db 01       	movw	r26, r22
    5a3a:	aa 0f       	add	r26, r26
    5a3c:	bb 1f       	adc	r27, r27
    5a3e:	aa 0f       	add	r26, r26
    5a40:	bb 1f       	adc	r27, r27
    5a42:	6a 0f       	add	r22, r26
    5a44:	7b 1f       	adc	r23, r27
    5a46:	66 0f       	add	r22, r22
    5a48:	77 1f       	adc	r23, r23
    5a4a:	68 0f       	add	r22, r24
    5a4c:	71 1d       	adc	r23, r1
    5a4e:	31 96       	adiw	r30, 0x01	; 1
    5a50:	df 01       	movw	r26, r30
    5a52:	11 97       	sbiw	r26, 0x01	; 1
    5a54:	8c 91       	ld	r24, X
    5a56:	80 53       	subi	r24, 0x30	; 48
    5a58:	8a 30       	cpi	r24, 0x0A	; 10
    5a5a:	50 f3       	brcs	.-44     	; 0x5a30 <strtod+0x186>
    5a5c:	14 ff       	sbrs	r17, 4
    5a5e:	03 c0       	rjmp	.+6      	; 0x5a66 <strtod+0x1bc>
    5a60:	71 95       	neg	r23
    5a62:	61 95       	neg	r22
    5a64:	71 09       	sbc	r23, r1
    5a66:	c6 0f       	add	r28, r22
    5a68:	d7 1f       	adc	r29, r23
    5a6a:	11 ff       	sbrs	r17, 1
    5a6c:	08 c0       	rjmp	.+16     	; 0x5a7e <strtod+0x1d4>
    5a6e:	c1 14       	cp	r12, r1
    5a70:	d1 04       	cpc	r13, r1
    5a72:	29 f0       	breq	.+10     	; 0x5a7e <strtod+0x1d4>
    5a74:	cf 01       	movw	r24, r30
    5a76:	01 97       	sbiw	r24, 0x01	; 1
    5a78:	f6 01       	movw	r30, r12
    5a7a:	91 83       	std	Z+1, r25	; 0x01
    5a7c:	80 83       	st	Z, r24
    5a7e:	ca 01       	movw	r24, r20
    5a80:	b9 01       	movw	r22, r18
    5a82:	0e 94 5a 23 	call	0x46b4	; 0x46b4 <__floatunsisf>
    5a86:	21 2f       	mov	r18, r17
    5a88:	23 70       	andi	r18, 0x03	; 3
    5a8a:	23 30       	cpi	r18, 0x03	; 3
    5a8c:	19 f0       	breq	.+6      	; 0x5a94 <strtod+0x1ea>
    5a8e:	4b 01       	movw	r8, r22
    5a90:	5c 01       	movw	r10, r24
    5a92:	06 c0       	rjmp	.+12     	; 0x5aa0 <strtod+0x1f6>
    5a94:	4b 01       	movw	r8, r22
    5a96:	5c 01       	movw	r10, r24
    5a98:	b7 fa       	bst	r11, 7
    5a9a:	b0 94       	com	r11
    5a9c:	b7 f8       	bld	r11, 7
    5a9e:	b0 94       	com	r11
    5aa0:	20 e0       	ldi	r18, 0x00	; 0
    5aa2:	30 e0       	ldi	r19, 0x00	; 0
    5aa4:	a9 01       	movw	r20, r18
    5aa6:	c5 01       	movw	r24, r10
    5aa8:	b4 01       	movw	r22, r8
    5aaa:	0e 94 b4 22 	call	0x4568	; 0x4568 <__cmpsf2>
    5aae:	88 23       	and	r24, r24
    5ab0:	09 f4       	brne	.+2      	; 0x5ab4 <strtod+0x20a>
    5ab2:	3e c0       	rjmp	.+124    	; 0x5b30 <strtod+0x286>
    5ab4:	d7 ff       	sbrs	r29, 7
    5ab6:	06 c0       	rjmp	.+12     	; 0x5ac4 <strtod+0x21a>
    5ab8:	d1 95       	neg	r29
    5aba:	c1 95       	neg	r28
    5abc:	d1 09       	sbc	r29, r1
    5abe:	0b e7       	ldi	r16, 0x7B	; 123
    5ac0:	12 e0       	ldi	r17, 0x02	; 2
    5ac2:	02 c0       	rjmp	.+4      	; 0x5ac8 <strtod+0x21e>
    5ac4:	03 e9       	ldi	r16, 0x93	; 147
    5ac6:	12 e0       	ldi	r17, 0x02	; 2
    5ac8:	68 01       	movw	r12, r16
    5aca:	f8 e1       	ldi	r31, 0x18	; 24
    5acc:	cf 1a       	sub	r12, r31
    5ace:	d1 08       	sbc	r13, r1
    5ad0:	90 e2       	ldi	r25, 0x20	; 32
    5ad2:	e9 2e       	mov	r14, r25
    5ad4:	f1 2c       	mov	r15, r1
    5ad6:	ce 15       	cp	r28, r14
    5ad8:	df 05       	cpc	r29, r15
    5ada:	74 f0       	brlt	.+28     	; 0x5af8 <strtod+0x24e>
    5adc:	f8 01       	movw	r30, r16
    5ade:	25 91       	lpm	r18, Z+
    5ae0:	35 91       	lpm	r19, Z+
    5ae2:	45 91       	lpm	r20, Z+
    5ae4:	54 91       	lpm	r21, Z
    5ae6:	c5 01       	movw	r24, r10
    5ae8:	b4 01       	movw	r22, r8
    5aea:	0e 94 11 24 	call	0x4822	; 0x4822 <__mulsf3>
    5aee:	4b 01       	movw	r8, r22
    5af0:	5c 01       	movw	r10, r24
    5af2:	ce 19       	sub	r28, r14
    5af4:	df 09       	sbc	r29, r15
    5af6:	ef cf       	rjmp	.-34     	; 0x5ad6 <strtod+0x22c>
    5af8:	04 50       	subi	r16, 0x04	; 4
    5afa:	11 09       	sbc	r17, r1
    5afc:	f5 94       	asr	r15
    5afe:	e7 94       	ror	r14
    5b00:	0c 15       	cp	r16, r12
    5b02:	1d 05       	cpc	r17, r13
    5b04:	41 f7       	brne	.-48     	; 0x5ad6 <strtod+0x22c>
    5b06:	8a 2d       	mov	r24, r10
    5b08:	88 0f       	add	r24, r24
    5b0a:	8b 2d       	mov	r24, r11
    5b0c:	88 1f       	adc	r24, r24
    5b0e:	8f 3f       	cpi	r24, 0xFF	; 255
    5b10:	49 f0       	breq	.+18     	; 0x5b24 <strtod+0x27a>
    5b12:	20 e0       	ldi	r18, 0x00	; 0
    5b14:	30 e0       	ldi	r19, 0x00	; 0
    5b16:	a9 01       	movw	r20, r18
    5b18:	c5 01       	movw	r24, r10
    5b1a:	b4 01       	movw	r22, r8
    5b1c:	0e 94 b4 22 	call	0x4568	; 0x4568 <__cmpsf2>
    5b20:	81 11       	cpse	r24, r1
    5b22:	06 c0       	rjmp	.+12     	; 0x5b30 <strtod+0x286>
    5b24:	82 e2       	ldi	r24, 0x22	; 34
    5b26:	90 e0       	ldi	r25, 0x00	; 0
    5b28:	90 93 07 05 	sts	0x0507, r25	; 0x800507 <errno+0x1>
    5b2c:	80 93 06 05 	sts	0x0506, r24	; 0x800506 <errno>
    5b30:	c5 01       	movw	r24, r10
    5b32:	b4 01       	movw	r22, r8
    5b34:	09 c0       	rjmp	.+18     	; 0x5b48 <strtod+0x29e>
    5b36:	60 e0       	ldi	r22, 0x00	; 0
    5b38:	70 e0       	ldi	r23, 0x00	; 0
    5b3a:	80 e8       	ldi	r24, 0x80	; 128
    5b3c:	9f ef       	ldi	r25, 0xFF	; 255
    5b3e:	04 c0       	rjmp	.+8      	; 0x5b48 <strtod+0x29e>
    5b40:	60 e0       	ldi	r22, 0x00	; 0
    5b42:	70 e0       	ldi	r23, 0x00	; 0
    5b44:	80 ec       	ldi	r24, 0xC0	; 192
    5b46:	9f e7       	ldi	r25, 0x7F	; 127
    5b48:	df 91       	pop	r29
    5b4a:	cf 91       	pop	r28
    5b4c:	1f 91       	pop	r17
    5b4e:	0f 91       	pop	r16
    5b50:	ff 90       	pop	r15
    5b52:	ef 90       	pop	r14
    5b54:	df 90       	pop	r13
    5b56:	cf 90       	pop	r12
    5b58:	bf 90       	pop	r11
    5b5a:	af 90       	pop	r10
    5b5c:	9f 90       	pop	r9
    5b5e:	8f 90       	pop	r8
    5b60:	08 95       	ret

00005b62 <__ftoa_engine>:
    5b62:	28 30       	cpi	r18, 0x08	; 8
    5b64:	08 f0       	brcs	.+2      	; 0x5b68 <__ftoa_engine+0x6>
    5b66:	27 e0       	ldi	r18, 0x07	; 7
    5b68:	33 27       	eor	r19, r19
    5b6a:	da 01       	movw	r26, r20
    5b6c:	99 0f       	add	r25, r25
    5b6e:	31 1d       	adc	r19, r1
    5b70:	87 fd       	sbrc	r24, 7
    5b72:	91 60       	ori	r25, 0x01	; 1
    5b74:	00 96       	adiw	r24, 0x00	; 0
    5b76:	61 05       	cpc	r22, r1
    5b78:	71 05       	cpc	r23, r1
    5b7a:	39 f4       	brne	.+14     	; 0x5b8a <__ftoa_engine+0x28>
    5b7c:	32 60       	ori	r19, 0x02	; 2
    5b7e:	2e 5f       	subi	r18, 0xFE	; 254
    5b80:	3d 93       	st	X+, r19
    5b82:	30 e3       	ldi	r19, 0x30	; 48
    5b84:	2a 95       	dec	r18
    5b86:	e1 f7       	brne	.-8      	; 0x5b80 <__ftoa_engine+0x1e>
    5b88:	08 95       	ret
    5b8a:	9f 3f       	cpi	r25, 0xFF	; 255
    5b8c:	30 f0       	brcs	.+12     	; 0x5b9a <__ftoa_engine+0x38>
    5b8e:	80 38       	cpi	r24, 0x80	; 128
    5b90:	71 05       	cpc	r23, r1
    5b92:	61 05       	cpc	r22, r1
    5b94:	09 f0       	breq	.+2      	; 0x5b98 <__ftoa_engine+0x36>
    5b96:	3c 5f       	subi	r19, 0xFC	; 252
    5b98:	3c 5f       	subi	r19, 0xFC	; 252
    5b9a:	3d 93       	st	X+, r19
    5b9c:	91 30       	cpi	r25, 0x01	; 1
    5b9e:	08 f0       	brcs	.+2      	; 0x5ba2 <__ftoa_engine+0x40>
    5ba0:	80 68       	ori	r24, 0x80	; 128
    5ba2:	91 1d       	adc	r25, r1
    5ba4:	df 93       	push	r29
    5ba6:	cf 93       	push	r28
    5ba8:	1f 93       	push	r17
    5baa:	0f 93       	push	r16
    5bac:	ff 92       	push	r15
    5bae:	ef 92       	push	r14
    5bb0:	19 2f       	mov	r17, r25
    5bb2:	98 7f       	andi	r25, 0xF8	; 248
    5bb4:	96 95       	lsr	r25
    5bb6:	e9 2f       	mov	r30, r25
    5bb8:	96 95       	lsr	r25
    5bba:	96 95       	lsr	r25
    5bbc:	e9 0f       	add	r30, r25
    5bbe:	ff 27       	eor	r31, r31
    5bc0:	ef 50       	subi	r30, 0x0F	; 15
    5bc2:	fd 4f       	sbci	r31, 0xFD	; 253
    5bc4:	99 27       	eor	r25, r25
    5bc6:	33 27       	eor	r19, r19
    5bc8:	ee 24       	eor	r14, r14
    5bca:	ff 24       	eor	r15, r15
    5bcc:	a7 01       	movw	r20, r14
    5bce:	e7 01       	movw	r28, r14
    5bd0:	05 90       	lpm	r0, Z+
    5bd2:	08 94       	sec
    5bd4:	07 94       	ror	r0
    5bd6:	28 f4       	brcc	.+10     	; 0x5be2 <__ftoa_engine+0x80>
    5bd8:	36 0f       	add	r19, r22
    5bda:	e7 1e       	adc	r14, r23
    5bdc:	f8 1e       	adc	r15, r24
    5bde:	49 1f       	adc	r20, r25
    5be0:	51 1d       	adc	r21, r1
    5be2:	66 0f       	add	r22, r22
    5be4:	77 1f       	adc	r23, r23
    5be6:	88 1f       	adc	r24, r24
    5be8:	99 1f       	adc	r25, r25
    5bea:	06 94       	lsr	r0
    5bec:	a1 f7       	brne	.-24     	; 0x5bd6 <__ftoa_engine+0x74>
    5bee:	05 90       	lpm	r0, Z+
    5bf0:	07 94       	ror	r0
    5bf2:	28 f4       	brcc	.+10     	; 0x5bfe <__ftoa_engine+0x9c>
    5bf4:	e7 0e       	add	r14, r23
    5bf6:	f8 1e       	adc	r15, r24
    5bf8:	49 1f       	adc	r20, r25
    5bfa:	56 1f       	adc	r21, r22
    5bfc:	c1 1d       	adc	r28, r1
    5bfe:	77 0f       	add	r23, r23
    5c00:	88 1f       	adc	r24, r24
    5c02:	99 1f       	adc	r25, r25
    5c04:	66 1f       	adc	r22, r22
    5c06:	06 94       	lsr	r0
    5c08:	a1 f7       	brne	.-24     	; 0x5bf2 <__ftoa_engine+0x90>
    5c0a:	05 90       	lpm	r0, Z+
    5c0c:	07 94       	ror	r0
    5c0e:	28 f4       	brcc	.+10     	; 0x5c1a <__ftoa_engine+0xb8>
    5c10:	f8 0e       	add	r15, r24
    5c12:	49 1f       	adc	r20, r25
    5c14:	56 1f       	adc	r21, r22
    5c16:	c7 1f       	adc	r28, r23
    5c18:	d1 1d       	adc	r29, r1
    5c1a:	88 0f       	add	r24, r24
    5c1c:	99 1f       	adc	r25, r25
    5c1e:	66 1f       	adc	r22, r22
    5c20:	77 1f       	adc	r23, r23
    5c22:	06 94       	lsr	r0
    5c24:	a1 f7       	brne	.-24     	; 0x5c0e <__ftoa_engine+0xac>
    5c26:	05 90       	lpm	r0, Z+
    5c28:	07 94       	ror	r0
    5c2a:	20 f4       	brcc	.+8      	; 0x5c34 <__ftoa_engine+0xd2>
    5c2c:	49 0f       	add	r20, r25
    5c2e:	56 1f       	adc	r21, r22
    5c30:	c7 1f       	adc	r28, r23
    5c32:	d8 1f       	adc	r29, r24
    5c34:	99 0f       	add	r25, r25
    5c36:	66 1f       	adc	r22, r22
    5c38:	77 1f       	adc	r23, r23
    5c3a:	88 1f       	adc	r24, r24
    5c3c:	06 94       	lsr	r0
    5c3e:	a9 f7       	brne	.-22     	; 0x5c2a <__ftoa_engine+0xc8>
    5c40:	84 91       	lpm	r24, Z
    5c42:	10 95       	com	r17
    5c44:	17 70       	andi	r17, 0x07	; 7
    5c46:	41 f0       	breq	.+16     	; 0x5c58 <__ftoa_engine+0xf6>
    5c48:	d6 95       	lsr	r29
    5c4a:	c7 95       	ror	r28
    5c4c:	57 95       	ror	r21
    5c4e:	47 95       	ror	r20
    5c50:	f7 94       	ror	r15
    5c52:	e7 94       	ror	r14
    5c54:	1a 95       	dec	r17
    5c56:	c1 f7       	brne	.-16     	; 0x5c48 <__ftoa_engine+0xe6>
    5c58:	e7 e9       	ldi	r30, 0x97	; 151
    5c5a:	f2 e0       	ldi	r31, 0x02	; 2
    5c5c:	68 94       	set
    5c5e:	15 90       	lpm	r1, Z+
    5c60:	15 91       	lpm	r17, Z+
    5c62:	35 91       	lpm	r19, Z+
    5c64:	65 91       	lpm	r22, Z+
    5c66:	95 91       	lpm	r25, Z+
    5c68:	05 90       	lpm	r0, Z+
    5c6a:	7f e2       	ldi	r23, 0x2F	; 47
    5c6c:	73 95       	inc	r23
    5c6e:	e1 18       	sub	r14, r1
    5c70:	f1 0a       	sbc	r15, r17
    5c72:	43 0b       	sbc	r20, r19
    5c74:	56 0b       	sbc	r21, r22
    5c76:	c9 0b       	sbc	r28, r25
    5c78:	d0 09       	sbc	r29, r0
    5c7a:	c0 f7       	brcc	.-16     	; 0x5c6c <__ftoa_engine+0x10a>
    5c7c:	e1 0c       	add	r14, r1
    5c7e:	f1 1e       	adc	r15, r17
    5c80:	43 1f       	adc	r20, r19
    5c82:	56 1f       	adc	r21, r22
    5c84:	c9 1f       	adc	r28, r25
    5c86:	d0 1d       	adc	r29, r0
    5c88:	7e f4       	brtc	.+30     	; 0x5ca8 <__ftoa_engine+0x146>
    5c8a:	70 33       	cpi	r23, 0x30	; 48
    5c8c:	11 f4       	brne	.+4      	; 0x5c92 <__ftoa_engine+0x130>
    5c8e:	8a 95       	dec	r24
    5c90:	e6 cf       	rjmp	.-52     	; 0x5c5e <__ftoa_engine+0xfc>
    5c92:	e8 94       	clt
    5c94:	01 50       	subi	r16, 0x01	; 1
    5c96:	30 f0       	brcs	.+12     	; 0x5ca4 <__ftoa_engine+0x142>
    5c98:	08 0f       	add	r16, r24
    5c9a:	0a f4       	brpl	.+2      	; 0x5c9e <__ftoa_engine+0x13c>
    5c9c:	00 27       	eor	r16, r16
    5c9e:	02 17       	cp	r16, r18
    5ca0:	08 f4       	brcc	.+2      	; 0x5ca4 <__ftoa_engine+0x142>
    5ca2:	20 2f       	mov	r18, r16
    5ca4:	23 95       	inc	r18
    5ca6:	02 2f       	mov	r16, r18
    5ca8:	7a 33       	cpi	r23, 0x3A	; 58
    5caa:	28 f0       	brcs	.+10     	; 0x5cb6 <__ftoa_engine+0x154>
    5cac:	79 e3       	ldi	r23, 0x39	; 57
    5cae:	7d 93       	st	X+, r23
    5cb0:	2a 95       	dec	r18
    5cb2:	e9 f7       	brne	.-6      	; 0x5cae <__ftoa_engine+0x14c>
    5cb4:	10 c0       	rjmp	.+32     	; 0x5cd6 <__ftoa_engine+0x174>
    5cb6:	7d 93       	st	X+, r23
    5cb8:	2a 95       	dec	r18
    5cba:	89 f6       	brne	.-94     	; 0x5c5e <__ftoa_engine+0xfc>
    5cbc:	06 94       	lsr	r0
    5cbe:	97 95       	ror	r25
    5cc0:	67 95       	ror	r22
    5cc2:	37 95       	ror	r19
    5cc4:	17 95       	ror	r17
    5cc6:	17 94       	ror	r1
    5cc8:	e1 18       	sub	r14, r1
    5cca:	f1 0a       	sbc	r15, r17
    5ccc:	43 0b       	sbc	r20, r19
    5cce:	56 0b       	sbc	r21, r22
    5cd0:	c9 0b       	sbc	r28, r25
    5cd2:	d0 09       	sbc	r29, r0
    5cd4:	98 f0       	brcs	.+38     	; 0x5cfc <__ftoa_engine+0x19a>
    5cd6:	23 95       	inc	r18
    5cd8:	7e 91       	ld	r23, -X
    5cda:	73 95       	inc	r23
    5cdc:	7a 33       	cpi	r23, 0x3A	; 58
    5cde:	08 f0       	brcs	.+2      	; 0x5ce2 <__ftoa_engine+0x180>
    5ce0:	70 e3       	ldi	r23, 0x30	; 48
    5ce2:	7c 93       	st	X, r23
    5ce4:	20 13       	cpse	r18, r16
    5ce6:	b8 f7       	brcc	.-18     	; 0x5cd6 <__ftoa_engine+0x174>
    5ce8:	7e 91       	ld	r23, -X
    5cea:	70 61       	ori	r23, 0x10	; 16
    5cec:	7d 93       	st	X+, r23
    5cee:	30 f0       	brcs	.+12     	; 0x5cfc <__ftoa_engine+0x19a>
    5cf0:	83 95       	inc	r24
    5cf2:	71 e3       	ldi	r23, 0x31	; 49
    5cf4:	7d 93       	st	X+, r23
    5cf6:	70 e3       	ldi	r23, 0x30	; 48
    5cf8:	2a 95       	dec	r18
    5cfa:	e1 f7       	brne	.-8      	; 0x5cf4 <__ftoa_engine+0x192>
    5cfc:	11 24       	eor	r1, r1
    5cfe:	ef 90       	pop	r14
    5d00:	ff 90       	pop	r15
    5d02:	0f 91       	pop	r16
    5d04:	1f 91       	pop	r17
    5d06:	cf 91       	pop	r28
    5d08:	df 91       	pop	r29
    5d0a:	99 27       	eor	r25, r25
    5d0c:	87 fd       	sbrc	r24, 7
    5d0e:	90 95       	com	r25
    5d10:	08 95       	ret

00005d12 <__ctype_isfalse>:
    5d12:	99 27       	eor	r25, r25
    5d14:	88 27       	eor	r24, r24

00005d16 <__ctype_istrue>:
    5d16:	08 95       	ret

00005d18 <strncasecmp_P>:
    5d18:	fb 01       	movw	r30, r22
    5d1a:	dc 01       	movw	r26, r24
    5d1c:	41 50       	subi	r20, 0x01	; 1
    5d1e:	50 40       	sbci	r21, 0x00	; 0
    5d20:	88 f0       	brcs	.+34     	; 0x5d44 <strncasecmp_P+0x2c>
    5d22:	8d 91       	ld	r24, X+
    5d24:	81 34       	cpi	r24, 0x41	; 65
    5d26:	1c f0       	brlt	.+6      	; 0x5d2e <strncasecmp_P+0x16>
    5d28:	8b 35       	cpi	r24, 0x5B	; 91
    5d2a:	0c f4       	brge	.+2      	; 0x5d2e <strncasecmp_P+0x16>
    5d2c:	80 5e       	subi	r24, 0xE0	; 224
    5d2e:	65 91       	lpm	r22, Z+
    5d30:	61 34       	cpi	r22, 0x41	; 65
    5d32:	1c f0       	brlt	.+6      	; 0x5d3a <strncasecmp_P+0x22>
    5d34:	6b 35       	cpi	r22, 0x5B	; 91
    5d36:	0c f4       	brge	.+2      	; 0x5d3a <strncasecmp_P+0x22>
    5d38:	60 5e       	subi	r22, 0xE0	; 224
    5d3a:	86 1b       	sub	r24, r22
    5d3c:	61 11       	cpse	r22, r1
    5d3e:	71 f3       	breq	.-36     	; 0x5d1c <strncasecmp_P+0x4>
    5d40:	99 0b       	sbc	r25, r25
    5d42:	08 95       	ret
    5d44:	88 1b       	sub	r24, r24
    5d46:	fc cf       	rjmp	.-8      	; 0x5d40 <strncasecmp_P+0x28>

00005d48 <strnlen_P>:
    5d48:	fc 01       	movw	r30, r24
    5d4a:	05 90       	lpm	r0, Z+
    5d4c:	61 50       	subi	r22, 0x01	; 1
    5d4e:	70 40       	sbci	r23, 0x00	; 0
    5d50:	01 10       	cpse	r0, r1
    5d52:	d8 f7       	brcc	.-10     	; 0x5d4a <strnlen_P+0x2>
    5d54:	80 95       	com	r24
    5d56:	90 95       	com	r25
    5d58:	8e 0f       	add	r24, r30
    5d5a:	9f 1f       	adc	r25, r31
    5d5c:	08 95       	ret

00005d5e <strnlen>:
    5d5e:	fc 01       	movw	r30, r24
    5d60:	61 50       	subi	r22, 0x01	; 1
    5d62:	70 40       	sbci	r23, 0x00	; 0
    5d64:	01 90       	ld	r0, Z+
    5d66:	01 10       	cpse	r0, r1
    5d68:	d8 f7       	brcc	.-10     	; 0x5d60 <strnlen+0x2>
    5d6a:	80 95       	com	r24
    5d6c:	90 95       	com	r25
    5d6e:	8e 0f       	add	r24, r30
    5d70:	9f 1f       	adc	r25, r31
    5d72:	08 95       	ret

00005d74 <strrev>:
    5d74:	dc 01       	movw	r26, r24
    5d76:	fc 01       	movw	r30, r24
    5d78:	67 2f       	mov	r22, r23
    5d7a:	71 91       	ld	r23, Z+
    5d7c:	77 23       	and	r23, r23
    5d7e:	e1 f7       	brne	.-8      	; 0x5d78 <strrev+0x4>
    5d80:	32 97       	sbiw	r30, 0x02	; 2
    5d82:	04 c0       	rjmp	.+8      	; 0x5d8c <strrev+0x18>
    5d84:	7c 91       	ld	r23, X
    5d86:	6d 93       	st	X+, r22
    5d88:	70 83       	st	Z, r23
    5d8a:	62 91       	ld	r22, -Z
    5d8c:	ae 17       	cp	r26, r30
    5d8e:	bf 07       	cpc	r27, r31
    5d90:	c8 f3       	brcs	.-14     	; 0x5d84 <strrev+0x10>
    5d92:	08 95       	ret

00005d94 <fputc>:
    5d94:	0f 93       	push	r16
    5d96:	1f 93       	push	r17
    5d98:	cf 93       	push	r28
    5d9a:	df 93       	push	r29
    5d9c:	fb 01       	movw	r30, r22
    5d9e:	23 81       	ldd	r18, Z+3	; 0x03
    5da0:	21 fd       	sbrc	r18, 1
    5da2:	03 c0       	rjmp	.+6      	; 0x5daa <fputc+0x16>
    5da4:	8f ef       	ldi	r24, 0xFF	; 255
    5da6:	9f ef       	ldi	r25, 0xFF	; 255
    5da8:	2c c0       	rjmp	.+88     	; 0x5e02 <fputc+0x6e>
    5daa:	22 ff       	sbrs	r18, 2
    5dac:	16 c0       	rjmp	.+44     	; 0x5dda <fputc+0x46>
    5dae:	46 81       	ldd	r20, Z+6	; 0x06
    5db0:	57 81       	ldd	r21, Z+7	; 0x07
    5db2:	24 81       	ldd	r18, Z+4	; 0x04
    5db4:	35 81       	ldd	r19, Z+5	; 0x05
    5db6:	42 17       	cp	r20, r18
    5db8:	53 07       	cpc	r21, r19
    5dba:	44 f4       	brge	.+16     	; 0x5dcc <fputc+0x38>
    5dbc:	a0 81       	ld	r26, Z
    5dbe:	b1 81       	ldd	r27, Z+1	; 0x01
    5dc0:	9d 01       	movw	r18, r26
    5dc2:	2f 5f       	subi	r18, 0xFF	; 255
    5dc4:	3f 4f       	sbci	r19, 0xFF	; 255
    5dc6:	31 83       	std	Z+1, r19	; 0x01
    5dc8:	20 83       	st	Z, r18
    5dca:	8c 93       	st	X, r24
    5dcc:	26 81       	ldd	r18, Z+6	; 0x06
    5dce:	37 81       	ldd	r19, Z+7	; 0x07
    5dd0:	2f 5f       	subi	r18, 0xFF	; 255
    5dd2:	3f 4f       	sbci	r19, 0xFF	; 255
    5dd4:	37 83       	std	Z+7, r19	; 0x07
    5dd6:	26 83       	std	Z+6, r18	; 0x06
    5dd8:	14 c0       	rjmp	.+40     	; 0x5e02 <fputc+0x6e>
    5dda:	8b 01       	movw	r16, r22
    5ddc:	ec 01       	movw	r28, r24
    5dde:	fb 01       	movw	r30, r22
    5de0:	00 84       	ldd	r0, Z+8	; 0x08
    5de2:	f1 85       	ldd	r31, Z+9	; 0x09
    5de4:	e0 2d       	mov	r30, r0
    5de6:	19 95       	eicall
    5de8:	89 2b       	or	r24, r25
    5dea:	e1 f6       	brne	.-72     	; 0x5da4 <fputc+0x10>
    5dec:	d8 01       	movw	r26, r16
    5dee:	16 96       	adiw	r26, 0x06	; 6
    5df0:	8d 91       	ld	r24, X+
    5df2:	9c 91       	ld	r25, X
    5df4:	17 97       	sbiw	r26, 0x07	; 7
    5df6:	01 96       	adiw	r24, 0x01	; 1
    5df8:	17 96       	adiw	r26, 0x07	; 7
    5dfa:	9c 93       	st	X, r25
    5dfc:	8e 93       	st	-X, r24
    5dfe:	16 97       	sbiw	r26, 0x06	; 6
    5e00:	ce 01       	movw	r24, r28
    5e02:	df 91       	pop	r29
    5e04:	cf 91       	pop	r28
    5e06:	1f 91       	pop	r17
    5e08:	0f 91       	pop	r16
    5e0a:	08 95       	ret

00005e0c <__ultoa_invert>:
    5e0c:	fa 01       	movw	r30, r20
    5e0e:	aa 27       	eor	r26, r26
    5e10:	28 30       	cpi	r18, 0x08	; 8
    5e12:	51 f1       	breq	.+84     	; 0x5e68 <__ultoa_invert+0x5c>
    5e14:	20 31       	cpi	r18, 0x10	; 16
    5e16:	81 f1       	breq	.+96     	; 0x5e78 <__ultoa_invert+0x6c>
    5e18:	e8 94       	clt
    5e1a:	6f 93       	push	r22
    5e1c:	6e 7f       	andi	r22, 0xFE	; 254
    5e1e:	6e 5f       	subi	r22, 0xFE	; 254
    5e20:	7f 4f       	sbci	r23, 0xFF	; 255
    5e22:	8f 4f       	sbci	r24, 0xFF	; 255
    5e24:	9f 4f       	sbci	r25, 0xFF	; 255
    5e26:	af 4f       	sbci	r26, 0xFF	; 255
    5e28:	b1 e0       	ldi	r27, 0x01	; 1
    5e2a:	3e d0       	rcall	.+124    	; 0x5ea8 <__ultoa_invert+0x9c>
    5e2c:	b4 e0       	ldi	r27, 0x04	; 4
    5e2e:	3c d0       	rcall	.+120    	; 0x5ea8 <__ultoa_invert+0x9c>
    5e30:	67 0f       	add	r22, r23
    5e32:	78 1f       	adc	r23, r24
    5e34:	89 1f       	adc	r24, r25
    5e36:	9a 1f       	adc	r25, r26
    5e38:	a1 1d       	adc	r26, r1
    5e3a:	68 0f       	add	r22, r24
    5e3c:	79 1f       	adc	r23, r25
    5e3e:	8a 1f       	adc	r24, r26
    5e40:	91 1d       	adc	r25, r1
    5e42:	a1 1d       	adc	r26, r1
    5e44:	6a 0f       	add	r22, r26
    5e46:	71 1d       	adc	r23, r1
    5e48:	81 1d       	adc	r24, r1
    5e4a:	91 1d       	adc	r25, r1
    5e4c:	a1 1d       	adc	r26, r1
    5e4e:	20 d0       	rcall	.+64     	; 0x5e90 <__ultoa_invert+0x84>
    5e50:	09 f4       	brne	.+2      	; 0x5e54 <__ultoa_invert+0x48>
    5e52:	68 94       	set
    5e54:	3f 91       	pop	r19
    5e56:	2a e0       	ldi	r18, 0x0A	; 10
    5e58:	26 9f       	mul	r18, r22
    5e5a:	11 24       	eor	r1, r1
    5e5c:	30 19       	sub	r19, r0
    5e5e:	30 5d       	subi	r19, 0xD0	; 208
    5e60:	31 93       	st	Z+, r19
    5e62:	de f6       	brtc	.-74     	; 0x5e1a <__ultoa_invert+0xe>
    5e64:	cf 01       	movw	r24, r30
    5e66:	08 95       	ret
    5e68:	46 2f       	mov	r20, r22
    5e6a:	47 70       	andi	r20, 0x07	; 7
    5e6c:	40 5d       	subi	r20, 0xD0	; 208
    5e6e:	41 93       	st	Z+, r20
    5e70:	b3 e0       	ldi	r27, 0x03	; 3
    5e72:	0f d0       	rcall	.+30     	; 0x5e92 <__ultoa_invert+0x86>
    5e74:	c9 f7       	brne	.-14     	; 0x5e68 <__ultoa_invert+0x5c>
    5e76:	f6 cf       	rjmp	.-20     	; 0x5e64 <__ultoa_invert+0x58>
    5e78:	46 2f       	mov	r20, r22
    5e7a:	4f 70       	andi	r20, 0x0F	; 15
    5e7c:	40 5d       	subi	r20, 0xD0	; 208
    5e7e:	4a 33       	cpi	r20, 0x3A	; 58
    5e80:	18 f0       	brcs	.+6      	; 0x5e88 <__ultoa_invert+0x7c>
    5e82:	49 5d       	subi	r20, 0xD9	; 217
    5e84:	31 fd       	sbrc	r19, 1
    5e86:	40 52       	subi	r20, 0x20	; 32
    5e88:	41 93       	st	Z+, r20
    5e8a:	02 d0       	rcall	.+4      	; 0x5e90 <__ultoa_invert+0x84>
    5e8c:	a9 f7       	brne	.-22     	; 0x5e78 <__ultoa_invert+0x6c>
    5e8e:	ea cf       	rjmp	.-44     	; 0x5e64 <__ultoa_invert+0x58>
    5e90:	b4 e0       	ldi	r27, 0x04	; 4
    5e92:	a6 95       	lsr	r26
    5e94:	97 95       	ror	r25
    5e96:	87 95       	ror	r24
    5e98:	77 95       	ror	r23
    5e9a:	67 95       	ror	r22
    5e9c:	ba 95       	dec	r27
    5e9e:	c9 f7       	brne	.-14     	; 0x5e92 <__ultoa_invert+0x86>
    5ea0:	00 97       	sbiw	r24, 0x00	; 0
    5ea2:	61 05       	cpc	r22, r1
    5ea4:	71 05       	cpc	r23, r1
    5ea6:	08 95       	ret
    5ea8:	9b 01       	movw	r18, r22
    5eaa:	ac 01       	movw	r20, r24
    5eac:	0a 2e       	mov	r0, r26
    5eae:	06 94       	lsr	r0
    5eb0:	57 95       	ror	r21
    5eb2:	47 95       	ror	r20
    5eb4:	37 95       	ror	r19
    5eb6:	27 95       	ror	r18
    5eb8:	ba 95       	dec	r27
    5eba:	c9 f7       	brne	.-14     	; 0x5eae <__ultoa_invert+0xa2>
    5ebc:	62 0f       	add	r22, r18
    5ebe:	73 1f       	adc	r23, r19
    5ec0:	84 1f       	adc	r24, r20
    5ec2:	95 1f       	adc	r25, r21
    5ec4:	a0 1d       	adc	r26, r0
    5ec6:	08 95       	ret

00005ec8 <__mulshisi3>:
    5ec8:	b7 ff       	sbrs	r27, 7
    5eca:	0c 94 2d 22 	jmp	0x445a	; 0x445a <__muluhisi3>

00005ece <__mulohisi3>:
    5ece:	0e 94 2d 22 	call	0x445a	; 0x445a <__muluhisi3>
    5ed2:	82 1b       	sub	r24, r18
    5ed4:	93 0b       	sbc	r25, r19
    5ed6:	08 95       	ret

00005ed8 <_exit>:
    5ed8:	f8 94       	cli

00005eda <__stop_program>:
    5eda:	ff cf       	rjmp	.-2      	; 0x5eda <__stop_program>
