Archive member included to satisfy reference by file (symbol)

c:/atmel/studio/7.0/toolchain/avr8/avr8-gnu-toolchain/bin/../lib/gcc/avr/5.4.0/avr6\libgcc.a(_mulsi3.o)
                              obj\Debug\arduino\Tone.o (__mulsi3)
c:/atmel/studio/7.0/toolchain/avr8/avr8-gnu-toolchain/bin/../lib/gcc/avr/5.4.0/avr6\libgcc.a(_udivmodsi4.o)
                              obj\Debug\arduino\HardwareSerial.o (__udivmodsi4)
c:/atmel/studio/7.0/toolchain/avr8/avr8-gnu-toolchain/bin/../lib/gcc/avr/5.4.0/avr6\libgcc.a(_divmodsi4.o)
                              obj\Debug\arduino\WMath.o (__divmodsi4)
c:/atmel/studio/7.0/toolchain/avr8/avr8-gnu-toolchain/bin/../lib/gcc/avr/5.4.0/avr6\libgcc.a(_negsi2.o)
                              c:/atmel/studio/7.0/toolchain/avr8/avr8-gnu-toolchain/bin/../lib/gcc/avr/5.4.0/avr6\libgcc.a(_divmodsi4.o) (__negsi2)
c:/atmel/studio/7.0/toolchain/avr8/avr8-gnu-toolchain/bin/../lib/gcc/avr/5.4.0/avr6\libgcc.a(_exit.o)
                              c:/atmel/studio/7.0/toolchain/avr8/avr8-gnu-toolchain/bin/../lib/gcc/avr/5.4.0/../../../../avr/lib/avr6/crtatmega2560.o (exit)
c:/atmel/studio/7.0/toolchain/avr8/avr8-gnu-toolchain/bin/../lib/gcc/avr/5.4.0/avr6\libgcc.a(_tablejump2.o)
                              obj\Debug\arduino\WInterrupts.o (__tablejump2__)
c:/atmel/studio/7.0/toolchain/avr8/avr8-gnu-toolchain/bin/../lib/gcc/avr/5.4.0/avr6\libgcc.a(_copy_data.o)
                              obj\Debug\arduino\CDC.o (__do_copy_data)
c:/atmel/studio/7.0/toolchain/avr8/avr8-gnu-toolchain/bin/../lib/gcc/avr/5.4.0/avr6\libgcc.a(_clear_bss.o)
                              obj\Debug\arduino\HardwareSerial0.o (__do_clear_bss)
c:/atmel/studio/7.0/toolchain/avr8/avr8-gnu-toolchain/bin/../lib/gcc/avr/5.4.0/avr6\libgcc.a(_ctors.o)
                              obj\Debug\arduino\HardwareSerial0.o (__do_global_ctors)
c:/atmel/studio/7.0/toolchain/avr8/avr8-gnu-toolchain/bin/../lib/gcc/avr/5.4.0/avr6\libgcc.a(_muluhisi3.o)
                              c:/atmel/studio/7.0/toolchain/avr8/avr8-gnu-toolchain/bin/../lib/gcc/avr/5.4.0/avr6\libgcc.a(_mulsi3.o) (__muluhisi3)
c:/atmel/studio/7.0/toolchain/avr8/avr8-gnu-toolchain/bin/../lib/gcc/avr/5.4.0/avr6\libgcc.a(_umulhisi3.o)
                              c:/atmel/studio/7.0/toolchain/avr8/avr8-gnu-toolchain/bin/../lib/gcc/avr/5.4.0/avr6\libgcc.a(_muluhisi3.o) (__umulhisi3)
c:/atmel/studio/7.0/toolchain/avr8/avr8-gnu-toolchain/bin/../lib/gcc/avr/5.4.0/../../../../avr/lib/avr6\libm.a(addsf3.o)
                              obj\Debug\arduino\Print.o (__subsf3)
c:/atmel/studio/7.0/toolchain/avr8/avr8-gnu-toolchain/bin/../lib/gcc/avr/5.4.0/../../../../avr/lib/avr6\libm.a(addsf3x.o)
                              c:/atmel/studio/7.0/toolchain/avr8/avr8-gnu-toolchain/bin/../lib/gcc/avr/5.4.0/../../../../avr/lib/avr6\libm.a(addsf3.o) (__addsf3x)
c:/atmel/studio/7.0/toolchain/avr8/avr8-gnu-toolchain/bin/../lib/gcc/avr/5.4.0/../../../../avr/lib/avr6\libm.a(cmpsf2.o)
                              obj\Debug\arduino\Print.o (__ltsf2)
c:/atmel/studio/7.0/toolchain/avr8/avr8-gnu-toolchain/bin/../lib/gcc/avr/5.4.0/../../../../avr/lib/avr6\libm.a(divsf3.o)
                              obj\Debug\arduino\Print.o (__divsf3)
c:/atmel/studio/7.0/toolchain/avr8/avr8-gnu-toolchain/bin/../lib/gcc/avr/5.4.0/../../../../avr/lib/avr6\libm.a(divsf3x.o)
                              c:/atmel/studio/7.0/toolchain/avr8/avr8-gnu-toolchain/bin/../lib/gcc/avr/5.4.0/../../../../avr/lib/avr6\libm.a(divsf3.o) (__divsf3x)
c:/atmel/studio/7.0/toolchain/avr8/avr8-gnu-toolchain/bin/../lib/gcc/avr/5.4.0/../../../../avr/lib/avr6\libm.a(fixunssfsi.o)
                              obj\Debug\arduino\Print.o (__fixunssfsi)
c:/atmel/studio/7.0/toolchain/avr8/avr8-gnu-toolchain/bin/../lib/gcc/avr/5.4.0/../../../../avr/lib/avr6\libm.a(floatsisf.o)
                              obj\Debug\arduino\Print.o (__floatunsisf)
c:/atmel/studio/7.0/toolchain/avr8/avr8-gnu-toolchain/bin/../lib/gcc/avr/5.4.0/../../../../avr/lib/avr6\libm.a(fp_cmp.o)
                              c:/atmel/studio/7.0/toolchain/avr8/avr8-gnu-toolchain/bin/../lib/gcc/avr/5.4.0/../../../../avr/lib/avr6\libm.a(cmpsf2.o) (__fp_cmp)
c:/atmel/studio/7.0/toolchain/avr8/avr8-gnu-toolchain/bin/../lib/gcc/avr/5.4.0/../../../../avr/lib/avr6\libm.a(fp_inf.o)
                              c:/atmel/studio/7.0/toolchain/avr8/avr8-gnu-toolchain/bin/../lib/gcc/avr/5.4.0/../../../../avr/lib/avr6\libm.a(addsf3x.o) (__fp_inf)
c:/atmel/studio/7.0/toolchain/avr8/avr8-gnu-toolchain/bin/../lib/gcc/avr/5.4.0/../../../../avr/lib/avr6\libm.a(fp_nan.o)
                              c:/atmel/studio/7.0/toolchain/avr8/avr8-gnu-toolchain/bin/../lib/gcc/avr/5.4.0/../../../../avr/lib/avr6\libm.a(addsf3x.o) (__fp_nan)
c:/atmel/studio/7.0/toolchain/avr8/avr8-gnu-toolchain/bin/../lib/gcc/avr/5.4.0/../../../../avr/lib/avr6\libm.a(fp_pscA.o)
                              c:/atmel/studio/7.0/toolchain/avr8/avr8-gnu-toolchain/bin/../lib/gcc/avr/5.4.0/../../../../avr/lib/avr6\libm.a(addsf3x.o) (__fp_pscA)
c:/atmel/studio/7.0/toolchain/avr8/avr8-gnu-toolchain/bin/../lib/gcc/avr/5.4.0/../../../../avr/lib/avr6\libm.a(fp_pscB.o)
                              c:/atmel/studio/7.0/toolchain/avr8/avr8-gnu-toolchain/bin/../lib/gcc/avr/5.4.0/../../../../avr/lib/avr6\libm.a(addsf3x.o) (__fp_pscB)
c:/atmel/studio/7.0/toolchain/avr8/avr8-gnu-toolchain/bin/../lib/gcc/avr/5.4.0/../../../../avr/lib/avr6\libm.a(fp_round.o)
                              c:/atmel/studio/7.0/toolchain/avr8/avr8-gnu-toolchain/bin/../lib/gcc/avr/5.4.0/../../../../avr/lib/avr6\libm.a(addsf3.o) (__fp_round)
c:/atmel/studio/7.0/toolchain/avr8/avr8-gnu-toolchain/bin/../lib/gcc/avr/5.4.0/../../../../avr/lib/avr6\libm.a(fp_split3.o)
                              c:/atmel/studio/7.0/toolchain/avr8/avr8-gnu-toolchain/bin/../lib/gcc/avr/5.4.0/../../../../avr/lib/avr6\libm.a(addsf3x.o) (__fp_split3)
c:/atmel/studio/7.0/toolchain/avr8/avr8-gnu-toolchain/bin/../lib/gcc/avr/5.4.0/../../../../avr/lib/avr6\libm.a(fp_zero.o)
                              c:/atmel/studio/7.0/toolchain/avr8/avr8-gnu-toolchain/bin/../lib/gcc/avr/5.4.0/../../../../avr/lib/avr6\libm.a(addsf3x.o) (__fp_zero)
c:/atmel/studio/7.0/toolchain/avr8/avr8-gnu-toolchain/bin/../lib/gcc/avr/5.4.0/../../../../avr/lib/avr6\libm.a(gesf2.o)
                              obj\Debug\arduino\Print.o (__gtsf2)
c:/atmel/studio/7.0/toolchain/avr8/avr8-gnu-toolchain/bin/../lib/gcc/avr/5.4.0/../../../../avr/lib/avr6\libm.a(mulsf3.o)
                              obj\Debug\arduino\Print.o (__mulsf3)
c:/atmel/studio/7.0/toolchain/avr8/avr8-gnu-toolchain/bin/../lib/gcc/avr/5.4.0/../../../../avr/lib/avr6\libm.a(mulsf3x.o)
                              c:/atmel/studio/7.0/toolchain/avr8/avr8-gnu-toolchain/bin/../lib/gcc/avr/5.4.0/../../../../avr/lib/avr6\libm.a(mulsf3.o) (__mulsf3x)
c:/atmel/studio/7.0/toolchain/avr8/avr8-gnu-toolchain/bin/../lib/gcc/avr/5.4.0/../../../../avr/lib/avr6\libm.a(unordsf2.o)
                              obj\Debug\arduino\Print.o (__unordsf2)
c:/atmel/studio/7.0/toolchain/avr8/avr8-gnu-toolchain/bin/../lib/gcc/avr/5.4.0/../../../../avr/lib/avr6\libc.a(dtostrf.o)
                              obj\Debug\arduino\WString.o (dtostrf)
c:/atmel/studio/7.0/toolchain/avr8/avr8-gnu-toolchain/bin/../lib/gcc/avr/5.4.0/../../../../avr/lib/avr6\libc.a(malloc.o)
                              obj\Debug\arduino\new.o (malloc)
c:/atmel/studio/7.0/toolchain/avr8/avr8-gnu-toolchain/bin/../lib/gcc/avr/5.4.0/../../../../avr/lib/avr6\libc.a(random.o)
                              obj\Debug\arduino\WMath.o (random)
c:/atmel/studio/7.0/toolchain/avr8/avr8-gnu-toolchain/bin/../lib/gcc/avr/5.4.0/../../../../avr/lib/avr6\libc.a(realloc.o)
                              obj\Debug\arduino\WString.o (realloc)
c:/atmel/studio/7.0/toolchain/avr8/avr8-gnu-toolchain/bin/../lib/gcc/avr/5.4.0/../../../../avr/lib/avr6\libc.a(abort.o)
                              obj\Debug\arduino\abi.o (abort)
c:/atmel/studio/7.0/toolchain/avr8/avr8-gnu-toolchain/bin/../lib/gcc/avr/5.4.0/../../../../avr/lib/avr6\libc.a(atof.o)
                              obj\Debug\arduino\WString.o (atof)
c:/atmel/studio/7.0/toolchain/avr8/avr8-gnu-toolchain/bin/../lib/gcc/avr/5.4.0/../../../../avr/lib/avr6\libc.a(atol.o)
                              obj\Debug\arduino\WString.o (atol)
c:/atmel/studio/7.0/toolchain/avr8/avr8-gnu-toolchain/bin/../lib/gcc/avr/5.4.0/../../../../avr/lib/avr6\libc.a(isspace.o)
                              obj\Debug\arduino\WString.o (isspace)
c:/atmel/studio/7.0/toolchain/avr8/avr8-gnu-toolchain/bin/../lib/gcc/avr/5.4.0/../../../../avr/lib/avr6\libc.a(tolower.o)
                              obj\Debug\arduino\WString.o (tolower)
c:/atmel/studio/7.0/toolchain/avr8/avr8-gnu-toolchain/bin/../lib/gcc/avr/5.4.0/../../../../avr/lib/avr6\libc.a(toupper.o)
                              obj\Debug\arduino\WString.o (toupper)
c:/atmel/studio/7.0/toolchain/avr8/avr8-gnu-toolchain/bin/../lib/gcc/avr/5.4.0/../../../../avr/lib/avr6\libc.a(strcpy_P.o)
                              obj\Debug\arduino\WString.o (strcpy_P)
c:/atmel/studio/7.0/toolchain/avr8/avr8-gnu-toolchain/bin/../lib/gcc/avr/5.4.0/../../../../avr/lib/avr6\libc.a(strlen_P.o)
                              obj\Debug\arduino\WString.o (__strlen_P)
c:/atmel/studio/7.0/toolchain/avr8/avr8-gnu-toolchain/bin/../lib/gcc/avr/5.4.0/../../../../avr/lib/avr6\libc.a(memcmp.o)
                              obj\Debug\arduino\IPAddress.o (memcmp)
c:/atmel/studio/7.0/toolchain/avr8/avr8-gnu-toolchain/bin/../lib/gcc/avr/5.4.0/../../../../avr/lib/avr6\libc.a(memcpy.o)
                              obj\Debug\arduino\IPAddress.o (memcpy)
c:/atmel/studio/7.0/toolchain/avr8/avr8-gnu-toolchain/bin/../lib/gcc/avr/5.4.0/../../../../avr/lib/avr6\libc.a(memmove.o)
                              obj\Debug\arduino\WString.o (memmove)
c:/atmel/studio/7.0/toolchain/avr8/avr8-gnu-toolchain/bin/../lib/gcc/avr/5.4.0/../../../../avr/lib/avr6\libc.a(strchr.o)
                              obj\Debug\arduino\WString.o (strchr)
c:/atmel/studio/7.0/toolchain/avr8/avr8-gnu-toolchain/bin/../lib/gcc/avr/5.4.0/../../../../avr/lib/avr6\libc.a(strcmp.o)
                              obj\Debug\arduino\WString.o (strcmp)
c:/atmel/studio/7.0/toolchain/avr8/avr8-gnu-toolchain/bin/../lib/gcc/avr/5.4.0/../../../../avr/lib/avr6\libc.a(strcpy.o)
                              obj\Debug\arduino\WString.o (strcpy)
c:/atmel/studio/7.0/toolchain/avr8/avr8-gnu-toolchain/bin/../lib/gcc/avr/5.4.0/../../../../avr/lib/avr6\libc.a(strlen.o)
                              obj\Debug\arduino\Print.o (strlen)
c:/atmel/studio/7.0/toolchain/avr8/avr8-gnu-toolchain/bin/../lib/gcc/avr/5.4.0/../../../../avr/lib/avr6\libc.a(strncmp.o)
                              obj\Debug\arduino\WString.o (strncmp)
c:/atmel/studio/7.0/toolchain/avr8/avr8-gnu-toolchain/bin/../lib/gcc/avr/5.4.0/../../../../avr/lib/avr6\libc.a(strncpy.o)
                              obj\Debug\arduino\WString.o (strncpy)
c:/atmel/studio/7.0/toolchain/avr8/avr8-gnu-toolchain/bin/../lib/gcc/avr/5.4.0/../../../../avr/lib/avr6\libc.a(strrchr.o)
                              obj\Debug\arduino\WString.o (strrchr)
c:/atmel/studio/7.0/toolchain/avr8/avr8-gnu-toolchain/bin/../lib/gcc/avr/5.4.0/../../../../avr/lib/avr6\libc.a(strstr.o)
                              obj\Debug\arduino\WString.o (strstr)
c:/atmel/studio/7.0/toolchain/avr8/avr8-gnu-toolchain/bin/../lib/gcc/avr/5.4.0/../../../../avr/lib/avr6\libc.a(itoa.o)
                              obj\Debug\arduino\WString.o (__itoa)
c:/atmel/studio/7.0/toolchain/avr8/avr8-gnu-toolchain/bin/../lib/gcc/avr/5.4.0/../../../../avr/lib/avr6\libc.a(itoa_ncheck.o)
                              c:/atmel/studio/7.0/toolchain/avr8/avr8-gnu-toolchain/bin/../lib/gcc/avr/5.4.0/../../../../avr/lib/avr6\libc.a(itoa.o) (__itoa_ncheck)
c:/atmel/studio/7.0/toolchain/avr8/avr8-gnu-toolchain/bin/../lib/gcc/avr/5.4.0/../../../../avr/lib/avr6\libc.a(ltoa.o)
                              obj\Debug\arduino\WString.o (__ltoa)
c:/atmel/studio/7.0/toolchain/avr8/avr8-gnu-toolchain/bin/../lib/gcc/avr/5.4.0/../../../../avr/lib/avr6\libc.a(ltoa_ncheck.o)
                              c:/atmel/studio/7.0/toolchain/avr8/avr8-gnu-toolchain/bin/../lib/gcc/avr/5.4.0/../../../../avr/lib/avr6\libc.a(ltoa.o) (__ltoa_ncheck)
c:/atmel/studio/7.0/toolchain/avr8/avr8-gnu-toolchain/bin/../lib/gcc/avr/5.4.0/../../../../avr/lib/avr6\libc.a(mulsi10.o)
                              c:/atmel/studio/7.0/toolchain/avr8/avr8-gnu-toolchain/bin/../lib/gcc/avr/5.4.0/../../../../avr/lib/avr6\libc.a(atol.o) (__mulsi_const_10)
c:/atmel/studio/7.0/toolchain/avr8/avr8-gnu-toolchain/bin/../lib/gcc/avr/5.4.0/../../../../avr/lib/avr6\libc.a(ultoa.o)
                              obj\Debug\arduino\WString.o (__ultoa)
c:/atmel/studio/7.0/toolchain/avr8/avr8-gnu-toolchain/bin/../lib/gcc/avr/5.4.0/../../../../avr/lib/avr6\libc.a(ultoa_ncheck.o)
                              c:/atmel/studio/7.0/toolchain/avr8/avr8-gnu-toolchain/bin/../lib/gcc/avr/5.4.0/../../../../avr/lib/avr6\libc.a(ultoa.o) (__ultoa_ncheck)
c:/atmel/studio/7.0/toolchain/avr8/avr8-gnu-toolchain/bin/../lib/gcc/avr/5.4.0/../../../../avr/lib/avr6\libc.a(utoa.o)
                              obj\Debug\arduino\WString.o (__utoa)
c:/atmel/studio/7.0/toolchain/avr8/avr8-gnu-toolchain/bin/../lib/gcc/avr/5.4.0/../../../../avr/lib/avr6\libc.a(utoa_ncheck.o)
                              c:/atmel/studio/7.0/toolchain/avr8/avr8-gnu-toolchain/bin/../lib/gcc/avr/5.4.0/../../../../avr/lib/avr6\libc.a(utoa.o) (__utoa_ncheck)
c:/atmel/studio/7.0/toolchain/avr8/avr8-gnu-toolchain/bin/../lib/gcc/avr/5.4.0/../../../../avr/lib/avr6\libc.a(printf.o)
                              obj\Debug\SWOutputs.o (printf)
c:/atmel/studio/7.0/toolchain/avr8/avr8-gnu-toolchain/bin/../lib/gcc/avr/5.4.0/../../../../avr/lib/avr6\libc.a(vfprintf_std.o)
                              c:/atmel/studio/7.0/toolchain/avr8/avr8-gnu-toolchain/bin/../lib/gcc/avr/5.4.0/../../../../avr/lib/avr6\libc.a(printf.o) (vfprintf)
c:/atmel/studio/7.0/toolchain/avr8/avr8-gnu-toolchain/bin/../lib/gcc/avr/5.4.0/../../../../avr/lib/avr6\libc.a(dtoa_prf.o)
                              c:/atmel/studio/7.0/toolchain/avr8/avr8-gnu-toolchain/bin/../lib/gcc/avr/5.4.0/../../../../avr/lib/avr6\libc.a(dtostrf.o) (dtoa_prf)
c:/atmel/studio/7.0/toolchain/avr8/avr8-gnu-toolchain/bin/../lib/gcc/avr/5.4.0/../../../../avr/lib/avr6\libc.a(strtod.o)
                              c:/atmel/studio/7.0/toolchain/avr8/avr8-gnu-toolchain/bin/../lib/gcc/avr/5.4.0/../../../../avr/lib/avr6\libc.a(atof.o) (strtod)
c:/atmel/studio/7.0/toolchain/avr8/avr8-gnu-toolchain/bin/../lib/gcc/avr/5.4.0/../../../../avr/lib/avr6\libc.a(ftoa_engine.o)
                              c:/atmel/studio/7.0/toolchain/avr8/avr8-gnu-toolchain/bin/../lib/gcc/avr/5.4.0/../../../../avr/lib/avr6\libc.a(dtoa_prf.o) (__ftoa_engine)
c:/atmel/studio/7.0/toolchain/avr8/avr8-gnu-toolchain/bin/../lib/gcc/avr/5.4.0/../../../../avr/lib/avr6\libc.a(cty_isfalse.o)
                              c:/atmel/studio/7.0/toolchain/avr8/avr8-gnu-toolchain/bin/../lib/gcc/avr/5.4.0/../../../../avr/lib/avr6\libc.a(isspace.o) (__ctype_isfalse)
c:/atmel/studio/7.0/toolchain/avr8/avr8-gnu-toolchain/bin/../lib/gcc/avr/5.4.0/../../../../avr/lib/avr6\libc.a(strncasecmp_P.o)
                              c:/atmel/studio/7.0/toolchain/avr8/avr8-gnu-toolchain/bin/../lib/gcc/avr/5.4.0/../../../../avr/lib/avr6\libc.a(strtod.o) (strncasecmp_P)
c:/atmel/studio/7.0/toolchain/avr8/avr8-gnu-toolchain/bin/../lib/gcc/avr/5.4.0/../../../../avr/lib/avr6\libc.a(strnlen_P.o)
                              c:/atmel/studio/7.0/toolchain/avr8/avr8-gnu-toolchain/bin/../lib/gcc/avr/5.4.0/../../../../avr/lib/avr6\libc.a(vfprintf_std.o) (strnlen_P)
c:/atmel/studio/7.0/toolchain/avr8/avr8-gnu-toolchain/bin/../lib/gcc/avr/5.4.0/../../../../avr/lib/avr6\libc.a(strnlen.o)
                              c:/atmel/studio/7.0/toolchain/avr8/avr8-gnu-toolchain/bin/../lib/gcc/avr/5.4.0/../../../../avr/lib/avr6\libc.a(vfprintf_std.o) (strnlen)
c:/atmel/studio/7.0/toolchain/avr8/avr8-gnu-toolchain/bin/../lib/gcc/avr/5.4.0/../../../../avr/lib/avr6\libc.a(strrev.o)
                              c:/atmel/studio/7.0/toolchain/avr8/avr8-gnu-toolchain/bin/../lib/gcc/avr/5.4.0/../../../../avr/lib/avr6\libc.a(ultoa_ncheck.o) (strrev)
c:/atmel/studio/7.0/toolchain/avr8/avr8-gnu-toolchain/bin/../lib/gcc/avr/5.4.0/../../../../avr/lib/avr6\libc.a(fputc.o)
                              c:/atmel/studio/7.0/toolchain/avr8/avr8-gnu-toolchain/bin/../lib/gcc/avr/5.4.0/../../../../avr/lib/avr6\libc.a(vfprintf_std.o) (fputc)
c:/atmel/studio/7.0/toolchain/avr8/avr8-gnu-toolchain/bin/../lib/gcc/avr/5.4.0/../../../../avr/lib/avr6\libc.a(iob.o)
                              c:/atmel/studio/7.0/toolchain/avr8/avr8-gnu-toolchain/bin/../lib/gcc/avr/5.4.0/../../../../avr/lib/avr6\libc.a(printf.o) (__iob)
c:/atmel/studio/7.0/toolchain/avr8/avr8-gnu-toolchain/bin/../lib/gcc/avr/5.4.0/../../../../avr/lib/avr6\libc.a(ultoa_invert.o)
                              c:/atmel/studio/7.0/toolchain/avr8/avr8-gnu-toolchain/bin/../lib/gcc/avr/5.4.0/../../../../avr/lib/avr6\libc.a(vfprintf_std.o) (__ultoa_invert)
c:/atmel/studio/7.0/toolchain/avr8/avr8-gnu-toolchain/bin/../lib/gcc/avr/5.4.0/../../../../avr/lib/avr6\libc.a(errno.o)
                              c:/atmel/studio/7.0/toolchain/avr8/avr8-gnu-toolchain/bin/../lib/gcc/avr/5.4.0/../../../../avr/lib/avr6\libc.a(strtod.o) (errno)
c:/atmel/studio/7.0/toolchain/avr8/avr8-gnu-toolchain/bin/../lib/gcc/avr/5.4.0/avr6\libgcc.a(_mulshisi3.o)
                              c:/atmel/studio/7.0/toolchain/avr8/avr8-gnu-toolchain/bin/../lib/gcc/avr/5.4.0/../../../../avr/lib/avr6\libc.a(random.o) (__mulohisi3)

Allocating common symbols
Common symbol       size              file

errno               0x2               c:/atmel/studio/7.0/toolchain/avr8/avr8-gnu-toolchain/bin/../lib/gcc/avr/5.4.0/../../../../avr/lib/avr6\libc.a(errno.o)
__brkval            0x2               c:/atmel/studio/7.0/toolchain/avr8/avr8-gnu-toolchain/bin/../lib/gcc/avr/5.4.0/../../../../avr/lib/avr6\libc.a(malloc.o)
__flp               0x2               c:/atmel/studio/7.0/toolchain/avr8/avr8-gnu-toolchain/bin/../lib/gcc/avr/5.4.0/../../../../avr/lib/avr6\libc.a(malloc.o)
__iob               0x6               c:/atmel/studio/7.0/toolchain/avr8/avr8-gnu-toolchain/bin/../lib/gcc/avr/5.4.0/../../../../avr/lib/avr6\libc.a(iob.o)

Discarded input sections

 .group         0x00000000        0x8 obj\Debug\arduino\HardwareSerial.o
 .group         0x00000000        0x8 obj\Debug\arduino\HardwareSerial0.o
 .group         0x00000000        0x8 obj\Debug\arduino\HardwareSerial0.o
 .group         0x00000000        0x8 obj\Debug\arduino\HardwareSerial0.o
 .group         0x00000000        0x8 obj\Debug\arduino\HardwareSerial0.o
 .group         0x00000000        0x8 obj\Debug\arduino\HardwareSerial0.o
 .group         0x00000000        0x8 obj\Debug\arduino\HardwareSerial0.o
 .group         0x00000000        0x8 obj\Debug\arduino\HardwareSerial0.o
 .group         0x00000000        0x8 obj\Debug\arduino\HardwareSerial1.o
 .group         0x00000000        0x8 obj\Debug\arduino\HardwareSerial1.o
 .group         0x00000000        0x8 obj\Debug\arduino\HardwareSerial1.o
 .group         0x00000000        0x8 obj\Debug\arduino\HardwareSerial1.o
 .group         0x00000000        0x8 obj\Debug\arduino\HardwareSerial1.o
 .group         0x00000000        0x8 obj\Debug\arduino\HardwareSerial1.o
 .group         0x00000000        0x8 obj\Debug\arduino\HardwareSerial1.o
 .text._ZN5PrintC2Ev
                0x00000000       0x34 obj\Debug\arduino\HardwareSerial1.o
 .text._ZN5Print17availableForWriteEv
                0x00000000       0x1e obj\Debug\arduino\HardwareSerial1.o
 .text._ZN5Print5flushEv
                0x00000000       0x1c obj\Debug\arduino\HardwareSerial1.o
 .text._ZN6StreamC2Ev
                0x00000000       0x48 obj\Debug\arduino\HardwareSerial1.o
 .text._ZN14HardwareSerialC2EPVhS1_S1_S1_S1_S1_
                0x00000000       0xe6 obj\Debug\arduino\HardwareSerial1.o
 .text._ZN14HardwareSerial16_rx_complete_irqEv
                0x00000000       0xac obj\Debug\arduino\HardwareSerial1.o
 .rodata._ZTV6Stream
                0x00000000       0x12 obj\Debug\arduino\HardwareSerial1.o
 .group         0x00000000        0x8 obj\Debug\arduino\HardwareSerial2.o
 .group         0x00000000        0x8 obj\Debug\arduino\HardwareSerial2.o
 .group         0x00000000        0x8 obj\Debug\arduino\HardwareSerial2.o
 .group         0x00000000        0x8 obj\Debug\arduino\HardwareSerial2.o
 .group         0x00000000        0x8 obj\Debug\arduino\HardwareSerial2.o
 .group         0x00000000        0x8 obj\Debug\arduino\HardwareSerial2.o
 .group         0x00000000        0x8 obj\Debug\arduino\HardwareSerial2.o
 .text._ZN5PrintC2Ev
                0x00000000       0x34 obj\Debug\arduino\HardwareSerial2.o
 .text._ZN5Print17availableForWriteEv
                0x00000000       0x1e obj\Debug\arduino\HardwareSerial2.o
 .text._ZN5Print5flushEv
                0x00000000       0x1c obj\Debug\arduino\HardwareSerial2.o
 .text._ZN6StreamC2Ev
                0x00000000       0x48 obj\Debug\arduino\HardwareSerial2.o
 .text._ZN14HardwareSerialC2EPVhS1_S1_S1_S1_S1_
                0x00000000       0xe6 obj\Debug\arduino\HardwareSerial2.o
 .text._ZN14HardwareSerial16_rx_complete_irqEv
                0x00000000       0xac obj\Debug\arduino\HardwareSerial2.o
 .rodata._ZTV6Stream
                0x00000000       0x12 obj\Debug\arduino\HardwareSerial2.o
 .group         0x00000000        0x8 obj\Debug\arduino\HardwareSerial3.o
 .group         0x00000000        0x8 obj\Debug\arduino\HardwareSerial3.o
 .group         0x00000000        0x8 obj\Debug\arduino\HardwareSerial3.o
 .group         0x00000000        0x8 obj\Debug\arduino\HardwareSerial3.o
 .group         0x00000000        0x8 obj\Debug\arduino\HardwareSerial3.o
 .group         0x00000000        0x8 obj\Debug\arduino\HardwareSerial3.o
 .group         0x00000000        0x8 obj\Debug\arduino\HardwareSerial3.o
 .text._ZN5PrintC2Ev
                0x00000000       0x34 obj\Debug\arduino\HardwareSerial3.o
 .text._ZN5Print17availableForWriteEv
                0x00000000       0x1e obj\Debug\arduino\HardwareSerial3.o
 .text._ZN5Print5flushEv
                0x00000000       0x1c obj\Debug\arduino\HardwareSerial3.o
 .text._ZN6StreamC2Ev
                0x00000000       0x48 obj\Debug\arduino\HardwareSerial3.o
 .text._ZN14HardwareSerialC2EPVhS1_S1_S1_S1_S1_
                0x00000000       0xe6 obj\Debug\arduino\HardwareSerial3.o
 .text._ZN14HardwareSerial16_rx_complete_irqEv
                0x00000000       0xac obj\Debug\arduino\HardwareSerial3.o
 .rodata._ZTV6Stream
                0x00000000       0x12 obj\Debug\arduino\HardwareSerial3.o
 .group         0x00000000        0x8 obj\Debug\arduino\IPAddress.o
 .group         0x00000000        0x8 obj\Debug\arduino\IPAddress.o
 .group         0x00000000        0x8 obj\Debug\arduino\IPAddress.o
 .group         0x00000000        0x8 obj\Debug\arduino\Print.o
 .group         0x00000000        0x8 obj\Debug\arduino\Print.o
 .group         0x00000000        0x8 obj\Debug\arduino\Print.o
 .group         0x00000000        0x8 obj\Debug\arduino\Print.o
 .group         0x00000000        0x8 obj\Debug\arduino\Print.o
 .group         0x00000000        0x8 obj\Debug\arduino\Print.o
 .group         0x00000000        0x8 obj\Debug\arduino\Print.o
 .text._ZN5Print17availableForWriteEv
                0x00000000       0x1e obj\Debug\arduino\Print.o
 .text._ZN5Print5flushEv
                0x00000000       0x1c obj\Debug\arduino\Print.o
 .group         0x00000000        0x8 obj\Debug\arduino\Stream.o
 .group         0x00000000        0x8 obj\Debug\arduino\WString.o
 .group         0x00000000        0x8 obj\Debug\arduino\WString.o
 .group         0x00000000        0x8 obj\Debug\arduino\WString.o
 .group         0x00000000        0x8 obj\Debug\arduino\WString.o
 .group         0x00000000        0x8 obj\Debug\arduino\WString.o
 .group         0x00000000        0x8 obj\Debug\SmartHome.o

Memory Configuration

Name             Origin             Length             Attributes
text             0x00000000         0x00100000         xr
data             0x00800200         0x0000fe00         rw !x
eeprom           0x00810000         0x00010000         rw !x
fuse             0x00820000         0x00000003         rw !x
lock             0x00830000         0x00000400         rw !x
signature        0x00840000         0x00000400         rw !x
user_signatures  0x00850000         0x00000400         rw !x
*default*        0x00000000         0xffffffff

Linker script and memory map

Address of section .data set to 0x800200
LOAD c:/atmel/studio/7.0/toolchain/avr8/avr8-gnu-toolchain/bin/../lib/gcc/avr/5.4.0/../../../../avr/lib/avr6/crtatmega2560.o
LOAD obj\Debug\arduino\abi.o
LOAD obj\Debug\arduino\CDC.o
LOAD obj\Debug\arduino\HardwareSerial.o
LOAD obj\Debug\arduino\HardwareSerial0.o
LOAD obj\Debug\arduino\HardwareSerial1.o
LOAD obj\Debug\arduino\HardwareSerial2.o
LOAD obj\Debug\arduino\HardwareSerial3.o
LOAD obj\Debug\arduino\hooks.o
LOAD obj\Debug\arduino\IPAddress.o
LOAD obj\Debug\arduino\main.o
LOAD obj\Debug\arduino\new.o
LOAD obj\Debug\arduino\PluggableUSB.o
LOAD obj\Debug\arduino\Print.o
LOAD obj\Debug\arduino\Stream.o
LOAD obj\Debug\arduino\Tone.o
LOAD obj\Debug\arduino\USBCore.o
LOAD obj\Debug\arduino\WInterrupts.o
LOAD obj\Debug\arduino\wiring.o
LOAD obj\Debug\arduino\wiring_analog.o
LOAD obj\Debug\arduino\wiring_digital.o
LOAD obj\Debug\arduino\wiring_pulse.o
LOAD obj\Debug\arduino\wiring_shift.o
LOAD obj\Debug\arduino\WMath.o
LOAD obj\Debug\arduino\WString.o
LOAD obj\Debug\HWInputs.o
LOAD obj\Debug\HWOutputs.o
LOAD obj\Debug\Logic.o
LOAD obj\Debug\SmartHome.o
LOAD obj\Debug\SWInputs.o
LOAD obj\Debug\SWOutputs.o
LOAD c:/atmel/studio/7.0/toolchain/avr8/avr8-gnu-toolchain/bin/../lib/gcc/avr/5.4.0/avr6\libgcc.a
LOAD c:/atmel/studio/7.0/toolchain/avr8/avr8-gnu-toolchain/bin/../lib/gcc/avr/5.4.0/../../../../avr/lib/avr6\libm.a
START GROUP
LOAD c:/atmel/studio/7.0/toolchain/avr8/avr8-gnu-toolchain/bin/../lib/gcc/avr/5.4.0/avr6\libgcc.a
LOAD c:/atmel/studio/7.0/toolchain/avr8/avr8-gnu-toolchain/bin/../lib/gcc/avr/5.4.0/../../../../avr/lib/avr6\libm.a
LOAD c:/atmel/studio/7.0/toolchain/avr8/avr8-gnu-toolchain/bin/../lib/gcc/avr/5.4.0/../../../../avr/lib/avr6\libc.a
LOAD c:/atmel/studio/7.0/toolchain/avr8/avr8-gnu-toolchain/bin/../lib/gcc/avr/5.4.0/../../../../avr/lib/avr6\libatmega2560.a
END GROUP
                0x00100000                __TEXT_REGION_LENGTH__ = DEFINED (__TEXT_REGION_LENGTH__)?__TEXT_REGION_LENGTH__:0x100000
                0x0000fe00                __DATA_REGION_LENGTH__ = DEFINED (__DATA_REGION_LENGTH__)?__DATA_REGION_LENGTH__:0xfe00
                0x00010000                __EEPROM_REGION_LENGTH__ = DEFINED (__EEPROM_REGION_LENGTH__)?__EEPROM_REGION_LENGTH__:0x10000
                [0x00000003]                __FUSE_REGION_LENGTH__ = DEFINED (__FUSE_REGION_LENGTH__)?__FUSE_REGION_LENGTH__:0x400
                0x00000400                __LOCK_REGION_LENGTH__ = DEFINED (__LOCK_REGION_LENGTH__)?__LOCK_REGION_LENGTH__:0x400
                0x00000400                __SIGNATURE_REGION_LENGTH__ = DEFINED (__SIGNATURE_REGION_LENGTH__)?__SIGNATURE_REGION_LENGTH__:0x400
                0x00000400                __USER_SIGNATURE_REGION_LENGTH__ = DEFINED (__USER_SIGNATURE_REGION_LENGTH__)?__USER_SIGNATURE_REGION_LENGTH__:0x400

.hash
 *(.hash)

.dynsym
 *(.dynsym)

.dynstr
 *(.dynstr)

.gnu.version
 *(.gnu.version)

.gnu.version_d
 *(.gnu.version_d)

.gnu.version_r
 *(.gnu.version_r)

.rel.init
 *(.rel.init)

.rela.init
 *(.rela.init)

.rel.text
 *(.rel.text)
 *(.rel.text.*)
 *(.rel.gnu.linkonce.t*)

.rela.text
 *(.rela.text)
 *(.rela.text.*)
 *(.rela.gnu.linkonce.t*)

.rel.fini
 *(.rel.fini)

.rela.fini
 *(.rela.fini)

.rel.rodata
 *(.rel.rodata)
 *(.rel.rodata.*)
 *(.rel.gnu.linkonce.r*)

.rela.rodata
 *(.rela.rodata)
 *(.rela.rodata.*)
 *(.rela.gnu.linkonce.r*)

.rel.data
 *(.rel.data)
 *(.rel.data.*)
 *(.rel.gnu.linkonce.d*)

.rela.data
 *(.rela.data)
 *(.rela.data.*)
 *(.rela.gnu.linkonce.d*)

.rel.ctors
 *(.rel.ctors)

.rela.ctors
 *(.rela.ctors)

.rel.dtors
 *(.rel.dtors)

.rela.dtors
 *(.rela.dtors)

.rel.got
 *(.rel.got)

.rela.got
 *(.rela.got)

.rel.bss
 *(.rel.bss)

.rela.bss
 *(.rela.bss)

.rel.plt
 *(.rel.plt)

.rela.plt
 *(.rela.plt)

.text           0x00000000     0xa12e
 *(.vectors)
 .vectors       0x00000000       0xe4 c:/atmel/studio/7.0/toolchain/avr8/avr8-gnu-toolchain/bin/../lib/gcc/avr/5.4.0/../../../../avr/lib/avr6/crtatmega2560.o
                0x00000000                __vector_default
                0x00000000                __vectors
 *(.vectors)
 *(.progmem.gcc*)
 .progmem.gcc_sw_table
                0x000000e4       0x20 obj\Debug\arduino\WInterrupts.o
 .progmem.gcc_sw_table
                0x00000104       0x24 obj\Debug\arduino\wiring_analog.o
 .progmem.gcc_sw_table
                0x00000128       0x24 obj\Debug\arduino\wiring_digital.o
                0x0000014c                . = ALIGN (0x2)
                0x0000014c                __trampolines_start = .
 *(.trampolines)
 .trampolines   0x0000014c      0x120 linker stubs
 *(.trampolines*)
                0x0000026c                __trampolines_end = .
 *libprintf_flt.a:*(.progmem.data)
 *libc.a:*(.progmem.data)
 .progmem.data  0x0000026c       0x3b c:/atmel/studio/7.0/toolchain/avr8/avr8-gnu-toolchain/bin/../lib/gcc/avr/5.4.0/../../../../avr/lib/avr6\libc.a(strtod.o)
 .progmem.data  0x000002a7       0xfa c:/atmel/studio/7.0/toolchain/avr8/avr8-gnu-toolchain/bin/../lib/gcc/avr/5.4.0/../../../../avr/lib/avr6\libc.a(ftoa_engine.o)
 *(.progmem*)
 .progmem.data  0x000003a1        0x1 obj\Debug\arduino\Tone.o
 .progmem.data  0x000003a2       0x5a obj\Debug\arduino\wiring_digital.o
                0x000003a2                port_to_mode_PGM
                0x000003ac                port_to_output_PGM
                0x000003b6                port_to_input_PGM
                0x000003c0                digital_pin_to_port_PGM
                0x000003d4                digital_pin_to_bit_mask_PGM
                0x000003e8                digital_pin_to_timer_PGM
                0x000003fc                . = ALIGN (0x2)
 *(.jumptables)
 *(.jumptables*)
 *(.lowtext)
 *(.lowtext*)
                0x000003fc                __ctors_start = .
 *(.ctors)
 .ctors         0x000003fc        0x2 obj\Debug\arduino\HardwareSerial0.o
 .ctors         0x000003fe        0x2 obj\Debug\arduino\HardwareSerial1.o
 .ctors         0x00000400        0x2 obj\Debug\arduino\HardwareSerial2.o
 .ctors         0x00000402        0x2 obj\Debug\arduino\HardwareSerial3.o
 .ctors         0x00000404        0x2 obj\Debug\arduino\IPAddress.o
                0x00000406                __ctors_end = .
                0x00000406                __dtors_start = .
 *(.dtors)
                0x00000406                __dtors_end = .
 SORT(*)(.ctors)
 SORT(*)(.dtors)
 *(.init0)
 .init0         0x00000406        0x0 c:/atmel/studio/7.0/toolchain/avr8/avr8-gnu-toolchain/bin/../lib/gcc/avr/5.4.0/../../../../avr/lib/avr6/crtatmega2560.o
                0x00000406                __init
 *(.init0)
 *(.init1)
 *(.init1)
 *(.init2)
 .init2         0x00000406       0x10 c:/atmel/studio/7.0/toolchain/avr8/avr8-gnu-toolchain/bin/../lib/gcc/avr/5.4.0/../../../../avr/lib/avr6/crtatmega2560.o
 *(.init2)
 *(.init3)
 *(.init3)
 *(.init4)
 .init4         0x00000416       0x1a c:/atmel/studio/7.0/toolchain/avr8/avr8-gnu-toolchain/bin/../lib/gcc/avr/5.4.0/avr6\libgcc.a(_copy_data.o)
                0x00000416                __do_copy_data
 .init4         0x00000430       0x10 c:/atmel/studio/7.0/toolchain/avr8/avr8-gnu-toolchain/bin/../lib/gcc/avr/5.4.0/avr6\libgcc.a(_clear_bss.o)
                0x00000430                __do_clear_bss
 *(.init4)
 *(.init5)
 *(.init5)
 *(.init6)
 .init6         0x00000440       0x20 c:/atmel/studio/7.0/toolchain/avr8/avr8-gnu-toolchain/bin/../lib/gcc/avr/5.4.0/avr6\libgcc.a(_ctors.o)
                0x00000440                __do_global_ctors
 *(.init6)
 *(.init7)
 *(.init7)
 *(.init8)
 *(.init8)
 *(.init9)
 .init9         0x00000460        0x8 c:/atmel/studio/7.0/toolchain/avr8/avr8-gnu-toolchain/bin/../lib/gcc/avr/5.4.0/../../../../avr/lib/avr6/crtatmega2560.o
 *(.init9)
 *(.text)
 .text          0x00000468        0x4 c:/atmel/studio/7.0/toolchain/avr8/avr8-gnu-toolchain/bin/../lib/gcc/avr/5.4.0/../../../../avr/lib/avr6/crtatmega2560.o
                0x00000468                __vector_38
                0x00000468                __vector_22
                0x00000468                __vector_28
                0x00000468                __vector_32
                0x00000468                __vector_34
                0x00000468                __vector_24
                0x00000468                __vector_12
                0x00000468                __vector_46
                0x00000468                __bad_interrupt
                0x00000468                __vector_31
                0x00000468                __vector_35
                0x00000468                __vector_39
                0x00000468                __vector_30
                0x00000468                __vector_45
                0x00000468                __vector_11
                0x00000468                __vector_17
                0x00000468                __vector_19
                0x00000468                __vector_56
                0x00000468                __vector_49
                0x00000468                __vector_41
                0x00000468                __vector_43
                0x00000468                __vector_27
                0x00000468                __vector_33
                0x00000468                __vector_47
                0x00000468                __vector_44
                0x00000468                __vector_9
                0x00000468                __vector_21
                0x00000468                __vector_15
                0x00000468                __vector_29
                0x00000468                __vector_40
                0x00000468                __vector_48
                0x00000468                __vector_14
                0x00000468                __vector_53
                0x00000468                __vector_10
                0x00000468                __vector_50
                0x00000468                __vector_16
                0x00000468                __vector_18
                0x00000468                __vector_20
                0x00000468                __vector_42
 .text          0x0000046c       0x18 obj\Debug\arduino\abi.o
                0x0000046c                __cxa_pure_virtual
                0x00000478                __cxa_deleted_virtual
 .text          0x00000484        0x0 obj\Debug\arduino\CDC.o
 .text          0x00000484      0x7e0 obj\Debug\arduino\HardwareSerial.o
                0x000004c2                _Z14serialEventRunv
                0x0000056a                _ZN14HardwareSerial17_tx_udr_empty_irqEv
                0x00000636                _ZN14HardwareSerial5beginEmh
                0x000007b8                _ZN14HardwareSerial3endEv
                0x00000876                _ZN14HardwareSerial9availableEv
                0x000008ba                _ZN14HardwareSerial4peekEv
                0x00000914                _ZN14HardwareSerial4readEv
                0x00000988                _ZN14HardwareSerial17availableForWriteEv
                0x000009f2                _ZN14HardwareSerial5flushEv
                0x00000abc                _ZN14HardwareSerial5writeEh
 .text          0x00000c64      0x186 obj\Debug\arduino\HardwareSerial0.o
                0x00000c64                __vector_25
                0x00000cce                __vector_26
                0x00000d38                _Z17Serial0_availablev
 .text          0x00000dea      0x186 obj\Debug\arduino\HardwareSerial1.o
                0x00000dea                __vector_36
                0x00000e54                __vector_37
                0x00000ebe                _Z17Serial1_availablev
 .text          0x00000f70      0x186 obj\Debug\arduino\HardwareSerial2.o
                0x00000f70                __vector_51
                0x00000fda                __vector_52
                0x00001044                _Z17Serial2_availablev
 .text          0x000010f6      0x18a obj\Debug\arduino\HardwareSerial3.o
                0x000010f6                __vector_54
                0x00001160                __vector_55
                0x000011ca                _Z17Serial3_availablev
 .text          0x00001280       0x10 obj\Debug\arduino\hooks.o
                0x00001280                yield
 .text          0x00001290      0x418 obj\Debug\arduino\IPAddress.o
                0x00001290                _ZN9IPAddressC2Ev
                0x00001290                _ZN9IPAddressC1Ev
                0x000012d0                _ZN9IPAddressC2Ehhhh
                0x000012d0                _ZN9IPAddressC1Ehhhh
                0x0000133e                _ZN9IPAddressC1Em
                0x0000133e                _ZN9IPAddressC2Em
                0x00001396                _ZN9IPAddressC1EPKh
                0x00001396                _ZN9IPAddressC2EPKh
                0x000013e4                _ZN9IPAddress10fromStringEPKc
                0x000014cc                _ZN9IPAddressaSEPKh
                0x00001506                _ZN9IPAddressaSEm
                0x0000154a                _ZNK9IPAddresseqEPKh
                0x0000158e                _ZNK9IPAddress7printToER5Print
 .text          0x000016a8       0x64 obj\Debug\arduino\main.o
                0x000016a8                atexit
                0x000016c6                initVariant
                0x000016d6                _Z8setupUSBv
                0x000016e6                main
 .text          0x0000170c       0x8c obj\Debug\arduino\new.o
                0x0000170c                _Znwj
                0x0000172e                _Znaj
                0x00001750                _ZdlPv
                0x00001774                _ZdaPv
 .text          0x00001798        0x0 obj\Debug\arduino\PluggableUSB.o
 .text          0x00001798      0xc96 obj\Debug\arduino\Print.o
                0x00001798                _ZN5Print5writeEPKhj
                0x00001832                _ZN5Print5printEPK19__FlashStringHelper
                0x000018ce                _ZN5Print5printERK6String
                0x00001918                _ZN5Print5printEPKc
                0x00001948                _ZN5Print5printEc
                0x00001980                _ZN5Print5printEhi
                0x000019c4                _ZN5Print5printEii
                0x00001a0c                _ZN5Print5printEji
                0x00001a52                _ZN5Print5printEli
                0x00001b44                _ZN5Print5printEmi
                0x00001bb8                _ZN5Print5printEdi
                0x00001c06                _ZN5Print7printlnEPK19__FlashStringHelper
                0x00001c58                _ZN5Print5printERK9Printable
                0x00001c98                _ZN5Print7printlnEv
                0x00001cbe                _ZN5Print7printlnERK6String
                0x00001d10                _ZN5Print7printlnEPKc
                0x00001d62                _ZN5Print7printlnEc
                0x00001dae                _ZN5Print7printlnEhi
                0x00001e0c                _ZN5Print7printlnEii
                0x00001e6e                _ZN5Print7printlnEji
                0x00001ed0                _ZN5Print7printlnEli
                0x00001f3e                _ZN5Print7printlnEmi
                0x00001fac                _ZN5Print7printlnEdi
                0x0000201a                _ZN5Print7printlnERK9Printable
                0x0000206c                _ZN5Print11printNumberEmh
                0x00002150                _ZN5Print10printFloatEdh
 .text          0x0000242e      0xc34 obj\Debug\arduino\Stream.o
                0x0000242e                _ZN6Stream9timedReadEv
                0x000024d2                _ZN6Stream9timedPeekEv
                0x00002576                _ZN6Stream13peekNextDigitE13LookaheadModeb
                0x0000263e                _ZN6Stream10setTimeoutEm
                0x00002680                _ZN6Stream4findEPc
                0x000026c8                _ZN6Stream4findEPcj
                0x00002712                _ZN6Stream9findUntilEPcS0_
                0x00002768                _ZN6Stream9findUntilEPcjS0_j
                0x00002840                _ZN6Stream8parseIntE13LookaheadModec
                0x00002998                _ZN6Stream10parseFloatE13LookaheadModec
                0x00002b7e                _ZN6Stream9readBytesEPcj
                0x00002bfc                _ZN6Stream14readBytesUntilEcPcj
                0x00002c9a                _ZN6Stream10readStringEv
                0x00002d00                _ZN6Stream15readStringUntilEc
                0x00002d82                _ZN6Stream9findMultiEPNS_11MultiTargetEi
 .text          0x00003062      0xd80 obj\Debug\arduino\Tone.o
                0x000035f8                _Z4tonehjm
                0x00003b84                _Z12disableTimerh
                0x00003c5e                _Z6noToneh
                0x00003cf0                __vector_13
 .text          0x00003de2        0x0 obj\Debug\arduino\USBCore.o
 .text          0x00003de2      0x6b8 obj\Debug\arduino\WInterrupts.o
                0x00003df2                attachInterrupt
                0x00004024                detachInterrupt
                0x0000412a                __vector_1
                0x00004198                __vector_2
                0x00004206                __vector_3
                0x00004274                __vector_4
                0x000042e2                __vector_5
                0x00004350                __vector_6
                0x000043be                __vector_7
                0x0000442c                __vector_8
 .text          0x0000449a      0x4d6 obj\Debug\arduino\wiring.o
                0x0000449a                __vector_23
                0x00004580                millis
                0x000045d8                micros
                0x00004694                delay
                0x00004764                delayMicroseconds
                0x000047b0                init
 .text          0x00004970      0x3c8 obj\Debug\arduino\wiring_analog.o
                0x00004970                analogReference
                0x0000498c                analogRead
                0x00004a5c                analogWrite
 .text          0x00004d38      0x502 obj\Debug\arduino\wiring_digital.o
                0x00004d38                pinMode
                0x00005054                digitalWrite
                0x00005166                digitalRead
 .text          0x0000523a      0x49a obj\Debug\arduino\wiring_pulse.o
                0x0000523a                pulseIn
                0x000053a2                pulseInLong
                0x000055b2                countPulseASM
 .text          0x000056d4      0x15a obj\Debug\arduino\wiring_shift.o
                0x000056d4                shiftIn
                0x00005778                shiftOut
 .text          0x0000582e      0x292 obj\Debug\arduino\WMath.o
                0x0000582e                _Z10randomSeedm
                0x00005872                _Z6randoml
                0x000058cc                _Z6randomll
                0x00005986                _Z3maplllll
                0x00005a74                _Z8makeWordj
                0x00005a92                _Z8makeWordhh
 .text          0x00005ac0     0x24de obj\Debug\arduino\WString.o
                0x00005ac0                _ZN6StringC2EPKc
                0x00005ac0                _ZN6StringC1EPKc
                0x00005b0c                _ZN6StringC1ERKS_
                0x00005b0c                _ZN6StringC2ERKS_
                0x00005b46                _ZN6StringC1EPK19__FlashStringHelper
                0x00005b46                _ZN6StringC2EPK19__FlashStringHelper
                0x00005b80                _ZN6StringC2Ec
                0x00005b80                _ZN6StringC1Ec
                0x00005bc4                _ZN6StringC1Ehh
                0x00005bc4                _ZN6StringC2Ehh
                0x00005c26                _ZN6StringC1Eih
                0x00005c26                _ZN6StringC2Eih
                0x00005c88                _ZN6StringC2Ejh
                0x00005c88                _ZN6StringC1Ejh
                0x00005cea                _ZN6StringC2Elh
                0x00005cea                _ZN6StringC1Elh
                0x00005d54                _ZN6StringC2Emh
                0x00005d54                _ZN6StringC1Emh
                0x00005dbe                _ZN6StringC1Efh
                0x00005dbe                _ZN6StringC2Efh
                0x00005e30                _ZN6StringC2Edh
                0x00005e30                _ZN6StringC1Edh
                0x00005ea2                _ZN6StringD1Ev
                0x00005ea2                _ZN6StringD2Ev
                0x00005ecc                _ZN6String10invalidateEv
                0x00005f2c                _ZN6String7reserveEj
                0x00005fb2                _ZN6String12changeBufferEj
                0x00006020                _ZN6String4copyEPKcj
                0x0000609a                _ZN6String4copyEPK19__FlashStringHelperj
                0x00006114                _ZN6StringaSERKS_
                0x00006184                _ZN6StringaSEPKc
                0x000061d4                _ZN6StringaSEPK19__FlashStringHelper
                0x00006230                _ZN6String6concatERKS_
                0x00006270                _ZN6String6concatEPKcj
                0x00006322                _ZN6String6concatEPKc
                0x00006368                _ZN6String6concatEc
                0x000063a6                _ZN6String6concatEh
                0x00006404                _ZN6String6concatEi
                0x00006462                _ZN6String6concatEj
                0x000064c0                _ZN6String6concatEl
                0x00006528                _ZN6String6concatEm
                0x00006590                _ZN6String6concatEf
                0x00006602                _ZN6String6concatEd
                0x00006674                _ZN6String6concatEPK19__FlashStringHelper
                0x00006736                _ZplRK15StringSumHelperRK6String
                0x0000679c                _ZplRK15StringSumHelperPKc
                0x00006804                _ZplRK15StringSumHelperc
                0x00006854                _ZplRK15StringSumHelperh
                0x000068a4                _ZplRK15StringSumHelperi
                0x000068fa                _ZplRK15StringSumHelperj
                0x00006950                _ZplRK15StringSumHelperl
                0x000069ba                _ZplRK15StringSumHelperm
                0x00006a24                _ZplRK15StringSumHelperf
                0x00006a8e                _ZplRK15StringSumHelperd
                0x00006af8                _ZplRK15StringSumHelperPK19__FlashStringHelper
                0x00006b4e                _ZNK6String9compareToERKS_
                0x00006c12                _ZNK6String6equalsERKS_
                0x00006c66                _ZNK6String6equalsEPKc
                0x00006cf0                _ZNK6StringltERKS_
                0x00006d28                _ZNK6StringgtERKS_
                0x00006d64                _ZNK6StringleERKS_
                0x00006da0                _ZNK6StringgeERKS_
                0x00006dda                _ZNK6String16equalsIgnoreCaseERKS_
                0x00006ec8                _ZNK6String10startsWithERKS_
                0x00006f1a                _ZNK6String10startsWithERKS_j
                0x00006fba                _ZNK6String8endsWithERKS_
                0x00007058                _ZNK6String6charAtEj
                0x00007088                _ZN6String9setCharAtEjc
                0x000070de                _ZN6StringixEj
                0x0000713e                _ZNK6StringixEj
                0x0000719c                _ZNK6String8getBytesEPhjj
                0x00007278                _ZNK6String7indexOfEc
                0x000072a2                _ZNK6String7indexOfEcj
                0x00007330                _ZNK6String7indexOfERKS_
                0x00007364                _ZNK6String7indexOfERKS_j
                0x000073f6                _ZNK6String11lastIndexOfEc
                0x0000742e                _ZNK6String11lastIndexOfEcj
                0x00007500                _ZNK6String11lastIndexOfERKS_
                0x0000754a                _ZNK6String11lastIndexOfERKS_j
                0x00007674                _ZNK6String9substringEjj
                0x00007780                _ZN6String7replaceEcc
                0x000077f4                _ZN6String7replaceERKS_S1_
                0x00007b88                _ZN6String6removeEj
                0x00007bbe                _ZN6String6removeEjj
                0x00007cd6                _ZN6String11toLowerCaseEv
                0x00007d46                _ZN6String11toUpperCaseEv
                0x00007db6                _ZN6String4trimEv
                0x00007ee8                _ZNK6String5toIntEv
                0x00007f2e                _ZNK6String7toFloatEv
                0x00007f58                _ZNK6String8toDoubleEv
 .text          0x00007f9e       0x26 obj\Debug\HWInputs.o
                0x00007f9e                _Z12HWReadInputsPh
 .text          0x00007fc4       0x32 obj\Debug\HWOutputs.o
                0x00007fc4                _Z14HWWriteOutputsPh
 .text          0x00007ff6       0x20 obj\Debug\Logic.o
                0x00007ff6                _Z12MainFunctionv
 .text          0x00008016       0x40 obj\Debug\SmartHome.o
                0x00008016                setup
                0x00008036                loop
 .text          0x00008056       0x26 obj\Debug\SWInputs.o
                0x00008056                SWReadInputs
 .text          0x0000807c       0x48 obj\Debug\SWOutputs.o
                0x0000807c                SWWriteOutputs
 .text          0x000080c4        0x0 c:/atmel/studio/7.0/toolchain/avr8/avr8-gnu-toolchain/bin/../lib/gcc/avr/5.4.0/avr6\libgcc.a(_mulsi3.o)
 .text          0x000080c4        0x0 c:/atmel/studio/7.0/toolchain/avr8/avr8-gnu-toolchain/bin/../lib/gcc/avr/5.4.0/avr6\libgcc.a(_udivmodsi4.o)
 .text          0x000080c4        0x0 c:/atmel/studio/7.0/toolchain/avr8/avr8-gnu-toolchain/bin/../lib/gcc/avr/5.4.0/avr6\libgcc.a(_divmodsi4.o)
 .text          0x000080c4        0x0 c:/atmel/studio/7.0/toolchain/avr8/avr8-gnu-toolchain/bin/../lib/gcc/avr/5.4.0/avr6\libgcc.a(_negsi2.o)
 .text          0x000080c4        0x0 c:/atmel/studio/7.0/toolchain/avr8/avr8-gnu-toolchain/bin/../lib/gcc/avr/5.4.0/avr6\libgcc.a(_exit.o)
 .text          0x000080c4        0x0 c:/atmel/studio/7.0/toolchain/avr8/avr8-gnu-toolchain/bin/../lib/gcc/avr/5.4.0/avr6\libgcc.a(_tablejump2.o)
 .text          0x000080c4        0x0 c:/atmel/studio/7.0/toolchain/avr8/avr8-gnu-toolchain/bin/../lib/gcc/avr/5.4.0/avr6\libgcc.a(_copy_data.o)
 .text          0x000080c4        0x0 c:/atmel/studio/7.0/toolchain/avr8/avr8-gnu-toolchain/bin/../lib/gcc/avr/5.4.0/avr6\libgcc.a(_clear_bss.o)
 .text          0x000080c4        0x0 c:/atmel/studio/7.0/toolchain/avr8/avr8-gnu-toolchain/bin/../lib/gcc/avr/5.4.0/avr6\libgcc.a(_ctors.o)
 .text          0x000080c4        0x0 c:/atmel/studio/7.0/toolchain/avr8/avr8-gnu-toolchain/bin/../lib/gcc/avr/5.4.0/avr6\libgcc.a(_muluhisi3.o)
 .text          0x000080c4        0x0 c:/atmel/studio/7.0/toolchain/avr8/avr8-gnu-toolchain/bin/../lib/gcc/avr/5.4.0/avr6\libgcc.a(_umulhisi3.o)
 .text          0x000080c4        0x0 c:/atmel/studio/7.0/toolchain/avr8/avr8-gnu-toolchain/bin/../lib/gcc/avr/5.4.0/../../../../avr/lib/avr6\libm.a(addsf3.o)
 .text          0x000080c4        0x0 c:/atmel/studio/7.0/toolchain/avr8/avr8-gnu-toolchain/bin/../lib/gcc/avr/5.4.0/../../../../avr/lib/avr6\libm.a(addsf3x.o)
 .text          0x000080c4        0x0 c:/atmel/studio/7.0/toolchain/avr8/avr8-gnu-toolchain/bin/../lib/gcc/avr/5.4.0/../../../../avr/lib/avr6\libm.a(cmpsf2.o)
 .text          0x000080c4        0x0 c:/atmel/studio/7.0/toolchain/avr8/avr8-gnu-toolchain/bin/../lib/gcc/avr/5.4.0/../../../../avr/lib/avr6\libm.a(divsf3.o)
 .text          0x000080c4        0x0 c:/atmel/studio/7.0/toolchain/avr8/avr8-gnu-toolchain/bin/../lib/gcc/avr/5.4.0/../../../../avr/lib/avr6\libm.a(divsf3x.o)
 .text          0x000080c4        0x0 c:/atmel/studio/7.0/toolchain/avr8/avr8-gnu-toolchain/bin/../lib/gcc/avr/5.4.0/../../../../avr/lib/avr6\libm.a(fixunssfsi.o)
 .text          0x000080c4        0x0 c:/atmel/studio/7.0/toolchain/avr8/avr8-gnu-toolchain/bin/../lib/gcc/avr/5.4.0/../../../../avr/lib/avr6\libm.a(floatsisf.o)
 .text          0x000080c4        0x0 c:/atmel/studio/7.0/toolchain/avr8/avr8-gnu-toolchain/bin/../lib/gcc/avr/5.4.0/../../../../avr/lib/avr6\libm.a(fp_cmp.o)
 .text          0x000080c4        0x0 c:/atmel/studio/7.0/toolchain/avr8/avr8-gnu-toolchain/bin/../lib/gcc/avr/5.4.0/../../../../avr/lib/avr6\libm.a(fp_inf.o)
 .text          0x000080c4        0x0 c:/atmel/studio/7.0/toolchain/avr8/avr8-gnu-toolchain/bin/../lib/gcc/avr/5.4.0/../../../../avr/lib/avr6\libm.a(fp_nan.o)
 .text          0x000080c4        0x0 c:/atmel/studio/7.0/toolchain/avr8/avr8-gnu-toolchain/bin/../lib/gcc/avr/5.4.0/../../../../avr/lib/avr6\libm.a(fp_pscA.o)
 .text          0x000080c4        0x0 c:/atmel/studio/7.0/toolchain/avr8/avr8-gnu-toolchain/bin/../lib/gcc/avr/5.4.0/../../../../avr/lib/avr6\libm.a(fp_pscB.o)
 .text          0x000080c4        0x0 c:/atmel/studio/7.0/toolchain/avr8/avr8-gnu-toolchain/bin/../lib/gcc/avr/5.4.0/../../../../avr/lib/avr6\libm.a(fp_round.o)
 .text          0x000080c4        0x0 c:/atmel/studio/7.0/toolchain/avr8/avr8-gnu-toolchain/bin/../lib/gcc/avr/5.4.0/../../../../avr/lib/avr6\libm.a(fp_split3.o)
 .text          0x000080c4        0x0 c:/atmel/studio/7.0/toolchain/avr8/avr8-gnu-toolchain/bin/../lib/gcc/avr/5.4.0/../../../../avr/lib/avr6\libm.a(fp_zero.o)
 .text          0x000080c4        0x0 c:/atmel/studio/7.0/toolchain/avr8/avr8-gnu-toolchain/bin/../lib/gcc/avr/5.4.0/../../../../avr/lib/avr6\libm.a(gesf2.o)
 .text          0x000080c4        0x0 c:/atmel/studio/7.0/toolchain/avr8/avr8-gnu-toolchain/bin/../lib/gcc/avr/5.4.0/../../../../avr/lib/avr6\libm.a(mulsf3.o)
 .text          0x000080c4        0x0 c:/atmel/studio/7.0/toolchain/avr8/avr8-gnu-toolchain/bin/../lib/gcc/avr/5.4.0/../../../../avr/lib/avr6\libm.a(mulsf3x.o)
 .text          0x000080c4        0x0 c:/atmel/studio/7.0/toolchain/avr8/avr8-gnu-toolchain/bin/../lib/gcc/avr/5.4.0/../../../../avr/lib/avr6\libm.a(unordsf2.o)
 .text          0x000080c4        0x0 c:/atmel/studio/7.0/toolchain/avr8/avr8-gnu-toolchain/bin/../lib/gcc/avr/5.4.0/../../../../avr/lib/avr6\libc.a(dtostrf.o)
 .text          0x000080c4        0x0 c:/atmel/studio/7.0/toolchain/avr8/avr8-gnu-toolchain/bin/../lib/gcc/avr/5.4.0/../../../../avr/lib/avr6\libc.a(malloc.o)
 .text          0x000080c4        0x0 c:/atmel/studio/7.0/toolchain/avr8/avr8-gnu-toolchain/bin/../lib/gcc/avr/5.4.0/../../../../avr/lib/avr6\libc.a(random.o)
 .text          0x000080c4        0x0 c:/atmel/studio/7.0/toolchain/avr8/avr8-gnu-toolchain/bin/../lib/gcc/avr/5.4.0/../../../../avr/lib/avr6\libc.a(realloc.o)
 .text          0x000080c4        0x0 c:/atmel/studio/7.0/toolchain/avr8/avr8-gnu-toolchain/bin/../lib/gcc/avr/5.4.0/../../../../avr/lib/avr6\libc.a(abort.o)
 .text          0x000080c4        0x0 c:/atmel/studio/7.0/toolchain/avr8/avr8-gnu-toolchain/bin/../lib/gcc/avr/5.4.0/../../../../avr/lib/avr6\libc.a(atof.o)
 .text          0x000080c4        0x0 c:/atmel/studio/7.0/toolchain/avr8/avr8-gnu-toolchain/bin/../lib/gcc/avr/5.4.0/../../../../avr/lib/avr6\libc.a(atol.o)
 .text          0x000080c4        0x0 c:/atmel/studio/7.0/toolchain/avr8/avr8-gnu-toolchain/bin/../lib/gcc/avr/5.4.0/../../../../avr/lib/avr6\libc.a(isspace.o)
 .text          0x000080c4        0x0 c:/atmel/studio/7.0/toolchain/avr8/avr8-gnu-toolchain/bin/../lib/gcc/avr/5.4.0/../../../../avr/lib/avr6\libc.a(tolower.o)
 .text          0x000080c4        0x0 c:/atmel/studio/7.0/toolchain/avr8/avr8-gnu-toolchain/bin/../lib/gcc/avr/5.4.0/../../../../avr/lib/avr6\libc.a(toupper.o)
 .text          0x000080c4        0x0 c:/atmel/studio/7.0/toolchain/avr8/avr8-gnu-toolchain/bin/../lib/gcc/avr/5.4.0/../../../../avr/lib/avr6\libc.a(strcpy_P.o)
 .text          0x000080c4        0x0 c:/atmel/studio/7.0/toolchain/avr8/avr8-gnu-toolchain/bin/../lib/gcc/avr/5.4.0/../../../../avr/lib/avr6\libc.a(strlen_P.o)
 .text          0x000080c4        0x0 c:/atmel/studio/7.0/toolchain/avr8/avr8-gnu-toolchain/bin/../lib/gcc/avr/5.4.0/../../../../avr/lib/avr6\libc.a(memcmp.o)
 .text          0x000080c4        0x0 c:/atmel/studio/7.0/toolchain/avr8/avr8-gnu-toolchain/bin/../lib/gcc/avr/5.4.0/../../../../avr/lib/avr6\libc.a(memcpy.o)
 .text          0x000080c4        0x0 c:/atmel/studio/7.0/toolchain/avr8/avr8-gnu-toolchain/bin/../lib/gcc/avr/5.4.0/../../../../avr/lib/avr6\libc.a(memmove.o)
 .text          0x000080c4        0x0 c:/atmel/studio/7.0/toolchain/avr8/avr8-gnu-toolchain/bin/../lib/gcc/avr/5.4.0/../../../../avr/lib/avr6\libc.a(strchr.o)
 .text          0x000080c4        0x0 c:/atmel/studio/7.0/toolchain/avr8/avr8-gnu-toolchain/bin/../lib/gcc/avr/5.4.0/../../../../avr/lib/avr6\libc.a(strcmp.o)
 .text          0x000080c4        0x0 c:/atmel/studio/7.0/toolchain/avr8/avr8-gnu-toolchain/bin/../lib/gcc/avr/5.4.0/../../../../avr/lib/avr6\libc.a(strcpy.o)
 .text          0x000080c4        0x0 c:/atmel/studio/7.0/toolchain/avr8/avr8-gnu-toolchain/bin/../lib/gcc/avr/5.4.0/../../../../avr/lib/avr6\libc.a(strlen.o)
 .text          0x000080c4        0x0 c:/atmel/studio/7.0/toolchain/avr8/avr8-gnu-toolchain/bin/../lib/gcc/avr/5.4.0/../../../../avr/lib/avr6\libc.a(strncmp.o)
 .text          0x000080c4        0x0 c:/atmel/studio/7.0/toolchain/avr8/avr8-gnu-toolchain/bin/../lib/gcc/avr/5.4.0/../../../../avr/lib/avr6\libc.a(strncpy.o)
 .text          0x000080c4        0x0 c:/atmel/studio/7.0/toolchain/avr8/avr8-gnu-toolchain/bin/../lib/gcc/avr/5.4.0/../../../../avr/lib/avr6\libc.a(strrchr.o)
 .text          0x000080c4        0x0 c:/atmel/studio/7.0/toolchain/avr8/avr8-gnu-toolchain/bin/../lib/gcc/avr/5.4.0/../../../../avr/lib/avr6\libc.a(strstr.o)
 .text          0x000080c4        0x0 c:/atmel/studio/7.0/toolchain/avr8/avr8-gnu-toolchain/bin/../lib/gcc/avr/5.4.0/../../../../avr/lib/avr6\libc.a(itoa.o)
 .text          0x000080c4        0x0 c:/atmel/studio/7.0/toolchain/avr8/avr8-gnu-toolchain/bin/../lib/gcc/avr/5.4.0/../../../../avr/lib/avr6\libc.a(itoa_ncheck.o)
 .text          0x000080c4        0x0 c:/atmel/studio/7.0/toolchain/avr8/avr8-gnu-toolchain/bin/../lib/gcc/avr/5.4.0/../../../../avr/lib/avr6\libc.a(ltoa.o)
 .text          0x000080c4        0x0 c:/atmel/studio/7.0/toolchain/avr8/avr8-gnu-toolchain/bin/../lib/gcc/avr/5.4.0/../../../../avr/lib/avr6\libc.a(ltoa_ncheck.o)
 .text          0x000080c4        0x0 c:/atmel/studio/7.0/toolchain/avr8/avr8-gnu-toolchain/bin/../lib/gcc/avr/5.4.0/../../../../avr/lib/avr6\libc.a(mulsi10.o)
 .text          0x000080c4        0x0 c:/atmel/studio/7.0/toolchain/avr8/avr8-gnu-toolchain/bin/../lib/gcc/avr/5.4.0/../../../../avr/lib/avr6\libc.a(ultoa.o)
 .text          0x000080c4        0x0 c:/atmel/studio/7.0/toolchain/avr8/avr8-gnu-toolchain/bin/../lib/gcc/avr/5.4.0/../../../../avr/lib/avr6\libc.a(ultoa_ncheck.o)
 .text          0x000080c4        0x0 c:/atmel/studio/7.0/toolchain/avr8/avr8-gnu-toolchain/bin/../lib/gcc/avr/5.4.0/../../../../avr/lib/avr6\libc.a(utoa.o)
 .text          0x000080c4        0x0 c:/atmel/studio/7.0/toolchain/avr8/avr8-gnu-toolchain/bin/../lib/gcc/avr/5.4.0/../../../../avr/lib/avr6\libc.a(utoa_ncheck.o)
 .text          0x000080c4        0x0 c:/atmel/studio/7.0/toolchain/avr8/avr8-gnu-toolchain/bin/../lib/gcc/avr/5.4.0/../../../../avr/lib/avr6\libc.a(printf.o)
 .text          0x000080c4        0x0 c:/atmel/studio/7.0/toolchain/avr8/avr8-gnu-toolchain/bin/../lib/gcc/avr/5.4.0/../../../../avr/lib/avr6\libc.a(vfprintf_std.o)
 .text          0x000080c4        0x0 c:/atmel/studio/7.0/toolchain/avr8/avr8-gnu-toolchain/bin/../lib/gcc/avr/5.4.0/../../../../avr/lib/avr6\libc.a(dtoa_prf.o)
 .text          0x000080c4        0x0 c:/atmel/studio/7.0/toolchain/avr8/avr8-gnu-toolchain/bin/../lib/gcc/avr/5.4.0/../../../../avr/lib/avr6\libc.a(strtod.o)
 .text          0x000080c4        0x0 c:/atmel/studio/7.0/toolchain/avr8/avr8-gnu-toolchain/bin/../lib/gcc/avr/5.4.0/../../../../avr/lib/avr6\libc.a(ftoa_engine.o)
 .text          0x000080c4        0x0 c:/atmel/studio/7.0/toolchain/avr8/avr8-gnu-toolchain/bin/../lib/gcc/avr/5.4.0/../../../../avr/lib/avr6\libc.a(cty_isfalse.o)
 .text          0x000080c4        0x0 c:/atmel/studio/7.0/toolchain/avr8/avr8-gnu-toolchain/bin/../lib/gcc/avr/5.4.0/../../../../avr/lib/avr6\libc.a(strncasecmp_P.o)
 .text          0x000080c4        0x0 c:/atmel/studio/7.0/toolchain/avr8/avr8-gnu-toolchain/bin/../lib/gcc/avr/5.4.0/../../../../avr/lib/avr6\libc.a(strnlen_P.o)
 .text          0x000080c4        0x0 c:/atmel/studio/7.0/toolchain/avr8/avr8-gnu-toolchain/bin/../lib/gcc/avr/5.4.0/../../../../avr/lib/avr6\libc.a(strnlen.o)
 .text          0x000080c4        0x0 c:/atmel/studio/7.0/toolchain/avr8/avr8-gnu-toolchain/bin/../lib/gcc/avr/5.4.0/../../../../avr/lib/avr6\libc.a(strrev.o)
 .text          0x000080c4        0x0 c:/atmel/studio/7.0/toolchain/avr8/avr8-gnu-toolchain/bin/../lib/gcc/avr/5.4.0/../../../../avr/lib/avr6\libc.a(fputc.o)
 .text          0x000080c4        0x0 c:/atmel/studio/7.0/toolchain/avr8/avr8-gnu-toolchain/bin/../lib/gcc/avr/5.4.0/../../../../avr/lib/avr6\libc.a(iob.o)
 .text          0x000080c4        0x0 c:/atmel/studio/7.0/toolchain/avr8/avr8-gnu-toolchain/bin/../lib/gcc/avr/5.4.0/../../../../avr/lib/avr6\libc.a(ultoa_invert.o)
 .text          0x000080c4        0x0 c:/atmel/studio/7.0/toolchain/avr8/avr8-gnu-toolchain/bin/../lib/gcc/avr/5.4.0/../../../../avr/lib/avr6\libc.a(errno.o)
 .text          0x000080c4        0x0 c:/atmel/studio/7.0/toolchain/avr8/avr8-gnu-toolchain/bin/../lib/gcc/avr/5.4.0/avr6\libgcc.a(_mulshisi3.o)
                0x000080c4                . = ALIGN (0x2)
 *(.text.*)
 .text._ZN5PrintC2Ev
                0x000080c4       0x34 obj\Debug\arduino\HardwareSerial0.o
                0x000080c4                _ZN5PrintC2Ev
                0x000080c4                _ZN5PrintC1Ev
 .text._ZN5Print17availableForWriteEv
                0x000080f8       0x1e obj\Debug\arduino\HardwareSerial0.o
                0x000080f8                _ZN5Print17availableForWriteEv
 .text._ZN5Print5flushEv
                0x00008116       0x1c obj\Debug\arduino\HardwareSerial0.o
                0x00008116                _ZN5Print5flushEv
 .text._ZN6StreamC2Ev
                0x00008132       0x48 obj\Debug\arduino\HardwareSerial0.o
                0x00008132                _ZN6StreamC1Ev
                0x00008132                _ZN6StreamC2Ev
 .text._ZN14HardwareSerialC2EPVhS1_S1_S1_S1_S1_
                0x0000817a       0xe6 obj\Debug\arduino\HardwareSerial0.o
                0x0000817a                _ZN14HardwareSerialC2EPVhS1_S1_S1_S1_S1_
                0x0000817a                _ZN14HardwareSerialC1EPVhS1_S1_S1_S1_S1_
 .text._ZN14HardwareSerial16_rx_complete_irqEv
                0x00008260       0xac obj\Debug\arduino\HardwareSerial0.o
                0x00008260                _ZN14HardwareSerial16_rx_complete_irqEv
 .text._ZN9PrintableC2Ev
                0x0000830c       0x2a obj\Debug\arduino\IPAddress.o
                0x0000830c                _ZN9PrintableC1Ev
                0x0000830c                _ZN9PrintableC2Ev
 .text._ZNK6String6lengthEv
                0x00008336       0x24 obj\Debug\arduino\Print.o
                0x00008336                _ZNK6String6lengthEv
 .text._ZNK6String5c_strEv
                0x0000835a       0x24 obj\Debug\arduino\Print.o
                0x0000835a                _ZNK6String5c_strEv
 .text._ZN5Print5writeEPKc
                0x0000837e       0x62 obj\Debug\arduino\Print.o
                0x0000837e                _ZN5Print5writeEPKc
 .text._ZN5Print5writeEPKcj
                0x000083e0       0x4c obj\Debug\arduino\Print.o
                0x000083e0                _ZN5Print5writeEPKcj
 .text._ZN6StringpLEc
                0x0000842c       0x2a obj\Debug\arduino\Stream.o
                0x0000842c                _ZN6StringpLEc
 .text.itoa     0x00008456       0x3c obj\Debug\arduino\WString.o
 .text.ltoa     0x00008492       0x4e obj\Debug\arduino\WString.o
 .text.utoa     0x000084e0       0x3c obj\Debug\arduino\WString.o
 .text.ultoa    0x0000851c       0x4e obj\Debug\arduino\WString.o
 .text._ZN6String4initEv
                0x0000856a       0x3a obj\Debug\arduino\WString.o
                0x0000856a                _ZN6String4initEv
 .text._ZN14HardwareSerial5beginEm
                0x000085a4       0x44 obj\Debug\SmartHome.o
                0x000085a4                _ZN14HardwareSerial5beginEm
 .text.libgcc.mul
                0x000085e8       0x20 c:/atmel/studio/7.0/toolchain/avr8/avr8-gnu-toolchain/bin/../lib/gcc/avr/5.4.0/avr6\libgcc.a(_mulsi3.o)
                0x000085e8                __mulsi3
 .text.libgcc.div
                0x00008608        0x0 c:/atmel/studio/7.0/toolchain/avr8/avr8-gnu-toolchain/bin/../lib/gcc/avr/5.4.0/avr6\libgcc.a(_mulsi3.o)
 .text.libgcc   0x00008608        0x0 c:/atmel/studio/7.0/toolchain/avr8/avr8-gnu-toolchain/bin/../lib/gcc/avr/5.4.0/avr6\libgcc.a(_mulsi3.o)
 .text.libgcc.prologue
                0x00008608        0x0 c:/atmel/studio/7.0/toolchain/avr8/avr8-gnu-toolchain/bin/../lib/gcc/avr/5.4.0/avr6\libgcc.a(_mulsi3.o)
 .text.libgcc.builtins
                0x00008608        0x0 c:/atmel/studio/7.0/toolchain/avr8/avr8-gnu-toolchain/bin/../lib/gcc/avr/5.4.0/avr6\libgcc.a(_mulsi3.o)
 .text.libgcc.fmul
                0x00008608        0x0 c:/atmel/studio/7.0/toolchain/avr8/avr8-gnu-toolchain/bin/../lib/gcc/avr/5.4.0/avr6\libgcc.a(_mulsi3.o)
 .text.libgcc.fixed
                0x00008608        0x0 c:/atmel/studio/7.0/toolchain/avr8/avr8-gnu-toolchain/bin/../lib/gcc/avr/5.4.0/avr6\libgcc.a(_mulsi3.o)
 .text.libgcc.mul
                0x00008608        0x0 c:/atmel/studio/7.0/toolchain/avr8/avr8-gnu-toolchain/bin/../lib/gcc/avr/5.4.0/avr6\libgcc.a(_udivmodsi4.o)
 .text.libgcc.div
                0x00008608       0x44 c:/atmel/studio/7.0/toolchain/avr8/avr8-gnu-toolchain/bin/../lib/gcc/avr/5.4.0/avr6\libgcc.a(_udivmodsi4.o)
                0x00008608                __udivmodsi4
 .text.libgcc   0x0000864c        0x0 c:/atmel/studio/7.0/toolchain/avr8/avr8-gnu-toolchain/bin/../lib/gcc/avr/5.4.0/avr6\libgcc.a(_udivmodsi4.o)
 .text.libgcc.prologue
                0x0000864c        0x0 c:/atmel/studio/7.0/toolchain/avr8/avr8-gnu-toolchain/bin/../lib/gcc/avr/5.4.0/avr6\libgcc.a(_udivmodsi4.o)
 .text.libgcc.builtins
                0x0000864c        0x0 c:/atmel/studio/7.0/toolchain/avr8/avr8-gnu-toolchain/bin/../lib/gcc/avr/5.4.0/avr6\libgcc.a(_udivmodsi4.o)
 .text.libgcc.fmul
                0x0000864c        0x0 c:/atmel/studio/7.0/toolchain/avr8/avr8-gnu-toolchain/bin/../lib/gcc/avr/5.4.0/avr6\libgcc.a(_udivmodsi4.o)
 .text.libgcc.fixed
                0x0000864c        0x0 c:/atmel/studio/7.0/toolchain/avr8/avr8-gnu-toolchain/bin/../lib/gcc/avr/5.4.0/avr6\libgcc.a(_udivmodsi4.o)
 .text.libgcc.mul
                0x0000864c        0x0 c:/atmel/studio/7.0/toolchain/avr8/avr8-gnu-toolchain/bin/../lib/gcc/avr/5.4.0/avr6\libgcc.a(_divmodsi4.o)
 .text.libgcc.div
                0x0000864c       0x2e c:/atmel/studio/7.0/toolchain/avr8/avr8-gnu-toolchain/bin/../lib/gcc/avr/5.4.0/avr6\libgcc.a(_divmodsi4.o)
                0x0000864c                __divmodsi4
 .text.libgcc   0x0000867a        0x0 c:/atmel/studio/7.0/toolchain/avr8/avr8-gnu-toolchain/bin/../lib/gcc/avr/5.4.0/avr6\libgcc.a(_divmodsi4.o)
 .text.libgcc.prologue
                0x0000867a        0x0 c:/atmel/studio/7.0/toolchain/avr8/avr8-gnu-toolchain/bin/../lib/gcc/avr/5.4.0/avr6\libgcc.a(_divmodsi4.o)
 .text.libgcc.builtins
                0x0000867a        0x0 c:/atmel/studio/7.0/toolchain/avr8/avr8-gnu-toolchain/bin/../lib/gcc/avr/5.4.0/avr6\libgcc.a(_divmodsi4.o)
 .text.libgcc.fmul
                0x0000867a        0x0 c:/atmel/studio/7.0/toolchain/avr8/avr8-gnu-toolchain/bin/../lib/gcc/avr/5.4.0/avr6\libgcc.a(_divmodsi4.o)
 .text.libgcc.fixed
                0x0000867a        0x0 c:/atmel/studio/7.0/toolchain/avr8/avr8-gnu-toolchain/bin/../lib/gcc/avr/5.4.0/avr6\libgcc.a(_divmodsi4.o)
 .text.libgcc.mul
                0x0000867a        0x0 c:/atmel/studio/7.0/toolchain/avr8/avr8-gnu-toolchain/bin/../lib/gcc/avr/5.4.0/avr6\libgcc.a(_negsi2.o)
 .text.libgcc.div
                0x0000867a       0x10 c:/atmel/studio/7.0/toolchain/avr8/avr8-gnu-toolchain/bin/../lib/gcc/avr/5.4.0/avr6\libgcc.a(_negsi2.o)
                0x0000867a                __negsi2
 .text.libgcc   0x0000868a        0x0 c:/atmel/studio/7.0/toolchain/avr8/avr8-gnu-toolchain/bin/../lib/gcc/avr/5.4.0/avr6\libgcc.a(_negsi2.o)
 .text.libgcc.prologue
                0x0000868a        0x0 c:/atmel/studio/7.0/toolchain/avr8/avr8-gnu-toolchain/bin/../lib/gcc/avr/5.4.0/avr6\libgcc.a(_negsi2.o)
 .text.libgcc.builtins
                0x0000868a        0x0 c:/atmel/studio/7.0/toolchain/avr8/avr8-gnu-toolchain/bin/../lib/gcc/avr/5.4.0/avr6\libgcc.a(_negsi2.o)
 .text.libgcc.fmul
                0x0000868a        0x0 c:/atmel/studio/7.0/toolchain/avr8/avr8-gnu-toolchain/bin/../lib/gcc/avr/5.4.0/avr6\libgcc.a(_negsi2.o)
 .text.libgcc.fixed
                0x0000868a        0x0 c:/atmel/studio/7.0/toolchain/avr8/avr8-gnu-toolchain/bin/../lib/gcc/avr/5.4.0/avr6\libgcc.a(_negsi2.o)
 .text.libgcc.mul
                0x0000868a        0x0 c:/atmel/studio/7.0/toolchain/avr8/avr8-gnu-toolchain/bin/../lib/gcc/avr/5.4.0/avr6\libgcc.a(_exit.o)
 .text.libgcc.div
                0x0000868a        0x0 c:/atmel/studio/7.0/toolchain/avr8/avr8-gnu-toolchain/bin/../lib/gcc/avr/5.4.0/avr6\libgcc.a(_exit.o)
 .text.libgcc   0x0000868a        0x0 c:/atmel/studio/7.0/toolchain/avr8/avr8-gnu-toolchain/bin/../lib/gcc/avr/5.4.0/avr6\libgcc.a(_exit.o)
 .text.libgcc.prologue
                0x0000868a        0x0 c:/atmel/studio/7.0/toolchain/avr8/avr8-gnu-toolchain/bin/../lib/gcc/avr/5.4.0/avr6\libgcc.a(_exit.o)
 .text.libgcc.builtins
                0x0000868a        0x0 c:/atmel/studio/7.0/toolchain/avr8/avr8-gnu-toolchain/bin/../lib/gcc/avr/5.4.0/avr6\libgcc.a(_exit.o)
 .text.libgcc.fmul
                0x0000868a        0x0 c:/atmel/studio/7.0/toolchain/avr8/avr8-gnu-toolchain/bin/../lib/gcc/avr/5.4.0/avr6\libgcc.a(_exit.o)
 .text.libgcc.fixed
                0x0000868a        0x0 c:/atmel/studio/7.0/toolchain/avr8/avr8-gnu-toolchain/bin/../lib/gcc/avr/5.4.0/avr6\libgcc.a(_exit.o)
 .text.libgcc.mul
                0x0000868a        0x0 c:/atmel/studio/7.0/toolchain/avr8/avr8-gnu-toolchain/bin/../lib/gcc/avr/5.4.0/avr6\libgcc.a(_tablejump2.o)
 .text.libgcc.div
                0x0000868a        0x0 c:/atmel/studio/7.0/toolchain/avr8/avr8-gnu-toolchain/bin/../lib/gcc/avr/5.4.0/avr6\libgcc.a(_tablejump2.o)
 .text.libgcc   0x0000868a       0x10 c:/atmel/studio/7.0/toolchain/avr8/avr8-gnu-toolchain/bin/../lib/gcc/avr/5.4.0/avr6\libgcc.a(_tablejump2.o)
                0x0000868a                __tablejump2__
 .text.libgcc.prologue
                0x0000869a        0x0 c:/atmel/studio/7.0/toolchain/avr8/avr8-gnu-toolchain/bin/../lib/gcc/avr/5.4.0/avr6\libgcc.a(_tablejump2.o)
 .text.libgcc.builtins
                0x0000869a        0x0 c:/atmel/studio/7.0/toolchain/avr8/avr8-gnu-toolchain/bin/../lib/gcc/avr/5.4.0/avr6\libgcc.a(_tablejump2.o)
 .text.libgcc.fmul
                0x0000869a        0x0 c:/atmel/studio/7.0/toolchain/avr8/avr8-gnu-toolchain/bin/../lib/gcc/avr/5.4.0/avr6\libgcc.a(_tablejump2.o)
 .text.libgcc.fixed
                0x0000869a        0x0 c:/atmel/studio/7.0/toolchain/avr8/avr8-gnu-toolchain/bin/../lib/gcc/avr/5.4.0/avr6\libgcc.a(_tablejump2.o)
 .text.libgcc.mul
                0x0000869a        0x0 c:/atmel/studio/7.0/toolchain/avr8/avr8-gnu-toolchain/bin/../lib/gcc/avr/5.4.0/avr6\libgcc.a(_copy_data.o)
 .text.libgcc.div
                0x0000869a        0x0 c:/atmel/studio/7.0/toolchain/avr8/avr8-gnu-toolchain/bin/../lib/gcc/avr/5.4.0/avr6\libgcc.a(_copy_data.o)
 .text.libgcc   0x0000869a        0x0 c:/atmel/studio/7.0/toolchain/avr8/avr8-gnu-toolchain/bin/../lib/gcc/avr/5.4.0/avr6\libgcc.a(_copy_data.o)
 .text.libgcc.prologue
                0x0000869a        0x0 c:/atmel/studio/7.0/toolchain/avr8/avr8-gnu-toolchain/bin/../lib/gcc/avr/5.4.0/avr6\libgcc.a(_copy_data.o)
 .text.libgcc.builtins
                0x0000869a        0x0 c:/atmel/studio/7.0/toolchain/avr8/avr8-gnu-toolchain/bin/../lib/gcc/avr/5.4.0/avr6\libgcc.a(_copy_data.o)
 .text.libgcc.fmul
                0x0000869a        0x0 c:/atmel/studio/7.0/toolchain/avr8/avr8-gnu-toolchain/bin/../lib/gcc/avr/5.4.0/avr6\libgcc.a(_copy_data.o)
 .text.libgcc.fixed
                0x0000869a        0x0 c:/atmel/studio/7.0/toolchain/avr8/avr8-gnu-toolchain/bin/../lib/gcc/avr/5.4.0/avr6\libgcc.a(_copy_data.o)
 .text.libgcc.mul
                0x0000869a        0x0 c:/atmel/studio/7.0/toolchain/avr8/avr8-gnu-toolchain/bin/../lib/gcc/avr/5.4.0/avr6\libgcc.a(_clear_bss.o)
 .text.libgcc.div
                0x0000869a        0x0 c:/atmel/studio/7.0/toolchain/avr8/avr8-gnu-toolchain/bin/../lib/gcc/avr/5.4.0/avr6\libgcc.a(_clear_bss.o)
 .text.libgcc   0x0000869a        0x0 c:/atmel/studio/7.0/toolchain/avr8/avr8-gnu-toolchain/bin/../lib/gcc/avr/5.4.0/avr6\libgcc.a(_clear_bss.o)
 .text.libgcc.prologue
                0x0000869a        0x0 c:/atmel/studio/7.0/toolchain/avr8/avr8-gnu-toolchain/bin/../lib/gcc/avr/5.4.0/avr6\libgcc.a(_clear_bss.o)
 .text.libgcc.builtins
                0x0000869a        0x0 c:/atmel/studio/7.0/toolchain/avr8/avr8-gnu-toolchain/bin/../lib/gcc/avr/5.4.0/avr6\libgcc.a(_clear_bss.o)
 .text.libgcc.fmul
                0x0000869a        0x0 c:/atmel/studio/7.0/toolchain/avr8/avr8-gnu-toolchain/bin/../lib/gcc/avr/5.4.0/avr6\libgcc.a(_clear_bss.o)
 .text.libgcc.fixed
                0x0000869a        0x0 c:/atmel/studio/7.0/toolchain/avr8/avr8-gnu-toolchain/bin/../lib/gcc/avr/5.4.0/avr6\libgcc.a(_clear_bss.o)
 .text.libgcc.mul
                0x0000869a        0x0 c:/atmel/studio/7.0/toolchain/avr8/avr8-gnu-toolchain/bin/../lib/gcc/avr/5.4.0/avr6\libgcc.a(_ctors.o)
 .text.libgcc.div
                0x0000869a        0x0 c:/atmel/studio/7.0/toolchain/avr8/avr8-gnu-toolchain/bin/../lib/gcc/avr/5.4.0/avr6\libgcc.a(_ctors.o)
 .text.libgcc   0x0000869a        0x0 c:/atmel/studio/7.0/toolchain/avr8/avr8-gnu-toolchain/bin/../lib/gcc/avr/5.4.0/avr6\libgcc.a(_ctors.o)
 .text.libgcc.prologue
                0x0000869a        0x0 c:/atmel/studio/7.0/toolchain/avr8/avr8-gnu-toolchain/bin/../lib/gcc/avr/5.4.0/avr6\libgcc.a(_ctors.o)
 .text.libgcc.builtins
                0x0000869a        0x0 c:/atmel/studio/7.0/toolchain/avr8/avr8-gnu-toolchain/bin/../lib/gcc/avr/5.4.0/avr6\libgcc.a(_ctors.o)
 .text.libgcc.fmul
                0x0000869a        0x0 c:/atmel/studio/7.0/toolchain/avr8/avr8-gnu-toolchain/bin/../lib/gcc/avr/5.4.0/avr6\libgcc.a(_ctors.o)
 .text.libgcc.fixed
                0x0000869a        0x0 c:/atmel/studio/7.0/toolchain/avr8/avr8-gnu-toolchain/bin/../lib/gcc/avr/5.4.0/avr6\libgcc.a(_ctors.o)
 .text.libgcc.mul
                0x0000869a       0x16 c:/atmel/studio/7.0/toolchain/avr8/avr8-gnu-toolchain/bin/../lib/gcc/avr/5.4.0/avr6\libgcc.a(_muluhisi3.o)
                0x0000869a                __muluhisi3
 .text.libgcc.div
                0x000086b0        0x0 c:/atmel/studio/7.0/toolchain/avr8/avr8-gnu-toolchain/bin/../lib/gcc/avr/5.4.0/avr6\libgcc.a(_muluhisi3.o)
 .text.libgcc   0x000086b0        0x0 c:/atmel/studio/7.0/toolchain/avr8/avr8-gnu-toolchain/bin/../lib/gcc/avr/5.4.0/avr6\libgcc.a(_muluhisi3.o)
 .text.libgcc.prologue
                0x000086b0        0x0 c:/atmel/studio/7.0/toolchain/avr8/avr8-gnu-toolchain/bin/../lib/gcc/avr/5.4.0/avr6\libgcc.a(_muluhisi3.o)
 .text.libgcc.builtins
                0x000086b0        0x0 c:/atmel/studio/7.0/toolchain/avr8/avr8-gnu-toolchain/bin/../lib/gcc/avr/5.4.0/avr6\libgcc.a(_muluhisi3.o)
 .text.libgcc.fmul
                0x000086b0        0x0 c:/atmel/studio/7.0/toolchain/avr8/avr8-gnu-toolchain/bin/../lib/gcc/avr/5.4.0/avr6\libgcc.a(_muluhisi3.o)
 .text.libgcc.fixed
                0x000086b0        0x0 c:/atmel/studio/7.0/toolchain/avr8/avr8-gnu-toolchain/bin/../lib/gcc/avr/5.4.0/avr6\libgcc.a(_muluhisi3.o)
 .text.libgcc.mul
                0x000086b0       0x1e c:/atmel/studio/7.0/toolchain/avr8/avr8-gnu-toolchain/bin/../lib/gcc/avr/5.4.0/avr6\libgcc.a(_umulhisi3.o)
                0x000086b0                __umulhisi3
 .text.libgcc.div
                0x000086ce        0x0 c:/atmel/studio/7.0/toolchain/avr8/avr8-gnu-toolchain/bin/../lib/gcc/avr/5.4.0/avr6\libgcc.a(_umulhisi3.o)
 .text.libgcc   0x000086ce        0x0 c:/atmel/studio/7.0/toolchain/avr8/avr8-gnu-toolchain/bin/../lib/gcc/avr/5.4.0/avr6\libgcc.a(_umulhisi3.o)
 .text.libgcc.prologue
                0x000086ce        0x0 c:/atmel/studio/7.0/toolchain/avr8/avr8-gnu-toolchain/bin/../lib/gcc/avr/5.4.0/avr6\libgcc.a(_umulhisi3.o)
 .text.libgcc.builtins
                0x000086ce        0x0 c:/atmel/studio/7.0/toolchain/avr8/avr8-gnu-toolchain/bin/../lib/gcc/avr/5.4.0/avr6\libgcc.a(_umulhisi3.o)
 .text.libgcc.fmul
                0x000086ce        0x0 c:/atmel/studio/7.0/toolchain/avr8/avr8-gnu-toolchain/bin/../lib/gcc/avr/5.4.0/avr6\libgcc.a(_umulhisi3.o)
 .text.libgcc.fixed
                0x000086ce        0x0 c:/atmel/studio/7.0/toolchain/avr8/avr8-gnu-toolchain/bin/../lib/gcc/avr/5.4.0/avr6\libgcc.a(_umulhisi3.o)
 .text.avr-libc.fplib
                0x000086ce        0xe c:/atmel/studio/7.0/toolchain/avr8/avr8-gnu-toolchain/bin/../lib/gcc/avr/5.4.0/../../../../avr/lib/avr6\libm.a(addsf3.o)
                0x000086ce                __subsf3
                0x000086d0                __addsf3
 .text.avr-libc.fplib
                0x000086dc       0xcc c:/atmel/studio/7.0/toolchain/avr8/avr8-gnu-toolchain/bin/../lib/gcc/avr/5.4.0/../../../../avr/lib/avr6\libm.a(addsf3x.o)
                0x000086fe                __addsf3x
 .text.avr-libc.fplib
                0x000087a8        0xa c:/atmel/studio/7.0/toolchain/avr8/avr8-gnu-toolchain/bin/../lib/gcc/avr/5.4.0/../../../../avr/lib/avr6\libm.a(cmpsf2.o)
                0x000087a8                __nesf2
                0x000087a8                __eqsf2
                0x000087a8                __cmpsf2
                0x000087a8                __ltsf2
                0x000087a8                __lesf2
 .text.avr-libc.fplib
                0x000087b2        0x8 c:/atmel/studio/7.0/toolchain/avr8/avr8-gnu-toolchain/bin/../lib/gcc/avr/5.4.0/../../../../avr/lib/avr6\libm.a(divsf3.o)
                0x000087b2                __divsf3
 .text.avr-libc.fplib
                0x000087ba       0xdc c:/atmel/studio/7.0/toolchain/avr8/avr8-gnu-toolchain/bin/../lib/gcc/avr/5.4.0/../../../../avr/lib/avr6\libm.a(divsf3x.o)
                0x000087da                __divsf3x
                0x000087e0                __divsf3_pse
 .text.avr-libc.fplib
                0x00008896       0x5e c:/atmel/studio/7.0/toolchain/avr8/avr8-gnu-toolchain/bin/../lib/gcc/avr/5.4.0/../../../../avr/lib/avr6\libm.a(fixunssfsi.o)
                0x00008896                __fixunssfsi
 .text.avr-libc.fplib
                0x000088f4       0x7a c:/atmel/studio/7.0/toolchain/avr8/avr8-gnu-toolchain/bin/../lib/gcc/avr/5.4.0/../../../../avr/lib/avr6\libm.a(floatsisf.o)
                0x000088f4                __floatunsisf
                0x000088f8                __floatsisf
 .text.avr-libc.fplib
                0x0000896e       0x48 c:/atmel/studio/7.0/toolchain/avr8/avr8-gnu-toolchain/bin/../lib/gcc/avr/5.4.0/../../../../avr/lib/avr6\libm.a(fp_cmp.o)
                0x0000896e                __fp_cmp
 .text.avr-libc.fplib
                0x000089b6        0xc c:/atmel/studio/7.0/toolchain/avr8/avr8-gnu-toolchain/bin/../lib/gcc/avr/5.4.0/../../../../avr/lib/avr6\libm.a(fp_inf.o)
                0x000089b6                __fp_inf
 .text.avr-libc.fplib
                0x000089c2        0x6 c:/atmel/studio/7.0/toolchain/avr8/avr8-gnu-toolchain/bin/../lib/gcc/avr/5.4.0/../../../../avr/lib/avr6\libm.a(fp_nan.o)
                0x000089c2                __fp_nan
 .text.avr-libc.fplib
                0x000089c8        0xe c:/atmel/studio/7.0/toolchain/avr8/avr8-gnu-toolchain/bin/../lib/gcc/avr/5.4.0/../../../../avr/lib/avr6\libm.a(fp_pscA.o)
                0x000089c8                __fp_pscA
 .text.avr-libc.fplib
                0x000089d6        0xe c:/atmel/studio/7.0/toolchain/avr8/avr8-gnu-toolchain/bin/../lib/gcc/avr/5.4.0/../../../../avr/lib/avr6\libm.a(fp_pscB.o)
                0x000089d6                __fp_pscB
 .text.avr-libc.fplib
                0x000089e4       0x22 c:/atmel/studio/7.0/toolchain/avr8/avr8-gnu-toolchain/bin/../lib/gcc/avr/5.4.0/../../../../avr/lib/avr6\libm.a(fp_round.o)
                0x000089e4                __fp_round
 .text.avr-libc.fplib
                0x00008a06       0x44 c:/atmel/studio/7.0/toolchain/avr8/avr8-gnu-toolchain/bin/../lib/gcc/avr/5.4.0/../../../../avr/lib/avr6\libm.a(fp_split3.o)
                0x00008a06                __fp_split3
                0x00008a16                __fp_splitA
 .text.avr-libc.fplib
                0x00008a4a        0xe c:/atmel/studio/7.0/toolchain/avr8/avr8-gnu-toolchain/bin/../lib/gcc/avr/5.4.0/../../../../avr/lib/avr6\libm.a(fp_zero.o)
                0x00008a4a                __fp_zero
                0x00008a4c                __fp_szero
 .text.avr-libc.fplib
                0x00008a58        0xa c:/atmel/studio/7.0/toolchain/avr8/avr8-gnu-toolchain/bin/../lib/gcc/avr/5.4.0/../../../../avr/lib/avr6\libm.a(gesf2.o)
                0x00008a58                __gesf2
                0x00008a58                __gtsf2
 .text.avr-libc.fplib
                0x00008a62        0x8 c:/atmel/studio/7.0/toolchain/avr8/avr8-gnu-toolchain/bin/../lib/gcc/avr/5.4.0/../../../../avr/lib/avr6\libm.a(mulsf3.o)
                0x00008a62                __mulsf3
 .text.avr-libc.fplib
                0x00008a6a       0xd2 c:/atmel/studio/7.0/toolchain/avr8/avr8-gnu-toolchain/bin/../lib/gcc/avr/5.4.0/../../../../avr/lib/avr6\libm.a(mulsf3x.o)
                0x00008a88                __mulsf3x
                0x00008a8e                __mulsf3_pse
 .text.avr-libc.fplib
                0x00008b3c        0xa c:/atmel/studio/7.0/toolchain/avr8/avr8-gnu-toolchain/bin/../lib/gcc/avr/5.4.0/../../../../avr/lib/avr6\libm.a(unordsf2.o)
                0x00008b3c                __unordsf2
 .text.avr-libc
                0x00008b46       0x40 c:/atmel/studio/7.0/toolchain/avr8/avr8-gnu-toolchain/bin/../lib/gcc/avr/5.4.0/../../../../avr/lib/avr6\libc.a(dtostrf.o)
                0x00008b46                dtostrf
 .text.avr-libc
                0x00008b86      0x242 c:/atmel/studio/7.0/toolchain/avr8/avr8-gnu-toolchain/bin/../lib/gcc/avr/5.4.0/../../../../avr/lib/avr6\libc.a(malloc.o)
                0x00008b86                malloc
                0x00008cb6                free
 .text.avr-libc
                0x00008dc8      0x144 c:/atmel/studio/7.0/toolchain/avr8/avr8-gnu-toolchain/bin/../lib/gcc/avr/5.4.0/../../../../avr/lib/avr6\libc.a(random.o)
                0x00008dc8                random_r
                0x00008e5e                random
                0x00008efa                srandom
 .text.avr-libc
                0x00008f0c      0x1ca c:/atmel/studio/7.0/toolchain/avr8/avr8-gnu-toolchain/bin/../lib/gcc/avr/5.4.0/../../../../avr/lib/avr6\libc.a(realloc.o)
                0x00008f0c                realloc
 .text.avr-libc
                0x000090d6        0xa c:/atmel/studio/7.0/toolchain/avr8/avr8-gnu-toolchain/bin/../lib/gcc/avr/5.4.0/../../../../avr/lib/avr6\libc.a(abort.o)
                0x000090d6                abort
 .text.avr-libc
                0x000090e0        0x8 c:/atmel/studio/7.0/toolchain/avr8/avr8-gnu-toolchain/bin/../lib/gcc/avr/5.4.0/../../../../avr/lib/avr6\libc.a(atof.o)
                0x000090e0                atof
 .text.avr-libc
                0x000090e8       0x4e c:/atmel/studio/7.0/toolchain/avr8/avr8-gnu-toolchain/bin/../lib/gcc/avr/5.4.0/../../../../avr/lib/avr6\libc.a(atol.o)
                0x000090e8                atol
 .text.avr-libc
                0x00009136       0x12 c:/atmel/studio/7.0/toolchain/avr8/avr8-gnu-toolchain/bin/../lib/gcc/avr/5.4.0/../../../../avr/lib/avr6\libc.a(isspace.o)
                0x00009136                isspace
 .text.avr-libc
                0x00009148       0x10 c:/atmel/studio/7.0/toolchain/avr8/avr8-gnu-toolchain/bin/../lib/gcc/avr/5.4.0/../../../../avr/lib/avr6\libc.a(tolower.o)
                0x00009148                tolower
 .text.avr-libc
                0x00009158       0x10 c:/atmel/studio/7.0/toolchain/avr8/avr8-gnu-toolchain/bin/../lib/gcc/avr/5.4.0/../../../../avr/lib/avr6\libc.a(toupper.o)
                0x00009158                toupper
 .text.avr-libc
                0x00009168        0xe c:/atmel/studio/7.0/toolchain/avr8/avr8-gnu-toolchain/bin/../lib/gcc/avr/5.4.0/../../../../avr/lib/avr6\libc.a(strcpy_P.o)
                0x00009168                strcpy_P
 .text.avr-libc
                0x00009176       0x12 c:/atmel/studio/7.0/toolchain/avr8/avr8-gnu-toolchain/bin/../lib/gcc/avr/5.4.0/../../../../avr/lib/avr6\libc.a(strlen_P.o)
                0x00009176                __strlen_P
 .text.avr-libc
                0x00009188       0x1a c:/atmel/studio/7.0/toolchain/avr8/avr8-gnu-toolchain/bin/../lib/gcc/avr/5.4.0/../../../../avr/lib/avr6\libc.a(memcmp.o)
                0x00009188                memcmp
 .text.avr-libc
                0x000091a2       0x12 c:/atmel/studio/7.0/toolchain/avr8/avr8-gnu-toolchain/bin/../lib/gcc/avr/5.4.0/../../../../avr/lib/avr6\libc.a(memcpy.o)
                0x000091a2                memcpy
 .text.avr-libc
                0x000091b4       0x24 c:/atmel/studio/7.0/toolchain/avr8/avr8-gnu-toolchain/bin/../lib/gcc/avr/5.4.0/../../../../avr/lib/avr6\libc.a(memmove.o)
                0x000091b4                memmove
 .text.avr-libc
                0x000091d8       0x16 c:/atmel/studio/7.0/toolchain/avr8/avr8-gnu-toolchain/bin/../lib/gcc/avr/5.4.0/../../../../avr/lib/avr6\libc.a(strchr.o)
                0x000091d8                strchr
 .text.avr-libc
                0x000091ee       0x12 c:/atmel/studio/7.0/toolchain/avr8/avr8-gnu-toolchain/bin/../lib/gcc/avr/5.4.0/../../../../avr/lib/avr6\libc.a(strcmp.o)
                0x000091ee                strcmp
 .text.avr-libc
                0x00009200        0xe c:/atmel/studio/7.0/toolchain/avr8/avr8-gnu-toolchain/bin/../lib/gcc/avr/5.4.0/../../../../avr/lib/avr6\libc.a(strcpy.o)
                0x00009200                strcpy
 .text.avr-libc
                0x0000920e       0x12 c:/atmel/studio/7.0/toolchain/avr8/avr8-gnu-toolchain/bin/../lib/gcc/avr/5.4.0/../../../../avr/lib/avr6\libc.a(strlen.o)
                0x0000920e                strlen
 .text.avr-libc
                0x00009220       0x1c c:/atmel/studio/7.0/toolchain/avr8/avr8-gnu-toolchain/bin/../lib/gcc/avr/5.4.0/../../../../avr/lib/avr6\libc.a(strncmp.o)
                0x00009220                strncmp
 .text.avr-libc
                0x0000923c       0x1e c:/atmel/studio/7.0/toolchain/avr8/avr8-gnu-toolchain/bin/../lib/gcc/avr/5.4.0/../../../../avr/lib/avr6\libc.a(strncpy.o)
                0x0000923c                strncpy
 .text.avr-libc
                0x0000925a       0x16 c:/atmel/studio/7.0/toolchain/avr8/avr8-gnu-toolchain/bin/../lib/gcc/avr/5.4.0/../../../../avr/lib/avr6\libc.a(strrchr.o)
                0x0000925a                strrchr
 .text.avr-libc
                0x00009270       0x34 c:/atmel/studio/7.0/toolchain/avr8/avr8-gnu-toolchain/bin/../lib/gcc/avr/5.4.0/../../../../avr/lib/avr6\libc.a(strstr.o)
                0x00009270                strstr
 .text.avr-libc
                0x000092a4       0x16 c:/atmel/studio/7.0/toolchain/avr8/avr8-gnu-toolchain/bin/../lib/gcc/avr/5.4.0/../../../../avr/lib/avr6\libc.a(itoa.o)
                0x000092a4                __itoa
                0x000092a4                itoa
 .text.avr-libc
                0x000092ba       0x16 c:/atmel/studio/7.0/toolchain/avr8/avr8-gnu-toolchain/bin/../lib/gcc/avr/5.4.0/../../../../avr/lib/avr6\libc.a(itoa_ncheck.o)
                0x000092ba                __itoa_ncheck
 .text.avr-libc
                0x000092d0       0x16 c:/atmel/studio/7.0/toolchain/avr8/avr8-gnu-toolchain/bin/../lib/gcc/avr/5.4.0/../../../../avr/lib/avr6\libc.a(ltoa.o)
                0x000092d0                ltoa
                0x000092d0                __ltoa
 .text.avr-libc
                0x000092e6       0x1e c:/atmel/studio/7.0/toolchain/avr8/avr8-gnu-toolchain/bin/../lib/gcc/avr/5.4.0/../../../../avr/lib/avr6\libc.a(ltoa_ncheck.o)
                0x000092e6                __ltoa_ncheck
 .text.avr-libc
                0x00009304       0x2a c:/atmel/studio/7.0/toolchain/avr8/avr8-gnu-toolchain/bin/../lib/gcc/avr/5.4.0/../../../../avr/lib/avr6\libc.a(mulsi10.o)
                0x00009304                __mulsi_const_10
 .text.avr-libc
                0x0000932e       0x16 c:/atmel/studio/7.0/toolchain/avr8/avr8-gnu-toolchain/bin/../lib/gcc/avr/5.4.0/../../../../avr/lib/avr6\libc.a(ultoa.o)
                0x0000932e                ultoa
                0x0000932e                __ultoa
 .text.avr-libc
                0x00009344       0x44 c:/atmel/studio/7.0/toolchain/avr8/avr8-gnu-toolchain/bin/../lib/gcc/avr/5.4.0/../../../../avr/lib/avr6\libc.a(ultoa_ncheck.o)
                0x00009344                __ultoa_ncheck
                0x00009346                __ultoa_common
 .text.avr-libc
                0x00009388       0x16 c:/atmel/studio/7.0/toolchain/avr8/avr8-gnu-toolchain/bin/../lib/gcc/avr/5.4.0/../../../../avr/lib/avr6\libc.a(utoa.o)
                0x00009388                __utoa
                0x00009388                utoa
 .text.avr-libc
                0x0000939e       0x34 c:/atmel/studio/7.0/toolchain/avr8/avr8-gnu-toolchain/bin/../lib/gcc/avr/5.4.0/../../../../avr/lib/avr6\libc.a(utoa_ncheck.o)
                0x0000939e                __utoa_ncheck
                0x000093a0                __utoa_common
 .text.avr-libc
                0x000093d2       0x28 c:/atmel/studio/7.0/toolchain/avr8/avr8-gnu-toolchain/bin/../lib/gcc/avr/5.4.0/../../../../avr/lib/avr6\libc.a(printf.o)
                0x000093d2                printf
 .text.avr-libc
                0x000093fa      0x414 c:/atmel/studio/7.0/toolchain/avr8/avr8-gnu-toolchain/bin/../lib/gcc/avr/5.4.0/../../../../avr/lib/avr6\libc.a(vfprintf_std.o)
                0x000093fa                vfprintf
 .text.avr-libc
                0x0000980e      0x2ee c:/atmel/studio/7.0/toolchain/avr8/avr8-gnu-toolchain/bin/../lib/gcc/avr/5.4.0/../../../../avr/lib/avr6\libc.a(dtoa_prf.o)
                0x0000980e                dtoa_prf
 .text.avr-libc
                0x00009afc      0x2b8 c:/atmel/studio/7.0/toolchain/avr8/avr8-gnu-toolchain/bin/../lib/gcc/avr/5.4.0/../../../../avr/lib/avr6\libc.a(strtod.o)
                0x00009afc                strtod
 .text.avr-libc
                0x00009db4      0x1b0 c:/atmel/studio/7.0/toolchain/avr8/avr8-gnu-toolchain/bin/../lib/gcc/avr/5.4.0/../../../../avr/lib/avr6\libc.a(ftoa_engine.o)
                0x00009db4                __ftoa_engine
 .text.avr-libc
                0x00009f64        0x6 c:/atmel/studio/7.0/toolchain/avr8/avr8-gnu-toolchain/bin/../lib/gcc/avr/5.4.0/../../../../avr/lib/avr6\libc.a(cty_isfalse.o)
                0x00009f64                __ctype_isfalse
                0x00009f68                __ctype_istrue
 .text.avr-libc
                0x00009f6a       0x30 c:/atmel/studio/7.0/toolchain/avr8/avr8-gnu-toolchain/bin/../lib/gcc/avr/5.4.0/../../../../avr/lib/avr6\libc.a(strncasecmp_P.o)
                0x00009f6a                strncasecmp_P
 .text.avr-libc
                0x00009f9a       0x16 c:/atmel/studio/7.0/toolchain/avr8/avr8-gnu-toolchain/bin/../lib/gcc/avr/5.4.0/../../../../avr/lib/avr6\libc.a(strnlen_P.o)
                0x00009f9a                strnlen_P
 .text.avr-libc
                0x00009fb0       0x16 c:/atmel/studio/7.0/toolchain/avr8/avr8-gnu-toolchain/bin/../lib/gcc/avr/5.4.0/../../../../avr/lib/avr6\libc.a(strnlen.o)
                0x00009fb0                strnlen
 .text.avr-libc
                0x00009fc6       0x20 c:/atmel/studio/7.0/toolchain/avr8/avr8-gnu-toolchain/bin/../lib/gcc/avr/5.4.0/../../../../avr/lib/avr6\libc.a(strrev.o)
                0x00009fc6                strrev
 .text.avr-libc
                0x00009fe6       0x78 c:/atmel/studio/7.0/toolchain/avr8/avr8-gnu-toolchain/bin/../lib/gcc/avr/5.4.0/../../../../avr/lib/avr6\libc.a(fputc.o)
                0x00009fe6                fputc
 .text.avr-libc
                0x0000a05e       0xbc c:/atmel/studio/7.0/toolchain/avr8/avr8-gnu-toolchain/bin/../lib/gcc/avr/5.4.0/../../../../avr/lib/avr6\libc.a(ultoa_invert.o)
                0x0000a05e                __ultoa_invert
 .text.libgcc.mul
                0x0000a11a       0x10 c:/atmel/studio/7.0/toolchain/avr8/avr8-gnu-toolchain/bin/../lib/gcc/avr/5.4.0/avr6\libgcc.a(_mulshisi3.o)
                0x0000a11a                __mulshisi3
                0x0000a120                __mulohisi3
 .text.libgcc.div
                0x0000a12a        0x0 c:/atmel/studio/7.0/toolchain/avr8/avr8-gnu-toolchain/bin/../lib/gcc/avr/5.4.0/avr6\libgcc.a(_mulshisi3.o)
 .text.libgcc   0x0000a12a        0x0 c:/atmel/studio/7.0/toolchain/avr8/avr8-gnu-toolchain/bin/../lib/gcc/avr/5.4.0/avr6\libgcc.a(_mulshisi3.o)
 .text.libgcc.prologue
                0x0000a12a        0x0 c:/atmel/studio/7.0/toolchain/avr8/avr8-gnu-toolchain/bin/../lib/gcc/avr/5.4.0/avr6\libgcc.a(_mulshisi3.o)
 .text.libgcc.builtins
                0x0000a12a        0x0 c:/atmel/studio/7.0/toolchain/avr8/avr8-gnu-toolchain/bin/../lib/gcc/avr/5.4.0/avr6\libgcc.a(_mulshisi3.o)
 .text.libgcc.fmul
                0x0000a12a        0x0 c:/atmel/studio/7.0/toolchain/avr8/avr8-gnu-toolchain/bin/../lib/gcc/avr/5.4.0/avr6\libgcc.a(_mulshisi3.o)
 .text.libgcc.fixed
                0x0000a12a        0x0 c:/atmel/studio/7.0/toolchain/avr8/avr8-gnu-toolchain/bin/../lib/gcc/avr/5.4.0/avr6\libgcc.a(_mulshisi3.o)
                0x0000a12a                . = ALIGN (0x2)
 *(.fini9)
 .fini9         0x0000a12a        0x0 c:/atmel/studio/7.0/toolchain/avr8/avr8-gnu-toolchain/bin/../lib/gcc/avr/5.4.0/avr6\libgcc.a(_exit.o)
                0x0000a12a                _exit
                0x0000a12a                exit
 *(.fini9)
 *(.fini8)
 *(.fini8)
 *(.fini7)
 *(.fini7)
 *(.fini6)
 *(.fini6)
 *(.fini5)
 *(.fini5)
 *(.fini4)
 *(.fini4)
 *(.fini3)
 *(.fini3)
 *(.fini2)
 *(.fini2)
 *(.fini1)
 *(.fini1)
 *(.fini0)
 .fini0         0x0000a12a        0x4 c:/atmel/studio/7.0/toolchain/avr8/avr8-gnu-toolchain/bin/../lib/gcc/avr/5.4.0/avr6\libgcc.a(_exit.o)
 *(.fini0)
                0x0000a12e                _etext = .

.data           0x00800200      0x1a2 load address 0x0000a12e
                0x00800200                PROVIDE (__data_start, .)
 *(.data)
 .data          0x00800200        0x0 c:/atmel/studio/7.0/toolchain/avr8/avr8-gnu-toolchain/bin/../lib/gcc/avr/5.4.0/../../../../avr/lib/avr6/crtatmega2560.o
 .data          0x00800200        0x0 obj\Debug\arduino\abi.o
 .data          0x00800200        0x0 obj\Debug\arduino\CDC.o
 .data          0x00800200        0x0 obj\Debug\arduino\HardwareSerial.o
 .data          0x00800200        0x0 obj\Debug\arduino\HardwareSerial0.o
 .data          0x00800200        0x0 obj\Debug\arduino\HardwareSerial1.o
 .data          0x00800200        0x0 obj\Debug\arduino\HardwareSerial2.o
 .data          0x00800200        0x0 obj\Debug\arduino\HardwareSerial3.o
 .data          0x00800200        0x0 obj\Debug\arduino\hooks.o
 .data          0x00800200        0x0 obj\Debug\arduino\IPAddress.o
 .data          0x00800200        0x0 obj\Debug\arduino\main.o
 .data          0x00800200        0x0 obj\Debug\arduino\new.o
 .data          0x00800200        0x0 obj\Debug\arduino\PluggableUSB.o
 .data          0x00800200        0x0 obj\Debug\arduino\Print.o
 .data          0x00800200        0x0 obj\Debug\arduino\Stream.o
 .data          0x00800200        0x1 obj\Debug\arduino\Tone.o
 .data          0x00800201        0x0 obj\Debug\arduino\USBCore.o
 .data          0x00800201       0x10 obj\Debug\arduino\WInterrupts.o
 .data          0x00800211        0x0 obj\Debug\arduino\wiring.o
 .data          0x00800211        0x1 obj\Debug\arduino\wiring_analog.o
                0x00800211                analog_reference
 .data          0x00800212        0x0 obj\Debug\arduino\wiring_digital.o
 .data          0x00800212        0x0 obj\Debug\arduino\wiring_pulse.o
 .data          0x00800212        0x0 obj\Debug\arduino\wiring_shift.o
 .data          0x00800212        0x0 obj\Debug\arduino\WMath.o
 .data          0x00800212        0x0 obj\Debug\arduino\WString.o
 .data          0x00800212        0x0 obj\Debug\HWInputs.o
 .data          0x00800212        0x0 obj\Debug\HWOutputs.o
 .data          0x00800212        0x0 obj\Debug\Logic.o
 .data          0x00800212        0x0 obj\Debug\SmartHome.o
 .data          0x00800212        0x0 obj\Debug\SWInputs.o
 .data          0x00800212        0x0 obj\Debug\SWOutputs.o
 .data          0x00800212        0x0 c:/atmel/studio/7.0/toolchain/avr8/avr8-gnu-toolchain/bin/../lib/gcc/avr/5.4.0/avr6\libgcc.a(_mulsi3.o)
 .data          0x00800212        0x0 c:/atmel/studio/7.0/toolchain/avr8/avr8-gnu-toolchain/bin/../lib/gcc/avr/5.4.0/avr6\libgcc.a(_udivmodsi4.o)
 .data          0x00800212        0x0 c:/atmel/studio/7.0/toolchain/avr8/avr8-gnu-toolchain/bin/../lib/gcc/avr/5.4.0/avr6\libgcc.a(_divmodsi4.o)
 .data          0x00800212        0x0 c:/atmel/studio/7.0/toolchain/avr8/avr8-gnu-toolchain/bin/../lib/gcc/avr/5.4.0/avr6\libgcc.a(_negsi2.o)
 .data          0x00800212        0x0 c:/atmel/studio/7.0/toolchain/avr8/avr8-gnu-toolchain/bin/../lib/gcc/avr/5.4.0/avr6\libgcc.a(_exit.o)
 .data          0x00800212        0x0 c:/atmel/studio/7.0/toolchain/avr8/avr8-gnu-toolchain/bin/../lib/gcc/avr/5.4.0/avr6\libgcc.a(_tablejump2.o)
 .data          0x00800212        0x0 c:/atmel/studio/7.0/toolchain/avr8/avr8-gnu-toolchain/bin/../lib/gcc/avr/5.4.0/avr6\libgcc.a(_copy_data.o)
 .data          0x00800212        0x0 c:/atmel/studio/7.0/toolchain/avr8/avr8-gnu-toolchain/bin/../lib/gcc/avr/5.4.0/avr6\libgcc.a(_clear_bss.o)
 .data          0x00800212        0x0 c:/atmel/studio/7.0/toolchain/avr8/avr8-gnu-toolchain/bin/../lib/gcc/avr/5.4.0/avr6\libgcc.a(_ctors.o)
 .data          0x00800212        0x0 c:/atmel/studio/7.0/toolchain/avr8/avr8-gnu-toolchain/bin/../lib/gcc/avr/5.4.0/avr6\libgcc.a(_muluhisi3.o)
 .data          0x00800212        0x0 c:/atmel/studio/7.0/toolchain/avr8/avr8-gnu-toolchain/bin/../lib/gcc/avr/5.4.0/avr6\libgcc.a(_umulhisi3.o)
 .data          0x00800212        0x0 c:/atmel/studio/7.0/toolchain/avr8/avr8-gnu-toolchain/bin/../lib/gcc/avr/5.4.0/../../../../avr/lib/avr6\libm.a(addsf3.o)
 .data          0x00800212        0x0 c:/atmel/studio/7.0/toolchain/avr8/avr8-gnu-toolchain/bin/../lib/gcc/avr/5.4.0/../../../../avr/lib/avr6\libm.a(addsf3x.o)
 .data          0x00800212        0x0 c:/atmel/studio/7.0/toolchain/avr8/avr8-gnu-toolchain/bin/../lib/gcc/avr/5.4.0/../../../../avr/lib/avr6\libm.a(cmpsf2.o)
 .data          0x00800212        0x0 c:/atmel/studio/7.0/toolchain/avr8/avr8-gnu-toolchain/bin/../lib/gcc/avr/5.4.0/../../../../avr/lib/avr6\libm.a(divsf3.o)
 .data          0x00800212        0x0 c:/atmel/studio/7.0/toolchain/avr8/avr8-gnu-toolchain/bin/../lib/gcc/avr/5.4.0/../../../../avr/lib/avr6\libm.a(divsf3x.o)
 .data          0x00800212        0x0 c:/atmel/studio/7.0/toolchain/avr8/avr8-gnu-toolchain/bin/../lib/gcc/avr/5.4.0/../../../../avr/lib/avr6\libm.a(fixunssfsi.o)
 .data          0x00800212        0x0 c:/atmel/studio/7.0/toolchain/avr8/avr8-gnu-toolchain/bin/../lib/gcc/avr/5.4.0/../../../../avr/lib/avr6\libm.a(floatsisf.o)
 .data          0x00800212        0x0 c:/atmel/studio/7.0/toolchain/avr8/avr8-gnu-toolchain/bin/../lib/gcc/avr/5.4.0/../../../../avr/lib/avr6\libm.a(fp_cmp.o)
 .data          0x00800212        0x0 c:/atmel/studio/7.0/toolchain/avr8/avr8-gnu-toolchain/bin/../lib/gcc/avr/5.4.0/../../../../avr/lib/avr6\libm.a(fp_inf.o)
 .data          0x00800212        0x0 c:/atmel/studio/7.0/toolchain/avr8/avr8-gnu-toolchain/bin/../lib/gcc/avr/5.4.0/../../../../avr/lib/avr6\libm.a(fp_nan.o)
 .data          0x00800212        0x0 c:/atmel/studio/7.0/toolchain/avr8/avr8-gnu-toolchain/bin/../lib/gcc/avr/5.4.0/../../../../avr/lib/avr6\libm.a(fp_pscA.o)
 .data          0x00800212        0x0 c:/atmel/studio/7.0/toolchain/avr8/avr8-gnu-toolchain/bin/../lib/gcc/avr/5.4.0/../../../../avr/lib/avr6\libm.a(fp_pscB.o)
 .data          0x00800212        0x0 c:/atmel/studio/7.0/toolchain/avr8/avr8-gnu-toolchain/bin/../lib/gcc/avr/5.4.0/../../../../avr/lib/avr6\libm.a(fp_round.o)
 .data          0x00800212        0x0 c:/atmel/studio/7.0/toolchain/avr8/avr8-gnu-toolchain/bin/../lib/gcc/avr/5.4.0/../../../../avr/lib/avr6\libm.a(fp_split3.o)
 .data          0x00800212        0x0 c:/atmel/studio/7.0/toolchain/avr8/avr8-gnu-toolchain/bin/../lib/gcc/avr/5.4.0/../../../../avr/lib/avr6\libm.a(fp_zero.o)
 .data          0x00800212        0x0 c:/atmel/studio/7.0/toolchain/avr8/avr8-gnu-toolchain/bin/../lib/gcc/avr/5.4.0/../../../../avr/lib/avr6\libm.a(gesf2.o)
 .data          0x00800212        0x0 c:/atmel/studio/7.0/toolchain/avr8/avr8-gnu-toolchain/bin/../lib/gcc/avr/5.4.0/../../../../avr/lib/avr6\libm.a(mulsf3.o)
 .data          0x00800212        0x0 c:/atmel/studio/7.0/toolchain/avr8/avr8-gnu-toolchain/bin/../lib/gcc/avr/5.4.0/../../../../avr/lib/avr6\libm.a(mulsf3x.o)
 .data          0x00800212        0x0 c:/atmel/studio/7.0/toolchain/avr8/avr8-gnu-toolchain/bin/../lib/gcc/avr/5.4.0/../../../../avr/lib/avr6\libm.a(unordsf2.o)
 .data          0x00800212        0x0 c:/atmel/studio/7.0/toolchain/avr8/avr8-gnu-toolchain/bin/../lib/gcc/avr/5.4.0/../../../../avr/lib/avr6\libc.a(dtostrf.o)
 .data          0x00800212        0x6 c:/atmel/studio/7.0/toolchain/avr8/avr8-gnu-toolchain/bin/../lib/gcc/avr/5.4.0/../../../../avr/lib/avr6\libc.a(malloc.o)
                0x00800212                __malloc_heap_end
                0x00800214                __malloc_heap_start
                0x00800216                __malloc_margin
 .data          0x00800218        0x4 c:/atmel/studio/7.0/toolchain/avr8/avr8-gnu-toolchain/bin/../lib/gcc/avr/5.4.0/../../../../avr/lib/avr6\libc.a(random.o)
 .data          0x0080021c        0x0 c:/atmel/studio/7.0/toolchain/avr8/avr8-gnu-toolchain/bin/../lib/gcc/avr/5.4.0/../../../../avr/lib/avr6\libc.a(realloc.o)
 .data          0x0080021c        0x0 c:/atmel/studio/7.0/toolchain/avr8/avr8-gnu-toolchain/bin/../lib/gcc/avr/5.4.0/../../../../avr/lib/avr6\libc.a(abort.o)
 .data          0x0080021c        0x0 c:/atmel/studio/7.0/toolchain/avr8/avr8-gnu-toolchain/bin/../lib/gcc/avr/5.4.0/../../../../avr/lib/avr6\libc.a(atof.o)
 .data          0x0080021c        0x0 c:/atmel/studio/7.0/toolchain/avr8/avr8-gnu-toolchain/bin/../lib/gcc/avr/5.4.0/../../../../avr/lib/avr6\libc.a(atol.o)
 .data          0x0080021c        0x0 c:/atmel/studio/7.0/toolchain/avr8/avr8-gnu-toolchain/bin/../lib/gcc/avr/5.4.0/../../../../avr/lib/avr6\libc.a(isspace.o)
 .data          0x0080021c        0x0 c:/atmel/studio/7.0/toolchain/avr8/avr8-gnu-toolchain/bin/../lib/gcc/avr/5.4.0/../../../../avr/lib/avr6\libc.a(tolower.o)
 .data          0x0080021c        0x0 c:/atmel/studio/7.0/toolchain/avr8/avr8-gnu-toolchain/bin/../lib/gcc/avr/5.4.0/../../../../avr/lib/avr6\libc.a(toupper.o)
 .data          0x0080021c        0x0 c:/atmel/studio/7.0/toolchain/avr8/avr8-gnu-toolchain/bin/../lib/gcc/avr/5.4.0/../../../../avr/lib/avr6\libc.a(strcpy_P.o)
 .data          0x0080021c        0x0 c:/atmel/studio/7.0/toolchain/avr8/avr8-gnu-toolchain/bin/../lib/gcc/avr/5.4.0/../../../../avr/lib/avr6\libc.a(strlen_P.o)
 .data          0x0080021c        0x0 c:/atmel/studio/7.0/toolchain/avr8/avr8-gnu-toolchain/bin/../lib/gcc/avr/5.4.0/../../../../avr/lib/avr6\libc.a(memcmp.o)
 .data          0x0080021c        0x0 c:/atmel/studio/7.0/toolchain/avr8/avr8-gnu-toolchain/bin/../lib/gcc/avr/5.4.0/../../../../avr/lib/avr6\libc.a(memcpy.o)
 .data          0x0080021c        0x0 c:/atmel/studio/7.0/toolchain/avr8/avr8-gnu-toolchain/bin/../lib/gcc/avr/5.4.0/../../../../avr/lib/avr6\libc.a(memmove.o)
 .data          0x0080021c        0x0 c:/atmel/studio/7.0/toolchain/avr8/avr8-gnu-toolchain/bin/../lib/gcc/avr/5.4.0/../../../../avr/lib/avr6\libc.a(strchr.o)
 .data          0x0080021c        0x0 c:/atmel/studio/7.0/toolchain/avr8/avr8-gnu-toolchain/bin/../lib/gcc/avr/5.4.0/../../../../avr/lib/avr6\libc.a(strcmp.o)
 .data          0x0080021c        0x0 c:/atmel/studio/7.0/toolchain/avr8/avr8-gnu-toolchain/bin/../lib/gcc/avr/5.4.0/../../../../avr/lib/avr6\libc.a(strcpy.o)
 .data          0x0080021c        0x0 c:/atmel/studio/7.0/toolchain/avr8/avr8-gnu-toolchain/bin/../lib/gcc/avr/5.4.0/../../../../avr/lib/avr6\libc.a(strlen.o)
 .data          0x0080021c        0x0 c:/atmel/studio/7.0/toolchain/avr8/avr8-gnu-toolchain/bin/../lib/gcc/avr/5.4.0/../../../../avr/lib/avr6\libc.a(strncmp.o)
 .data          0x0080021c        0x0 c:/atmel/studio/7.0/toolchain/avr8/avr8-gnu-toolchain/bin/../lib/gcc/avr/5.4.0/../../../../avr/lib/avr6\libc.a(strncpy.o)
 .data          0x0080021c        0x0 c:/atmel/studio/7.0/toolchain/avr8/avr8-gnu-toolchain/bin/../lib/gcc/avr/5.4.0/../../../../avr/lib/avr6\libc.a(strrchr.o)
 .data          0x0080021c        0x0 c:/atmel/studio/7.0/toolchain/avr8/avr8-gnu-toolchain/bin/../lib/gcc/avr/5.4.0/../../../../avr/lib/avr6\libc.a(strstr.o)
 .data          0x0080021c        0x0 c:/atmel/studio/7.0/toolchain/avr8/avr8-gnu-toolchain/bin/../lib/gcc/avr/5.4.0/../../../../avr/lib/avr6\libc.a(itoa.o)
 .data          0x0080021c        0x0 c:/atmel/studio/7.0/toolchain/avr8/avr8-gnu-toolchain/bin/../lib/gcc/avr/5.4.0/../../../../avr/lib/avr6\libc.a(itoa_ncheck.o)
 .data          0x0080021c        0x0 c:/atmel/studio/7.0/toolchain/avr8/avr8-gnu-toolchain/bin/../lib/gcc/avr/5.4.0/../../../../avr/lib/avr6\libc.a(ltoa.o)
 .data          0x0080021c        0x0 c:/atmel/studio/7.0/toolchain/avr8/avr8-gnu-toolchain/bin/../lib/gcc/avr/5.4.0/../../../../avr/lib/avr6\libc.a(ltoa_ncheck.o)
 .data          0x0080021c        0x0 c:/atmel/studio/7.0/toolchain/avr8/avr8-gnu-toolchain/bin/../lib/gcc/avr/5.4.0/../../../../avr/lib/avr6\libc.a(mulsi10.o)
 .data          0x0080021c        0x0 c:/atmel/studio/7.0/toolchain/avr8/avr8-gnu-toolchain/bin/../lib/gcc/avr/5.4.0/../../../../avr/lib/avr6\libc.a(ultoa.o)
 .data          0x0080021c        0x0 c:/atmel/studio/7.0/toolchain/avr8/avr8-gnu-toolchain/bin/../lib/gcc/avr/5.4.0/../../../../avr/lib/avr6\libc.a(ultoa_ncheck.o)
 .data          0x0080021c        0x0 c:/atmel/studio/7.0/toolchain/avr8/avr8-gnu-toolchain/bin/../lib/gcc/avr/5.4.0/../../../../avr/lib/avr6\libc.a(utoa.o)
 .data          0x0080021c        0x0 c:/atmel/studio/7.0/toolchain/avr8/avr8-gnu-toolchain/bin/../lib/gcc/avr/5.4.0/../../../../avr/lib/avr6\libc.a(utoa_ncheck.o)
 .data          0x0080021c        0x0 c:/atmel/studio/7.0/toolchain/avr8/avr8-gnu-toolchain/bin/../lib/gcc/avr/5.4.0/../../../../avr/lib/avr6\libc.a(printf.o)
 .data          0x0080021c        0x0 c:/atmel/studio/7.0/toolchain/avr8/avr8-gnu-toolchain/bin/../lib/gcc/avr/5.4.0/../../../../avr/lib/avr6\libc.a(vfprintf_std.o)
 .data          0x0080021c        0x0 c:/atmel/studio/7.0/toolchain/avr8/avr8-gnu-toolchain/bin/../lib/gcc/avr/5.4.0/../../../../avr/lib/avr6\libc.a(dtoa_prf.o)
 .data          0x0080021c        0x0 c:/atmel/studio/7.0/toolchain/avr8/avr8-gnu-toolchain/bin/../lib/gcc/avr/5.4.0/../../../../avr/lib/avr6\libc.a(strtod.o)
 .data          0x0080021c        0x0 c:/atmel/studio/7.0/toolchain/avr8/avr8-gnu-toolchain/bin/../lib/gcc/avr/5.4.0/../../../../avr/lib/avr6\libc.a(ftoa_engine.o)
 .data          0x0080021c        0x0 c:/atmel/studio/7.0/toolchain/avr8/avr8-gnu-toolchain/bin/../lib/gcc/avr/5.4.0/../../../../avr/lib/avr6\libc.a(cty_isfalse.o)
 .data          0x0080021c        0x0 c:/atmel/studio/7.0/toolchain/avr8/avr8-gnu-toolchain/bin/../lib/gcc/avr/5.4.0/../../../../avr/lib/avr6\libc.a(strncasecmp_P.o)
 .data          0x0080021c        0x0 c:/atmel/studio/7.0/toolchain/avr8/avr8-gnu-toolchain/bin/../lib/gcc/avr/5.4.0/../../../../avr/lib/avr6\libc.a(strnlen_P.o)
 .data          0x0080021c        0x0 c:/atmel/studio/7.0/toolchain/avr8/avr8-gnu-toolchain/bin/../lib/gcc/avr/5.4.0/../../../../avr/lib/avr6\libc.a(strnlen.o)
 .data          0x0080021c        0x0 c:/atmel/studio/7.0/toolchain/avr8/avr8-gnu-toolchain/bin/../lib/gcc/avr/5.4.0/../../../../avr/lib/avr6\libc.a(strrev.o)
 .data          0x0080021c        0x0 c:/atmel/studio/7.0/toolchain/avr8/avr8-gnu-toolchain/bin/../lib/gcc/avr/5.4.0/../../../../avr/lib/avr6\libc.a(fputc.o)
 .data          0x0080021c        0x0 c:/atmel/studio/7.0/toolchain/avr8/avr8-gnu-toolchain/bin/../lib/gcc/avr/5.4.0/../../../../avr/lib/avr6\libc.a(iob.o)
 .data          0x0080021c        0x0 c:/atmel/studio/7.0/toolchain/avr8/avr8-gnu-toolchain/bin/../lib/gcc/avr/5.4.0/../../../../avr/lib/avr6\libc.a(ultoa_invert.o)
 .data          0x0080021c        0x0 c:/atmel/studio/7.0/toolchain/avr8/avr8-gnu-toolchain/bin/../lib/gcc/avr/5.4.0/../../../../avr/lib/avr6\libc.a(errno.o)
 .data          0x0080021c        0x0 c:/atmel/studio/7.0/toolchain/avr8/avr8-gnu-toolchain/bin/../lib/gcc/avr/5.4.0/avr6\libgcc.a(_mulshisi3.o)
 *(.data*)
 *(.gnu.linkonce.d*)
 *(.rodata)
 .rodata        0x0080021c        0xe obj\Debug\arduino\CDC.o
 .rodata        0x0080022a        0xe obj\Debug\arduino\HardwareSerial.o
 .rodata        0x00800238        0xe obj\Debug\arduino\HardwareSerial0.o
 .rodata        0x00800246        0xe obj\Debug\arduino\HardwareSerial1.o
 .rodata        0x00800254        0xe obj\Debug\arduino\HardwareSerial2.o
 .rodata        0x00800262        0xe obj\Debug\arduino\HardwareSerial3.o
 .rodata        0x00800270        0xe obj\Debug\arduino\IPAddress.o
 .rodata        0x0080027e        0xe obj\Debug\arduino\main.o
 .rodata        0x0080028c        0xe obj\Debug\arduino\PluggableUSB.o
 .rodata        0x0080029a       0x1d obj\Debug\arduino\Print.o
 .rodata        0x008002b7        0xf obj\Debug\arduino\Stream.o
 .rodata        0x008002c6        0xe obj\Debug\arduino\Tone.o
 .rodata        0x008002d4        0xe obj\Debug\arduino\USBCore.o
 .rodata        0x008002e2        0xe obj\Debug\arduino\WInterrupts.o
 .rodata        0x008002f0        0xe obj\Debug\arduino\wiring.o
 .rodata        0x008002fe        0xe obj\Debug\arduino\wiring_analog.o
 .rodata        0x0080030c        0xe obj\Debug\arduino\wiring_digital.o
 .rodata        0x0080031a        0xe obj\Debug\arduino\wiring_pulse.o
 .rodata        0x00800328        0xe obj\Debug\arduino\wiring_shift.o
 .rodata        0x00800336        0x1 obj\Debug\arduino\WString.o
 .rodata        0x00800337        0xe obj\Debug\HWOutputs.o
 .rodata        0x00800345        0xe obj\Debug\Logic.o
 .rodata        0x00800353        0xe obj\Debug\SmartHome.o
 .rodata        0x00800361        0x4 obj\Debug\SWOutputs.o
 *(.rodata*)
 .rodata._ZTV14HardwareSerial
                0x00800365       0x12 obj\Debug\arduino\HardwareSerial.o
                0x00800365                _ZTV14HardwareSerial
 .rodata._ZTV6Stream
                0x00800377       0x12 obj\Debug\arduino\HardwareSerial0.o
                0x00800377                _ZTV6Stream
 .rodata._ZTV9IPAddress
                0x00800389        0x6 obj\Debug\arduino\IPAddress.o
                0x00800389                _ZTV9IPAddress
 .rodata._ZTV9Printable
                0x0080038f        0x6 obj\Debug\arduino\IPAddress.o
                0x0080038f                _ZTV9Printable
 .rodata._ZTV5Print
                0x00800395        0xc obj\Debug\arduino\Print.o
                0x00800395                _ZTV5Print
 *(.gnu.linkonce.r*)
                0x008003a2                . = ALIGN (0x2)
 *fill*         0x008003a1        0x1 
                0x008003a2                _edata = .
                0x008003a2                PROVIDE (__data_end, .)

.bss            0x008003a2      0x2bb
                0x008003a2                PROVIDE (__bss_start, .)
 *(.bss)
 .bss           0x008003a2        0x0 c:/atmel/studio/7.0/toolchain/avr8/avr8-gnu-toolchain/bin/../lib/gcc/avr/5.4.0/../../../../avr/lib/avr6/crtatmega2560.o
 .bss           0x008003a2        0x0 obj\Debug\arduino\abi.o
 .bss           0x008003a2        0x0 obj\Debug\arduino\CDC.o
 .bss           0x008003a2        0x0 obj\Debug\arduino\HardwareSerial.o
 .bss           0x008003a2       0x9d obj\Debug\arduino\HardwareSerial0.o
                0x008003a2                Serial
 .bss           0x0080043f       0x9d obj\Debug\arduino\HardwareSerial1.o
                0x0080043f                Serial1
 .bss           0x008004dc       0x9d obj\Debug\arduino\HardwareSerial2.o
                0x008004dc                Serial2
 .bss           0x00800579       0x9d obj\Debug\arduino\HardwareSerial3.o
                0x00800579                Serial3
 .bss           0x00800616        0x0 obj\Debug\arduino\hooks.o
 .bss           0x00800616        0x6 obj\Debug\arduino\IPAddress.o
 .bss           0x0080061c        0x0 obj\Debug\arduino\main.o
 .bss           0x0080061c        0x0 obj\Debug\arduino\new.o
 .bss           0x0080061c        0x0 obj\Debug\arduino\PluggableUSB.o
 .bss           0x0080061c        0x0 obj\Debug\arduino\Print.o
 .bss           0x0080061c        0x0 obj\Debug\arduino\Stream.o
 .bss           0x0080061c       0x2a obj\Debug\arduino\Tone.o
                0x0080061c                timer0_toggle_count
                0x00800620                timer0_pin_port
                0x00800622                timer0_pin_mask
                0x00800623                timer1_toggle_count
                0x00800627                timer1_pin_port
                0x00800629                timer1_pin_mask
                0x0080062a                timer2_toggle_count
                0x0080062e                timer2_pin_port
                0x00800630                timer2_pin_mask
                0x00800631                timer3_toggle_count
                0x00800635                timer3_pin_port
                0x00800637                timer3_pin_mask
                0x00800638                timer4_toggle_count
                0x0080063c                timer4_pin_port
                0x0080063e                timer4_pin_mask
                0x0080063f                timer5_toggle_count
                0x00800643                timer5_pin_port
                0x00800645                timer5_pin_mask
 .bss           0x00800646        0x0 obj\Debug\arduino\USBCore.o
 .bss           0x00800646        0x0 obj\Debug\arduino\WInterrupts.o
 .bss           0x00800646        0x9 obj\Debug\arduino\wiring.o
                0x00800646                timer0_overflow_count
                0x0080064a                timer0_millis
 .bss           0x0080064f        0x0 obj\Debug\arduino\wiring_analog.o
 .bss           0x0080064f        0x0 obj\Debug\arduino\wiring_digital.o
 .bss           0x0080064f        0x0 obj\Debug\arduino\wiring_pulse.o
 .bss           0x0080064f        0x0 obj\Debug\arduino\wiring_shift.o
 .bss           0x0080064f        0x0 obj\Debug\arduino\WMath.o
 .bss           0x0080064f        0x1 obj\Debug\arduino\WString.o
 .bss           0x00800650        0x0 obj\Debug\HWInputs.o
 .bss           0x00800650        0x0 obj\Debug\HWOutputs.o
 .bss           0x00800650        0x1 obj\Debug\Logic.o
                0x00800650                input
 .bss           0x00800651        0x0 obj\Debug\SmartHome.o
 .bss           0x00800651        0x0 obj\Debug\SWInputs.o
 .bss           0x00800651        0x0 obj\Debug\SWOutputs.o
 .bss           0x00800651        0x0 c:/atmel/studio/7.0/toolchain/avr8/avr8-gnu-toolchain/bin/../lib/gcc/avr/5.4.0/avr6\libgcc.a(_mulsi3.o)
 .bss           0x00800651        0x0 c:/atmel/studio/7.0/toolchain/avr8/avr8-gnu-toolchain/bin/../lib/gcc/avr/5.4.0/avr6\libgcc.a(_udivmodsi4.o)
 .bss           0x00800651        0x0 c:/atmel/studio/7.0/toolchain/avr8/avr8-gnu-toolchain/bin/../lib/gcc/avr/5.4.0/avr6\libgcc.a(_divmodsi4.o)
 .bss           0x00800651        0x0 c:/atmel/studio/7.0/toolchain/avr8/avr8-gnu-toolchain/bin/../lib/gcc/avr/5.4.0/avr6\libgcc.a(_negsi2.o)
 .bss           0x00800651        0x0 c:/atmel/studio/7.0/toolchain/avr8/avr8-gnu-toolchain/bin/../lib/gcc/avr/5.4.0/avr6\libgcc.a(_exit.o)
 .bss           0x00800651        0x0 c:/atmel/studio/7.0/toolchain/avr8/avr8-gnu-toolchain/bin/../lib/gcc/avr/5.4.0/avr6\libgcc.a(_tablejump2.o)
 .bss           0x00800651        0x0 c:/atmel/studio/7.0/toolchain/avr8/avr8-gnu-toolchain/bin/../lib/gcc/avr/5.4.0/avr6\libgcc.a(_copy_data.o)
 .bss           0x00800651        0x0 c:/atmel/studio/7.0/toolchain/avr8/avr8-gnu-toolchain/bin/../lib/gcc/avr/5.4.0/avr6\libgcc.a(_clear_bss.o)
 .bss           0x00800651        0x0 c:/atmel/studio/7.0/toolchain/avr8/avr8-gnu-toolchain/bin/../lib/gcc/avr/5.4.0/avr6\libgcc.a(_ctors.o)
 .bss           0x00800651        0x0 c:/atmel/studio/7.0/toolchain/avr8/avr8-gnu-toolchain/bin/../lib/gcc/avr/5.4.0/avr6\libgcc.a(_muluhisi3.o)
 .bss           0x00800651        0x0 c:/atmel/studio/7.0/toolchain/avr8/avr8-gnu-toolchain/bin/../lib/gcc/avr/5.4.0/avr6\libgcc.a(_umulhisi3.o)
 .bss           0x00800651        0x0 c:/atmel/studio/7.0/toolchain/avr8/avr8-gnu-toolchain/bin/../lib/gcc/avr/5.4.0/../../../../avr/lib/avr6\libm.a(addsf3.o)
 .bss           0x00800651        0x0 c:/atmel/studio/7.0/toolchain/avr8/avr8-gnu-toolchain/bin/../lib/gcc/avr/5.4.0/../../../../avr/lib/avr6\libm.a(addsf3x.o)
 .bss           0x00800651        0x0 c:/atmel/studio/7.0/toolchain/avr8/avr8-gnu-toolchain/bin/../lib/gcc/avr/5.4.0/../../../../avr/lib/avr6\libm.a(cmpsf2.o)
 .bss           0x00800651        0x0 c:/atmel/studio/7.0/toolchain/avr8/avr8-gnu-toolchain/bin/../lib/gcc/avr/5.4.0/../../../../avr/lib/avr6\libm.a(divsf3.o)
 .bss           0x00800651        0x0 c:/atmel/studio/7.0/toolchain/avr8/avr8-gnu-toolchain/bin/../lib/gcc/avr/5.4.0/../../../../avr/lib/avr6\libm.a(divsf3x.o)
 .bss           0x00800651        0x0 c:/atmel/studio/7.0/toolchain/avr8/avr8-gnu-toolchain/bin/../lib/gcc/avr/5.4.0/../../../../avr/lib/avr6\libm.a(fixunssfsi.o)
 .bss           0x00800651        0x0 c:/atmel/studio/7.0/toolchain/avr8/avr8-gnu-toolchain/bin/../lib/gcc/avr/5.4.0/../../../../avr/lib/avr6\libm.a(floatsisf.o)
 .bss           0x00800651        0x0 c:/atmel/studio/7.0/toolchain/avr8/avr8-gnu-toolchain/bin/../lib/gcc/avr/5.4.0/../../../../avr/lib/avr6\libm.a(fp_cmp.o)
 .bss           0x00800651        0x0 c:/atmel/studio/7.0/toolchain/avr8/avr8-gnu-toolchain/bin/../lib/gcc/avr/5.4.0/../../../../avr/lib/avr6\libm.a(fp_inf.o)
 .bss           0x00800651        0x0 c:/atmel/studio/7.0/toolchain/avr8/avr8-gnu-toolchain/bin/../lib/gcc/avr/5.4.0/../../../../avr/lib/avr6\libm.a(fp_nan.o)
 .bss           0x00800651        0x0 c:/atmel/studio/7.0/toolchain/avr8/avr8-gnu-toolchain/bin/../lib/gcc/avr/5.4.0/../../../../avr/lib/avr6\libm.a(fp_pscA.o)
 .bss           0x00800651        0x0 c:/atmel/studio/7.0/toolchain/avr8/avr8-gnu-toolchain/bin/../lib/gcc/avr/5.4.0/../../../../avr/lib/avr6\libm.a(fp_pscB.o)
 .bss           0x00800651        0x0 c:/atmel/studio/7.0/toolchain/avr8/avr8-gnu-toolchain/bin/../lib/gcc/avr/5.4.0/../../../../avr/lib/avr6\libm.a(fp_round.o)
 .bss           0x00800651        0x0 c:/atmel/studio/7.0/toolchain/avr8/avr8-gnu-toolchain/bin/../lib/gcc/avr/5.4.0/../../../../avr/lib/avr6\libm.a(fp_split3.o)
 .bss           0x00800651        0x0 c:/atmel/studio/7.0/toolchain/avr8/avr8-gnu-toolchain/bin/../lib/gcc/avr/5.4.0/../../../../avr/lib/avr6\libm.a(fp_zero.o)
 .bss           0x00800651        0x0 c:/atmel/studio/7.0/toolchain/avr8/avr8-gnu-toolchain/bin/../lib/gcc/avr/5.4.0/../../../../avr/lib/avr6\libm.a(gesf2.o)
 .bss           0x00800651        0x0 c:/atmel/studio/7.0/toolchain/avr8/avr8-gnu-toolchain/bin/../lib/gcc/avr/5.4.0/../../../../avr/lib/avr6\libm.a(mulsf3.o)
 .bss           0x00800651        0x0 c:/atmel/studio/7.0/toolchain/avr8/avr8-gnu-toolchain/bin/../lib/gcc/avr/5.4.0/../../../../avr/lib/avr6\libm.a(mulsf3x.o)
 .bss           0x00800651        0x0 c:/atmel/studio/7.0/toolchain/avr8/avr8-gnu-toolchain/bin/../lib/gcc/avr/5.4.0/../../../../avr/lib/avr6\libm.a(unordsf2.o)
 .bss           0x00800651        0x0 c:/atmel/studio/7.0/toolchain/avr8/avr8-gnu-toolchain/bin/../lib/gcc/avr/5.4.0/../../../../avr/lib/avr6\libc.a(dtostrf.o)
 .bss           0x00800651        0x0 c:/atmel/studio/7.0/toolchain/avr8/avr8-gnu-toolchain/bin/../lib/gcc/avr/5.4.0/../../../../avr/lib/avr6\libc.a(malloc.o)
 .bss           0x00800651        0x0 c:/atmel/studio/7.0/toolchain/avr8/avr8-gnu-toolchain/bin/../lib/gcc/avr/5.4.0/../../../../avr/lib/avr6\libc.a(random.o)
 .bss           0x00800651        0x0 c:/atmel/studio/7.0/toolchain/avr8/avr8-gnu-toolchain/bin/../lib/gcc/avr/5.4.0/../../../../avr/lib/avr6\libc.a(realloc.o)
 .bss           0x00800651        0x0 c:/atmel/studio/7.0/toolchain/avr8/avr8-gnu-toolchain/bin/../lib/gcc/avr/5.4.0/../../../../avr/lib/avr6\libc.a(abort.o)
 .bss           0x00800651        0x0 c:/atmel/studio/7.0/toolchain/avr8/avr8-gnu-toolchain/bin/../lib/gcc/avr/5.4.0/../../../../avr/lib/avr6\libc.a(atof.o)
 .bss           0x00800651        0x0 c:/atmel/studio/7.0/toolchain/avr8/avr8-gnu-toolchain/bin/../lib/gcc/avr/5.4.0/../../../../avr/lib/avr6\libc.a(atol.o)
 .bss           0x00800651        0x0 c:/atmel/studio/7.0/toolchain/avr8/avr8-gnu-toolchain/bin/../lib/gcc/avr/5.4.0/../../../../avr/lib/avr6\libc.a(isspace.o)
 .bss           0x00800651        0x0 c:/atmel/studio/7.0/toolchain/avr8/avr8-gnu-toolchain/bin/../lib/gcc/avr/5.4.0/../../../../avr/lib/avr6\libc.a(tolower.o)
 .bss           0x00800651        0x0 c:/atmel/studio/7.0/toolchain/avr8/avr8-gnu-toolchain/bin/../lib/gcc/avr/5.4.0/../../../../avr/lib/avr6\libc.a(toupper.o)
 .bss           0x00800651        0x0 c:/atmel/studio/7.0/toolchain/avr8/avr8-gnu-toolchain/bin/../lib/gcc/avr/5.4.0/../../../../avr/lib/avr6\libc.a(strcpy_P.o)
 .bss           0x00800651        0x0 c:/atmel/studio/7.0/toolchain/avr8/avr8-gnu-toolchain/bin/../lib/gcc/avr/5.4.0/../../../../avr/lib/avr6\libc.a(strlen_P.o)
 .bss           0x00800651        0x0 c:/atmel/studio/7.0/toolchain/avr8/avr8-gnu-toolchain/bin/../lib/gcc/avr/5.4.0/../../../../avr/lib/avr6\libc.a(memcmp.o)
 .bss           0x00800651        0x0 c:/atmel/studio/7.0/toolchain/avr8/avr8-gnu-toolchain/bin/../lib/gcc/avr/5.4.0/../../../../avr/lib/avr6\libc.a(memcpy.o)
 .bss           0x00800651        0x0 c:/atmel/studio/7.0/toolchain/avr8/avr8-gnu-toolchain/bin/../lib/gcc/avr/5.4.0/../../../../avr/lib/avr6\libc.a(memmove.o)
 .bss           0x00800651        0x0 c:/atmel/studio/7.0/toolchain/avr8/avr8-gnu-toolchain/bin/../lib/gcc/avr/5.4.0/../../../../avr/lib/avr6\libc.a(strchr.o)
 .bss           0x00800651        0x0 c:/atmel/studio/7.0/toolchain/avr8/avr8-gnu-toolchain/bin/../lib/gcc/avr/5.4.0/../../../../avr/lib/avr6\libc.a(strcmp.o)
 .bss           0x00800651        0x0 c:/atmel/studio/7.0/toolchain/avr8/avr8-gnu-toolchain/bin/../lib/gcc/avr/5.4.0/../../../../avr/lib/avr6\libc.a(strcpy.o)
 .bss           0x00800651        0x0 c:/atmel/studio/7.0/toolchain/avr8/avr8-gnu-toolchain/bin/../lib/gcc/avr/5.4.0/../../../../avr/lib/avr6\libc.a(strlen.o)
 .bss           0x00800651        0x0 c:/atmel/studio/7.0/toolchain/avr8/avr8-gnu-toolchain/bin/../lib/gcc/avr/5.4.0/../../../../avr/lib/avr6\libc.a(strncmp.o)
 .bss           0x00800651        0x0 c:/atmel/studio/7.0/toolchain/avr8/avr8-gnu-toolchain/bin/../lib/gcc/avr/5.4.0/../../../../avr/lib/avr6\libc.a(strncpy.o)
 .bss           0x00800651        0x0 c:/atmel/studio/7.0/toolchain/avr8/avr8-gnu-toolchain/bin/../lib/gcc/avr/5.4.0/../../../../avr/lib/avr6\libc.a(strrchr.o)
 .bss           0x00800651        0x0 c:/atmel/studio/7.0/toolchain/avr8/avr8-gnu-toolchain/bin/../lib/gcc/avr/5.4.0/../../../../avr/lib/avr6\libc.a(strstr.o)
 .bss           0x00800651        0x0 c:/atmel/studio/7.0/toolchain/avr8/avr8-gnu-toolchain/bin/../lib/gcc/avr/5.4.0/../../../../avr/lib/avr6\libc.a(itoa.o)
 .bss           0x00800651        0x0 c:/atmel/studio/7.0/toolchain/avr8/avr8-gnu-toolchain/bin/../lib/gcc/avr/5.4.0/../../../../avr/lib/avr6\libc.a(itoa_ncheck.o)
 .bss           0x00800651        0x0 c:/atmel/studio/7.0/toolchain/avr8/avr8-gnu-toolchain/bin/../lib/gcc/avr/5.4.0/../../../../avr/lib/avr6\libc.a(ltoa.o)
 .bss           0x00800651        0x0 c:/atmel/studio/7.0/toolchain/avr8/avr8-gnu-toolchain/bin/../lib/gcc/avr/5.4.0/../../../../avr/lib/avr6\libc.a(ltoa_ncheck.o)
 .bss           0x00800651        0x0 c:/atmel/studio/7.0/toolchain/avr8/avr8-gnu-toolchain/bin/../lib/gcc/avr/5.4.0/../../../../avr/lib/avr6\libc.a(mulsi10.o)
 .bss           0x00800651        0x0 c:/atmel/studio/7.0/toolchain/avr8/avr8-gnu-toolchain/bin/../lib/gcc/avr/5.4.0/../../../../avr/lib/avr6\libc.a(ultoa.o)
 .bss           0x00800651        0x0 c:/atmel/studio/7.0/toolchain/avr8/avr8-gnu-toolchain/bin/../lib/gcc/avr/5.4.0/../../../../avr/lib/avr6\libc.a(ultoa_ncheck.o)
 .bss           0x00800651        0x0 c:/atmel/studio/7.0/toolchain/avr8/avr8-gnu-toolchain/bin/../lib/gcc/avr/5.4.0/../../../../avr/lib/avr6\libc.a(utoa.o)
 .bss           0x00800651        0x0 c:/atmel/studio/7.0/toolchain/avr8/avr8-gnu-toolchain/bin/../lib/gcc/avr/5.4.0/../../../../avr/lib/avr6\libc.a(utoa_ncheck.o)
 .bss           0x00800651        0x0 c:/atmel/studio/7.0/toolchain/avr8/avr8-gnu-toolchain/bin/../lib/gcc/avr/5.4.0/../../../../avr/lib/avr6\libc.a(printf.o)
 .bss           0x00800651        0x0 c:/atmel/studio/7.0/toolchain/avr8/avr8-gnu-toolchain/bin/../lib/gcc/avr/5.4.0/../../../../avr/lib/avr6\libc.a(vfprintf_std.o)
 .bss           0x00800651        0x0 c:/atmel/studio/7.0/toolchain/avr8/avr8-gnu-toolchain/bin/../lib/gcc/avr/5.4.0/../../../../avr/lib/avr6\libc.a(dtoa_prf.o)
 .bss           0x00800651        0x0 c:/atmel/studio/7.0/toolchain/avr8/avr8-gnu-toolchain/bin/../lib/gcc/avr/5.4.0/../../../../avr/lib/avr6\libc.a(strtod.o)
 .bss           0x00800651        0x0 c:/atmel/studio/7.0/toolchain/avr8/avr8-gnu-toolchain/bin/../lib/gcc/avr/5.4.0/../../../../avr/lib/avr6\libc.a(ftoa_engine.o)
 .bss           0x00800651        0x0 c:/atmel/studio/7.0/toolchain/avr8/avr8-gnu-toolchain/bin/../lib/gcc/avr/5.4.0/../../../../avr/lib/avr6\libc.a(cty_isfalse.o)
 .bss           0x00800651        0x0 c:/atmel/studio/7.0/toolchain/avr8/avr8-gnu-toolchain/bin/../lib/gcc/avr/5.4.0/../../../../avr/lib/avr6\libc.a(strncasecmp_P.o)
 .bss           0x00800651        0x0 c:/atmel/studio/7.0/toolchain/avr8/avr8-gnu-toolchain/bin/../lib/gcc/avr/5.4.0/../../../../avr/lib/avr6\libc.a(strnlen_P.o)
 .bss           0x00800651        0x0 c:/atmel/studio/7.0/toolchain/avr8/avr8-gnu-toolchain/bin/../lib/gcc/avr/5.4.0/../../../../avr/lib/avr6\libc.a(strnlen.o)
 .bss           0x00800651        0x0 c:/atmel/studio/7.0/toolchain/avr8/avr8-gnu-toolchain/bin/../lib/gcc/avr/5.4.0/../../../../avr/lib/avr6\libc.a(strrev.o)
 .bss           0x00800651        0x0 c:/atmel/studio/7.0/toolchain/avr8/avr8-gnu-toolchain/bin/../lib/gcc/avr/5.4.0/../../../../avr/lib/avr6\libc.a(fputc.o)
 .bss           0x00800651        0x0 c:/atmel/studio/7.0/toolchain/avr8/avr8-gnu-toolchain/bin/../lib/gcc/avr/5.4.0/../../../../avr/lib/avr6\libc.a(iob.o)
 .bss           0x00800651        0x0 c:/atmel/studio/7.0/toolchain/avr8/avr8-gnu-toolchain/bin/../lib/gcc/avr/5.4.0/../../../../avr/lib/avr6\libc.a(ultoa_invert.o)
 .bss           0x00800651        0x0 c:/atmel/studio/7.0/toolchain/avr8/avr8-gnu-toolchain/bin/../lib/gcc/avr/5.4.0/../../../../avr/lib/avr6\libc.a(errno.o)
 .bss           0x00800651        0x0 c:/atmel/studio/7.0/toolchain/avr8/avr8-gnu-toolchain/bin/../lib/gcc/avr/5.4.0/avr6\libgcc.a(_mulshisi3.o)
 *(.bss*)
 *(COMMON)
 COMMON         0x00800651        0x4 c:/atmel/studio/7.0/toolchain/avr8/avr8-gnu-toolchain/bin/../lib/gcc/avr/5.4.0/../../../../avr/lib/avr6\libc.a(malloc.o)
                0x00800651                __brkval
                0x00800653                __flp
 COMMON         0x00800655        0x6 c:/atmel/studio/7.0/toolchain/avr8/avr8-gnu-toolchain/bin/../lib/gcc/avr/5.4.0/../../../../avr/lib/avr6\libc.a(iob.o)
                0x00800655                __iob
 COMMON         0x0080065b        0x2 c:/atmel/studio/7.0/toolchain/avr8/avr8-gnu-toolchain/bin/../lib/gcc/avr/5.4.0/../../../../avr/lib/avr6\libc.a(errno.o)
                0x0080065b                errno
                0x0080065d                PROVIDE (__bss_end, .)
                0x0000a12e                __data_load_start = LOADADDR (.data)
                0x0000a2d0                __data_load_end = (__data_load_start + SIZEOF (.data))

.noinit         0x0080065d        0x0
                [!provide]                PROVIDE (__noinit_start, .)
 *(.noinit*)
                [!provide]                PROVIDE (__noinit_end, .)
                0x0080065d                _end = .
                0x0080065d                PROVIDE (__heap_start, .)

.eeprom         0x00810000        0x0
 *(.eeprom*)
                0x00810000                __eeprom_end = .

.fuse
 *(.fuse)
 *(.lfuse)
 *(.hfuse)
 *(.efuse)

.lock
 *(.lock*)

.signature
 *(.signature*)

.user_signatures
 *(.user_signatures*)

.stab
 *(.stab)

.stabstr
 *(.stabstr)

.stab.excl
 *(.stab.excl)

.stab.exclstr
 *(.stab.exclstr)

.stab.index
 *(.stab.index)

.stab.indexstr
 *(.stab.indexstr)

.comment        0x00000000       0x5c
 *(.comment)
 .comment       0x00000000       0x30 obj\Debug\arduino\abi.o
                                 0x31 (size before relaxing)
 .comment       0x00000030       0x31 obj\Debug\arduino\CDC.o
 .comment       0x00000030       0x31 obj\Debug\arduino\HardwareSerial.o
 .comment       0x00000030       0x31 obj\Debug\arduino\HardwareSerial0.o
 .comment       0x00000030       0x31 obj\Debug\arduino\HardwareSerial1.o
 .comment       0x00000030       0x31 obj\Debug\arduino\HardwareSerial2.o
 .comment       0x00000030       0x31 obj\Debug\arduino\HardwareSerial3.o
 .comment       0x00000030       0x31 obj\Debug\arduino\hooks.o
 .comment       0x00000030       0x31 obj\Debug\arduino\IPAddress.o
 .comment       0x00000030       0x31 obj\Debug\arduino\main.o
 .comment       0x00000030       0x31 obj\Debug\arduino\new.o
 .comment       0x00000030       0x31 obj\Debug\arduino\PluggableUSB.o
 .comment       0x00000030       0x31 obj\Debug\arduino\Print.o
 .comment       0x00000030       0x31 obj\Debug\arduino\Stream.o
 .comment       0x00000030       0x31 obj\Debug\arduino\Tone.o
 .comment       0x00000030       0x31 obj\Debug\arduino\USBCore.o
 .comment       0x00000030       0x31 obj\Debug\arduino\WInterrupts.o
 .comment       0x00000030       0x31 obj\Debug\arduino\wiring.o
 .comment       0x00000030       0x31 obj\Debug\arduino\wiring_analog.o
 .comment       0x00000030       0x31 obj\Debug\arduino\wiring_digital.o
 .comment       0x00000030       0x31 obj\Debug\arduino\wiring_pulse.o
 .comment       0x00000030       0x31 obj\Debug\arduino\wiring_shift.o
 .comment       0x00000030       0x31 obj\Debug\arduino\WMath.o
 .comment       0x00000030       0x31 obj\Debug\arduino\WString.o
 .comment       0x00000030       0x31 obj\Debug\HWInputs.o
 .comment       0x00000030       0x31 obj\Debug\HWOutputs.o
 .comment       0x00000030       0x31 obj\Debug\Logic.o
 .comment       0x00000030       0x31 obj\Debug\SmartHome.o
 .comment       0x00000030       0x31 obj\Debug\SWInputs.o
 .comment       0x00000030       0x31 obj\Debug\SWOutputs.o
 .comment       0x00000030       0x31 c:/atmel/studio/7.0/toolchain/avr8/avr8-gnu-toolchain/bin/../lib/gcc/avr/5.4.0/../../../../avr/lib/avr6\libc.a(dtostrf.o)
 .comment       0x00000030       0x31 c:/atmel/studio/7.0/toolchain/avr8/avr8-gnu-toolchain/bin/../lib/gcc/avr/5.4.0/../../../../avr/lib/avr6\libc.a(malloc.o)
 .comment       0x00000030       0x31 c:/atmel/studio/7.0/toolchain/avr8/avr8-gnu-toolchain/bin/../lib/gcc/avr/5.4.0/../../../../avr/lib/avr6\libc.a(random.o)
 .comment       0x00000030       0x31 c:/atmel/studio/7.0/toolchain/avr8/avr8-gnu-toolchain/bin/../lib/gcc/avr/5.4.0/../../../../avr/lib/avr6\libc.a(realloc.o)
 .comment       0x00000030       0x31 c:/atmel/studio/7.0/toolchain/avr8/avr8-gnu-toolchain/bin/../lib/gcc/avr/5.4.0/../../../../avr/lib/avr6\libc.a(printf.o)
 .comment       0x00000030       0x2c c:/atmel/studio/7.0/toolchain/avr8/avr8-gnu-toolchain/bin/../lib/gcc/avr/5.4.0/../../../../avr/lib/avr6\libc.a(vfprintf_std.o)
                                 0x2d (size before relaxing)
 .comment       0x0000005c       0x31 c:/atmel/studio/7.0/toolchain/avr8/avr8-gnu-toolchain/bin/../lib/gcc/avr/5.4.0/../../../../avr/lib/avr6\libc.a(dtoa_prf.o)
 .comment       0x0000005c       0x31 c:/atmel/studio/7.0/toolchain/avr8/avr8-gnu-toolchain/bin/../lib/gcc/avr/5.4.0/../../../../avr/lib/avr6\libc.a(strtod.o)
 .comment       0x0000005c       0x31 c:/atmel/studio/7.0/toolchain/avr8/avr8-gnu-toolchain/bin/../lib/gcc/avr/5.4.0/../../../../avr/lib/avr6\libc.a(fputc.o)
 .comment       0x0000005c       0x31 c:/atmel/studio/7.0/toolchain/avr8/avr8-gnu-toolchain/bin/../lib/gcc/avr/5.4.0/../../../../avr/lib/avr6\libc.a(iob.o)
 .comment       0x0000005c       0x2d c:/atmel/studio/7.0/toolchain/avr8/avr8-gnu-toolchain/bin/../lib/gcc/avr/5.4.0/../../../../avr/lib/avr6\libc.a(errno.o)

.note.gnu.avr.deviceinfo
                0x00000000       0x40
 .note.gnu.avr.deviceinfo
                0x00000000       0x40 c:/atmel/studio/7.0/toolchain/avr8/avr8-gnu-toolchain/bin/../lib/gcc/avr/5.4.0/../../../../avr/lib/avr6/crtatmega2560.o

.note.gnu.build-id
 *(.note.gnu.build-id)

.debug
 *(.debug)

.line
 *(.line)

.debug_srcinfo
 *(.debug_srcinfo)

.debug_sfnames
 *(.debug_sfnames)

.debug_aranges  0x00000000      0x4d8
 *(.debug_aranges)
 .debug_aranges
                0x00000000       0x20 obj\Debug\arduino\abi.o
 .debug_aranges
                0x00000020       0x18 obj\Debug\arduino\CDC.o
 .debug_aranges
                0x00000038       0x20 obj\Debug\arduino\HardwareSerial.o
 .debug_aranges
                0x00000058       0x50 obj\Debug\arduino\HardwareSerial0.o
 .debug_aranges
                0x000000a8       0x50 obj\Debug\arduino\HardwareSerial1.o
 .debug_aranges
                0x000000f8       0x50 obj\Debug\arduino\HardwareSerial2.o
 .debug_aranges
                0x00000148       0x50 obj\Debug\arduino\HardwareSerial3.o
 .debug_aranges
                0x00000198       0x20 obj\Debug\arduino\hooks.o
 .debug_aranges
                0x000001b8       0x28 obj\Debug\arduino\IPAddress.o
 .debug_aranges
                0x000001e0       0x20 obj\Debug\arduino\main.o
 .debug_aranges
                0x00000200       0x20 obj\Debug\arduino\new.o
 .debug_aranges
                0x00000220       0x18 obj\Debug\arduino\PluggableUSB.o
 .debug_aranges
                0x00000238       0x50 obj\Debug\arduino\Print.o
 .debug_aranges
                0x00000288       0x28 obj\Debug\arduino\Stream.o
 .debug_aranges
                0x000002b0       0x20 obj\Debug\arduino\Tone.o
 .debug_aranges
                0x000002d0       0x18 obj\Debug\arduino\USBCore.o
 .debug_aranges
                0x000002e8       0x20 obj\Debug\arduino\WInterrupts.o
 .debug_aranges
                0x00000308       0x20 obj\Debug\arduino\wiring.o
 .debug_aranges
                0x00000328       0x20 obj\Debug\arduino\wiring_analog.o
 .debug_aranges
                0x00000348       0x20 obj\Debug\arduino\wiring_digital.o
 .debug_aranges
                0x00000368       0x20 obj\Debug\arduino\wiring_pulse.o
 .debug_aranges
                0x00000388       0x20 obj\Debug\arduino\wiring_shift.o
 .debug_aranges
                0x000003a8       0x20 obj\Debug\arduino\WMath.o
 .debug_aranges
                0x000003c8       0x48 obj\Debug\arduino\WString.o
 .debug_aranges
                0x00000410       0x20 obj\Debug\HWInputs.o
 .debug_aranges
                0x00000430       0x20 obj\Debug\HWOutputs.o
 .debug_aranges
                0x00000450       0x20 obj\Debug\Logic.o
 .debug_aranges
                0x00000470       0x28 obj\Debug\SmartHome.o
 .debug_aranges
                0x00000498       0x20 obj\Debug\SWInputs.o
 .debug_aranges
                0x000004b8       0x20 obj\Debug\SWOutputs.o

.debug_pubnames
 *(.debug_pubnames)

.debug_info     0x00000000    0x136a6
 *(.debug_info .gnu.linkonce.wi.*)
 .debug_info    0x00000000      0xbbc c:/atmel/studio/7.0/toolchain/avr8/avr8-gnu-toolchain/bin/../lib/gcc/avr/5.4.0/../../../../avr/lib/avr6/crtatmega2560.o
 .debug_info    0x00000bbc       0x67 obj\Debug\arduino\abi.o
 .debug_info    0x00000c23      0x191 obj\Debug\arduino\CDC.o
 .debug_info    0x00000db4     0x1bba obj\Debug\arduino\HardwareSerial.o
 .debug_info    0x0000296e     0x18a7 obj\Debug\arduino\HardwareSerial0.o
 .debug_info    0x00004215     0x18a7 obj\Debug\arduino\HardwareSerial1.o
 .debug_info    0x00005abc     0x18a7 obj\Debug\arduino\HardwareSerial2.o
 .debug_info    0x00007363     0x18a7 obj\Debug\arduino\HardwareSerial3.o
 .debug_info    0x00008c0a       0x3a obj\Debug\arduino\hooks.o
 .debug_info    0x00008c44     0x177a obj\Debug\arduino\IPAddress.o
 .debug_info    0x0000a3be      0x20d obj\Debug\arduino\main.o
 .debug_info    0x0000a5cb       0xfc obj\Debug\arduino\new.o
 .debug_info    0x0000a6c7      0x191 obj\Debug\arduino\PluggableUSB.o
 .debug_info    0x0000a858     0x1ea2 obj\Debug\arduino\Print.o
 .debug_info    0x0000c6fa     0x1ac1 obj\Debug\arduino\Stream.o
 .debug_info    0x0000e1bb      0x875 obj\Debug\arduino\Tone.o
 .debug_info    0x0000ea30      0x191 obj\Debug\arduino\USBCore.o
 .debug_info    0x0000ebc1      0x2e1 obj\Debug\arduino\WInterrupts.o
 .debug_info    0x0000eea2      0x2d6 obj\Debug\arduino\wiring.o
 .debug_info    0x0000f178      0x26a obj\Debug\arduino\wiring_analog.o
 .debug_info    0x0000f3e2      0x5d8 obj\Debug\arduino\wiring_digital.o
 .debug_info    0x0000f9ba      0x493 obj\Debug\arduino\wiring_pulse.o
 .debug_info    0x0000fe4d      0x223 obj\Debug\arduino\wiring_shift.o
 .debug_info    0x00010070      0x1bf obj\Debug\arduino\WMath.o
 .debug_info    0x0001022f     0x2c19 obj\Debug\arduino\WString.o
 .debug_info    0x00012e48       0x9b obj\Debug\HWInputs.o
 .debug_info    0x00012ee3      0x237 obj\Debug\HWOutputs.o
 .debug_info    0x0001311a      0x1c4 obj\Debug\Logic.o
 .debug_info    0x000132de      0x291 obj\Debug\SmartHome.o
 .debug_info    0x0001356f       0x98 obj\Debug\SWInputs.o
 .debug_info    0x00013607       0x9f obj\Debug\SWOutputs.o

.debug_abbrev   0x00000000     0x385a
 *(.debug_abbrev)
 .debug_abbrev  0x00000000      0xb1a c:/atmel/studio/7.0/toolchain/avr8/avr8-gnu-toolchain/bin/../lib/gcc/avr/5.4.0/../../../../avr/lib/avr6/crtatmega2560.o
 .debug_abbrev  0x00000b1a       0x43 obj\Debug\arduino\abi.o
 .debug_abbrev  0x00000b5d       0x72 obj\Debug\arduino\CDC.o
 .debug_abbrev  0x00000bcf      0x362 obj\Debug\arduino\HardwareSerial.o
 .debug_abbrev  0x00000f31      0x373 obj\Debug\arduino\HardwareSerial0.o
 .debug_abbrev  0x000012a4      0x373 obj\Debug\arduino\HardwareSerial1.o
 .debug_abbrev  0x00001617      0x373 obj\Debug\arduino\HardwareSerial2.o
 .debug_abbrev  0x0000198a      0x373 obj\Debug\arduino\HardwareSerial3.o
 .debug_abbrev  0x00001cfd       0x28 obj\Debug\arduino\hooks.o
 .debug_abbrev  0x00001d25      0x376 obj\Debug\arduino\IPAddress.o
 .debug_abbrev  0x0000209b       0xee obj\Debug\arduino\main.o
 .debug_abbrev  0x00002189       0xad obj\Debug\arduino\new.o
 .debug_abbrev  0x00002236       0x72 obj\Debug\arduino\PluggableUSB.o
 .debug_abbrev  0x000022a8      0x2c2 obj\Debug\arduino\Print.o
 .debug_abbrev  0x0000256a      0x2f0 obj\Debug\arduino\Stream.o
 .debug_abbrev  0x0000285a      0x18e obj\Debug\arduino\Tone.o
 .debug_abbrev  0x000029e8       0x72 obj\Debug\arduino\USBCore.o
 .debug_abbrev  0x00002a5a       0xdc obj\Debug\arduino\WInterrupts.o
 .debug_abbrev  0x00002b36       0xeb obj\Debug\arduino\wiring.o
 .debug_abbrev  0x00002c21      0x103 obj\Debug\arduino\wiring_analog.o
 .debug_abbrev  0x00002d24      0x129 obj\Debug\arduino\wiring_digital.o
 .debug_abbrev  0x00002e4d       0xf5 obj\Debug\arduino\wiring_pulse.o
 .debug_abbrev  0x00002f42       0xb0 obj\Debug\arduino\wiring_shift.o
 .debug_abbrev  0x00002ff2       0xc9 obj\Debug\arduino\WMath.o
 .debug_abbrev  0x000030bb      0x3a5 obj\Debug\arduino\WString.o
 .debug_abbrev  0x00003460       0x6a obj\Debug\HWInputs.o
 .debug_abbrev  0x000034ca       0xf6 obj\Debug\HWOutputs.o
 .debug_abbrev  0x000035c0       0xa0 obj\Debug\Logic.o
 .debug_abbrev  0x00003660      0x128 obj\Debug\SmartHome.o
 .debug_abbrev  0x00003788       0x69 obj\Debug\SWInputs.o
 .debug_abbrev  0x000037f1       0x69 obj\Debug\SWOutputs.o

.debug_line     0x00000000     0x4d6f
 *(.debug_line .debug_line.* .debug_line_end)
 .debug_line    0x00000000       0x1a c:/atmel/studio/7.0/toolchain/avr8/avr8-gnu-toolchain/bin/../lib/gcc/avr/5.4.0/../../../../avr/lib/avr6/crtatmega2560.o
 .debug_line    0x0000001a       0x4f obj\Debug\arduino\abi.o
 .debug_line    0x00000069       0x8e obj\Debug\arduino\CDC.o
 .debug_line    0x000000f7      0x5e0 obj\Debug\arduino\HardwareSerial.o
 .debug_line    0x000006d7      0x29c obj\Debug\arduino\HardwareSerial0.o
 .debug_line    0x00000973      0x29c obj\Debug\arduino\HardwareSerial1.o
 .debug_line    0x00000c0f      0x29c obj\Debug\arduino\HardwareSerial2.o
 .debug_line    0x00000eab      0x29c obj\Debug\arduino\HardwareSerial3.o
 .debug_line    0x00001147       0x43 obj\Debug\arduino\hooks.o
 .debug_line    0x0000118a      0x335 obj\Debug\arduino\IPAddress.o
 .debug_line    0x000014bf      0x102 obj\Debug\arduino\main.o
 .debug_line    0x000015c1       0xdb obj\Debug\arduino\new.o
 .debug_line    0x0000169c       0x8e obj\Debug\arduino\PluggableUSB.o
 .debug_line    0x0000172a      0x614 obj\Debug\arduino\Print.o
 .debug_line    0x00001d3e      0x63b obj\Debug\arduino\Stream.o
 .debug_line    0x00002379      0x58e obj\Debug\arduino\Tone.o
 .debug_line    0x00002907       0x8e obj\Debug\arduino\USBCore.o
 .debug_line    0x00002995      0x249 obj\Debug\arduino\WInterrupts.o
 .debug_line    0x00002bde      0x26d obj\Debug\arduino\wiring.o
 .debug_line    0x00002e4b      0x290 obj\Debug\arduino\wiring_analog.o
 .debug_line    0x000030db      0x262 obj\Debug\arduino\wiring_digital.o
 .debug_line    0x0000333d      0x213 obj\Debug\arduino\wiring_pulse.o
 .debug_line    0x00003550      0x142 obj\Debug\arduino\wiring_shift.o
 .debug_line    0x00003692       0xbd obj\Debug\arduino\WMath.o
 .debug_line    0x0000374f     0x1121 obj\Debug\arduino\WString.o
 .debug_line    0x00004870       0x90 obj\Debug\HWInputs.o
 .debug_line    0x00004900      0x132 obj\Debug\HWOutputs.o
 .debug_line    0x00004a32       0xb9 obj\Debug\Logic.o
 .debug_line    0x00004aeb      0x163 obj\Debug\SmartHome.o
 .debug_line    0x00004c4e       0x90 obj\Debug\SWInputs.o
 .debug_line    0x00004cde       0x91 obj\Debug\SWOutputs.o

.debug_frame    0x00000000     0x292c
 *(.debug_frame)
 .debug_frame   0x00000000       0x54 obj\Debug\arduino\abi.o
 .debug_frame   0x00000054      0x194 obj\Debug\arduino\HardwareSerial.o
 .debug_frame   0x000001e8      0x23c obj\Debug\arduino\HardwareSerial0.o
 .debug_frame   0x00000424      0x23c obj\Debug\arduino\HardwareSerial1.o
 .debug_frame   0x00000660      0x23c obj\Debug\arduino\HardwareSerial2.o
 .debug_frame   0x0000089c      0x23c obj\Debug\arduino\HardwareSerial3.o
 .debug_frame   0x00000ad8       0x34 obj\Debug\arduino\hooks.o
 .debug_frame   0x00000b0c      0x1a4 obj\Debug\arduino\IPAddress.o
 .debug_frame   0x00000cb0       0x94 obj\Debug\arduino\main.o
 .debug_frame   0x00000d44       0x94 obj\Debug\arduino\new.o
 .debug_frame   0x00000dd8      0x448 obj\Debug\arduino\Print.o
 .debug_frame   0x00001220      0x244 obj\Debug\arduino\Stream.o
 .debug_frame   0x00001464       0xf8 obj\Debug\arduino\Tone.o
 .debug_frame   0x0000155c      0x394 obj\Debug\arduino\WInterrupts.o
 .debug_frame   0x000018f0      0x108 obj\Debug\arduino\wiring.o
 .debug_frame   0x000019f8       0x74 obj\Debug\arduino\wiring_analog.o
 .debug_frame   0x00001a6c       0x94 obj\Debug\arduino\wiring_digital.o
 .debug_frame   0x00001b00       0xa0 obj\Debug\arduino\wiring_pulse.o
 .debug_frame   0x00001ba0       0x54 obj\Debug\arduino\wiring_shift.o
 .debug_frame   0x00001bf4      0x110 obj\Debug\arduino\WMath.o
 .debug_frame   0x00001d04      0xab0 obj\Debug\arduino\WString.o
 .debug_frame   0x000027b4       0x34 obj\Debug\HWInputs.o
 .debug_frame   0x000027e8       0x34 obj\Debug\HWOutputs.o
 .debug_frame   0x0000281c       0x34 obj\Debug\Logic.o
 .debug_frame   0x00002850       0x74 obj\Debug\SmartHome.o
 .debug_frame   0x000028c4       0x34 obj\Debug\SWInputs.o
 .debug_frame   0x000028f8       0x34 obj\Debug\SWOutputs.o

.debug_str      0x00000000     0x2ca2
 *(.debug_str)
 .debug_str     0x00000000      0x3e6 c:/atmel/studio/7.0/toolchain/avr8/avr8-gnu-toolchain/bin/../lib/gcc/avr/5.4.0/../../../../avr/lib/avr6/crtatmega2560.o
 .debug_str     0x000003e6       0xeb obj\Debug\arduino\abi.o
                                0x101 (size before relaxing)
 .debug_str     0x000004d1       0xa6 obj\Debug\arduino\CDC.o
                                0x196 (size before relaxing)
 .debug_str     0x00000577     0x1171 obj\Debug\arduino\HardwareSerial.o
                               0x134d (size before relaxing)
 .debug_str     0x000016e8      0x135 obj\Debug\arduino\HardwareSerial0.o
                               0x118b (size before relaxing)
 .debug_str     0x0000181d       0x74 obj\Debug\arduino\HardwareSerial1.o
                               0x118c (size before relaxing)
 .debug_str     0x00001891       0x74 obj\Debug\arduino\HardwareSerial2.o
                               0x118c (size before relaxing)
 .debug_str     0x00001905       0x74 obj\Debug\arduino\HardwareSerial3.o
                               0x118c (size before relaxing)
 .debug_str     0x00001979       0x4e obj\Debug\arduino\hooks.o
                                 0x8e (size before relaxing)
 .debug_str     0x000019c7      0x32a obj\Debug\arduino\IPAddress.o
                                0xf41 (size before relaxing)
 .debug_str     0x00001cf1       0x3f obj\Debug\arduino\main.o
                                0x1c5 (size before relaxing)
 .debug_str     0x00001d30       0x6a obj\Debug\arduino\new.o
                                0x13e (size before relaxing)
 .debug_str     0x00001d9a       0x19 obj\Debug\arduino\PluggableUSB.o
                                0x19f (size before relaxing)
 .debug_str     0x00001db3      0x3b3 obj\Debug\arduino\Print.o
                                0xfc6 (size before relaxing)
 .debug_str     0x00002166       0x99 obj\Debug\arduino\Stream.o
                               0x1008 (size before relaxing)
 .debug_str     0x000021ff      0x234 obj\Debug\arduino\Tone.o
                                0x3fb (size before relaxing)
 .debug_str     0x00002433       0x14 obj\Debug\arduino\USBCore.o
                                0x19a (size before relaxing)
 .debug_str     0x00002447       0xcb obj\Debug\arduino\WInterrupts.o
                                0x1c8 (size before relaxing)
 .debug_str     0x00002512       0x7b obj\Debug\arduino\wiring.o
                                0x193 (size before relaxing)
 .debug_str     0x0000258d       0x6e obj\Debug\arduino\wiring_analog.o
                                0x188 (size before relaxing)
 .debug_str     0x000025fb       0x68 obj\Debug\arduino\wiring_digital.o
                                0x1fe (size before relaxing)
 .debug_str     0x00002663       0x64 obj\Debug\arduino\wiring_pulse.o
                                0x1d2 (size before relaxing)
 .debug_str     0x000026c7       0x42 obj\Debug\arduino\wiring_shift.o
                                0x142 (size before relaxing)
 .debug_str     0x00002709       0xae obj\Debug\arduino\WMath.o
                                0x19b (size before relaxing)
 .debug_str     0x000027b7      0x419 obj\Debug\arduino\WString.o
                                0xf73 (size before relaxing)
 .debug_str     0x00002bd0       0x2b obj\Debug\HWInputs.o
                                0x14c (size before relaxing)
 .debug_str     0x00002bfb       0x30 obj\Debug\HWOutputs.o
                                0x1f4 (size before relaxing)
 .debug_str     0x00002c2b       0x2d obj\Debug\Logic.o
                                0x1b3 (size before relaxing)
 .debug_str     0x00002c58       0x17 obj\Debug\SmartHome.o
                                0x207 (size before relaxing)
 .debug_str     0x00002c6f       0x18 obj\Debug\SWInputs.o
                                 0xfd (size before relaxing)
 .debug_str     0x00002c87       0x1b obj\Debug\SWOutputs.o
                                0x105 (size before relaxing)

.debug_loc      0x00000000     0x57d2
 *(.debug_loc)
 .debug_loc     0x00000000       0x76 obj\Debug\arduino\abi.o
 .debug_loc     0x00000076      0x344 obj\Debug\arduino\HardwareSerial.o
 .debug_loc     0x000003ba      0x4eb obj\Debug\arduino\HardwareSerial0.o
 .debug_loc     0x000008a5      0x4eb obj\Debug\arduino\HardwareSerial1.o
 .debug_loc     0x00000d90      0x4eb obj\Debug\arduino\HardwareSerial2.o
 .debug_loc     0x0000127b      0x4eb obj\Debug\arduino\HardwareSerial3.o
 .debug_loc     0x00001766       0x3b obj\Debug\arduino\hooks.o
 .debug_loc     0x000017a1      0x36b obj\Debug\arduino\IPAddress.o
 .debug_loc     0x00001b0c       0xf9 obj\Debug\arduino\main.o
 .debug_loc     0x00001c05      0x120 obj\Debug\arduino\new.o
 .debug_loc     0x00001d25      0x968 obj\Debug\arduino\Print.o
 .debug_loc     0x0000268d      0x4e0 obj\Debug\arduino\Stream.o
 .debug_loc     0x00002b6d      0x20f obj\Debug\arduino\Tone.o
 .debug_loc     0x00002d7c      0x853 obj\Debug\arduino\WInterrupts.o
 .debug_loc     0x000035cf      0x223 obj\Debug\arduino\wiring.o
 .debug_loc     0x000037f2       0xd8 obj\Debug\arduino\wiring_analog.o
 .debug_loc     0x000038ca      0x11d obj\Debug\arduino\wiring_digital.o
 .debug_loc     0x000039e7      0x13d obj\Debug\arduino\wiring_pulse.o
 .debug_loc     0x00003b24       0x90 obj\Debug\arduino\wiring_shift.o
 .debug_loc     0x00003bb4      0x24a obj\Debug\arduino\WMath.o
 .debug_loc     0x00003dfe     0x17bb obj\Debug\arduino\WString.o
 .debug_loc     0x000055b9       0x48 obj\Debug\HWInputs.o
 .debug_loc     0x00005601       0x48 obj\Debug\HWOutputs.o
 .debug_loc     0x00005649       0x3b obj\Debug\Logic.o
 .debug_loc     0x00005684       0xbe obj\Debug\SmartHome.o
 .debug_loc     0x00005742       0x48 obj\Debug\SWInputs.o
 .debug_loc     0x0000578a       0x48 obj\Debug\SWOutputs.o

.debug_macinfo
 *(.debug_macinfo)

.debug_weaknames
 *(.debug_weaknames)

.debug_funcnames
 *(.debug_funcnames)

.debug_typenames
 *(.debug_typenames)

.debug_varnames
 *(.debug_varnames)

.debug_pubtypes
 *(.debug_pubtypes)

.debug_ranges   0x00000000      0x208
 *(.debug_ranges)
 .debug_ranges  0x00000000       0x40 obj\Debug\arduino\HardwareSerial0.o
 .debug_ranges  0x00000040       0x40 obj\Debug\arduino\HardwareSerial1.o
 .debug_ranges  0x00000080       0x40 obj\Debug\arduino\HardwareSerial2.o
 .debug_ranges  0x000000c0       0x40 obj\Debug\arduino\HardwareSerial3.o
 .debug_ranges  0x00000100       0x18 obj\Debug\arduino\IPAddress.o
 .debug_ranges  0x00000118       0x58 obj\Debug\arduino\Print.o
 .debug_ranges  0x00000170       0x30 obj\Debug\arduino\Stream.o
 .debug_ranges  0x000001a0       0x50 obj\Debug\arduino\WString.o
 .debug_ranges  0x000001f0       0x18 obj\Debug\SmartHome.o

.debug_macro
 *(.debug_macro)
OUTPUT(bin\Debug\SmartHome.elf elf32-avr)
LOAD linker stubs

Cross Reference Table

Symbol                                            File
SWReadInputs                                      obj\Debug\SWInputs.o
SWWriteOutputs                                    obj\Debug\SWOutputs.o
Serial                                            obj\Debug\arduino\HardwareSerial0.o
                                                  obj\Debug\SmartHome.o
                                                  obj\Debug\HWOutputs.o
Serial1                                           obj\Debug\arduino\HardwareSerial1.o
Serial2                                           obj\Debug\arduino\HardwareSerial2.o
Serial3                                           obj\Debug\arduino\HardwareSerial3.o
_Z10randomSeedm                                   obj\Debug\arduino\WMath.o
_Z11serialEventv                                  obj\Debug\arduino\HardwareSerial.o
_Z12HWReadInputsPh                                obj\Debug\HWInputs.o
                                                  obj\Debug\Logic.o
_Z12MainFunctionv                                 obj\Debug\Logic.o
                                                  obj\Debug\SmartHome.o
_Z12disableTimerh                                 obj\Debug\arduino\Tone.o
_Z12serialEvent1v                                 obj\Debug\arduino\HardwareSerial.o
_Z12serialEvent2v                                 obj\Debug\arduino\HardwareSerial.o
_Z12serialEvent3v                                 obj\Debug\arduino\HardwareSerial.o
_Z14HWWriteOutputsPh                              obj\Debug\HWOutputs.o
                                                  obj\Debug\Logic.o
_Z14serialEventRunv                               obj\Debug\arduino\HardwareSerial.o
                                                  obj\Debug\arduino\main.o
_Z17Serial0_availablev                            obj\Debug\arduino\HardwareSerial0.o
                                                  obj\Debug\arduino\HardwareSerial.o
_Z17Serial1_availablev                            obj\Debug\arduino\HardwareSerial1.o
                                                  obj\Debug\arduino\HardwareSerial.o
_Z17Serial2_availablev                            obj\Debug\arduino\HardwareSerial2.o
                                                  obj\Debug\arduino\HardwareSerial.o
_Z17Serial3_availablev                            obj\Debug\arduino\HardwareSerial3.o
                                                  obj\Debug\arduino\HardwareSerial.o
_Z3maplllll                                       obj\Debug\arduino\WMath.o
_Z4tonehjm                                        obj\Debug\arduino\Tone.o
_Z6noToneh                                        obj\Debug\arduino\Tone.o
_Z6randoml                                        obj\Debug\arduino\WMath.o
_Z6randomll                                       obj\Debug\arduino\WMath.o
_Z8makeWordhh                                     obj\Debug\arduino\WMath.o
_Z8makeWordj                                      obj\Debug\arduino\WMath.o
_Z8setupUSBv                                      obj\Debug\arduino\main.o
_ZN14HardwareSerial16_rx_complete_irqEv           obj\Debug\arduino\HardwareSerial0.o
                                                  obj\Debug\arduino\HardwareSerial3.o
                                                  obj\Debug\arduino\HardwareSerial2.o
                                                  obj\Debug\arduino\HardwareSerial1.o
_ZN14HardwareSerial17_tx_udr_empty_irqEv          obj\Debug\arduino\HardwareSerial.o
                                                  obj\Debug\arduino\HardwareSerial3.o
                                                  obj\Debug\arduino\HardwareSerial2.o
                                                  obj\Debug\arduino\HardwareSerial1.o
                                                  obj\Debug\arduino\HardwareSerial0.o
_ZN14HardwareSerial17availableForWriteEv          obj\Debug\arduino\HardwareSerial.o
_ZN14HardwareSerial3endEv                         obj\Debug\arduino\HardwareSerial.o
_ZN14HardwareSerial4peekEv                        obj\Debug\arduino\HardwareSerial.o
_ZN14HardwareSerial4readEv                        obj\Debug\arduino\HardwareSerial.o
_ZN14HardwareSerial5beginEm                       obj\Debug\SmartHome.o
_ZN14HardwareSerial5beginEmh                      obj\Debug\arduino\HardwareSerial.o
                                                  obj\Debug\SmartHome.o
_ZN14HardwareSerial5flushEv                       obj\Debug\arduino\HardwareSerial.o
_ZN14HardwareSerial5writeEh                       obj\Debug\arduino\HardwareSerial.o
_ZN14HardwareSerial9availableEv                   obj\Debug\arduino\HardwareSerial.o
                                                  obj\Debug\arduino\HardwareSerial3.o
                                                  obj\Debug\arduino\HardwareSerial2.o
                                                  obj\Debug\arduino\HardwareSerial1.o
                                                  obj\Debug\arduino\HardwareSerial0.o
_ZN14HardwareSerialC1EPVhS1_S1_S1_S1_S1_          obj\Debug\arduino\HardwareSerial0.o
                                                  obj\Debug\arduino\HardwareSerial3.o
                                                  obj\Debug\arduino\HardwareSerial2.o
                                                  obj\Debug\arduino\HardwareSerial1.o
_ZN14HardwareSerialC2EPVhS1_S1_S1_S1_S1_          obj\Debug\arduino\HardwareSerial0.o
                                                  obj\Debug\arduino\HardwareSerial3.o
                                                  obj\Debug\arduino\HardwareSerial2.o
                                                  obj\Debug\arduino\HardwareSerial1.o
_ZN5Print10printFloatEdh                          obj\Debug\arduino\Print.o
_ZN5Print11printNumberEmh                         obj\Debug\arduino\Print.o
_ZN5Print17availableForWriteEv                    obj\Debug\arduino\HardwareSerial0.o
                                                  obj\Debug\arduino\Print.o
                                                  obj\Debug\arduino\HardwareSerial3.o
                                                  obj\Debug\arduino\HardwareSerial2.o
                                                  obj\Debug\arduino\HardwareSerial1.o
_ZN5Print5flushEv                                 obj\Debug\arduino\HardwareSerial0.o
                                                  obj\Debug\arduino\Print.o
                                                  obj\Debug\arduino\HardwareSerial3.o
                                                  obj\Debug\arduino\HardwareSerial2.o
                                                  obj\Debug\arduino\HardwareSerial1.o
_ZN5Print5printEPK19__FlashStringHelper           obj\Debug\arduino\Print.o
_ZN5Print5printEPKc                               obj\Debug\arduino\Print.o
_ZN5Print5printERK6String                         obj\Debug\arduino\Print.o
_ZN5Print5printERK9Printable                      obj\Debug\arduino\Print.o
_ZN5Print5printEc                                 obj\Debug\arduino\Print.o
                                                  obj\Debug\arduino\IPAddress.o
_ZN5Print5printEdi                                obj\Debug\arduino\Print.o
_ZN5Print5printEhi                                obj\Debug\arduino\Print.o
                                                  obj\Debug\arduino\IPAddress.o
_ZN5Print5printEii                                obj\Debug\arduino\Print.o
_ZN5Print5printEji                                obj\Debug\arduino\Print.o
_ZN5Print5printEli                                obj\Debug\arduino\Print.o
_ZN5Print5printEmi                                obj\Debug\arduino\Print.o
_ZN5Print5writeEPKc                               obj\Debug\arduino\Print.o
_ZN5Print5writeEPKcj                              obj\Debug\arduino\Print.o
_ZN5Print5writeEPKhj                              obj\Debug\arduino\Print.o
                                                  obj\Debug\arduino\HardwareSerial3.o
                                                  obj\Debug\arduino\HardwareSerial2.o
                                                  obj\Debug\arduino\HardwareSerial1.o
                                                  obj\Debug\arduino\HardwareSerial0.o
                                                  obj\Debug\arduino\HardwareSerial.o
_ZN5Print7printlnEPK19__FlashStringHelper         obj\Debug\arduino\Print.o
_ZN5Print7printlnEPKc                             obj\Debug\arduino\Print.o
_ZN5Print7printlnERK6String                       obj\Debug\arduino\Print.o
_ZN5Print7printlnERK9Printable                    obj\Debug\arduino\Print.o
_ZN5Print7printlnEc                               obj\Debug\arduino\Print.o
_ZN5Print7printlnEdi                              obj\Debug\arduino\Print.o
_ZN5Print7printlnEhi                              obj\Debug\arduino\Print.o
                                                  obj\Debug\HWOutputs.o
_ZN5Print7printlnEii                              obj\Debug\arduino\Print.o
_ZN5Print7printlnEji                              obj\Debug\arduino\Print.o
_ZN5Print7printlnEli                              obj\Debug\arduino\Print.o
_ZN5Print7printlnEmi                              obj\Debug\arduino\Print.o
_ZN5Print7printlnEv                               obj\Debug\arduino\Print.o
_ZN5PrintC1Ev                                     obj\Debug\arduino\HardwareSerial0.o
                                                  obj\Debug\arduino\HardwareSerial3.o
                                                  obj\Debug\arduino\HardwareSerial2.o
                                                  obj\Debug\arduino\HardwareSerial1.o
_ZN5PrintC2Ev                                     obj\Debug\arduino\HardwareSerial0.o
                                                  obj\Debug\arduino\HardwareSerial3.o
                                                  obj\Debug\arduino\HardwareSerial2.o
                                                  obj\Debug\arduino\HardwareSerial1.o
_ZN6Stream10parseFloatE13LookaheadModec           obj\Debug\arduino\Stream.o
_ZN6Stream10readStringEv                          obj\Debug\arduino\Stream.o
_ZN6Stream10setTimeoutEm                          obj\Debug\arduino\Stream.o
_ZN6Stream13peekNextDigitE13LookaheadModeb        obj\Debug\arduino\Stream.o
_ZN6Stream14readBytesUntilEcPcj                   obj\Debug\arduino\Stream.o
_ZN6Stream15readStringUntilEc                     obj\Debug\arduino\Stream.o
_ZN6Stream4findEPc                                obj\Debug\arduino\Stream.o
_ZN6Stream4findEPcj                               obj\Debug\arduino\Stream.o
_ZN6Stream8parseIntE13LookaheadModec              obj\Debug\arduino\Stream.o
_ZN6Stream9findMultiEPNS_11MultiTargetEi          obj\Debug\arduino\Stream.o
_ZN6Stream9findUntilEPcS0_                        obj\Debug\arduino\Stream.o
_ZN6Stream9findUntilEPcjS0_j                      obj\Debug\arduino\Stream.o
_ZN6Stream9readBytesEPcj                          obj\Debug\arduino\Stream.o
_ZN6Stream9timedPeekEv                            obj\Debug\arduino\Stream.o
_ZN6Stream9timedReadEv                            obj\Debug\arduino\Stream.o
_ZN6StreamC1Ev                                    obj\Debug\arduino\HardwareSerial0.o
                                                  obj\Debug\arduino\HardwareSerial3.o
                                                  obj\Debug\arduino\HardwareSerial2.o
                                                  obj\Debug\arduino\HardwareSerial1.o
_ZN6StreamC2Ev                                    obj\Debug\arduino\HardwareSerial0.o
                                                  obj\Debug\arduino\HardwareSerial3.o
                                                  obj\Debug\arduino\HardwareSerial2.o
                                                  obj\Debug\arduino\HardwareSerial1.o
_ZN6String10invalidateEv                          obj\Debug\arduino\WString.o
_ZN6String11toLowerCaseEv                         obj\Debug\arduino\WString.o
_ZN6String11toUpperCaseEv                         obj\Debug\arduino\WString.o
_ZN6String12changeBufferEj                        obj\Debug\arduino\WString.o
_ZN6String4copyEPK19__FlashStringHelperj          obj\Debug\arduino\WString.o
_ZN6String4copyEPKcj                              obj\Debug\arduino\WString.o
_ZN6String4initEv                                 obj\Debug\arduino\WString.o
_ZN6String4trimEv                                 obj\Debug\arduino\WString.o
_ZN6String6concatEPK19__FlashStringHelper         obj\Debug\arduino\WString.o
_ZN6String6concatEPKc                             obj\Debug\arduino\WString.o
_ZN6String6concatEPKcj                            obj\Debug\arduino\WString.o
_ZN6String6concatERKS_                            obj\Debug\arduino\WString.o
_ZN6String6concatEc                               obj\Debug\arduino\WString.o
                                                  obj\Debug\arduino\Stream.o
_ZN6String6concatEd                               obj\Debug\arduino\WString.o
_ZN6String6concatEf                               obj\Debug\arduino\WString.o
_ZN6String6concatEh                               obj\Debug\arduino\WString.o
_ZN6String6concatEi                               obj\Debug\arduino\WString.o
_ZN6String6concatEj                               obj\Debug\arduino\WString.o
_ZN6String6concatEl                               obj\Debug\arduino\WString.o
_ZN6String6concatEm                               obj\Debug\arduino\WString.o
_ZN6String6removeEj                               obj\Debug\arduino\WString.o
_ZN6String6removeEjj                              obj\Debug\arduino\WString.o
_ZN6String7replaceERKS_S1_                        obj\Debug\arduino\WString.o
_ZN6String7replaceEcc                             obj\Debug\arduino\WString.o
_ZN6String7reserveEj                              obj\Debug\arduino\WString.o
_ZN6String9setCharAtEjc                           obj\Debug\arduino\WString.o
_ZN6StringC1EPK19__FlashStringHelper              obj\Debug\arduino\WString.o
_ZN6StringC1EPKc                                  obj\Debug\arduino\WString.o
                                                  obj\Debug\arduino\Stream.o
_ZN6StringC1ERKS_                                 obj\Debug\arduino\WString.o
_ZN6StringC1Ec                                    obj\Debug\arduino\WString.o
_ZN6StringC1Edh                                   obj\Debug\arduino\WString.o
_ZN6StringC1Efh                                   obj\Debug\arduino\WString.o
_ZN6StringC1Ehh                                   obj\Debug\arduino\WString.o
_ZN6StringC1Eih                                   obj\Debug\arduino\WString.o
_ZN6StringC1Ejh                                   obj\Debug\arduino\WString.o
_ZN6StringC1Elh                                   obj\Debug\arduino\WString.o
_ZN6StringC1Emh                                   obj\Debug\arduino\WString.o
_ZN6StringC2EPK19__FlashStringHelper              obj\Debug\arduino\WString.o
_ZN6StringC2EPKc                                  obj\Debug\arduino\WString.o
_ZN6StringC2ERKS_                                 obj\Debug\arduino\WString.o
_ZN6StringC2Ec                                    obj\Debug\arduino\WString.o
_ZN6StringC2Edh                                   obj\Debug\arduino\WString.o
_ZN6StringC2Efh                                   obj\Debug\arduino\WString.o
_ZN6StringC2Ehh                                   obj\Debug\arduino\WString.o
_ZN6StringC2Eih                                   obj\Debug\arduino\WString.o
_ZN6StringC2Ejh                                   obj\Debug\arduino\WString.o
_ZN6StringC2Elh                                   obj\Debug\arduino\WString.o
_ZN6StringC2Emh                                   obj\Debug\arduino\WString.o
_ZN6StringD1Ev                                    obj\Debug\arduino\WString.o
_ZN6StringD2Ev                                    obj\Debug\arduino\WString.o
_ZN6StringaSEPK19__FlashStringHelper              obj\Debug\arduino\WString.o
_ZN6StringaSEPKc                                  obj\Debug\arduino\WString.o
_ZN6StringaSERKS_                                 obj\Debug\arduino\WString.o
_ZN6StringixEj                                    obj\Debug\arduino\WString.o
_ZN6StringpLEc                                    obj\Debug\arduino\Stream.o
_ZN9IPAddress10fromStringEPKc                     obj\Debug\arduino\IPAddress.o
_ZN9IPAddressC1EPKh                               obj\Debug\arduino\IPAddress.o
_ZN9IPAddressC1Ehhhh                              obj\Debug\arduino\IPAddress.o
_ZN9IPAddressC1Em                                 obj\Debug\arduino\IPAddress.o
_ZN9IPAddressC1Ev                                 obj\Debug\arduino\IPAddress.o
_ZN9IPAddressC2EPKh                               obj\Debug\arduino\IPAddress.o
_ZN9IPAddressC2Ehhhh                              obj\Debug\arduino\IPAddress.o
_ZN9IPAddressC2Em                                 obj\Debug\arduino\IPAddress.o
_ZN9IPAddressC2Ev                                 obj\Debug\arduino\IPAddress.o
_ZN9IPAddressaSEPKh                               obj\Debug\arduino\IPAddress.o
_ZN9IPAddressaSEm                                 obj\Debug\arduino\IPAddress.o
_ZN9PrintableC1Ev                                 obj\Debug\arduino\IPAddress.o
_ZN9PrintableC2Ev                                 obj\Debug\arduino\IPAddress.o
_ZNK6String10startsWithERKS_                      obj\Debug\arduino\WString.o
_ZNK6String10startsWithERKS_j                     obj\Debug\arduino\WString.o
_ZNK6String11lastIndexOfERKS_                     obj\Debug\arduino\WString.o
_ZNK6String11lastIndexOfERKS_j                    obj\Debug\arduino\WString.o
_ZNK6String11lastIndexOfEc                        obj\Debug\arduino\WString.o
_ZNK6String11lastIndexOfEcj                       obj\Debug\arduino\WString.o
_ZNK6String16equalsIgnoreCaseERKS_                obj\Debug\arduino\WString.o
_ZNK6String5c_strEv                               obj\Debug\arduino\Print.o
_ZNK6String5toIntEv                               obj\Debug\arduino\WString.o
_ZNK6String6charAtEj                              obj\Debug\arduino\WString.o
_ZNK6String6equalsEPKc                            obj\Debug\arduino\WString.o
_ZNK6String6equalsERKS_                           obj\Debug\arduino\WString.o
_ZNK6String6lengthEv                              obj\Debug\arduino\Print.o
_ZNK6String7indexOfERKS_                          obj\Debug\arduino\WString.o
_ZNK6String7indexOfERKS_j                         obj\Debug\arduino\WString.o
_ZNK6String7indexOfEc                             obj\Debug\arduino\WString.o
_ZNK6String7indexOfEcj                            obj\Debug\arduino\WString.o
_ZNK6String7toFloatEv                             obj\Debug\arduino\WString.o
_ZNK6String8endsWithERKS_                         obj\Debug\arduino\WString.o
_ZNK6String8getBytesEPhjj                         obj\Debug\arduino\WString.o
_ZNK6String8toDoubleEv                            obj\Debug\arduino\WString.o
_ZNK6String9compareToERKS_                        obj\Debug\arduino\WString.o
_ZNK6String9substringEjj                          obj\Debug\arduino\WString.o
_ZNK6StringgeERKS_                                obj\Debug\arduino\WString.o
_ZNK6StringgtERKS_                                obj\Debug\arduino\WString.o
_ZNK6StringixEj                                   obj\Debug\arduino\WString.o
_ZNK6StringleERKS_                                obj\Debug\arduino\WString.o
_ZNK6StringltERKS_                                obj\Debug\arduino\WString.o
_ZNK9IPAddress7printToER5Print                    obj\Debug\arduino\IPAddress.o
_ZNK9IPAddresseqEPKh                              obj\Debug\arduino\IPAddress.o
_ZTV14HardwareSerial                              obj\Debug\arduino\HardwareSerial.o
                                                  obj\Debug\arduino\HardwareSerial3.o
                                                  obj\Debug\arduino\HardwareSerial2.o
                                                  obj\Debug\arduino\HardwareSerial1.o
                                                  obj\Debug\arduino\HardwareSerial0.o
_ZTV5Print                                        obj\Debug\arduino\Print.o
                                                  obj\Debug\arduino\HardwareSerial3.o
                                                  obj\Debug\arduino\HardwareSerial2.o
                                                  obj\Debug\arduino\HardwareSerial1.o
                                                  obj\Debug\arduino\HardwareSerial0.o
_ZTV6Stream                                       obj\Debug\arduino\HardwareSerial0.o
                                                  obj\Debug\arduino\HardwareSerial3.o
                                                  obj\Debug\arduino\HardwareSerial2.o
                                                  obj\Debug\arduino\HardwareSerial1.o
_ZTV9IPAddress                                    obj\Debug\arduino\IPAddress.o
_ZTV9Printable                                    obj\Debug\arduino\IPAddress.o
_ZdaPv                                            obj\Debug\arduino\new.o
_ZdlPv                                            obj\Debug\arduino\new.o
_Znaj                                             obj\Debug\arduino\new.o
_Znwj                                             obj\Debug\arduino\new.o
_ZplRK15StringSumHelperPK19__FlashStringHelper    obj\Debug\arduino\WString.o
_ZplRK15StringSumHelperPKc                        obj\Debug\arduino\WString.o
_ZplRK15StringSumHelperRK6String                  obj\Debug\arduino\WString.o
_ZplRK15StringSumHelperc                          obj\Debug\arduino\WString.o
_ZplRK15StringSumHelperd                          obj\Debug\arduino\WString.o
_ZplRK15StringSumHelperf                          obj\Debug\arduino\WString.o
_ZplRK15StringSumHelperh                          obj\Debug\arduino\WString.o
_ZplRK15StringSumHelperi                          obj\Debug\arduino\WString.o
_ZplRK15StringSumHelperj                          obj\Debug\arduino\WString.o
_ZplRK15StringSumHelperl                          obj\Debug\arduino\WString.o
_ZplRK15StringSumHelperm                          obj\Debug\arduino\WString.o
__FUSE_REGION_LENGTH__                            c:/atmel/studio/7.0/toolchain/avr8/avr8-gnu-toolchain/bin/../lib/gcc/avr/5.4.0/../../../../avr/lib/avr6/crtatmega2560.o
__addsf3                                          c:/atmel/studio/7.0/toolchain/avr8/avr8-gnu-toolchain/bin/../lib/gcc/avr/5.4.0/../../../../avr/lib/avr6\libm.a(addsf3.o)
                                                  obj\Debug\arduino\Print.o
__addsf3x                                         c:/atmel/studio/7.0/toolchain/avr8/avr8-gnu-toolchain/bin/../lib/gcc/avr/5.4.0/../../../../avr/lib/avr6\libm.a(addsf3x.o)
                                                  c:/atmel/studio/7.0/toolchain/avr8/avr8-gnu-toolchain/bin/../lib/gcc/avr/5.4.0/../../../../avr/lib/avr6\libm.a(addsf3.o)
__bad_interrupt                                   c:/atmel/studio/7.0/toolchain/avr8/avr8-gnu-toolchain/bin/../lib/gcc/avr/5.4.0/../../../../avr/lib/avr6/crtatmega2560.o
__brkval                                          c:/atmel/studio/7.0/toolchain/avr8/avr8-gnu-toolchain/bin/../lib/gcc/avr/5.4.0/../../../../avr/lib/avr6\libc.a(malloc.o)
                                                  c:/atmel/studio/7.0/toolchain/avr8/avr8-gnu-toolchain/bin/../lib/gcc/avr/5.4.0/../../../../avr/lib/avr6\libc.a(realloc.o)
__bss_end                                         c:/atmel/studio/7.0/toolchain/avr8/avr8-gnu-toolchain/bin/../lib/gcc/avr/5.4.0/avr6\libgcc.a(_clear_bss.o)
__bss_start                                       c:/atmel/studio/7.0/toolchain/avr8/avr8-gnu-toolchain/bin/../lib/gcc/avr/5.4.0/avr6\libgcc.a(_clear_bss.o)
__cmpsf2                                          c:/atmel/studio/7.0/toolchain/avr8/avr8-gnu-toolchain/bin/../lib/gcc/avr/5.4.0/../../../../avr/lib/avr6\libm.a(cmpsf2.o)
__ctors_end                                       c:/atmel/studio/7.0/toolchain/avr8/avr8-gnu-toolchain/bin/../lib/gcc/avr/5.4.0/avr6\libgcc.a(_ctors.o)
__ctors_start                                     c:/atmel/studio/7.0/toolchain/avr8/avr8-gnu-toolchain/bin/../lib/gcc/avr/5.4.0/avr6\libgcc.a(_ctors.o)
__ctype_isfalse                                   c:/atmel/studio/7.0/toolchain/avr8/avr8-gnu-toolchain/bin/../lib/gcc/avr/5.4.0/../../../../avr/lib/avr6\libc.a(cty_isfalse.o)
                                                  c:/atmel/studio/7.0/toolchain/avr8/avr8-gnu-toolchain/bin/../lib/gcc/avr/5.4.0/../../../../avr/lib/avr6\libc.a(isspace.o)
__ctype_istrue                                    c:/atmel/studio/7.0/toolchain/avr8/avr8-gnu-toolchain/bin/../lib/gcc/avr/5.4.0/../../../../avr/lib/avr6\libc.a(cty_isfalse.o)
__cxa_deleted_virtual                             obj\Debug\arduino\abi.o
__cxa_pure_virtual                                obj\Debug\arduino\abi.o
                                                  obj\Debug\arduino\Print.o
                                                  obj\Debug\arduino\IPAddress.o
                                                  obj\Debug\arduino\HardwareSerial3.o
                                                  obj\Debug\arduino\HardwareSerial2.o
                                                  obj\Debug\arduino\HardwareSerial1.o
                                                  obj\Debug\arduino\HardwareSerial0.o
__data_end                                        c:/atmel/studio/7.0/toolchain/avr8/avr8-gnu-toolchain/bin/../lib/gcc/avr/5.4.0/avr6\libgcc.a(_copy_data.o)
__data_load_start                                 c:/atmel/studio/7.0/toolchain/avr8/avr8-gnu-toolchain/bin/../lib/gcc/avr/5.4.0/avr6\libgcc.a(_copy_data.o)
__data_start                                      c:/atmel/studio/7.0/toolchain/avr8/avr8-gnu-toolchain/bin/../lib/gcc/avr/5.4.0/avr6\libgcc.a(_copy_data.o)
__divmodsi4                                       c:/atmel/studio/7.0/toolchain/avr8/avr8-gnu-toolchain/bin/../lib/gcc/avr/5.4.0/avr6\libgcc.a(_divmodsi4.o)
                                                  c:/atmel/studio/7.0/toolchain/avr8/avr8-gnu-toolchain/bin/../lib/gcc/avr/5.4.0/../../../../avr/lib/avr6\libc.a(random.o)
                                                  obj\Debug\arduino\WMath.o
__divsf3                                          c:/atmel/studio/7.0/toolchain/avr8/avr8-gnu-toolchain/bin/../lib/gcc/avr/5.4.0/../../../../avr/lib/avr6\libm.a(divsf3.o)
                                                  obj\Debug\arduino\Print.o
__divsf3_pse                                      c:/atmel/studio/7.0/toolchain/avr8/avr8-gnu-toolchain/bin/../lib/gcc/avr/5.4.0/../../../../avr/lib/avr6\libm.a(divsf3x.o)
__divsf3x                                         c:/atmel/studio/7.0/toolchain/avr8/avr8-gnu-toolchain/bin/../lib/gcc/avr/5.4.0/../../../../avr/lib/avr6\libm.a(divsf3x.o)
                                                  c:/atmel/studio/7.0/toolchain/avr8/avr8-gnu-toolchain/bin/../lib/gcc/avr/5.4.0/../../../../avr/lib/avr6\libm.a(divsf3.o)
__do_clear_bss                                    c:/atmel/studio/7.0/toolchain/avr8/avr8-gnu-toolchain/bin/../lib/gcc/avr/5.4.0/avr6\libgcc.a(_clear_bss.o)
                                                  c:/atmel/studio/7.0/toolchain/avr8/avr8-gnu-toolchain/bin/../lib/gcc/avr/5.4.0/../../../../avr/lib/avr6\libc.a(errno.o)
                                                  c:/atmel/studio/7.0/toolchain/avr8/avr8-gnu-toolchain/bin/../lib/gcc/avr/5.4.0/../../../../avr/lib/avr6\libc.a(iob.o)
                                                  c:/atmel/studio/7.0/toolchain/avr8/avr8-gnu-toolchain/bin/../lib/gcc/avr/5.4.0/../../../../avr/lib/avr6\libc.a(malloc.o)
                                                  obj\Debug\Logic.o
                                                  obj\Debug\arduino\WString.o
                                                  obj\Debug\arduino\wiring.o
                                                  obj\Debug\arduino\Tone.o
                                                  obj\Debug\arduino\IPAddress.o
                                                  obj\Debug\arduino\HardwareSerial3.o
                                                  obj\Debug\arduino\HardwareSerial2.o
                                                  obj\Debug\arduino\HardwareSerial1.o
                                                  obj\Debug\arduino\HardwareSerial0.o
__do_copy_data                                    c:/atmel/studio/7.0/toolchain/avr8/avr8-gnu-toolchain/bin/../lib/gcc/avr/5.4.0/avr6\libgcc.a(_copy_data.o)
                                                  c:/atmel/studio/7.0/toolchain/avr8/avr8-gnu-toolchain/bin/../lib/gcc/avr/5.4.0/../../../../avr/lib/avr6\libc.a(random.o)
                                                  c:/atmel/studio/7.0/toolchain/avr8/avr8-gnu-toolchain/bin/../lib/gcc/avr/5.4.0/../../../../avr/lib/avr6\libc.a(malloc.o)
                                                  obj\Debug\SWOutputs.o
                                                  obj\Debug\SmartHome.o
                                                  obj\Debug\Logic.o
                                                  obj\Debug\HWOutputs.o
                                                  obj\Debug\arduino\WString.o
                                                  obj\Debug\arduino\wiring_shift.o
                                                  obj\Debug\arduino\wiring_pulse.o
                                                  obj\Debug\arduino\wiring_digital.o
                                                  obj\Debug\arduino\wiring_analog.o
                                                  obj\Debug\arduino\wiring.o
                                                  obj\Debug\arduino\WInterrupts.o
                                                  obj\Debug\arduino\USBCore.o
                                                  obj\Debug\arduino\Tone.o
                                                  obj\Debug\arduino\Stream.o
                                                  obj\Debug\arduino\Print.o
                                                  obj\Debug\arduino\PluggableUSB.o
                                                  obj\Debug\arduino\main.o
                                                  obj\Debug\arduino\IPAddress.o
                                                  obj\Debug\arduino\HardwareSerial3.o
                                                  obj\Debug\arduino\HardwareSerial2.o
                                                  obj\Debug\arduino\HardwareSerial1.o
                                                  obj\Debug\arduino\HardwareSerial0.o
                                                  obj\Debug\arduino\HardwareSerial.o
                                                  obj\Debug\arduino\CDC.o
__do_global_ctors                                 c:/atmel/studio/7.0/toolchain/avr8/avr8-gnu-toolchain/bin/../lib/gcc/avr/5.4.0/avr6\libgcc.a(_ctors.o)
                                                  obj\Debug\arduino\IPAddress.o
                                                  obj\Debug\arduino\HardwareSerial3.o
                                                  obj\Debug\arduino\HardwareSerial2.o
                                                  obj\Debug\arduino\HardwareSerial1.o
                                                  obj\Debug\arduino\HardwareSerial0.o
__eqsf2                                           c:/atmel/studio/7.0/toolchain/avr8/avr8-gnu-toolchain/bin/../lib/gcc/avr/5.4.0/../../../../avr/lib/avr6\libm.a(cmpsf2.o)
                                                  c:/atmel/studio/7.0/toolchain/avr8/avr8-gnu-toolchain/bin/../lib/gcc/avr/5.4.0/../../../../avr/lib/avr6\libc.a(strtod.o)
__fixunssfsi                                      c:/atmel/studio/7.0/toolchain/avr8/avr8-gnu-toolchain/bin/../lib/gcc/avr/5.4.0/../../../../avr/lib/avr6\libm.a(fixunssfsi.o)
                                                  obj\Debug\arduino\Print.o
__floatsisf                                       c:/atmel/studio/7.0/toolchain/avr8/avr8-gnu-toolchain/bin/../lib/gcc/avr/5.4.0/../../../../avr/lib/avr6\libm.a(floatsisf.o)
                                                  obj\Debug\arduino\Stream.o
__floatunsisf                                     c:/atmel/studio/7.0/toolchain/avr8/avr8-gnu-toolchain/bin/../lib/gcc/avr/5.4.0/../../../../avr/lib/avr6\libm.a(floatsisf.o)
                                                  c:/atmel/studio/7.0/toolchain/avr8/avr8-gnu-toolchain/bin/../lib/gcc/avr/5.4.0/../../../../avr/lib/avr6\libc.a(strtod.o)
                                                  obj\Debug\arduino\Print.o
__flp                                             c:/atmel/studio/7.0/toolchain/avr8/avr8-gnu-toolchain/bin/../lib/gcc/avr/5.4.0/../../../../avr/lib/avr6\libc.a(malloc.o)
                                                  c:/atmel/studio/7.0/toolchain/avr8/avr8-gnu-toolchain/bin/../lib/gcc/avr/5.4.0/../../../../avr/lib/avr6\libc.a(realloc.o)
__fp_cmp                                          c:/atmel/studio/7.0/toolchain/avr8/avr8-gnu-toolchain/bin/../lib/gcc/avr/5.4.0/../../../../avr/lib/avr6\libm.a(fp_cmp.o)
                                                  c:/atmel/studio/7.0/toolchain/avr8/avr8-gnu-toolchain/bin/../lib/gcc/avr/5.4.0/../../../../avr/lib/avr6\libm.a(unordsf2.o)
                                                  c:/atmel/studio/7.0/toolchain/avr8/avr8-gnu-toolchain/bin/../lib/gcc/avr/5.4.0/../../../../avr/lib/avr6\libm.a(gesf2.o)
                                                  c:/atmel/studio/7.0/toolchain/avr8/avr8-gnu-toolchain/bin/../lib/gcc/avr/5.4.0/../../../../avr/lib/avr6\libm.a(cmpsf2.o)
__fp_inf                                          c:/atmel/studio/7.0/toolchain/avr8/avr8-gnu-toolchain/bin/../lib/gcc/avr/5.4.0/../../../../avr/lib/avr6\libm.a(fp_inf.o)
                                                  c:/atmel/studio/7.0/toolchain/avr8/avr8-gnu-toolchain/bin/../lib/gcc/avr/5.4.0/../../../../avr/lib/avr6\libm.a(mulsf3x.o)
                                                  c:/atmel/studio/7.0/toolchain/avr8/avr8-gnu-toolchain/bin/../lib/gcc/avr/5.4.0/../../../../avr/lib/avr6\libm.a(divsf3x.o)
                                                  c:/atmel/studio/7.0/toolchain/avr8/avr8-gnu-toolchain/bin/../lib/gcc/avr/5.4.0/../../../../avr/lib/avr6\libm.a(addsf3x.o)
__fp_nan                                          c:/atmel/studio/7.0/toolchain/avr8/avr8-gnu-toolchain/bin/../lib/gcc/avr/5.4.0/../../../../avr/lib/avr6\libm.a(fp_nan.o)
                                                  c:/atmel/studio/7.0/toolchain/avr8/avr8-gnu-toolchain/bin/../lib/gcc/avr/5.4.0/../../../../avr/lib/avr6\libm.a(mulsf3x.o)
                                                  c:/atmel/studio/7.0/toolchain/avr8/avr8-gnu-toolchain/bin/../lib/gcc/avr/5.4.0/../../../../avr/lib/avr6\libm.a(divsf3x.o)
                                                  c:/atmel/studio/7.0/toolchain/avr8/avr8-gnu-toolchain/bin/../lib/gcc/avr/5.4.0/../../../../avr/lib/avr6\libm.a(addsf3x.o)
__fp_pscA                                         c:/atmel/studio/7.0/toolchain/avr8/avr8-gnu-toolchain/bin/../lib/gcc/avr/5.4.0/../../../../avr/lib/avr6\libm.a(fp_pscA.o)
                                                  c:/atmel/studio/7.0/toolchain/avr8/avr8-gnu-toolchain/bin/../lib/gcc/avr/5.4.0/../../../../avr/lib/avr6\libm.a(mulsf3x.o)
                                                  c:/atmel/studio/7.0/toolchain/avr8/avr8-gnu-toolchain/bin/../lib/gcc/avr/5.4.0/../../../../avr/lib/avr6\libm.a(divsf3x.o)
                                                  c:/atmel/studio/7.0/toolchain/avr8/avr8-gnu-toolchain/bin/../lib/gcc/avr/5.4.0/../../../../avr/lib/avr6\libm.a(addsf3x.o)
__fp_pscB                                         c:/atmel/studio/7.0/toolchain/avr8/avr8-gnu-toolchain/bin/../lib/gcc/avr/5.4.0/../../../../avr/lib/avr6\libm.a(fp_pscB.o)
                                                  c:/atmel/studio/7.0/toolchain/avr8/avr8-gnu-toolchain/bin/../lib/gcc/avr/5.4.0/../../../../avr/lib/avr6\libm.a(mulsf3x.o)
                                                  c:/atmel/studio/7.0/toolchain/avr8/avr8-gnu-toolchain/bin/../lib/gcc/avr/5.4.0/../../../../avr/lib/avr6\libm.a(divsf3x.o)
                                                  c:/atmel/studio/7.0/toolchain/avr8/avr8-gnu-toolchain/bin/../lib/gcc/avr/5.4.0/../../../../avr/lib/avr6\libm.a(addsf3x.o)
__fp_round                                        c:/atmel/studio/7.0/toolchain/avr8/avr8-gnu-toolchain/bin/../lib/gcc/avr/5.4.0/../../../../avr/lib/avr6\libm.a(fp_round.o)
                                                  c:/atmel/studio/7.0/toolchain/avr8/avr8-gnu-toolchain/bin/../lib/gcc/avr/5.4.0/../../../../avr/lib/avr6\libm.a(mulsf3.o)
                                                  c:/atmel/studio/7.0/toolchain/avr8/avr8-gnu-toolchain/bin/../lib/gcc/avr/5.4.0/../../../../avr/lib/avr6\libm.a(divsf3.o)
                                                  c:/atmel/studio/7.0/toolchain/avr8/avr8-gnu-toolchain/bin/../lib/gcc/avr/5.4.0/../../../../avr/lib/avr6\libm.a(addsf3.o)
__fp_split3                                       c:/atmel/studio/7.0/toolchain/avr8/avr8-gnu-toolchain/bin/../lib/gcc/avr/5.4.0/../../../../avr/lib/avr6\libm.a(fp_split3.o)
                                                  c:/atmel/studio/7.0/toolchain/avr8/avr8-gnu-toolchain/bin/../lib/gcc/avr/5.4.0/../../../../avr/lib/avr6\libm.a(mulsf3x.o)
                                                  c:/atmel/studio/7.0/toolchain/avr8/avr8-gnu-toolchain/bin/../lib/gcc/avr/5.4.0/../../../../avr/lib/avr6\libm.a(divsf3x.o)
                                                  c:/atmel/studio/7.0/toolchain/avr8/avr8-gnu-toolchain/bin/../lib/gcc/avr/5.4.0/../../../../avr/lib/avr6\libm.a(addsf3x.o)
__fp_splitA                                       c:/atmel/studio/7.0/toolchain/avr8/avr8-gnu-toolchain/bin/../lib/gcc/avr/5.4.0/../../../../avr/lib/avr6\libm.a(fp_split3.o)
                                                  c:/atmel/studio/7.0/toolchain/avr8/avr8-gnu-toolchain/bin/../lib/gcc/avr/5.4.0/../../../../avr/lib/avr6\libm.a(fixunssfsi.o)
__fp_szero                                        c:/atmel/studio/7.0/toolchain/avr8/avr8-gnu-toolchain/bin/../lib/gcc/avr/5.4.0/../../../../avr/lib/avr6\libm.a(fp_zero.o)
                                                  c:/atmel/studio/7.0/toolchain/avr8/avr8-gnu-toolchain/bin/../lib/gcc/avr/5.4.0/../../../../avr/lib/avr6\libm.a(mulsf3x.o)
                                                  c:/atmel/studio/7.0/toolchain/avr8/avr8-gnu-toolchain/bin/../lib/gcc/avr/5.4.0/../../../../avr/lib/avr6\libm.a(divsf3x.o)
__fp_zero                                         c:/atmel/studio/7.0/toolchain/avr8/avr8-gnu-toolchain/bin/../lib/gcc/avr/5.4.0/../../../../avr/lib/avr6\libm.a(fp_zero.o)
                                                  c:/atmel/studio/7.0/toolchain/avr8/avr8-gnu-toolchain/bin/../lib/gcc/avr/5.4.0/../../../../avr/lib/avr6\libm.a(fixunssfsi.o)
                                                  c:/atmel/studio/7.0/toolchain/avr8/avr8-gnu-toolchain/bin/../lib/gcc/avr/5.4.0/../../../../avr/lib/avr6\libm.a(addsf3x.o)
__ftoa_engine                                     c:/atmel/studio/7.0/toolchain/avr8/avr8-gnu-toolchain/bin/../lib/gcc/avr/5.4.0/../../../../avr/lib/avr6\libc.a(ftoa_engine.o)
                                                  c:/atmel/studio/7.0/toolchain/avr8/avr8-gnu-toolchain/bin/../lib/gcc/avr/5.4.0/../../../../avr/lib/avr6\libc.a(dtoa_prf.o)
__gesf2                                           c:/atmel/studio/7.0/toolchain/avr8/avr8-gnu-toolchain/bin/../lib/gcc/avr/5.4.0/../../../../avr/lib/avr6\libm.a(gesf2.o)
__gtsf2                                           c:/atmel/studio/7.0/toolchain/avr8/avr8-gnu-toolchain/bin/../lib/gcc/avr/5.4.0/../../../../avr/lib/avr6\libm.a(gesf2.o)
                                                  obj\Debug\arduino\Print.o
__heap_end                                        c:/atmel/studio/7.0/toolchain/avr8/avr8-gnu-toolchain/bin/../lib/gcc/avr/5.4.0/../../../../avr/lib/avr6/crtatmega2560.o
                                                  c:/atmel/studio/7.0/toolchain/avr8/avr8-gnu-toolchain/bin/../lib/gcc/avr/5.4.0/../../../../avr/lib/avr6\libc.a(malloc.o)
__heap_start                                      c:/atmel/studio/7.0/toolchain/avr8/avr8-gnu-toolchain/bin/../lib/gcc/avr/5.4.0/../../../../avr/lib/avr6\libc.a(malloc.o)
__init                                            c:/atmel/studio/7.0/toolchain/avr8/avr8-gnu-toolchain/bin/../lib/gcc/avr/5.4.0/../../../../avr/lib/avr6/crtatmega2560.o
__iob                                             c:/atmel/studio/7.0/toolchain/avr8/avr8-gnu-toolchain/bin/../lib/gcc/avr/5.4.0/../../../../avr/lib/avr6\libc.a(iob.o)
                                                  c:/atmel/studio/7.0/toolchain/avr8/avr8-gnu-toolchain/bin/../lib/gcc/avr/5.4.0/../../../../avr/lib/avr6\libc.a(printf.o)
__itoa                                            c:/atmel/studio/7.0/toolchain/avr8/avr8-gnu-toolchain/bin/../lib/gcc/avr/5.4.0/../../../../avr/lib/avr6\libc.a(itoa.o)
                                                  obj\Debug\arduino\WString.o
__itoa_ncheck                                     c:/atmel/studio/7.0/toolchain/avr8/avr8-gnu-toolchain/bin/../lib/gcc/avr/5.4.0/../../../../avr/lib/avr6\libc.a(itoa_ncheck.o)
                                                  c:/atmel/studio/7.0/toolchain/avr8/avr8-gnu-toolchain/bin/../lib/gcc/avr/5.4.0/../../../../avr/lib/avr6\libc.a(itoa.o)
__lesf2                                           c:/atmel/studio/7.0/toolchain/avr8/avr8-gnu-toolchain/bin/../lib/gcc/avr/5.4.0/../../../../avr/lib/avr6\libm.a(cmpsf2.o)
                                                  obj\Debug\arduino\Print.o
__ltoa                                            c:/atmel/studio/7.0/toolchain/avr8/avr8-gnu-toolchain/bin/../lib/gcc/avr/5.4.0/../../../../avr/lib/avr6\libc.a(ltoa.o)
                                                  obj\Debug\arduino\WString.o
__ltoa_ncheck                                     c:/atmel/studio/7.0/toolchain/avr8/avr8-gnu-toolchain/bin/../lib/gcc/avr/5.4.0/../../../../avr/lib/avr6\libc.a(ltoa_ncheck.o)
                                                  c:/atmel/studio/7.0/toolchain/avr8/avr8-gnu-toolchain/bin/../lib/gcc/avr/5.4.0/../../../../avr/lib/avr6\libc.a(ltoa.o)
__ltsf2                                           c:/atmel/studio/7.0/toolchain/avr8/avr8-gnu-toolchain/bin/../lib/gcc/avr/5.4.0/../../../../avr/lib/avr6\libm.a(cmpsf2.o)
                                                  obj\Debug\arduino\Print.o
__malloc_heap_end                                 c:/atmel/studio/7.0/toolchain/avr8/avr8-gnu-toolchain/bin/../lib/gcc/avr/5.4.0/../../../../avr/lib/avr6\libc.a(malloc.o)
                                                  c:/atmel/studio/7.0/toolchain/avr8/avr8-gnu-toolchain/bin/../lib/gcc/avr/5.4.0/../../../../avr/lib/avr6\libc.a(realloc.o)
__malloc_heap_start                               c:/atmel/studio/7.0/toolchain/avr8/avr8-gnu-toolchain/bin/../lib/gcc/avr/5.4.0/../../../../avr/lib/avr6\libc.a(malloc.o)
__malloc_margin                                   c:/atmel/studio/7.0/toolchain/avr8/avr8-gnu-toolchain/bin/../lib/gcc/avr/5.4.0/../../../../avr/lib/avr6\libc.a(malloc.o)
                                                  c:/atmel/studio/7.0/toolchain/avr8/avr8-gnu-toolchain/bin/../lib/gcc/avr/5.4.0/../../../../avr/lib/avr6\libc.a(realloc.o)
__mulohisi3                                       c:/atmel/studio/7.0/toolchain/avr8/avr8-gnu-toolchain/bin/../lib/gcc/avr/5.4.0/avr6\libgcc.a(_mulshisi3.o)
                                                  c:/atmel/studio/7.0/toolchain/avr8/avr8-gnu-toolchain/bin/../lib/gcc/avr/5.4.0/../../../../avr/lib/avr6\libc.a(random.o)
__mulsf3                                          c:/atmel/studio/7.0/toolchain/avr8/avr8-gnu-toolchain/bin/../lib/gcc/avr/5.4.0/../../../../avr/lib/avr6\libm.a(mulsf3.o)
                                                  c:/atmel/studio/7.0/toolchain/avr8/avr8-gnu-toolchain/bin/../lib/gcc/avr/5.4.0/../../../../avr/lib/avr6\libc.a(strtod.o)
                                                  obj\Debug\arduino\Stream.o
                                                  obj\Debug\arduino\Print.o
__mulsf3_pse                                      c:/atmel/studio/7.0/toolchain/avr8/avr8-gnu-toolchain/bin/../lib/gcc/avr/5.4.0/../../../../avr/lib/avr6\libm.a(mulsf3x.o)
__mulsf3x                                         c:/atmel/studio/7.0/toolchain/avr8/avr8-gnu-toolchain/bin/../lib/gcc/avr/5.4.0/../../../../avr/lib/avr6\libm.a(mulsf3x.o)
                                                  c:/atmel/studio/7.0/toolchain/avr8/avr8-gnu-toolchain/bin/../lib/gcc/avr/5.4.0/../../../../avr/lib/avr6\libm.a(mulsf3.o)
__mulshisi3                                       c:/atmel/studio/7.0/toolchain/avr8/avr8-gnu-toolchain/bin/../lib/gcc/avr/5.4.0/avr6\libgcc.a(_mulshisi3.o)
__mulsi3                                          c:/atmel/studio/7.0/toolchain/avr8/avr8-gnu-toolchain/bin/../lib/gcc/avr/5.4.0/avr6\libgcc.a(_mulsi3.o)
                                                  obj\Debug\arduino\WMath.o
                                                  obj\Debug\arduino\Tone.o
__mulsi_const_10                                  c:/atmel/studio/7.0/toolchain/avr8/avr8-gnu-toolchain/bin/../lib/gcc/avr/5.4.0/../../../../avr/lib/avr6\libc.a(mulsi10.o)
                                                  c:/atmel/studio/7.0/toolchain/avr8/avr8-gnu-toolchain/bin/../lib/gcc/avr/5.4.0/../../../../avr/lib/avr6\libc.a(atol.o)
__muluhisi3                                       c:/atmel/studio/7.0/toolchain/avr8/avr8-gnu-toolchain/bin/../lib/gcc/avr/5.4.0/avr6\libgcc.a(_muluhisi3.o)
                                                  c:/atmel/studio/7.0/toolchain/avr8/avr8-gnu-toolchain/bin/../lib/gcc/avr/5.4.0/avr6\libgcc.a(_mulshisi3.o)
                                                  c:/atmel/studio/7.0/toolchain/avr8/avr8-gnu-toolchain/bin/../lib/gcc/avr/5.4.0/../../../../avr/lib/avr6\libc.a(strtod.o)
                                                  c:/atmel/studio/7.0/toolchain/avr8/avr8-gnu-toolchain/bin/../lib/gcc/avr/5.4.0/../../../../avr/lib/avr6\libc.a(random.o)
                                                  c:/atmel/studio/7.0/toolchain/avr8/avr8-gnu-toolchain/bin/../lib/gcc/avr/5.4.0/avr6\libgcc.a(_mulsi3.o)
__negsi2                                          c:/atmel/studio/7.0/toolchain/avr8/avr8-gnu-toolchain/bin/../lib/gcc/avr/5.4.0/avr6\libgcc.a(_negsi2.o)
                                                  c:/atmel/studio/7.0/toolchain/avr8/avr8-gnu-toolchain/bin/../lib/gcc/avr/5.4.0/avr6\libgcc.a(_divmodsi4.o)
__nesf2                                           c:/atmel/studio/7.0/toolchain/avr8/avr8-gnu-toolchain/bin/../lib/gcc/avr/5.4.0/../../../../avr/lib/avr6\libm.a(cmpsf2.o)
                                                  c:/atmel/studio/7.0/toolchain/avr8/avr8-gnu-toolchain/bin/../lib/gcc/avr/5.4.0/../../../../avr/lib/avr6\libc.a(strtod.o)
__stack                                           c:/atmel/studio/7.0/toolchain/avr8/avr8-gnu-toolchain/bin/../lib/gcc/avr/5.4.0/../../../../avr/lib/avr6/crtatmega2560.o
__strlen_P                                        c:/atmel/studio/7.0/toolchain/avr8/avr8-gnu-toolchain/bin/../lib/gcc/avr/5.4.0/../../../../avr/lib/avr6\libc.a(strlen_P.o)
                                                  obj\Debug\arduino\WString.o
__subsf3                                          c:/atmel/studio/7.0/toolchain/avr8/avr8-gnu-toolchain/bin/../lib/gcc/avr/5.4.0/../../../../avr/lib/avr6\libm.a(addsf3.o)
                                                  obj\Debug\arduino\Print.o
__tablejump2__                                    c:/atmel/studio/7.0/toolchain/avr8/avr8-gnu-toolchain/bin/../lib/gcc/avr/5.4.0/avr6\libgcc.a(_tablejump2.o)
                                                  c:/atmel/studio/7.0/toolchain/avr8/avr8-gnu-toolchain/bin/../lib/gcc/avr/5.4.0/avr6\libgcc.a(_ctors.o)
                                                  obj\Debug\arduino\wiring_digital.o
                                                  obj\Debug\arduino\wiring_analog.o
                                                  obj\Debug\arduino\WInterrupts.o
__udivmodsi4                                      c:/atmel/studio/7.0/toolchain/avr8/avr8-gnu-toolchain/bin/../lib/gcc/avr/5.4.0/avr6\libgcc.a(_udivmodsi4.o)
                                                  c:/atmel/studio/7.0/toolchain/avr8/avr8-gnu-toolchain/bin/../lib/gcc/avr/5.4.0/avr6\libgcc.a(_divmodsi4.o)
                                                  obj\Debug\arduino\Tone.o
                                                  obj\Debug\arduino\Print.o
                                                  obj\Debug\arduino\HardwareSerial.o
__ultoa                                           c:/atmel/studio/7.0/toolchain/avr8/avr8-gnu-toolchain/bin/../lib/gcc/avr/5.4.0/../../../../avr/lib/avr6\libc.a(ultoa.o)
                                                  obj\Debug\arduino\WString.o
__ultoa_common                                    c:/atmel/studio/7.0/toolchain/avr8/avr8-gnu-toolchain/bin/../lib/gcc/avr/5.4.0/../../../../avr/lib/avr6\libc.a(ultoa_ncheck.o)
                                                  c:/atmel/studio/7.0/toolchain/avr8/avr8-gnu-toolchain/bin/../lib/gcc/avr/5.4.0/../../../../avr/lib/avr6\libc.a(ltoa_ncheck.o)
__ultoa_invert                                    c:/atmel/studio/7.0/toolchain/avr8/avr8-gnu-toolchain/bin/../lib/gcc/avr/5.4.0/../../../../avr/lib/avr6\libc.a(ultoa_invert.o)
                                                  c:/atmel/studio/7.0/toolchain/avr8/avr8-gnu-toolchain/bin/../lib/gcc/avr/5.4.0/../../../../avr/lib/avr6\libc.a(vfprintf_std.o)
__ultoa_ncheck                                    c:/atmel/studio/7.0/toolchain/avr8/avr8-gnu-toolchain/bin/../lib/gcc/avr/5.4.0/../../../../avr/lib/avr6\libc.a(ultoa_ncheck.o)
                                                  c:/atmel/studio/7.0/toolchain/avr8/avr8-gnu-toolchain/bin/../lib/gcc/avr/5.4.0/../../../../avr/lib/avr6\libc.a(ultoa.o)
__umulhisi3                                       c:/atmel/studio/7.0/toolchain/avr8/avr8-gnu-toolchain/bin/../lib/gcc/avr/5.4.0/avr6\libgcc.a(_umulhisi3.o)
                                                  c:/atmel/studio/7.0/toolchain/avr8/avr8-gnu-toolchain/bin/../lib/gcc/avr/5.4.0/avr6\libgcc.a(_muluhisi3.o)
__unordsf2                                        c:/atmel/studio/7.0/toolchain/avr8/avr8-gnu-toolchain/bin/../lib/gcc/avr/5.4.0/../../../../avr/lib/avr6\libm.a(unordsf2.o)
                                                  obj\Debug\arduino\Print.o
__utoa                                            c:/atmel/studio/7.0/toolchain/avr8/avr8-gnu-toolchain/bin/../lib/gcc/avr/5.4.0/../../../../avr/lib/avr6\libc.a(utoa.o)
                                                  obj\Debug\arduino\WString.o
__utoa_common                                     c:/atmel/studio/7.0/toolchain/avr8/avr8-gnu-toolchain/bin/../lib/gcc/avr/5.4.0/../../../../avr/lib/avr6\libc.a(utoa_ncheck.o)
                                                  c:/atmel/studio/7.0/toolchain/avr8/avr8-gnu-toolchain/bin/../lib/gcc/avr/5.4.0/../../../../avr/lib/avr6\libc.a(itoa_ncheck.o)
__utoa_ncheck                                     c:/atmel/studio/7.0/toolchain/avr8/avr8-gnu-toolchain/bin/../lib/gcc/avr/5.4.0/../../../../avr/lib/avr6\libc.a(utoa_ncheck.o)
                                                  c:/atmel/studio/7.0/toolchain/avr8/avr8-gnu-toolchain/bin/../lib/gcc/avr/5.4.0/../../../../avr/lib/avr6\libc.a(utoa.o)
__vector_1                                        obj\Debug\arduino\WInterrupts.o
                                                  c:/atmel/studio/7.0/toolchain/avr8/avr8-gnu-toolchain/bin/../lib/gcc/avr/5.4.0/../../../../avr/lib/avr6/crtatmega2560.o
__vector_10                                       c:/atmel/studio/7.0/toolchain/avr8/avr8-gnu-toolchain/bin/../lib/gcc/avr/5.4.0/../../../../avr/lib/avr6/crtatmega2560.o
__vector_11                                       c:/atmel/studio/7.0/toolchain/avr8/avr8-gnu-toolchain/bin/../lib/gcc/avr/5.4.0/../../../../avr/lib/avr6/crtatmega2560.o
__vector_12                                       c:/atmel/studio/7.0/toolchain/avr8/avr8-gnu-toolchain/bin/../lib/gcc/avr/5.4.0/../../../../avr/lib/avr6/crtatmega2560.o
__vector_13                                       obj\Debug\arduino\Tone.o
                                                  c:/atmel/studio/7.0/toolchain/avr8/avr8-gnu-toolchain/bin/../lib/gcc/avr/5.4.0/../../../../avr/lib/avr6/crtatmega2560.o
__vector_14                                       c:/atmel/studio/7.0/toolchain/avr8/avr8-gnu-toolchain/bin/../lib/gcc/avr/5.4.0/../../../../avr/lib/avr6/crtatmega2560.o
__vector_15                                       c:/atmel/studio/7.0/toolchain/avr8/avr8-gnu-toolchain/bin/../lib/gcc/avr/5.4.0/../../../../avr/lib/avr6/crtatmega2560.o
__vector_16                                       c:/atmel/studio/7.0/toolchain/avr8/avr8-gnu-toolchain/bin/../lib/gcc/avr/5.4.0/../../../../avr/lib/avr6/crtatmega2560.o
__vector_17                                       c:/atmel/studio/7.0/toolchain/avr8/avr8-gnu-toolchain/bin/../lib/gcc/avr/5.4.0/../../../../avr/lib/avr6/crtatmega2560.o
__vector_18                                       c:/atmel/studio/7.0/toolchain/avr8/avr8-gnu-toolchain/bin/../lib/gcc/avr/5.4.0/../../../../avr/lib/avr6/crtatmega2560.o
__vector_19                                       c:/atmel/studio/7.0/toolchain/avr8/avr8-gnu-toolchain/bin/../lib/gcc/avr/5.4.0/../../../../avr/lib/avr6/crtatmega2560.o
__vector_2                                        obj\Debug\arduino\WInterrupts.o
                                                  c:/atmel/studio/7.0/toolchain/avr8/avr8-gnu-toolchain/bin/../lib/gcc/avr/5.4.0/../../../../avr/lib/avr6/crtatmega2560.o
__vector_20                                       c:/atmel/studio/7.0/toolchain/avr8/avr8-gnu-toolchain/bin/../lib/gcc/avr/5.4.0/../../../../avr/lib/avr6/crtatmega2560.o
__vector_21                                       c:/atmel/studio/7.0/toolchain/avr8/avr8-gnu-toolchain/bin/../lib/gcc/avr/5.4.0/../../../../avr/lib/avr6/crtatmega2560.o
__vector_22                                       c:/atmel/studio/7.0/toolchain/avr8/avr8-gnu-toolchain/bin/../lib/gcc/avr/5.4.0/../../../../avr/lib/avr6/crtatmega2560.o
__vector_23                                       obj\Debug\arduino\wiring.o
                                                  c:/atmel/studio/7.0/toolchain/avr8/avr8-gnu-toolchain/bin/../lib/gcc/avr/5.4.0/../../../../avr/lib/avr6/crtatmega2560.o
__vector_24                                       c:/atmel/studio/7.0/toolchain/avr8/avr8-gnu-toolchain/bin/../lib/gcc/avr/5.4.0/../../../../avr/lib/avr6/crtatmega2560.o
__vector_25                                       obj\Debug\arduino\HardwareSerial0.o
                                                  c:/atmel/studio/7.0/toolchain/avr8/avr8-gnu-toolchain/bin/../lib/gcc/avr/5.4.0/../../../../avr/lib/avr6/crtatmega2560.o
__vector_26                                       obj\Debug\arduino\HardwareSerial0.o
                                                  c:/atmel/studio/7.0/toolchain/avr8/avr8-gnu-toolchain/bin/../lib/gcc/avr/5.4.0/../../../../avr/lib/avr6/crtatmega2560.o
__vector_27                                       c:/atmel/studio/7.0/toolchain/avr8/avr8-gnu-toolchain/bin/../lib/gcc/avr/5.4.0/../../../../avr/lib/avr6/crtatmega2560.o
__vector_28                                       c:/atmel/studio/7.0/toolchain/avr8/avr8-gnu-toolchain/bin/../lib/gcc/avr/5.4.0/../../../../avr/lib/avr6/crtatmega2560.o
__vector_29                                       c:/atmel/studio/7.0/toolchain/avr8/avr8-gnu-toolchain/bin/../lib/gcc/avr/5.4.0/../../../../avr/lib/avr6/crtatmega2560.o
__vector_3                                        obj\Debug\arduino\WInterrupts.o
                                                  c:/atmel/studio/7.0/toolchain/avr8/avr8-gnu-toolchain/bin/../lib/gcc/avr/5.4.0/../../../../avr/lib/avr6/crtatmega2560.o
__vector_30                                       c:/atmel/studio/7.0/toolchain/avr8/avr8-gnu-toolchain/bin/../lib/gcc/avr/5.4.0/../../../../avr/lib/avr6/crtatmega2560.o
__vector_31                                       c:/atmel/studio/7.0/toolchain/avr8/avr8-gnu-toolchain/bin/../lib/gcc/avr/5.4.0/../../../../avr/lib/avr6/crtatmega2560.o
__vector_32                                       c:/atmel/studio/7.0/toolchain/avr8/avr8-gnu-toolchain/bin/../lib/gcc/avr/5.4.0/../../../../avr/lib/avr6/crtatmega2560.o
__vector_33                                       c:/atmel/studio/7.0/toolchain/avr8/avr8-gnu-toolchain/bin/../lib/gcc/avr/5.4.0/../../../../avr/lib/avr6/crtatmega2560.o
__vector_34                                       c:/atmel/studio/7.0/toolchain/avr8/avr8-gnu-toolchain/bin/../lib/gcc/avr/5.4.0/../../../../avr/lib/avr6/crtatmega2560.o
__vector_35                                       c:/atmel/studio/7.0/toolchain/avr8/avr8-gnu-toolchain/bin/../lib/gcc/avr/5.4.0/../../../../avr/lib/avr6/crtatmega2560.o
__vector_36                                       obj\Debug\arduino\HardwareSerial1.o
                                                  c:/atmel/studio/7.0/toolchain/avr8/avr8-gnu-toolchain/bin/../lib/gcc/avr/5.4.0/../../../../avr/lib/avr6/crtatmega2560.o
__vector_37                                       obj\Debug\arduino\HardwareSerial1.o
                                                  c:/atmel/studio/7.0/toolchain/avr8/avr8-gnu-toolchain/bin/../lib/gcc/avr/5.4.0/../../../../avr/lib/avr6/crtatmega2560.o
__vector_38                                       c:/atmel/studio/7.0/toolchain/avr8/avr8-gnu-toolchain/bin/../lib/gcc/avr/5.4.0/../../../../avr/lib/avr6/crtatmega2560.o
__vector_39                                       c:/atmel/studio/7.0/toolchain/avr8/avr8-gnu-toolchain/bin/../lib/gcc/avr/5.4.0/../../../../avr/lib/avr6/crtatmega2560.o
__vector_4                                        obj\Debug\arduino\WInterrupts.o
                                                  c:/atmel/studio/7.0/toolchain/avr8/avr8-gnu-toolchain/bin/../lib/gcc/avr/5.4.0/../../../../avr/lib/avr6/crtatmega2560.o
__vector_40                                       c:/atmel/studio/7.0/toolchain/avr8/avr8-gnu-toolchain/bin/../lib/gcc/avr/5.4.0/../../../../avr/lib/avr6/crtatmega2560.o
__vector_41                                       c:/atmel/studio/7.0/toolchain/avr8/avr8-gnu-toolchain/bin/../lib/gcc/avr/5.4.0/../../../../avr/lib/avr6/crtatmega2560.o
__vector_42                                       c:/atmel/studio/7.0/toolchain/avr8/avr8-gnu-toolchain/bin/../lib/gcc/avr/5.4.0/../../../../avr/lib/avr6/crtatmega2560.o
__vector_43                                       c:/atmel/studio/7.0/toolchain/avr8/avr8-gnu-toolchain/bin/../lib/gcc/avr/5.4.0/../../../../avr/lib/avr6/crtatmega2560.o
__vector_44                                       c:/atmel/studio/7.0/toolchain/avr8/avr8-gnu-toolchain/bin/../lib/gcc/avr/5.4.0/../../../../avr/lib/avr6/crtatmega2560.o
__vector_45                                       c:/atmel/studio/7.0/toolchain/avr8/avr8-gnu-toolchain/bin/../lib/gcc/avr/5.4.0/../../../../avr/lib/avr6/crtatmega2560.o
__vector_46                                       c:/atmel/studio/7.0/toolchain/avr8/avr8-gnu-toolchain/bin/../lib/gcc/avr/5.4.0/../../../../avr/lib/avr6/crtatmega2560.o
__vector_47                                       c:/atmel/studio/7.0/toolchain/avr8/avr8-gnu-toolchain/bin/../lib/gcc/avr/5.4.0/../../../../avr/lib/avr6/crtatmega2560.o
__vector_48                                       c:/atmel/studio/7.0/toolchain/avr8/avr8-gnu-toolchain/bin/../lib/gcc/avr/5.4.0/../../../../avr/lib/avr6/crtatmega2560.o
__vector_49                                       c:/atmel/studio/7.0/toolchain/avr8/avr8-gnu-toolchain/bin/../lib/gcc/avr/5.4.0/../../../../avr/lib/avr6/crtatmega2560.o
__vector_5                                        obj\Debug\arduino\WInterrupts.o
                                                  c:/atmel/studio/7.0/toolchain/avr8/avr8-gnu-toolchain/bin/../lib/gcc/avr/5.4.0/../../../../avr/lib/avr6/crtatmega2560.o
__vector_50                                       c:/atmel/studio/7.0/toolchain/avr8/avr8-gnu-toolchain/bin/../lib/gcc/avr/5.4.0/../../../../avr/lib/avr6/crtatmega2560.o
__vector_51                                       obj\Debug\arduino\HardwareSerial2.o
                                                  c:/atmel/studio/7.0/toolchain/avr8/avr8-gnu-toolchain/bin/../lib/gcc/avr/5.4.0/../../../../avr/lib/avr6/crtatmega2560.o
__vector_52                                       obj\Debug\arduino\HardwareSerial2.o
                                                  c:/atmel/studio/7.0/toolchain/avr8/avr8-gnu-toolchain/bin/../lib/gcc/avr/5.4.0/../../../../avr/lib/avr6/crtatmega2560.o
__vector_53                                       c:/atmel/studio/7.0/toolchain/avr8/avr8-gnu-toolchain/bin/../lib/gcc/avr/5.4.0/../../../../avr/lib/avr6/crtatmega2560.o
__vector_54                                       obj\Debug\arduino\HardwareSerial3.o
                                                  c:/atmel/studio/7.0/toolchain/avr8/avr8-gnu-toolchain/bin/../lib/gcc/avr/5.4.0/../../../../avr/lib/avr6/crtatmega2560.o
__vector_55                                       obj\Debug\arduino\HardwareSerial3.o
                                                  c:/atmel/studio/7.0/toolchain/avr8/avr8-gnu-toolchain/bin/../lib/gcc/avr/5.4.0/../../../../avr/lib/avr6/crtatmega2560.o
__vector_56                                       c:/atmel/studio/7.0/toolchain/avr8/avr8-gnu-toolchain/bin/../lib/gcc/avr/5.4.0/../../../../avr/lib/avr6/crtatmega2560.o
__vector_6                                        obj\Debug\arduino\WInterrupts.o
                                                  c:/atmel/studio/7.0/toolchain/avr8/avr8-gnu-toolchain/bin/../lib/gcc/avr/5.4.0/../../../../avr/lib/avr6/crtatmega2560.o
__vector_7                                        obj\Debug\arduino\WInterrupts.o
                                                  c:/atmel/studio/7.0/toolchain/avr8/avr8-gnu-toolchain/bin/../lib/gcc/avr/5.4.0/../../../../avr/lib/avr6/crtatmega2560.o
__vector_8                                        obj\Debug\arduino\WInterrupts.o
                                                  c:/atmel/studio/7.0/toolchain/avr8/avr8-gnu-toolchain/bin/../lib/gcc/avr/5.4.0/../../../../avr/lib/avr6/crtatmega2560.o
__vector_9                                        c:/atmel/studio/7.0/toolchain/avr8/avr8-gnu-toolchain/bin/../lib/gcc/avr/5.4.0/../../../../avr/lib/avr6/crtatmega2560.o
__vector_default                                  c:/atmel/studio/7.0/toolchain/avr8/avr8-gnu-toolchain/bin/../lib/gcc/avr/5.4.0/../../../../avr/lib/avr6/crtatmega2560.o
__vectors                                         c:/atmel/studio/7.0/toolchain/avr8/avr8-gnu-toolchain/bin/../lib/gcc/avr/5.4.0/../../../../avr/lib/avr6/crtatmega2560.o
_exit                                             c:/atmel/studio/7.0/toolchain/avr8/avr8-gnu-toolchain/bin/../lib/gcc/avr/5.4.0/avr6\libgcc.a(_exit.o)
                                                  c:/atmel/studio/7.0/toolchain/avr8/avr8-gnu-toolchain/bin/../lib/gcc/avr/5.4.0/../../../../avr/lib/avr6\libc.a(abort.o)
abort                                             c:/atmel/studio/7.0/toolchain/avr8/avr8-gnu-toolchain/bin/../lib/gcc/avr/5.4.0/../../../../avr/lib/avr6\libc.a(abort.o)
                                                  obj\Debug\arduino\abi.o
analogRead                                        obj\Debug\arduino\wiring_analog.o
analogReference                                   obj\Debug\arduino\wiring_analog.o
analogWrite                                       obj\Debug\arduino\wiring_analog.o
analog_reference                                  obj\Debug\arduino\wiring_analog.o
atexit                                            obj\Debug\arduino\main.o
atof                                              c:/atmel/studio/7.0/toolchain/avr8/avr8-gnu-toolchain/bin/../lib/gcc/avr/5.4.0/../../../../avr/lib/avr6\libc.a(atof.o)
                                                  obj\Debug\arduino\WString.o
atol                                              c:/atmel/studio/7.0/toolchain/avr8/avr8-gnu-toolchain/bin/../lib/gcc/avr/5.4.0/../../../../avr/lib/avr6\libc.a(atol.o)
                                                  obj\Debug\arduino\WString.o
attachInterrupt                                   obj\Debug\arduino\WInterrupts.o
countPulseASM                                     obj\Debug\arduino\wiring_pulse.o
delay                                             obj\Debug\arduino\wiring.o
                                                  obj\Debug\SmartHome.o
delayMicroseconds                                 obj\Debug\arduino\wiring.o
detachInterrupt                                   obj\Debug\arduino\WInterrupts.o
digitalRead                                       obj\Debug\arduino\wiring_digital.o
                                                  obj\Debug\arduino\wiring_shift.o
digitalWrite                                      obj\Debug\arduino\wiring_digital.o
                                                  obj\Debug\arduino\wiring_shift.o
                                                  obj\Debug\arduino\wiring_analog.o
                                                  obj\Debug\arduino\Tone.o
digital_pin_to_bit_mask_PGM                       obj\Debug\arduino\wiring_digital.o
                                                  obj\Debug\arduino\wiring_pulse.o
                                                  obj\Debug\arduino\Tone.o
digital_pin_to_port_PGM                           obj\Debug\arduino\wiring_digital.o
                                                  obj\Debug\arduino\wiring_pulse.o
                                                  obj\Debug\arduino\Tone.o
digital_pin_to_timer_PGM                          obj\Debug\arduino\wiring_digital.o
                                                  obj\Debug\arduino\wiring_analog.o
dtoa_prf                                          c:/atmel/studio/7.0/toolchain/avr8/avr8-gnu-toolchain/bin/../lib/gcc/avr/5.4.0/../../../../avr/lib/avr6\libc.a(dtoa_prf.o)
                                                  c:/atmel/studio/7.0/toolchain/avr8/avr8-gnu-toolchain/bin/../lib/gcc/avr/5.4.0/../../../../avr/lib/avr6\libc.a(dtostrf.o)
dtostrf                                           c:/atmel/studio/7.0/toolchain/avr8/avr8-gnu-toolchain/bin/../lib/gcc/avr/5.4.0/../../../../avr/lib/avr6\libc.a(dtostrf.o)
                                                  obj\Debug\arduino\WString.o
errno                                             c:/atmel/studio/7.0/toolchain/avr8/avr8-gnu-toolchain/bin/../lib/gcc/avr/5.4.0/../../../../avr/lib/avr6\libc.a(errno.o)
                                                  c:/atmel/studio/7.0/toolchain/avr8/avr8-gnu-toolchain/bin/../lib/gcc/avr/5.4.0/../../../../avr/lib/avr6\libc.a(strtod.o)
exit                                              c:/atmel/studio/7.0/toolchain/avr8/avr8-gnu-toolchain/bin/../lib/gcc/avr/5.4.0/avr6\libgcc.a(_exit.o)
                                                  c:/atmel/studio/7.0/toolchain/avr8/avr8-gnu-toolchain/bin/../lib/gcc/avr/5.4.0/../../../../avr/lib/avr6/crtatmega2560.o
fputc                                             c:/atmel/studio/7.0/toolchain/avr8/avr8-gnu-toolchain/bin/../lib/gcc/avr/5.4.0/../../../../avr/lib/avr6\libc.a(fputc.o)
                                                  c:/atmel/studio/7.0/toolchain/avr8/avr8-gnu-toolchain/bin/../lib/gcc/avr/5.4.0/../../../../avr/lib/avr6\libc.a(vfprintf_std.o)
free                                              c:/atmel/studio/7.0/toolchain/avr8/avr8-gnu-toolchain/bin/../lib/gcc/avr/5.4.0/../../../../avr/lib/avr6\libc.a(malloc.o)
                                                  c:/atmel/studio/7.0/toolchain/avr8/avr8-gnu-toolchain/bin/../lib/gcc/avr/5.4.0/../../../../avr/lib/avr6\libc.a(realloc.o)
                                                  obj\Debug\arduino\WString.o
                                                  obj\Debug\arduino\new.o
init                                              obj\Debug\arduino\wiring.o
                                                  obj\Debug\arduino\main.o
initVariant                                       obj\Debug\arduino\main.o
input                                             obj\Debug\Logic.o
isspace                                           c:/atmel/studio/7.0/toolchain/avr8/avr8-gnu-toolchain/bin/../lib/gcc/avr/5.4.0/../../../../avr/lib/avr6\libc.a(isspace.o)
                                                  c:/atmel/studio/7.0/toolchain/avr8/avr8-gnu-toolchain/bin/../lib/gcc/avr/5.4.0/../../../../avr/lib/avr6\libc.a(strtod.o)
                                                  obj\Debug\arduino\WString.o
itoa                                              c:/atmel/studio/7.0/toolchain/avr8/avr8-gnu-toolchain/bin/../lib/gcc/avr/5.4.0/../../../../avr/lib/avr6\libc.a(itoa.o)
                                                  obj\Debug\arduino\WString.o
loop                                              obj\Debug\SmartHome.o
                                                  obj\Debug\arduino\main.o
ltoa                                              c:/atmel/studio/7.0/toolchain/avr8/avr8-gnu-toolchain/bin/../lib/gcc/avr/5.4.0/../../../../avr/lib/avr6\libc.a(ltoa.o)
                                                  obj\Debug\arduino\WString.o
main                                              obj\Debug\arduino\main.o
                                                  c:/atmel/studio/7.0/toolchain/avr8/avr8-gnu-toolchain/bin/../lib/gcc/avr/5.4.0/../../../../avr/lib/avr6/crtatmega2560.o
malloc                                            c:/atmel/studio/7.0/toolchain/avr8/avr8-gnu-toolchain/bin/../lib/gcc/avr/5.4.0/../../../../avr/lib/avr6\libc.a(malloc.o)
                                                  c:/atmel/studio/7.0/toolchain/avr8/avr8-gnu-toolchain/bin/../lib/gcc/avr/5.4.0/../../../../avr/lib/avr6\libc.a(realloc.o)
                                                  obj\Debug\arduino\new.o
memcmp                                            c:/atmel/studio/7.0/toolchain/avr8/avr8-gnu-toolchain/bin/../lib/gcc/avr/5.4.0/../../../../avr/lib/avr6\libc.a(memcmp.o)
                                                  obj\Debug\arduino\IPAddress.o
memcpy                                            c:/atmel/studio/7.0/toolchain/avr8/avr8-gnu-toolchain/bin/../lib/gcc/avr/5.4.0/../../../../avr/lib/avr6\libc.a(memcpy.o)
                                                  c:/atmel/studio/7.0/toolchain/avr8/avr8-gnu-toolchain/bin/../lib/gcc/avr/5.4.0/../../../../avr/lib/avr6\libc.a(memmove.o)
                                                  c:/atmel/studio/7.0/toolchain/avr8/avr8-gnu-toolchain/bin/../lib/gcc/avr/5.4.0/../../../../avr/lib/avr6\libc.a(realloc.o)
                                                  obj\Debug\arduino\WString.o
                                                  obj\Debug\arduino\IPAddress.o
memmove                                           c:/atmel/studio/7.0/toolchain/avr8/avr8-gnu-toolchain/bin/../lib/gcc/avr/5.4.0/../../../../avr/lib/avr6\libc.a(memmove.o)
                                                  obj\Debug\arduino\WString.o
micros                                            obj\Debug\arduino\wiring.o
                                                  obj\Debug\arduino\wiring_pulse.o
millis                                            obj\Debug\arduino\wiring.o
                                                  obj\Debug\arduino\Stream.o
pinMode                                           obj\Debug\arduino\wiring_digital.o
                                                  obj\Debug\arduino\wiring_analog.o
                                                  obj\Debug\arduino\Tone.o
port_to_input_PGM                                 obj\Debug\arduino\wiring_digital.o
                                                  obj\Debug\arduino\wiring_pulse.o
port_to_mode_PGM                                  obj\Debug\arduino\wiring_digital.o
port_to_output_PGM                                obj\Debug\arduino\wiring_digital.o
                                                  obj\Debug\arduino\Tone.o
printf                                            c:/atmel/studio/7.0/toolchain/avr8/avr8-gnu-toolchain/bin/../lib/gcc/avr/5.4.0/../../../../avr/lib/avr6\libc.a(printf.o)
                                                  obj\Debug\SWOutputs.o
pulseIn                                           obj\Debug\arduino\wiring_pulse.o
pulseInLong                                       obj\Debug\arduino\wiring_pulse.o
random                                            c:/atmel/studio/7.0/toolchain/avr8/avr8-gnu-toolchain/bin/../lib/gcc/avr/5.4.0/../../../../avr/lib/avr6\libc.a(random.o)
                                                  obj\Debug\arduino\WMath.o
random_r                                          c:/atmel/studio/7.0/toolchain/avr8/avr8-gnu-toolchain/bin/../lib/gcc/avr/5.4.0/../../../../avr/lib/avr6\libc.a(random.o)
realloc                                           c:/atmel/studio/7.0/toolchain/avr8/avr8-gnu-toolchain/bin/../lib/gcc/avr/5.4.0/../../../../avr/lib/avr6\libc.a(realloc.o)
                                                  obj\Debug\arduino\WString.o
setup                                             obj\Debug\SmartHome.o
                                                  obj\Debug\arduino\main.o
shiftIn                                           obj\Debug\arduino\wiring_shift.o
shiftOut                                          obj\Debug\arduino\wiring_shift.o
srandom                                           c:/atmel/studio/7.0/toolchain/avr8/avr8-gnu-toolchain/bin/../lib/gcc/avr/5.4.0/../../../../avr/lib/avr6\libc.a(random.o)
                                                  obj\Debug\arduino\WMath.o
strchr                                            c:/atmel/studio/7.0/toolchain/avr8/avr8-gnu-toolchain/bin/../lib/gcc/avr/5.4.0/../../../../avr/lib/avr6\libc.a(strchr.o)
                                                  obj\Debug\arduino\WString.o
strcmp                                            c:/atmel/studio/7.0/toolchain/avr8/avr8-gnu-toolchain/bin/../lib/gcc/avr/5.4.0/../../../../avr/lib/avr6\libc.a(strcmp.o)
                                                  obj\Debug\arduino\WString.o
strcpy                                            c:/atmel/studio/7.0/toolchain/avr8/avr8-gnu-toolchain/bin/../lib/gcc/avr/5.4.0/../../../../avr/lib/avr6\libc.a(strcpy.o)
                                                  obj\Debug\arduino\WString.o
strcpy_P                                          c:/atmel/studio/7.0/toolchain/avr8/avr8-gnu-toolchain/bin/../lib/gcc/avr/5.4.0/../../../../avr/lib/avr6\libc.a(strcpy_P.o)
                                                  obj\Debug\arduino\WString.o
strlen                                            c:/atmel/studio/7.0/toolchain/avr8/avr8-gnu-toolchain/bin/../lib/gcc/avr/5.4.0/../../../../avr/lib/avr6\libc.a(strlen.o)
                                                  obj\Debug\arduino\WString.o
                                                  obj\Debug\arduino\Stream.o
                                                  obj\Debug\arduino\Print.o
strncasecmp_P                                     c:/atmel/studio/7.0/toolchain/avr8/avr8-gnu-toolchain/bin/../lib/gcc/avr/5.4.0/../../../../avr/lib/avr6\libc.a(strncasecmp_P.o)
                                                  c:/atmel/studio/7.0/toolchain/avr8/avr8-gnu-toolchain/bin/../lib/gcc/avr/5.4.0/../../../../avr/lib/avr6\libc.a(strtod.o)
strncmp                                           c:/atmel/studio/7.0/toolchain/avr8/avr8-gnu-toolchain/bin/../lib/gcc/avr/5.4.0/../../../../avr/lib/avr6\libc.a(strncmp.o)
                                                  obj\Debug\arduino\WString.o
strncpy                                           c:/atmel/studio/7.0/toolchain/avr8/avr8-gnu-toolchain/bin/../lib/gcc/avr/5.4.0/../../../../avr/lib/avr6\libc.a(strncpy.o)
                                                  obj\Debug\arduino\WString.o
strnlen                                           c:/atmel/studio/7.0/toolchain/avr8/avr8-gnu-toolchain/bin/../lib/gcc/avr/5.4.0/../../../../avr/lib/avr6\libc.a(strnlen.o)
                                                  c:/atmel/studio/7.0/toolchain/avr8/avr8-gnu-toolchain/bin/../lib/gcc/avr/5.4.0/../../../../avr/lib/avr6\libc.a(vfprintf_std.o)
strnlen_P                                         c:/atmel/studio/7.0/toolchain/avr8/avr8-gnu-toolchain/bin/../lib/gcc/avr/5.4.0/../../../../avr/lib/avr6\libc.a(strnlen_P.o)
                                                  c:/atmel/studio/7.0/toolchain/avr8/avr8-gnu-toolchain/bin/../lib/gcc/avr/5.4.0/../../../../avr/lib/avr6\libc.a(vfprintf_std.o)
strrchr                                           c:/atmel/studio/7.0/toolchain/avr8/avr8-gnu-toolchain/bin/../lib/gcc/avr/5.4.0/../../../../avr/lib/avr6\libc.a(strrchr.o)
                                                  obj\Debug\arduino\WString.o
strrev                                            c:/atmel/studio/7.0/toolchain/avr8/avr8-gnu-toolchain/bin/../lib/gcc/avr/5.4.0/../../../../avr/lib/avr6\libc.a(strrev.o)
                                                  c:/atmel/studio/7.0/toolchain/avr8/avr8-gnu-toolchain/bin/../lib/gcc/avr/5.4.0/../../../../avr/lib/avr6\libc.a(utoa_ncheck.o)
                                                  c:/atmel/studio/7.0/toolchain/avr8/avr8-gnu-toolchain/bin/../lib/gcc/avr/5.4.0/../../../../avr/lib/avr6\libc.a(ultoa_ncheck.o)
strstr                                            c:/atmel/studio/7.0/toolchain/avr8/avr8-gnu-toolchain/bin/../lib/gcc/avr/5.4.0/../../../../avr/lib/avr6\libc.a(strstr.o)
                                                  obj\Debug\arduino\WString.o
strtod                                            c:/atmel/studio/7.0/toolchain/avr8/avr8-gnu-toolchain/bin/../lib/gcc/avr/5.4.0/../../../../avr/lib/avr6\libc.a(strtod.o)
                                                  c:/atmel/studio/7.0/toolchain/avr8/avr8-gnu-toolchain/bin/../lib/gcc/avr/5.4.0/../../../../avr/lib/avr6\libc.a(atof.o)
timer0_millis                                     obj\Debug\arduino\wiring.o
timer0_overflow_count                             obj\Debug\arduino\wiring.o
timer0_pin_mask                                   obj\Debug\arduino\Tone.o
timer0_pin_port                                   obj\Debug\arduino\Tone.o
timer0_toggle_count                               obj\Debug\arduino\Tone.o
timer1_pin_mask                                   obj\Debug\arduino\Tone.o
timer1_pin_port                                   obj\Debug\arduino\Tone.o
timer1_toggle_count                               obj\Debug\arduino\Tone.o
timer2_pin_mask                                   obj\Debug\arduino\Tone.o
timer2_pin_port                                   obj\Debug\arduino\Tone.o
timer2_toggle_count                               obj\Debug\arduino\Tone.o
timer3_pin_mask                                   obj\Debug\arduino\Tone.o
timer3_pin_port                                   obj\Debug\arduino\Tone.o
timer3_toggle_count                               obj\Debug\arduino\Tone.o
timer4_pin_mask                                   obj\Debug\arduino\Tone.o
timer4_pin_port                                   obj\Debug\arduino\Tone.o
timer4_toggle_count                               obj\Debug\arduino\Tone.o
timer5_pin_mask                                   obj\Debug\arduino\Tone.o
timer5_pin_port                                   obj\Debug\arduino\Tone.o
timer5_toggle_count                               obj\Debug\arduino\Tone.o
tolower                                           c:/atmel/studio/7.0/toolchain/avr8/avr8-gnu-toolchain/bin/../lib/gcc/avr/5.4.0/../../../../avr/lib/avr6\libc.a(tolower.o)
                                                  obj\Debug\arduino\WString.o
toupper                                           c:/atmel/studio/7.0/toolchain/avr8/avr8-gnu-toolchain/bin/../lib/gcc/avr/5.4.0/../../../../avr/lib/avr6\libc.a(toupper.o)
                                                  obj\Debug\arduino\WString.o
ultoa                                             c:/atmel/studio/7.0/toolchain/avr8/avr8-gnu-toolchain/bin/../lib/gcc/avr/5.4.0/../../../../avr/lib/avr6\libc.a(ultoa.o)
                                                  obj\Debug\arduino\WString.o
utoa                                              c:/atmel/studio/7.0/toolchain/avr8/avr8-gnu-toolchain/bin/../lib/gcc/avr/5.4.0/../../../../avr/lib/avr6\libc.a(utoa.o)
                                                  obj\Debug\arduino\WString.o
vfprintf                                          c:/atmel/studio/7.0/toolchain/avr8/avr8-gnu-toolchain/bin/../lib/gcc/avr/5.4.0/../../../../avr/lib/avr6\libc.a(vfprintf_std.o)
                                                  c:/atmel/studio/7.0/toolchain/avr8/avr8-gnu-toolchain/bin/../lib/gcc/avr/5.4.0/../../../../avr/lib/avr6\libc.a(printf.o)
yield                                             obj\Debug\arduino\hooks.o
                                                  obj\Debug\arduino\wiring.o
